MODULE Linux x86_64 B0E1FC01EF48E39CAF5C881D2DF0C3840 overflow
FUNC 1e20 1a 0 __gnu_cxx::__exchange_and_add_dispatch
FUNC 1e3a 1a 0 __gnu_cxx::__exchange_and_add_dispatch
FUNC 1e54 27 0 sys_close
FUNC 1e7c 20 0 google_breakpad::ProcCpuInfoReader::GetValueAndLen(unsigned long*)
FUNC 1e9c 20 0 google_breakpad::TypedMDRVA<MDRawDirectory>::CopyIndex(unsigned int, MDRawDirectory*)
FUNC 1ebc 20 0 google_breakpad::TypedMDRVA<unsigned int>::AllocateObjectAndArray(unsigned long, unsigned long)
FUNC 1edc 20 0 google_breakpad::TypedMDRVA<unsigned int>::CopyIndexAfterObject(unsigned int, void const*, unsigned long)
FUNC 1efc 1ac 0 MinidumpWriter::WriteFile
FUNC 20a8 3f 0 MinidumpWriter::WriteProcFile
FUNC 20e8 20 0 google_breakpad::TypedMDRVA<MDString>::CopyIndexAfterObject(unsigned int, void const*, unsigned long)
FUNC 2108 20 0 google_breakpad::TypedMDRVA<MDString>::AllocateObjectAndArray(unsigned long, unsigned long)
FUNC 2128 20 0 google_breakpad::LineReader::PopLine(unsigned int)
FUNC 2150 279 0 main
FUNC 24d0 2c 0 MinidumpCallback(google_breakpad::MinidumpDescriptor const&, void*, bool)
FUNC 2500 3e 0 overflow(char const*)
FUNC 2540 49 0 stack_smash(char const*)
FUNC 2590 12 0 std::_Sp_counted_base<(__gnu_cxx::_Lock_policy)2>::_M_destroy()
FUNC 25b0 8 0 std::_Sp_counted_base<(__gnu_cxx::_Lock_policy)2>::~_Sp_counted_base()
FUNC 25c0 8 0 std::_Sp_counted_ptr_inplace<google_breakpad::ExceptionHandler, std::allocator<google_breakpad::ExceptionHandler>, (__gnu_cxx::_Lock_policy)2>::~_Sp_counted_ptr_inplace()
FUNC 25d0 c 0 std::_Sp_counted_base<(__gnu_cxx::_Lock_policy)2>::~_Sp_counted_base()
FUNC 25e0 c 0 std::_Sp_counted_ptr_inplace<google_breakpad::ExceptionHandler, std::allocator<google_breakpad::ExceptionHandler>, (__gnu_cxx::_Lock_policy)2>::~_Sp_counted_ptr_inplace()
FUNC 25f0 c 0 std::_Sp_counted_ptr_inplace<google_breakpad::ExceptionHandler, std::allocator<google_breakpad::ExceptionHandler>, (__gnu_cxx::_Lock_policy)2>::_M_destroy()
FUNC 2600 9 0 std::_Sp_counted_ptr_inplace<google_breakpad::ExceptionHandler, std::allocator<google_breakpad::ExceptionHandler>, (__gnu_cxx::_Lock_policy)2>::_M_dispose()
FUNC 2610 35 0 std::_Sp_counted_ptr_inplace<google_breakpad::ExceptionHandler, std::allocator<google_breakpad::ExceptionHandler>, (__gnu_cxx::_Lock_policy)2>::_M_get_deleter(std::type_info const&)
FUNC 2650 90 0 google_breakpad::MinidumpDescriptor::~MinidumpDescriptor()
FUNC 26e0 92 0 std::_Sp_counted_base<(__gnu_cxx::_Lock_policy)2>::_M_release()
FUNC 2780 f5 0 google_breakpad::ExceptionHandler::InstallHandlersLocked()
FUNC 2880 8b 0 google_breakpad::ExceptionHandler::RestoreHandlersLocked()
FUNC 2910 104 0 google_breakpad::ExceptionHandler::SendContinueSignalToChild()
FUNC 2a20 467 0 google_breakpad::ExceptionHandler::GenerateDump(google_breakpad::ExceptionHandler::CrashContext*)
FUNC 2e90 1a6 0 google_breakpad::ExceptionHandler::HandleSignal(int, siginfo*, void*)
FUNC 3040 68 0 google_breakpad::ExceptionHandler::HandleSignal(int, siginfo*, void*)
FUNC 30b0 56 0 google_breakpad::ExceptionHandler::SimulateSignalDelivery(int)
FUNC 3110 18b 0 google_breakpad::ExceptionHandler::SignalHandler(int, siginfo*, void*)
FUNC 32a0 e0 0 google_breakpad::ExceptionHandler::WaitForContinueSignal()
FUNC 3380 58 0 google_breakpad::ExceptionHandler::DoDump(int, void const*, unsigned long)
FUNC 33e0 28 0 google_breakpad::ExceptionHandler::ThreadEntry(void*)
FUNC 3410 153 0 google_breakpad::ExceptionHandler::WriteMinidump()
FUNC 3570 cf 0 google_breakpad::ExceptionHandler::AddMappingInfo(std::string const&, unsigned char const*, unsigned long, unsigned long, unsigned long)
FUNC 3640 5d 0 google_breakpad::ExceptionHandler::RegisterAppMemory(void*, unsigned long)
FUNC 36a0 31 0 google_breakpad::ExceptionHandler::UnregisterAppMemory(void*)
FUNC 36e0 179 0 google_breakpad::ExceptionHandler::WriteMinidumpForChild(int, int, std::string const&, bool (*)(google_breakpad::MinidumpDescriptor const&, void*, bool), void*)
FUNC 3860 336 0 google_breakpad::ExceptionHandler::~ExceptionHandler()
FUNC 3ba0 31c 0 google_breakpad::ExceptionHandler::ExceptionHandler(google_breakpad::MinidumpDescriptor const&, bool (*)(void*), bool (*)(google_breakpad::MinidumpDescriptor const&, void*, bool), void*, bool, int)
FUNC 3ec0 167 0 google_breakpad::ExceptionHandler::WriteMinidump(std::string const&, bool (*)(google_breakpad::MinidumpDescriptor const&, void*, bool), void*)
FUNC 4030 2f 0 std::_List_base<google_breakpad::MappingEntry, std::allocator<google_breakpad::MappingEntry> >::_M_clear()
FUNC 4060 2f 0 std::_List_base<google_breakpad::AppMemory, std::allocator<google_breakpad::AppMemory> >::_M_clear()
FUNC 4090 1ba 0 std::vector<google_breakpad::ExceptionHandler*, std::allocator<google_breakpad::ExceptionHandler*> >::_M_insert_aux(__gnu_cxx::__normal_iterator<google_breakpad::ExceptionHandler**, std::vector<google_breakpad::ExceptionHandler*, std::allocator<google_breakpad::ExceptionHandler*> > >, google_breakpad::ExceptionHandler* const&)
FUNC 4250 7d 0 google_breakpad::MinidumpDescriptor::MinidumpDescriptor(google_breakpad::MinidumpDescriptor const&)
FUNC 42d0 232 0 google_breakpad::MinidumpDescriptor::UpdatePath()
FUNC 4510 85 0 google_breakpad::MinidumpDescriptor::operator=(google_breakpad::MinidumpDescriptor const&)
FUNC 45a0 38 0 logger::write(char const*, unsigned long)
FUNC 45e0 5d 0 MinidumpWriter::~MinidumpWriter
FUNC 4640 1e 0 google_breakpad::TypedMDRVA<MDRawDirectory>::CopyIndex(unsigned int, MDRawDirectory*)
FUNC 4660 15e5 0 MinidumpWriter::WriteThreadListStream
FUNC 5c50 1d12 0 MinidumpWriter::Dump
FUNC 7970 1ac 0 google_breakpad::WriteMinidump(char const*, std::list<google_breakpad::MappingEntry, std::allocator<google_breakpad::MappingEntry> > const&, std::list<google_breakpad::AppMemory, std::allocator<google_breakpad::AppMemory> > const&, google_breakpad::LinuxDumper*)
FUNC 7b20 2ce 0 WriteMinidumpImpl
FUNC 7df0 2b 0 google_breakpad::WriteMinidump(int, long, int, void const*, unsigned long, std::list<google_breakpad::MappingEntry, std::allocator<google_breakpad::MappingEntry> > const&, std::list<google_breakpad::AppMemory, std::allocator<google_breakpad::AppMemory> > const&)
FUNC 7e20 2c 0 google_breakpad::WriteMinidump(char const*, long, int, void const*, unsigned long, std::list<google_breakpad::MappingEntry, std::allocator<google_breakpad::MappingEntry> > const&, std::list<google_breakpad::AppMemory, std::allocator<google_breakpad::AppMemory> > const&)
FUNC 7e50 2a 0 google_breakpad::WriteMinidump(int, int, void const*, unsigned long, std::list<google_breakpad::MappingEntry, std::allocator<google_breakpad::MappingEntry> > const&, std::list<google_breakpad::AppMemory, std::allocator<google_breakpad::AppMemory> > const&)
FUNC 7e80 2b 0 google_breakpad::WriteMinidump(char const*, int, void const*, unsigned long, std::list<google_breakpad::MappingEntry, std::allocator<google_breakpad::MappingEntry> > const&, std::list<google_breakpad::AppMemory, std::allocator<google_breakpad::AppMemory> > const&)
FUNC 7eb0 9a 0 google_breakpad::WriteMinidump(int, int, void const*, unsigned long)
FUNC 7f50 9b 0 google_breakpad::WriteMinidump(char const*, int, void const*, unsigned long)
FUNC 7ff0 26a 0 google_breakpad::WriteMinidump(char const*, int, int)
FUNC 8260 153 0 google_breakpad::PageAllocator::Alloc(unsigned int)
FUNC 83c0 248 0 google_breakpad::ProcCpuInfoReader::GetNextField(char const**)
FUNC 8610 22 0 google_breakpad::TypedMDRVA<unsigned int>::~TypedMDRVA()
FUNC 8640 22 0 google_breakpad::TypedMDRVA<MDRawContextAMD64>::~TypedMDRVA()
FUNC 8670 22 0 google_breakpad::TypedMDRVA<MDRawLinkMap>::~TypedMDRVA()
FUNC 86a0 22 0 google_breakpad::TypedMDRVA<MDRawDebug>::~TypedMDRVA()
FUNC 86d0 229 0 std::vector<MDMemoryDescriptor, google_breakpad::PageStdAllocator<MDMemoryDescriptor> >::reserve(unsigned long)
FUNC 8900 357 0 std::vector<MDMemoryDescriptor, google_breakpad::PageStdAllocator<MDMemoryDescriptor> >::_M_insert_aux(__gnu_cxx::__normal_iterator<MDMemoryDescriptor*, std::vector<MDMemoryDescriptor, google_breakpad::PageStdAllocator<MDMemoryDescriptor> > >, MDMemoryDescriptor const&)
FUNC 8c60 17f 0 char* std::vector<char, google_breakpad::PageStdAllocator<char> >::_M_allocate_and_copy<char*>(unsigned long, char*, char*)
FUNC 8de0 3cd 0 std::vector<char, google_breakpad::PageStdAllocator<char> >::_M_fill_insert(__gnu_cxx::__normal_iterator<char*, std::vector<char, google_breakpad::PageStdAllocator<char> > >, unsigned long, char const&)
FUNC 91b0 1a 0 google_breakpad::MinidumpFileWriter::MinidumpFileWriter()
FUNC 91d0 87 0 google_breakpad::MinidumpFileWriter::Open(char const*)
FUNC 9260 2c 0 google_breakpad::MinidumpFileWriter::SetFile(int)
FUNC 9290 78 0 google_breakpad::MinidumpFileWriter::Close()
FUNC 9310 15 0 google_breakpad::MinidumpFileWriter::~MinidumpFileWriter()
FUNC 9330 d6 0 google_breakpad::MinidumpFileWriter::Allocate(unsigned long)
FUNC 9410 fa 0 google_breakpad::MinidumpFileWriter::Copy(unsigned int, void const*, long)
FUNC 9510 a8 0 google_breakpad::MinidumpFileWriter::CopyStringToMDString(wchar_t const*, unsigned int, google_breakpad::TypedMDRVA<MDString>*)
FUNC 95c0 aa 0 google_breakpad::MinidumpFileWriter::CopyStringToMDString(char const*, unsigned int, google_breakpad::TypedMDRVA<MDString>*)
FUNC 9670 41 0 google_breakpad::UntypedMDRVA::Allocate(unsigned long)
FUNC 96c0 88 0 google_breakpad::UntypedMDRVA::Copy(unsigned int, void const*, unsigned long)
FUNC 9750 c4 0 google_breakpad::MinidumpFileWriter::WriteMemory(void const*, unsigned long, MDMemoryDescriptor*)
FUNC 9820 5 0 google_breakpad::MinidumpFileWriter::WriteString(char const*, unsigned int, MDLocationDescriptor*)
FUNC 9830 5 0 google_breakpad::MinidumpFileWriter::WriteString(wchar_t const*, unsigned int, MDLocationDescriptor*)
FUNC 9840 22 0 google_breakpad::TypedMDRVA<MDString>::~TypedMDRVA()
FUNC 9870 1e8 0 bool google_breakpad::MinidumpFileWriter::WriteStringCore<char>(char const*, unsigned int, MDLocationDescriptor*)
FUNC 9a60 1e8 0 bool google_breakpad::MinidumpFileWriter::WriteStringCore<wchar_t>(wchar_t const*, unsigned int, MDLocationDescriptor*)
FUNC 9c50 78 0 google_breakpad::UTF8ToUTF16Char(char const*, int, unsigned short*)
FUNC 9cd0 56 0 google_breakpad::UTF32ToUTF16Char(wchar_t, unsigned short*)
FUNC 9d30 147 0 google_breakpad::UTF16ToUTF8(std::vector<unsigned short, std::allocator<unsigned short> > const&, bool)
FUNC 9e80 e3 0 google_breakpad::UTF8ToUTF16(char const*, std::vector<unsigned short, std::allocator<unsigned short> >*)
FUNC 9f70 e3 0 google_breakpad::UTF32ToUTF16(wchar_t const*, std::vector<unsigned short, std::allocator<unsigned short> >*)
FUNC a060 295 0 std::vector<unsigned short, std::allocator<unsigned short> >::_M_fill_insert(__gnu_cxx::__normal_iterator<unsigned short*, std::vector<unsigned short, std::allocator<unsigned short> > >, unsigned long, unsigned short const&)
FUNC a300 73 0 CreateGUID(MDGUID*)
FUNC a380 ad 0 GUIDToString(MDGUID const*, char*, int)
FUNC a430 16 0 GUIDGenerator::InitOnceImpl()
FUNC a450 1e 0 my_strlen
FUNC a470 33 0 my_strcmp
FUNC a4b0 56 0 my_strncmp
FUNC a510 54 0 my_strtoui
FUNC a570 36 0 my_uint_len
FUNC a5b0 43 0 my_uitos
FUNC a600 42 0 my_strchr
FUNC a650 26 0 my_strrchr
FUNC a680 32 0 my_memchr
FUNC a6c0 64 0 my_read_hex_ptr
FUNC a730 3a 0 my_read_decimal_ptr
FUNC a770 1e 0 my_memset
FUNC a790 38 0 my_strlcpy
FUNC a7d0 3e 0 my_strlcat
FUNC a810 4e 0 my_isspace
FUNC a860 1aa 0 google_breakpad::CrashGenerationClient::RequestDump(void const*, unsigned long)
FUNC aa10 1c 0 google_breakpad::CrashGenerationClient::TryCreate(int)
FUNC aa30 67 0 google_breakpad::LinuxDumper::~LinuxDumper()
FUNC aaa0 12 0 google_breakpad::LinuxDumper::~LinuxDumper()
FUNC aac0 105 0 google_breakpad::LinuxDumper::ReadAuxv()
FUNC abd0 32 0 google_breakpad::LinuxDumper::Init()
FUNC ac10 4c 0 google_breakpad::LinuxDumper::FindMapping(void const*) const
FUNC ac60 94 0 google_breakpad::LinuxDumper::GetStackInfo(void const**, unsigned long*, unsigned long)
FUNC ad00 1fd 0 google_breakpad::LinuxDumper::HandleDeletedFileInMapping(char*) const
FUNC af00 35d 0 google_breakpad::LinuxDumper::ElfFileIdentifierForMapping(google_breakpad::MappingInfo const&, bool, unsigned int, unsigned char*)
FUNC b260 1a9 0 google_breakpad::LinuxDumper::LinuxDumper(int)
FUNC b410 7b2 0 google_breakpad::LinuxDumper::EnumerateMappings()
FUNC bbd0 221 0 std::vector<int, google_breakpad::PageStdAllocator<int> >::reserve(unsigned long)
FUNC be00 229 0 std::vector<google_breakpad::MappingInfo*, google_breakpad::PageStdAllocator<google_breakpad::MappingInfo*> >::reserve(unsigned long)
FUNC c030 229 0 std::vector<unsigned long, google_breakpad::PageStdAllocator<unsigned long> >::reserve(unsigned long)
FUNC c260 320 0 std::vector<google_breakpad::MappingInfo*, google_breakpad::PageStdAllocator<google_breakpad::MappingInfo*> >::_M_insert_aux(__gnu_cxx::__normal_iterator<google_breakpad::MappingInfo**, std::vector<google_breakpad::MappingInfo*, google_breakpad::PageStdAllocator<google_breakpad::MappingInfo*> > >, google_breakpad::MappingInfo* const&)
FUNC c580 460 0 std::vector<unsigned long, google_breakpad::PageStdAllocator<unsigned long> >::_M_fill_insert(__gnu_cxx::__normal_iterator<unsigned long*, std::vector<unsigned long, google_breakpad::PageStdAllocator<unsigned long> > >, unsigned long, unsigned long const&)
FUNC c9e0 43f 0 std::vector<google_breakpad::MappingInfo*, google_breakpad::PageStdAllocator<google_breakpad::MappingInfo*> >::_M_fill_insert(__gnu_cxx::__normal_iterator<google_breakpad::MappingInfo**, std::vector<google_breakpad::MappingInfo*, google_breakpad::PageStdAllocator<google_breakpad::MappingInfo*> > >, unsigned long, google_breakpad::MappingInfo* const&)
FUNC ce20 3 0 google_breakpad::LinuxPtraceDumper::IsPostMortem() const
FUNC ce30 d8 0 google_breakpad::LinuxPtraceDumper::BuildProcPath(char*, int, char const*) const
FUNC cf10 ac 0 google_breakpad::LinuxPtraceDumper::CopyFromProcess(void*, int, void const*, unsigned long)
FUNC cfc0 c2 0 google_breakpad::LinuxPtraceDumper::ThreadsResume()
FUNC d090 49f 0 google_breakpad::LinuxPtraceDumper::GetThreadInfoByIndex(unsigned long, google_breakpad::ThreadInfo*)
FUNC d530 20 0 google_breakpad::LinuxPtraceDumper::LinuxPtraceDumper(int)
FUNC d550 36d 0 google_breakpad::LinuxPtraceDumper::EnumerateThreads()
FUNC d8c0 235 0 google_breakpad::LinuxPtraceDumper::ThreadsSuspend()
FUNC db00 13 0 google_breakpad::LinuxPtraceDumper::~LinuxPtraceDumper()
FUNC db20 20 0 google_breakpad::LinuxPtraceDumper::~LinuxPtraceDumper()
FUNC db40 306 0 std::vector<int, google_breakpad::PageStdAllocator<int> >::_M_insert_aux(__gnu_cxx::__normal_iterator<int*, std::vector<int, google_breakpad::PageStdAllocator<int> > >, int const&)
FUNC de50 458 0 std::vector<int, google_breakpad::PageStdAllocator<int> >::_M_fill_insert(__gnu_cxx::__normal_iterator<int*, std::vector<int, google_breakpad::PageStdAllocator<int> > >, unsigned long, int const&)
FUNC e2b0 e3 0 isLegalUTF8
FUNC e3a0 fe 0 ConvertUTF32toUTF16
FUNC e4a0 e6 0 ConvertUTF16toUTF32
FUNC e590 216 0 ConvertUTF16toUTF8
FUNC e7b0 2b 0 isLegalUTF8Sequence
FUNC e7e0 265 0 ConvertUTF8toUTF16
FUNC ea50 1c0 0 ConvertUTF32toUTF8
FUNC ec10 29f 0 ConvertUTF8toUTF32
FUNC eeb0 a 0 google_breakpad::FileID::FileID(char const*)
FUNC eec0 1ee 0 google_breakpad::FileID::ElfFileIdentifierFromMappedFile(void const*, unsigned char*)
FUNC f0b0 59 0 google_breakpad::FileID::ElfFileIdentifier(unsigned char*)
FUNC f110 e5 0 google_breakpad::FileID::ConvertIdentifierToString(unsigned char const*, char*, int)
FUNC f200 10 0 google_breakpad::MemoryMappedFile::MemoryMappedFile()
FUNC f210 56 0 google_breakpad::MemoryMappedFile::Unmap()
FUNC f270 193 0 google_breakpad::MemoryMappedFile::Map(char const*)
FUNC f410 14 0 google_breakpad::MemoryMappedFile::MemoryMappedFile(char const*)
FUNC f430 5 0 google_breakpad::MemoryMappedFile::~MemoryMappedFile()
FUNC f440 3a 0 google_breakpad::SafeReadLink(char const*, char*, unsigned long)
FUNC f480 1f 0 google_breakpad::IsValidElf(void const*)
FUNC f4a0 5 0 google_breakpad::ElfClass(void const*)
FUNC f4b0 466 0 google_breakpad::FindElfSection(void const*, char const*, unsigned int, void const**, int*, int*)
FUNC f920 29c 0 google_breakpad::FindElfSegment(void const*, unsigned int, void const**, int*, int*)
STACK CFI INIT 1a70 3b0 .cfa: $rsp 16 + .ra: .cfa -8 + ^
STACK CFI 1a76 .cfa: $rsp 24 +
STACK CFI INIT 2590 12 .cfa: $rsp 8 + .ra: .cfa -8 + ^
STACK CFI INIT 25b0 8 .cfa: $rsp 8 + .ra: .cfa -8 + ^
STACK CFI INIT 25c0 8 .cfa: $rsp 8 + .ra: .cfa -8 + ^
STACK CFI INIT 25d0 c .cfa: $rsp 8 + .ra: .cfa -8 + ^
STACK CFI INIT 25e0 c .cfa: $rsp 8 + .ra: .cfa -8 + ^
STACK CFI INIT 25f0 c .cfa: $rsp 8 + .ra: .cfa -8 + ^
STACK CFI INIT 2600 9 .cfa: $rsp 8 + .ra: .cfa -8 + ^
STACK CFI INIT 24d0 2c .cfa: $rsp 8 + .ra: .cfa -8 + ^
STACK CFI 24d1 $rbx: .cfa -16 + ^ .cfa: $rsp 16 +
STACK CFI 24fb .cfa: $rsp 8 +
STACK CFI INIT 2610 35 .cfa: $rsp 8 + .ra: .cfa -8 + ^
STACK CFI INIT 2500 3e .cfa: $rsp 8 + .ra: .cfa -8 + ^
STACK CFI 2504 .cfa: $rsp 32 +
STACK CFI 2538 .cfa: $rsp 8 +
STACK CFI 2539 .cfa: $rsp 32 +
STACK CFI INIT 2540 49 .cfa: $rsp 8 + .ra: .cfa -8 + ^
STACK CFI 2544 .cfa: $rsp 32 +
STACK CFI 2583 .cfa: $rsp 8 +
STACK CFI 2584 .cfa: $rsp 32 +
STACK CFI INIT 2650 90 .cfa: $rsp 8 + .ra: .cfa -8 + ^
STACK CFI 2651 $rbx: .cfa -16 + ^ .cfa: $rsp 16 +
STACK CFI 2658 .cfa: $rsp 32 +
STACK CFI 267e .cfa: $rsp 16 +
STACK CFI 267f .cfa: $rsp 8 +
STACK CFI 2680 .cfa: $rsp 32 +
STACK CFI INIT 26e0 92 .cfa: $rsp 8 + .ra: .cfa -8 + ^
STACK CFI 26e5 $rbp: .cfa -16 + ^
STACK CFI 26f3 $rbx: .cfa -24 + ^ .cfa: $rsp 32 +
STACK CFI 271d .cfa: $rsp 8 +
STACK CFI 2720 .cfa: $rsp 32 +
STACK CFI 275a .cfa: $rsp 8 +
STACK CFI 275c .cfa: $rsp 32 +
STACK CFI INIT 2150 279 .cfa: $rsp 8 + .ra: .cfa -8 + ^
STACK CFI 2152 $r13: .cfa -16 + ^ .cfa: $rsp 16 +
STACK CFI 2157 $r12: .cfa -24 + ^ .cfa: $rsp 24 +
STACK CFI 2160 $rbp: .cfa -32 + ^ .cfa: $rsp 32 +
STACK CFI 2161 $rbx: .cfa -40 + ^ .cfa: $rsp 40 +
STACK CFI 2168 .cfa: $rsp 336 +
STACK CFI 22e7 .cfa: $rsp 40 +
STACK CFI 22e8 .cfa: $rsp 32 +
STACK CFI 22e9 .cfa: $rsp 24 +
STACK CFI 22eb .cfa: $rsp 16 +
STACK CFI 22ed .cfa: $rsp 8 +
STACK CFI 22ee .cfa: $rsp 336 +
STACK CFI INIT 1e20 1a .cfa: $rsp 8 + .ra: .cfa -8 + ^
STACK CFI INIT 2780 f5 .cfa: $rsp 8 + .ra: .cfa -8 + ^
STACK CFI 278f $r14: .cfa -16 + ^ .cfa: $rsp 16 +
STACK CFI 2791 $r13: .cfa -24 + ^ .cfa: $rsp 24 +
STACK CFI 2793 $r12: .cfa -32 + ^ .cfa: $rsp 32 +
STACK CFI 279b $rbp: .cfa -40 + ^ .cfa: $rsp 40 +
STACK CFI 27a3 $rbx: .cfa -48 + ^ .cfa: $rsp 48 +
STACK CFI 27ac .cfa: $rsp 208 +
STACK CFI 2852 .cfa: $rsp 48 +
STACK CFI 2858 $rbx: $rbx .cfa: $rsp 40 +
STACK CFI 2859 $rbp: $rbp .cfa: $rsp 32 +
STACK CFI 285b $r12: $r12 .cfa: $rsp 24 +
STACK CFI 285d $r13: $r13 .cfa: $rsp 16 +
STACK CFI 285f $r14: $r14 .cfa: $rsp 8 +
STACK CFI 2860 $r12: .cfa -32 + ^ $r13: .cfa -24 + ^ $r14: .cfa -16 + ^ $rbp: .cfa -40 + ^ $rbx: .cfa -48 + ^ .cfa: $rsp 208 +
STACK CFI 2867 .cfa: $rsp 48 +
STACK CFI 286a $rbx: $rbx .cfa: $rsp 40 +
STACK CFI 286b $rbp: $rbp .cfa: $rsp 32 +
STACK CFI 286d $r12: $r12 .cfa: $rsp 24 +
STACK CFI 286f $r13: $r13 .cfa: $rsp 16 +
STACK CFI 2871 $r14: $r14 .cfa: $rsp 8 +
STACK CFI INIT 2880 8b .cfa: $rsp 8 + .ra: .cfa -8 + ^
STACK CFI 2893 $r12: .cfa -24 + ^ $r13: .cfa -16 + ^
STACK CFI 28ab $rbp: .cfa -32 + ^ $rbx: .cfa -40 + ^
STACK CFI 28b1 .cfa: $rsp 48 +
STACK CFI 28fc $r12: $r12 $r13: $r13 $rbp: $rbp $rbx: $rbx .cfa: $rsp 8 +
STACK CFI 2900 $r12: .cfa -24 + ^ $r13: .cfa -16 + ^ $rbp: .cfa -32 + ^ $rbx: .cfa -40 + ^ .cfa: $rsp 48 +
STACK CFI INIT 2910 104 .cfa: $rsp 8 + .ra: .cfa -8 + ^
STACK CFI 292b $r12: .cfa -24 + ^ $r13: .cfa -16 + ^ $rbp: .cfa -32 + ^ $rbx: .cfa -40 + ^
STACK CFI 2932 .cfa: $rsp 64 +
STACK CFI 2971 .cfa: $rsp 8 +
STACK CFI 2978 .cfa: $rsp 64 +
STACK CFI 29dd .cfa: $rsp 8 +
STACK CFI 29e8 .cfa: $rsp 64 +
STACK CFI INIT 2a20 467 .cfa: $rsp 8 + .ra: .cfa -8 + ^
STACK CFI 2a2a $r13: .cfa -32 + ^ $rbp: .cfa -48 + ^
STACK CFI 2a4b $r12: .cfa -40 + ^ $r14: .cfa -24 + ^ $r15: .cfa -16 + ^ $rbx: .cfa -56 + ^ .cfa: $rsp 160 +
STACK CFI 2a92 .cfa: $rsp 8 +
STACK CFI 2a98 .cfa: $rsp 160 +
STACK CFI INIT 2e90 1a6 .cfa: $rsp 8 + .ra: .cfa -8 + ^
STACK CFI 2e92 $r12: .cfa -16 + ^ .cfa: $rsp 16 +
STACK CFI 2e93 $rbp: .cfa -24 + ^ .cfa: $rsp 24 +
STACK CFI 2e97 $rbx: .cfa -32 + ^ .cfa: $rsp 32 +
STACK CFI 2ea1 .cfa: $rsp 1632 +
STACK CFI 2fe5 .cfa: $rsp 32 +
STACK CFI 2fe6 .cfa: $rsp 24 +
STACK CFI 2fe7 .cfa: $rsp 16 +
STACK CFI 2fe9 .cfa: $rsp 8 +
STACK CFI 2ff0 .cfa: $rsp 1632 +
STACK CFI 2ff7 .cfa: $rsp 32 +
STACK CFI 2ffd .cfa: $rsp 24 +
STACK CFI 2ffe .cfa: $rsp 16 +
STACK CFI 3000 .cfa: $rsp 8 +
STACK CFI 3008 .cfa: $rsp 1632 +
STACK CFI INIT 3040 68 .cfa: $rsp 8 + .ra: .cfa -8 + ^
STACK CFI 304a $rbp: .cfa -24 + ^ $rbx: .cfa -32 + ^
STACK CFI 3056 $r12: .cfa -16 + ^ .cfa: $rsp 32 +
STACK CFI 3082 .cfa: $rsp 8 +
STACK CFI 3088 .cfa: $rsp 32 +
STACK CFI 30a3 .cfa: $rsp 8 +
STACK CFI INIT 30b0 56 .cfa: $rsp 8 + .ra: .cfa -8 + ^
STACK CFI 30b7 .cfa: $rsp 1104 +
STACK CFI 3105 .cfa: $rsp 8 +
STACK CFI INIT 3110 18b .cfa: $rsp 8 + .ra: .cfa -8 + ^
STACK CFI 3112 $r15: .cfa -16 + ^ .cfa: $rsp 16 +
STACK CFI 3114 $r14: .cfa -24 + ^ .cfa: $rsp 24 +
STACK CFI 3116 $r13: .cfa -32 + ^ .cfa: $rsp 32 +
STACK CFI 3118 $r12: .cfa -40 + ^ .cfa: $rsp 40 +
STACK CFI 311c $rbp: .cfa -48 + ^ .cfa: $rsp 48 +
STACK CFI 3120 $rbx: .cfa -56 + ^ .cfa: $rsp 56 +
STACK CFI 3129 .cfa: $rsp 224 +
STACK CFI 31e3 .cfa: $rsp 56 +
STACK CFI 31e4 .cfa: $rsp 48 +
STACK CFI 31e5 .cfa: $rsp 40 +
STACK CFI 31e7 .cfa: $rsp 32 +
STACK CFI 31e9 .cfa: $rsp 24 +
STACK CFI 31eb .cfa: $rsp 16 +
STACK CFI 31ed .cfa: $rsp 8 +
STACK CFI 31f0 .cfa: $rsp 224 +
STACK CFI INIT 32a0 e0 .cfa: $rsp 8 + .ra: .cfa -8 + ^
STACK CFI 32aa $r12: .cfa -24 + ^ $rbp: .cfa -32 + ^
STACK CFI 32ba $r13: .cfa -16 + ^ $rbx: .cfa -40 + ^ .cfa: $rsp 80 +
STACK CFI 32f8 .cfa: $rsp 8 +
STACK CFI 3300 .cfa: $rsp 80 +
STACK CFI INIT 3380 58 .cfa: $rsp 8 + .ra: .cfa -8 + ^
STACK CFI 3384 .cfa: $rsp 32 +
STACK CFI 33b4 .cfa: $rsp 8 +
STACK CFI 33b8 .cfa: $rsp 32 +
STACK CFI 33d7 .cfa: $rsp 8 +
STACK CFI INIT 33e0 28 .cfa: $rsp 8 + .ra: .cfa -8 + ^
STACK CFI 33e1 $rbx: .cfa -16 + ^ .cfa: $rsp 16 +
STACK CFI 3407 .cfa: $rsp 8 +
STACK CFI INIT 3410 153 .cfa: $rsp 8 + .ra: .cfa -8 + ^
STACK CFI 3411 $rbx: .cfa -16 + ^ .cfa: $rsp 16 +
STACK CFI 3418 .cfa: $rsp 1616 +
STACK CFI 3472 .cfa: $rsp 16 +
STACK CFI 3473 .cfa: $rsp 8 +
STACK CFI 3478 .cfa: $rsp 1616 +
STACK CFI 3535 .cfa: $rsp 16 +
STACK CFI 3536 .cfa: $rsp 8 +
STACK CFI 3540 .cfa: $rsp 1616 +
STACK CFI INIT 3570 cf .cfa: $rsp 8 + .ra: .cfa -8 + ^
STACK CFI 358b $r12: .cfa -24 + ^ $r13: .cfa -16 + ^ $rbp: .cfa -32 + ^ $rbx: .cfa -40 + ^ .cfa: $rsp 640 +
STACK CFI 363a .cfa: $rsp 8 +
STACK CFI INIT 3640 5d .cfa: $rsp 8 + .ra: .cfa -8 + ^
STACK CFI 3642 $r12: .cfa -16 + ^ .cfa: $rsp 16 +
STACK CFI 3646 $rbp: .cfa -24 + ^ .cfa: $rsp 24 +
STACK CFI 364b $rbx: .cfa -32 + ^ .cfa: $rsp 32 +
STACK CFI 3687 .cfa: $rsp 24 +
STACK CFI 368e .cfa: $rsp 16 +
STACK CFI 3690 .cfa: $rsp 8 +
STACK CFI 3698 .cfa: $rsp 32 +
STACK CFI 3699 .cfa: $rsp 24 +
STACK CFI 369a .cfa: $rsp 16 +
STACK CFI 369c .cfa: $rsp 8 +
STACK CFI INIT 36a0 31 .cfa: $rsp 8 + .ra: .cfa -8 + ^
STACK CFI 36a1 $rbx: .cfa -16 + ^ .cfa: $rsp 16 +
STACK CFI 36bf .cfa: $rsp 8 +
STACK CFI 36c0 .cfa: $rsp 16 +
STACK CFI 36cc .cfa: $rsp 8 +
STACK CFI INIT 36e0 179 .cfa: $rsp 8 + .ra: .cfa -8 + ^
STACK CFI 36ea $rbp: .cfa -48 + ^ $rbx: .cfa -56 + ^
STACK CFI 36f7 $r12: .cfa -40 + ^ $r13: .cfa -32 + ^
STACK CFI 3708 $r14: .cfa -24 + ^ $r15: .cfa -16 + ^ .cfa: $rsp 128 +
STACK CFI 37d0 .cfa: $rsp 8 +
STACK CFI 37d8 .cfa: $rsp 128 +
STACK CFI INIT 4030 2f .cfa: $rsp 8 + .ra: .cfa -8 + ^
STACK CFI 4031 $rbp: .cfa -16 + ^ .cfa: $rsp 16 +
STACK CFI 4035 $rbx: .cfa -24 + ^ .cfa: $rsp 24 +
STACK CFI 4039 .cfa: $rsp 32 +
STACK CFI 405c .cfa: $rsp 24 +
STACK CFI 405d .cfa: $rsp 16 +
STACK CFI 405e .cfa: $rsp 8 +
STACK CFI INIT 4060 2f .cfa: $rsp 8 + .ra: .cfa -8 + ^
STACK CFI 4061 $rbp: .cfa -16 + ^ .cfa: $rsp 16 +
STACK CFI 4065 $rbx: .cfa -24 + ^ .cfa: $rsp 24 +
STACK CFI 4069 .cfa: $rsp 32 +
STACK CFI 408c .cfa: $rsp 24 +
STACK CFI 408d .cfa: $rsp 16 +
STACK CFI 408e .cfa: $rsp 8 +
STACK CFI INIT 3860 336 .cfa: $rsp 8 + .ra: .cfa -8 + ^
STACK CFI 3862 $r13: .cfa -16 + ^ .cfa: $rsp 16 +
STACK CFI 3864 $r12: .cfa -24 + ^ .cfa: $rsp 24 +
STACK CFI 3865 $rbp: .cfa -32 + ^ .cfa: $rsp 32 +
STACK CFI 3866 $rbx: .cfa -40 + ^ .cfa: $rsp 40 +
STACK CFI 386d .cfa: $rsp 128 +
STACK CFI 39c5 .cfa: $rsp 40 +
STACK CFI 39c6 .cfa: $rsp 32 +
STACK CFI 39c7 .cfa: $rsp 24 +
STACK CFI 39c9 .cfa: $rsp 16 +
STACK CFI 39cb .cfa: $rsp 8 +
STACK CFI 39d0 .cfa: $rsp 128 +
STACK CFI INIT 4090 1ba .cfa: $rsp 8 + .ra: .cfa -8 + ^
STACK CFI 409a $rbp: .cfa -48 + ^ $rbx: .cfa -56 + ^
STACK CFI 40b8 $r12: .cfa -40 + ^ $r13: .cfa -32 + ^ $r14: .cfa -24 + ^ $r15: .cfa -16 + ^ .cfa: $rsp 80 +
STACK CFI 4122 .cfa: $rsp 8 +
STACK CFI 4128 .cfa: $rsp 80 +
STACK CFI INIT 3ba0 31c .cfa: $rsp 8 + .ra: .cfa -8 + ^
STACK CFI 3ba5 $r14: .cfa -24 + ^
STACK CFI 3bb8 $r15: .cfa -16 + ^ $rbp: .cfa -48 + ^ $rbx: .cfa -56 + ^
STACK CFI 3bc9 $r12: .cfa -40 + ^ $r13: .cfa -32 + ^ .cfa: $rsp 80 +
STACK CFI 3ccf .cfa: $rsp 8 +
STACK CFI 3cd0 .cfa: $rsp 80 +
STACK CFI INIT 3ec0 167 .cfa: $rsp 8 + .ra: .cfa -8 + ^
STACK CFI 3eca $rbp: .cfa -32 + ^ $rbx: .cfa -40 + ^
STACK CFI 3ede $r12: .cfa -24 + ^ $r13: .cfa -16 + ^ .cfa: $rsp 256 +
STACK CFI 3fa2 .cfa: $rsp 8 +
STACK CFI 3fa3 .cfa: $rsp 256 +
STACK CFI INIT 1e3a 1a .cfa: $rsp 8 + .ra: .cfa -8 + ^
STACK CFI INIT 4250 7d .cfa: $rsp 8 + .ra: .cfa -8 + ^
STACK CFI 425e $rbp: .cfa -16 + ^ $rbx: .cfa -24 + ^ .cfa: $rsp 32 +
STACK CFI 42ad .cfa: $rsp 8 +
STACK CFI 42ae .cfa: $rsp 32 +
STACK CFI INIT 42d0 232 .cfa: $rsp 8 + .ra: .cfa -8 + ^
STACK CFI 42d2 $r12: .cfa -16 + ^ .cfa: $rsp 16 +
STACK CFI 42d3 $rbp: .cfa -24 + ^ .cfa: $rsp 24 +
STACK CFI 42d4 $rbx: .cfa -32 + ^ .cfa: $rsp 32 +
STACK CFI 42db .cfa: $rsp 160 +
STACK CFI 443e .cfa: $rsp 32 +
STACK CFI 443f .cfa: $rsp 24 +
STACK CFI 4440 .cfa: $rsp 16 +
STACK CFI 4442 .cfa: $rsp 8 +
STACK CFI 4443 .cfa: $rsp 160 +
STACK CFI INIT 4510 85 .cfa: $rsp 8 + .ra: .cfa -8 + ^
STACK CFI 4511 $rbp: .cfa -16 + ^ .cfa: $rsp 16 +
STACK CFI 4515 $rbx: .cfa -24 + ^ .cfa: $rsp 24 +
STACK CFI 4519 .cfa: $rsp 32 +
STACK CFI 4570 .cfa: $rsp 24 +
STACK CFI 4574 .cfa: $rsp 16 +
STACK CFI 4575 .cfa: $rsp 8 +
STACK CFI 4576 .cfa: $rsp 32 +
STACK CFI INIT 45a0 38 .cfa: $rsp 8 + .ra: .cfa -8 + ^
STACK CFI 45a7 $rbx: .cfa -16 + ^ .cfa: $rsp 16 +
STACK CFI 45c2 .cfa: $rsp 8 +
STACK CFI 45c8 .cfa: $rsp 16 +
STACK CFI 45d7 .cfa: $rsp 8 +
STACK CFI INIT 1e54 27 .cfa: $rsp 8 + .ra: .cfa -8 + ^
STACK CFI 1e55 $rbx: .cfa -16 + ^ .cfa: $rsp 16 +
STACK CFI 1e7a .cfa: $rsp 8 +
STACK CFI INIT 45e0 5d .cfa: $rsp 8 + .ra: .cfa -8 + ^
STACK CFI 45ee $rbp: .cfa -16 + ^ $rbx: .cfa -24 + ^ .cfa: $rsp 32 +
STACK CFI 4615 .cfa: $rsp 8 +
STACK CFI 4620 .cfa: $rsp 32 +
STACK CFI INIT 1e7c 20 .cfa: $rsp 8 + .ra: .cfa -8 + ^
STACK CFI 1e84 .cfa: $rsp 16 +
STACK CFI INIT 1e9c 20 .cfa: $rsp 8 + .ra: .cfa -8 + ^
STACK CFI 1ea4 .cfa: $rsp 16 +
STACK CFI INIT 4640 1e .cfa: $rsp 8 + .ra: .cfa -8 + ^
STACK CFI 4659 .cfa: $rsp 16 +
STACK CFI INIT 1ebc 20 .cfa: $rsp 8 + .ra: .cfa -8 + ^
STACK CFI 1ec4 .cfa: $rsp 16 +
STACK CFI INIT 1edc 20 .cfa: $rsp 8 + .ra: .cfa -8 + ^
STACK CFI 1ee4 .cfa: $rsp 16 +
STACK CFI INIT 8260 153 .cfa: $rsp 8 + .ra: .cfa -8 + ^
STACK CFI 8272 $rbp: .cfa -48 + ^ $rbx: .cfa -56 + ^
STACK CFI 828d $r12: .cfa -40 + ^ $r13: .cfa -32 + ^ $r14: .cfa -24 + ^ $r15: .cfa -16 + ^ .cfa: $rsp 64 +
STACK CFI 82d7 $r12: $r12 $r13: $r13 $r14: $r14 $r15: $r15 $rbp: $rbp $rbx: $rbx .cfa: $rsp 8 +
STACK CFI 82e0 $r12: .cfa -40 + ^ $r13: .cfa -32 + ^ $r14: .cfa -24 + ^ $r15: .cfa -16 + ^ $rbp: .cfa -48 + ^ $rbx: .cfa -56 + ^ .cfa: $rsp 64 +
STACK CFI 83b0 $r12: $r12 $r13: $r13 $r14: $r14 $r15: $r15 $rbp: $rbp $rbx: $rbx .cfa: $rsp 8 +
STACK CFI INIT 1efc 1ac .cfa: $rsp 8 + .ra: .cfa -8 + ^
STACK CFI 1efe $r15: .cfa -16 + ^ .cfa: $rsp 16 +
STACK CFI 1f05 $r14: .cfa -24 + ^ .cfa: $rsp 24 +
STACK CFI 1f07 $r13: .cfa -32 + ^ .cfa: $rsp 32 +
STACK CFI 1f09 $r12: .cfa -40 + ^ .cfa: $rsp 40 +
STACK CFI 1f10 $rbp: .cfa -48 + ^ .cfa: $rsp 48 +
STACK CFI 1f11 $rbx: .cfa -56 + ^ .cfa: $rsp 56 +
STACK CFI 1f15 .cfa: $rsp 112 +
STACK CFI 209d .cfa: $rsp 56 +
STACK CFI 209e .cfa: $rsp 48 +
STACK CFI 209f .cfa: $rsp 40 +
STACK CFI 20a1 .cfa: $rsp 32 +
STACK CFI 20a3 .cfa: $rsp 24 +
STACK CFI 20a5 .cfa: $rsp 16 +
STACK CFI 20a7 .cfa: $rsp 8 +
STACK CFI INIT 20a8 3f .cfa: $rsp 8 + .ra: .cfa -8 + ^
STACK CFI 20a9 $rbp: .cfa -16 + ^ .cfa: $rsp 16 +
STACK CFI 20ad $rbx: .cfa -24 + ^ .cfa: $rsp 24 +
STACK CFI 20b7 .cfa: $rsp 288 +
STACK CFI 20e2 .cfa: $rsp 24 +
STACK CFI 20e5 .cfa: $rsp 16 +
STACK CFI 20e6 .cfa: $rsp 8 +
STACK CFI INIT 83c0 248 .cfa: $rsp 8 + .ra: .cfa -8 + ^
STACK CFI 83c2 $r15: .cfa -16 + ^ .cfa: $rsp 16 +
STACK CFI 83c4 $r14: .cfa -24 + ^ .cfa: $rsp 24 +
STACK CFI 83ca $r13: .cfa -32 + ^ .cfa: $rsp 32 +
STACK CFI 83cc $r12: .cfa -40 + ^ .cfa: $rsp 40 +
STACK CFI 83cd $rbp: .cfa -48 + ^ .cfa: $rsp 48 +
STACK CFI 83d1 $rbx: .cfa -56 + ^ .cfa: $rsp 56 +
STACK CFI 83d8 .cfa: $rsp 64 +
STACK CFI 8536 .cfa: $rsp 56 +
STACK CFI 8537 .cfa: $rsp 48 +
STACK CFI 8538 .cfa: $rsp 40 +
STACK CFI 853a .cfa: $rsp 32 +
STACK CFI 853c .cfa: $rsp 24 +
STACK CFI 853e .cfa: $rsp 16 +
STACK CFI 8545 .cfa: $rsp 8 +
STACK CFI 8550 .cfa: $rsp 64 +
STACK CFI 85b2 .cfa: $rsp 56 +
STACK CFI 85b5 .cfa: $rsp 48 +
STACK CFI 85b6 .cfa: $rsp 40 +
STACK CFI 85b8 .cfa: $rsp 32 +
STACK CFI 85ba .cfa: $rsp 24 +
STACK CFI 85bc .cfa: $rsp 16 +
STACK CFI 85be .cfa: $rsp 8 +
STACK CFI 85bf .cfa: $rsp 64 +
STACK CFI INIT 8610 22 .cfa: $rsp 8 + .ra: .cfa -8 + ^
STACK CFI INIT 8640 22 .cfa: $rsp 8 + .ra: .cfa -8 + ^
STACK CFI INIT 8670 22 .cfa: $rsp 8 + .ra: .cfa -8 + ^
STACK CFI INIT 86a0 22 .cfa: $rsp 8 + .ra: .cfa -8 + ^
STACK CFI INIT 86d0 229 .cfa: $rsp 8 + .ra: .cfa -8 + ^
STACK CFI 86ee $r12: .cfa -40 + ^ $r13: .cfa -32 + ^ $rbp: .cfa -48 + ^ $rbx: .cfa -56 + ^
STACK CFI 86ff $r14: .cfa -24 + ^ $r15: .cfa -16 + ^ .cfa: $rsp 128 +
STACK CFI 8741 .cfa: $rsp 8 +
STACK CFI 8748 .cfa: $rsp 128 +
STACK CFI INIT 8900 357 .cfa: $rsp 8 + .ra: .cfa -8 + ^
STACK CFI 8905 $rbp: .cfa -48 + ^
STACK CFI 8917 $r12: .cfa -40 + ^ $r14: .cfa -24 + ^ $rbx: .cfa -56 + ^
STACK CFI 8928 $r13: .cfa -32 + ^ $r15: .cfa -16 + ^ .cfa: $rsp 128 +
STACK CFI 89a7 .cfa: $rsp 8 +
STACK CFI 89b0 .cfa: $rsp 128 +
STACK CFI INIT 4660 15e5 .cfa: $rsp 8 + .ra: .cfa -8 + ^
STACK CFI 4662 $r15: .cfa -16 + ^ .cfa: $rsp 16 +
STACK CFI 4664 $r14: .cfa -24 + ^ .cfa: $rsp 24 +
STACK CFI 4666 $r13: .cfa -32 + ^ .cfa: $rsp 32 +
STACK CFI 466c $r12: .cfa -40 + ^ .cfa: $rsp 40 +
STACK CFI 466d $rbp: .cfa -48 + ^ .cfa: $rsp 48 +
STACK CFI 466e $rbx: .cfa -56 + ^ .cfa: $rsp 56 +
STACK CFI 4678 .cfa: $rsp 3696 +
STACK CFI 4899 .cfa: $rsp 56 +
STACK CFI 489c .cfa: $rsp 48 +
STACK CFI 489d .cfa: $rsp 40 +
STACK CFI 489f .cfa: $rsp 32 +
STACK CFI 48a1 .cfa: $rsp 24 +
STACK CFI 48a3 .cfa: $rsp 16 +
STACK CFI 48a5 .cfa: $rsp 8 +
STACK CFI 48b0 .cfa: $rsp 3696 +
STACK CFI INIT 8c60 17f .cfa: $rsp 8 + .ra: .cfa -8 + ^
STACK CFI 8c62 $r15: .cfa -16 + ^ .cfa: $rsp 16 +
STACK CFI 8c66 $r14: .cfa -24 + ^ .cfa: $rsp 24 +
STACK CFI 8c68 $r13: .cfa -32 + ^ .cfa: $rsp 32 +
STACK CFI 8c6a $r12: .cfa -40 + ^ .cfa: $rsp 40 +
STACK CFI 8c6b $rbp: .cfa -48 + ^ .cfa: $rsp 48 +
STACK CFI 8c6f $rbx: .cfa -56 + ^ .cfa: $rsp 56 +
STACK CFI 8c76 .cfa: $rsp 96 +
STACK CFI 8cdb .cfa: $rsp 56 +
STACK CFI 8cdc .cfa: $rsp 48 +
STACK CFI 8cdd .cfa: $rsp 40 +
STACK CFI 8cdf .cfa: $rsp 32 +
STACK CFI 8ce1 .cfa: $rsp 24 +
STACK CFI 8ce3 .cfa: $rsp 16 +
STACK CFI 8ce5 .cfa: $rsp 8 +
STACK CFI 8cf0 .cfa: $rsp 96 +
STACK CFI INIT 8de0 3cd .cfa: $rsp 8 + .ra: .cfa -8 + ^
STACK CFI 8de2 $r15: .cfa -16 + ^ .cfa: $rsp 16 +
STACK CFI 8de4 $r14: .cfa -24 + ^ .cfa: $rsp 24 +
STACK CFI 8de6 $r13: .cfa -32 + ^ .cfa: $rsp 32 +
STACK CFI 8de8 $r12: .cfa -40 + ^ .cfa: $rsp 40 +
STACK CFI 8de9 $rbp: .cfa -48 + ^ .cfa: $rsp 48 +
STACK CFI 8ded $rbx: .cfa -56 + ^ .cfa: $rsp 56 +
STACK CFI 8df1 .cfa: $rsp 128 +
STACK CFI 8ffd .cfa: $rsp 56 +
STACK CFI 8ffe .cfa: $rsp 48 +
STACK CFI 8fff .cfa: $rsp 40 +
STACK CFI 9001 .cfa: $rsp 32 +
STACK CFI 9003 .cfa: $rsp 24 +
STACK CFI 9005 .cfa: $rsp 16 +
STACK CFI 9007 .cfa: $rsp 8 +
STACK CFI 9010 .cfa: $rsp 128 +
STACK CFI 9079 .cfa: $rsp 56 +
STACK CFI 9081 .cfa: $rsp 48 +
STACK CFI 9082 .cfa: $rsp 40 +
STACK CFI 9084 .cfa: $rsp 32 +
STACK CFI 9086 .cfa: $rsp 24 +
STACK CFI 9088 .cfa: $rsp 16 +
STACK CFI 908a .cfa: $rsp 8 +
STACK CFI 9090 .cfa: $rsp 128 +
STACK CFI INIT 5c50 1d12 .cfa: $rsp 8 + .ra: .cfa -8 + ^
STACK CFI 5c52 $r15: .cfa -16 + ^ .cfa: $rsp 16 +
STACK CFI 5c5d $r14: .cfa -24 + ^ .cfa: $rsp 24 +
STACK CFI 5c62 $r13: .cfa -32 + ^ .cfa: $rsp 32 +
STACK CFI 5c64 $r12: .cfa -40 + ^ .cfa: $rsp 40 +
STACK CFI 5c65 $rbp: .cfa -48 + ^ .cfa: $rsp 48 +
STACK CFI 5c66 $rbx: .cfa -56 + ^ .cfa: $rsp 56 +
STACK CFI 5c6d .cfa: $rsp 2832 +
STACK CFI 5da2 .cfa: $rsp 56 +
STACK CFI 5da5 .cfa: $rsp 48 +
STACK CFI 5da6 .cfa: $rsp 40 +
STACK CFI 5da8 .cfa: $rsp 32 +
STACK CFI 5daa .cfa: $rsp 24 +
STACK CFI 5dac .cfa: $rsp 16 +
STACK CFI 5dae .cfa: $rsp 8 +
STACK CFI 5db0 .cfa: $rsp 2832 +
STACK CFI INIT 7970 1ac .cfa: $rsp 8 + .ra: .cfa -8 + ^
STACK CFI 7972 $r12: .cfa -16 + ^ .cfa: $rsp 16 +
STACK CFI 7976 $rbp: .cfa -24 + ^ .cfa: $rsp 24 +
STACK CFI 797a $rbx: .cfa -32 + ^ .cfa: $rsp 32 +
STACK CFI 7981 .cfa: $rsp 160 +
STACK CFI 7a65 .cfa: $rsp 32 +
STACK CFI 7a68 .cfa: $rsp 24 +
STACK CFI 7a69 .cfa: $rsp 16 +
STACK CFI 7a6b .cfa: $rsp 8 +
STACK CFI 7a70 .cfa: $rsp 160 +
STACK CFI INIT 7b20 2ce .cfa: $rsp 8 + .ra: .cfa -8 + ^
STACK CFI 7b2a $r12: .cfa -40 + ^ $rbx: .cfa -56 + ^
STACK CFI 7b4b $r13: .cfa -32 + ^ $r14: .cfa -24 + ^ $r15: .cfa -16 + ^ $rbp: .cfa -48 + ^ .cfa: $rsp 368 +
STACK CFI 7bd0 .cfa: $rsp 8 +
STACK CFI 7bd8 .cfa: $rsp 368 +
STACK CFI INIT 7df0 2b .cfa: $rsp 8 + .ra: .cfa -8 + ^
STACK CFI 7df4 .cfa: $rsp 32 +
STACK CFI 7e1a .cfa: $rsp 8 +
STACK CFI INIT 7e20 2c .cfa: $rsp 8 + .ra: .cfa -8 + ^
STACK CFI 7e24 .cfa: $rsp 32 +
STACK CFI 7e4b .cfa: $rsp 8 +
STACK CFI INIT 7e50 2a .cfa: $rsp 8 + .ra: .cfa -8 + ^
STACK CFI 7e54 .cfa: $rsp 32 +
STACK CFI 7e79 .cfa: $rsp 8 +
STACK CFI INIT 7e80 2b .cfa: $rsp 8 + .ra: .cfa -8 + ^
STACK CFI 7e84 .cfa: $rsp 32 +
STACK CFI 7eaa .cfa: $rsp 8 +
STACK CFI INIT 7eb0 9a .cfa: $rsp 8 + .ra: .cfa -8 + ^
STACK CFI 7ec6 $r12: .cfa -16 + ^ $rbp: .cfa -24 + ^ $rbx: .cfa -32 + ^ .cfa: $rsp 96 +
STACK CFI 7f2e .cfa: $rsp 8 +
STACK CFI 7f2f .cfa: $rsp 96 +
STACK CFI INIT 7f50 9b .cfa: $rsp 8 + .ra: .cfa -8 + ^
STACK CFI 7f66 $r12: .cfa -16 + ^ $rbp: .cfa -24 + ^ $rbx: .cfa -32 + ^ .cfa: $rsp 96 +
STACK CFI 7fcf .cfa: $rsp 8 +
STACK CFI 7fd0 .cfa: $rsp 96 +
STACK CFI INIT 7ff0 26a .cfa: $rsp 8 + .ra: .cfa -8 + ^
STACK CFI 7ff2 $r12: .cfa -16 + ^ .cfa: $rsp 16 +
STACK CFI 7ff6 $rbp: .cfa -24 + ^ .cfa: $rsp 24 +
STACK CFI 7ff7 $rbx: .cfa -32 + ^ .cfa: $rsp 32 +
STACK CFI 8000 .cfa: $rsp 368 +
STACK CFI 816a .cfa: $rsp 32 +
STACK CFI 816d .cfa: $rsp 24 +
STACK CFI 816e .cfa: $rsp 16 +
STACK CFI 8170 .cfa: $rsp 8 +
STACK CFI 8178 .cfa: $rsp 368 +
STACK CFI INIT 20e8 20 .cfa: $rsp 8 + .ra: .cfa -8 + ^
STACK CFI 20f0 .cfa: $rsp 16 +
STACK CFI INIT 2108 20 .cfa: $rsp 8 + .ra: .cfa -8 + ^
STACK CFI 2110 .cfa: $rsp 16 +
STACK CFI INIT 91b0 1a .cfa: $rsp 8 + .ra: .cfa -8 + ^
STACK CFI INIT 91d0 87 .cfa: $rsp 8 + .ra: .cfa -8 + ^
STACK CFI 91de $rbp: .cfa -16 + ^ $rbx: .cfa -24 + ^ .cfa: $rsp 32 +
STACK CFI 9225 .cfa: $rsp 8 +
STACK CFI 9230 .cfa: $rsp 32 +
STACK CFI INIT 9260 2c .cfa: $rsp 8 + .ra: .cfa -8 + ^
STACK CFI 9274 .cfa: $rsp 16 +
STACK CFI INIT 9290 78 .cfa: $rsp 8 + .ra: .cfa -8 + ^
STACK CFI 929a $rbp: .cfa -24 + ^ $rbx: .cfa -32 + ^
STACK CFI 92a6 $r12: .cfa -16 + ^ .cfa: $rsp 32 +
STACK CFI 92fb .cfa: $rsp 8 +
STACK CFI 9300 .cfa: $rsp 32 +
STACK CFI INIT 9310 15 .cfa: $rsp 8 + .ra: .cfa -8 + ^
STACK CFI INIT 9330 d6 .cfa: $rsp 8 + .ra: .cfa -8 + ^
STACK CFI 9348 $r12: .cfa -24 + ^ $r13: .cfa -16 + ^ $rbp: .cfa -32 + ^ $rbx: .cfa -40 + ^ .cfa: $rsp 48 +
STACK CFI 9393 .cfa: $rsp 8 +
STACK CFI 9398 .cfa: $rsp 48 +
STACK CFI INIT 9410 fa .cfa: $rsp 8 + .ra: .cfa -8 + ^
STACK CFI 9411 $rbp: .cfa -16 + ^ .cfa: $rsp 16 +
STACK CFI 9415 $rbx: .cfa -24 + ^ .cfa: $rsp 24 +
STACK CFI 9419 .cfa: $rsp 32 +
STACK CFI 944b .cfa: $rsp 24 +
STACK CFI 944c .cfa: $rsp 16 +
STACK CFI 944d .cfa: $rsp 8 +
STACK CFI 9450 .cfa: $rsp 32 +
STACK CFI INIT 9510 a8 .cfa: $rsp 8 + .ra: .cfa -8 + ^
STACK CFI 9512 $r14: .cfa -16 + ^ .cfa: $rsp 16 +
STACK CFI 9514 $r13: .cfa -24 + ^ .cfa: $rsp 24 +
STACK CFI 9516 $r12: .cfa -32 + ^ .cfa: $rsp 32 +
STACK CFI 9517 $rbp: .cfa -40 + ^ .cfa: $rsp 40 +
STACK CFI 951a $rbx: .cfa -48 + ^ .cfa: $rsp 48 +
STACK CFI 951e .cfa: $rsp 64 +
STACK CFI 95a3 .cfa: $rsp 48 +
STACK CFI 95a4 .cfa: $rsp 40 +
STACK CFI 95a5 .cfa: $rsp 32 +
STACK CFI 95a7 .cfa: $rsp 24 +
STACK CFI 95a9 .cfa: $rsp 16 +
STACK CFI 95ab .cfa: $rsp 8 +
STACK CFI 95ac .cfa: $rsp 64 +
STACK CFI INIT 95c0 aa .cfa: $rsp 8 + .ra: .cfa -8 + ^
STACK CFI 95c2 $r14: .cfa -16 + ^ .cfa: $rsp 16 +
STACK CFI 95c4 $r13: .cfa -24 + ^ .cfa: $rsp 24 +
STACK CFI 95c6 $r12: .cfa -32 + ^ .cfa: $rsp 32 +
STACK CFI 95c7 $rbp: .cfa -40 + ^ .cfa: $rsp 40 +
STACK CFI 95c8 $rbx: .cfa -48 + ^ .cfa: $rsp 48 +
STACK CFI 95ce .cfa: $rsp 64 +
STACK CFI 9655 .cfa: $rsp 48 +
STACK CFI 9656 .cfa: $rsp 40 +
STACK CFI 9657 .cfa: $rsp 32 +
STACK CFI 9659 .cfa: $rsp 24 +
STACK CFI 965b .cfa: $rsp 16 +
STACK CFI 965d .cfa: $rsp 8 +
STACK CFI 965e .cfa: $rsp 64 +
STACK CFI INIT 9670 41 .cfa: $rsp 8 + .ra: .cfa -8 + ^
STACK CFI 9671 $rbx: .cfa -16 + ^ .cfa: $rsp 16 +
STACK CFI 9691 .cfa: $rsp 8 +
STACK CFI 9692 .cfa: $rsp 16 +
STACK CFI INIT 96c0 88 .cfa: $rsp 8 + .ra: .cfa -8 + ^
STACK CFI 96c4 .cfa: $rsp 16 +
STACK CFI 96e7 .cfa: $rsp 8 +
STACK CFI 96ec .cfa: $rsp 16 +
STACK CFI INIT 9750 c4 .cfa: $rsp 8 + .ra: .cfa -8 + ^
STACK CFI 9751 $rbp: .cfa -16 + ^ .cfa: $rsp 16 +
STACK CFI 9755 $rbx: .cfa -24 + ^ .cfa: $rsp 24 +
STACK CFI 9759 .cfa: $rsp 64 +
STACK CFI 9791 .cfa: $rsp 24 +
STACK CFI 9794 .cfa: $rsp 16 +
STACK CFI 9795 .cfa: $rsp 8 +
STACK CFI 97a0 .cfa: $rsp 64 +
STACK CFI 97ce .cfa: $rsp 24 +
STACK CFI 97d4 .cfa: $rsp 16 +
STACK CFI 97d5 .cfa: $rsp 8 +
STACK CFI 97d6 .cfa: $rsp 64 +
STACK CFI INIT 9840 22 .cfa: $rsp 8 + .ra: .cfa -8 + ^
STACK CFI INIT 9870 1e8 .cfa: $rsp 8 + .ra: .cfa -8 + ^
STACK CFI 9872 $r14: .cfa -16 + ^ .cfa: $rsp 16 +
STACK CFI 9874 $r13: .cfa -24 + ^ .cfa: $rsp 24 +
STACK CFI 9876 $r12: .cfa -32 + ^ .cfa: $rsp 32 +
STACK CFI 987a $rbp: .cfa -40 + ^ .cfa: $rsp 40 +
STACK CFI 987b $rbx: .cfa -48 + ^ .cfa: $rsp 48 +
STACK CFI 987f .cfa: $rsp 112 +
STACK CFI 9933 .cfa: $rsp 48 +
STACK CFI 9936 .cfa: $rsp 40 +
STACK CFI 9937 .cfa: $rsp 32 +
STACK CFI 9939 .cfa: $rsp 24 +
STACK CFI 993b .cfa: $rsp 16 +
STACK CFI 993d .cfa: $rsp 8 +
STACK CFI 9940 .cfa: $rsp 112 +
STACK CFI INIT 9820 5 .cfa: $rsp 8 + .ra: .cfa -8 + ^
STACK CFI INIT 9a60 1e8 .cfa: $rsp 8 + .ra: .cfa -8 + ^
STACK CFI 9a62 $r14: .cfa -16 + ^ .cfa: $rsp 16 +
STACK CFI 9a64 $r13: .cfa -24 + ^ .cfa: $rsp 24 +
STACK CFI 9a66 $r12: .cfa -32 + ^ .cfa: $rsp 32 +
STACK CFI 9a6a $rbp: .cfa -40 + ^ .cfa: $rsp 40 +
STACK CFI 9a6b $rbx: .cfa -48 + ^ .cfa: $rsp 48 +
STACK CFI 9a6f .cfa: $rsp 112 +
STACK CFI 9b24 .cfa: $rsp 48 +
STACK CFI 9b27 .cfa: $rsp 40 +
STACK CFI 9b28 .cfa: $rsp 32 +
STACK CFI 9b2a .cfa: $rsp 24 +
STACK CFI 9b2c .cfa: $rsp 16 +
STACK CFI 9b2e .cfa: $rsp 8 +
STACK CFI 9b30 .cfa: $rsp 112 +
STACK CFI INIT 9830 5 .cfa: $rsp 8 + .ra: .cfa -8 + ^
STACK CFI INIT 9c50 78 .cfa: $rsp 8 + .ra: .cfa -8 + ^
STACK CFI 9c52 $r13: .cfa -16 + ^ .cfa: $rsp 16 +
STACK CFI 9c5a $r12: .cfa -24 + ^ .cfa: $rsp 24 +
STACK CFI 9c5f $rbp: .cfa -32 + ^ .cfa: $rsp 32 +
STACK CFI 9c63 $rbx: .cfa -40 + ^ .cfa: $rsp 40 +
STACK CFI 9c6b .cfa: $rsp 64 +
STACK CFI 9cab .cfa: $rsp 40 +
STACK CFI 9cae .cfa: $rsp 32 +
STACK CFI 9caf .cfa: $rsp 24 +
STACK CFI 9cb1 .cfa: $rsp 16 +
STACK CFI 9cb3 .cfa: $rsp 8 +
STACK CFI 9cb8 .cfa: $rsp 64 +
STACK CFI 9cbf .cfa: $rsp 40 +
STACK CFI 9cc0 .cfa: $rsp 32 +
STACK CFI 9cc3 .cfa: $rsp 24 +
STACK CFI 9cc5 .cfa: $rsp 16 +
STACK CFI 9cc7 .cfa: $rsp 8 +
STACK CFI INIT 9cd0 56 .cfa: $rsp 8 + .ra: .cfa -8 + ^
STACK CFI 9cd1 $rbx: .cfa -16 + ^ .cfa: $rsp 16 +
STACK CFI 9cdf .cfa: $rsp 48 +
STACK CFI 9d24 .cfa: $rsp 16 +
STACK CFI 9d25 .cfa: $rsp 8 +
STACK CFI INIT 9d30 147 .cfa: $rsp 8 + .ra: .cfa -8 + ^
STACK CFI 9d32 $r14: .cfa -16 + ^ .cfa: $rsp 16 +
STACK CFI 9d34 $r13: .cfa -24 + ^ .cfa: $rsp 24 +
STACK CFI 9d36 $r12: .cfa -32 + ^ .cfa: $rsp 32 +
STACK CFI 9d3a $rbp: .cfa -40 + ^ .cfa: $rsp 40 +
STACK CFI 9d3e $rbx: .cfa -48 + ^ .cfa: $rsp 48 +
STACK CFI 9d42 .cfa: $rsp 80 +
STACK CFI 9dc3 .cfa: $rsp 48 +
STACK CFI 9dc7 .cfa: $rsp 40 +
STACK CFI 9dc8 .cfa: $rsp 32 +
STACK CFI 9dca .cfa: $rsp 24 +
STACK CFI 9dcc .cfa: $rsp 16 +
STACK CFI 9dce .cfa: $rsp 8 +
STACK CFI 9dd0 .cfa: $rsp 80 +
STACK CFI INIT a060 295 .cfa: $rsp 8 + .ra: .cfa -8 + ^
STACK CFI a06a $r12: .cfa -40 + ^ $rbx: .cfa -56 + ^
STACK CFI a085 $r13: .cfa -32 + ^ $r14: .cfa -24 + ^ $r15: .cfa -16 + ^ $rbp: .cfa -48 + ^ .cfa: $rsp 80 +
STACK CFI a136 .cfa: $rsp 8 +
STACK CFI a140 .cfa: $rsp 80 +
STACK CFI INIT 9e80 e3 .cfa: $rsp 8 + .ra: .cfa -8 + ^
STACK CFI 9e81 $rbp: .cfa -16 + ^ .cfa: $rsp 16 +
STACK CFI 9e85 $rbx: .cfa -24 + ^ .cfa: $rsp 24 +
STACK CFI 9e8c .cfa: $rsp 64 +
STACK CFI 9f25 .cfa: $rsp 24 +
STACK CFI 9f26 .cfa: $rsp 16 +
STACK CFI 9f27 .cfa: $rsp 8 +
STACK CFI 9f30 .cfa: $rsp 64 +
STACK CFI 9f44 .cfa: $rsp 24 +
STACK CFI 9f45 .cfa: $rsp 16 +
STACK CFI 9f46 .cfa: $rsp 8 +
STACK CFI 9f50 .cfa: $rsp 64 +
STACK CFI INIT 9f70 e3 .cfa: $rsp 8 + .ra: .cfa -8 + ^
STACK CFI 9f71 $rbp: .cfa -16 + ^ .cfa: $rsp 16 +
STACK CFI 9f75 $rbx: .cfa -24 + ^ .cfa: $rsp 24 +
STACK CFI 9f7c .cfa: $rsp 64 +
STACK CFI a017 .cfa: $rsp 24 +
STACK CFI a018 .cfa: $rsp 16 +
STACK CFI a019 .cfa: $rsp 8 +
STACK CFI a020 .cfa: $rsp 64 +
STACK CFI a034 .cfa: $rsp 24 +
STACK CFI a035 .cfa: $rsp 16 +
STACK CFI a036 .cfa: $rsp 8 +
STACK CFI a040 .cfa: $rsp 64 +
STACK CFI INIT a430 16 .cfa: $rsp 8 + .ra: .cfa -8 + ^
STACK CFI a434 .cfa: $rsp 16 +
STACK CFI a43f .cfa: $rsp 8 +
STACK CFI INIT a300 73 .cfa: $rsp 8 + .ra: .cfa -8 + ^
STACK CFI a301 $rbx: .cfa -16 + ^ .cfa: $rsp 16 +
STACK CFI a372 .cfa: $rsp 8 +
STACK CFI INIT a380 ad .cfa: $rsp 8 + .ra: .cfa -8 + ^
STACK CFI a381 $rbx: .cfa -16 + ^ .cfa: $rsp 16 +
STACK CFI a385 .cfa: $rsp 32 +
STACK CFI a40a .cfa: $rsp 16 +
STACK CFI a40d .cfa: $rsp 8 +
STACK CFI a40e .cfa: $rsp 32 +
STACK CFI INIT a450 1e .cfa: $rsp 8 + .ra: .cfa -8 + ^
STACK CFI INIT a470 33 .cfa: $rsp 8 + .ra: .cfa -8 + ^
STACK CFI INIT a4b0 56 .cfa: $rsp 8 + .ra: .cfa -8 + ^
STACK CFI INIT a510 54 .cfa: $rsp 8 + .ra: .cfa -8 + ^
STACK CFI INIT a570 36 .cfa: $rsp 8 + .ra: .cfa -8 + ^
STACK CFI INIT a5b0 43 .cfa: $rsp 8 + .ra: .cfa -8 + ^
STACK CFI INIT a600 42 .cfa: $rsp 8 + .ra: .cfa -8 + ^
STACK CFI INIT a650 26 .cfa: $rsp 8 + .ra: .cfa -8 + ^
STACK CFI INIT a680 32 .cfa: $rsp 8 + .ra: .cfa -8 + ^
STACK CFI INIT a6c0 64 .cfa: $rsp 8 + .ra: .cfa -8 + ^
STACK CFI INIT a730 3a .cfa: $rsp 8 + .ra: .cfa -8 + ^
STACK CFI INIT a770 1e .cfa: $rsp 8 + .ra: .cfa -8 + ^
STACK CFI INIT a790 38 .cfa: $rsp 8 + .ra: .cfa -8 + ^
STACK CFI INIT a7d0 3e .cfa: $rsp 8 + .ra: .cfa -8 + ^
STACK CFI a7d1 $rbx: .cfa -16 + ^ .cfa: $rsp 16 +
STACK CFI a7ed .cfa: $rsp 8 +
STACK CFI a7f0 .cfa: $rsp 16 +
STACK CFI a80d .cfa: $rsp 8 +
STACK CFI INIT a810 4e .cfa: $rsp 8 + .ra: .cfa -8 + ^
STACK CFI INIT a860 1aa .cfa: $rsp 8 + .ra: .cfa -8 + ^
STACK CFI a862 $r14: .cfa -16 + ^ .cfa: $rsp 16 +
STACK CFI a871 $r13: .cfa -24 + ^ .cfa: $rsp 24 +
STACK CFI a879 $r12: .cfa -32 + ^ .cfa: $rsp 32 +
STACK CFI a87f $rbp: .cfa -40 + ^ .cfa: $rsp 40 +
STACK CFI a880 $rbx: .cfa -48 + ^ .cfa: $rsp 48 +
STACK CFI a887 .cfa: $rsp 208 +
STACK CFI a9a3 .cfa: $rsp 48 +
STACK CFI a9a9 .cfa: $rsp 40 +
STACK CFI a9aa .cfa: $rsp 32 +
STACK CFI a9ac .cfa: $rsp 24 +
STACK CFI a9ae .cfa: $rsp 16 +
STACK CFI a9b0 .cfa: $rsp 8 +
STACK CFI a9b8 .cfa: $rsp 208 +
STACK CFI a9ff .cfa: $rsp 48 +
STACK CFI aa02 .cfa: $rsp 40 +
STACK CFI aa03 .cfa: $rsp 32 +
STACK CFI aa05 .cfa: $rsp 24 +
STACK CFI aa07 .cfa: $rsp 16 +
STACK CFI aa09 .cfa: $rsp 8 +
STACK CFI INIT aa10 1c .cfa: $rsp 8 + .ra: .cfa -8 + ^
STACK CFI aa13 $rbx: .cfa -16 + ^ .cfa: $rsp 16 +
STACK CFI aa24 .cfa: $rsp 8 +
STACK CFI aa28 .cfa: $rsp 16 +
STACK CFI aa2b .cfa: $rsp 8 +
STACK CFI INIT 2128 20 .cfa: $rsp 8 + .ra: .cfa -8 + ^
STACK CFI 2130 .cfa: $rsp 16 +
STACK CFI INIT aa30 67 .cfa: $rsp 8 + .ra: .cfa -8 + ^
STACK CFI aa32 $r13: .cfa -16 + ^ .cfa: $rsp 16 +
STACK CFI aa38 $r12: .cfa -24 + ^ .cfa: $rsp 24 +
STACK CFI aa3f $rbp: .cfa -32 + ^ .cfa: $rsp 32 +
STACK CFI aa40 $rbx: .cfa -40 + ^ .cfa: $rsp 40 +
STACK CFI aa44 .cfa: $rsp 48 +
STACK CFI aa90 .cfa: $rsp 40 +
STACK CFI aa91 .cfa: $rsp 32 +
STACK CFI aa92 .cfa: $rsp 24 +
STACK CFI aa94 .cfa: $rsp 16 +
STACK CFI aa96 .cfa: $rsp 8 +
STACK CFI INIT aaa0 12 .cfa: $rsp 8 + .ra: .cfa -8 + ^
STACK CFI aaa1 $rbx: .cfa -16 + ^ .cfa: $rsp 16 +
STACK CFI aaad .cfa: $rsp 8 +
STACK CFI INIT aac0 105 .cfa: $rsp 8 + .ra: .cfa -8 + ^
STACK CFI aac2 $r12: .cfa -16 + ^ .cfa: $rsp 16 +
STACK CFI aacd $rbp: .cfa -24 + ^ .cfa: $rsp 24 +
STACK CFI aace $rbx: .cfa -32 + ^ .cfa: $rsp 32 +
STACK CFI aad5 .cfa: $rsp 320 +
STACK CFI aaf3 .cfa: $rsp 32 +
STACK CFI aaf6 .cfa: $rsp 24 +
STACK CFI aaf7 .cfa: $rsp 16 +
STACK CFI aaf9 .cfa: $rsp 8 +
STACK CFI ab00 .cfa: $rsp 320 +
STACK CFI ab78 .cfa: $rsp 32 +
STACK CFI ab7b .cfa: $rsp 24 +
STACK CFI ab7c .cfa: $rsp 16 +
STACK CFI ab7e .cfa: $rsp 8 +
STACK CFI ab80 .cfa: $rsp 320 +
STACK CFI INIT abd0 32 .cfa: $rsp 8 + .ra: .cfa -8 + ^
STACK CFI abd1 $rbx: .cfa -16 + ^ .cfa: $rsp 16 +
STACK CFI abe0 .cfa: $rsp 8 +
STACK CFI abe8 .cfa: $rsp 16 +
STACK CFI abfc .cfa: $rsp 8 +
STACK CFI INIT ac10 4c .cfa: $rsp 8 + .ra: .cfa -8 + ^
STACK CFI INIT ac60 94 .cfa: $rsp 8 + .ra: .cfa -8 + ^
STACK CFI ac6a $rbp: .cfa -40 + ^ $rbx: .cfa -48 + ^
STACK CFI ac77 $r12: .cfa -32 + ^ $r13: .cfa -24 + ^
STACK CFI ac83 $r14: .cfa -16 + ^ .cfa: $rsp 48 +
STACK CFI acec .cfa: $rsp 8 +
STACK CFI acf0 .cfa: $rsp 48 +
STACK CFI INIT ad00 1fd .cfa: $rsp 8 + .ra: .cfa -8 + ^
STACK CFI ad0a $rbp: .cfa -32 + ^ $rbx: .cfa -40 + ^
STACK CFI ad21 $r12: .cfa -24 + ^ $r13: .cfa -16 + ^ .cfa: $rsp 848 +
STACK CFI ad58 .cfa: $rsp 8 +
STACK CFI ad60 .cfa: $rsp 848 +
STACK CFI INIT af00 35d .cfa: $rsp 8 + .ra: .cfa -8 + ^
STACK CFI af0a $rbp: .cfa -48 + ^ $rbx: .cfa -56 + ^
STACK CFI af2b $r12: .cfa -40 + ^ $r13: .cfa -32 + ^ $r14: .cfa -24 + ^ $r15: .cfa -16 + ^ .cfa: $rsp 368 +
STACK CFI afb6 .cfa: $rsp 8 +
STACK CFI afc0 .cfa: $rsp 368 +
STACK CFI INIT bbd0 221 .cfa: $rsp 8 + .ra: .cfa -8 + ^
STACK CFI bbee $r12: .cfa -40 + ^ $r13: .cfa -32 + ^ $rbp: .cfa -48 + ^ $rbx: .cfa -56 + ^
STACK CFI bbff $r14: .cfa -24 + ^ $r15: .cfa -16 + ^ .cfa: $rsp 128 +
STACK CFI bc41 .cfa: $rsp 8 +
STACK CFI bc48 .cfa: $rsp 128 +
STACK CFI INIT be00 229 .cfa: $rsp 8 + .ra: .cfa -8 + ^
STACK CFI be1e $r12: .cfa -40 + ^ $r13: .cfa -32 + ^ $rbp: .cfa -48 + ^ $rbx: .cfa -56 + ^
STACK CFI be2f $r14: .cfa -24 + ^ $r15: .cfa -16 + ^ .cfa: $rsp 128 +
STACK CFI be71 .cfa: $rsp 8 +
STACK CFI be78 .cfa: $rsp 128 +
STACK CFI INIT c030 229 .cfa: $rsp 8 + .ra: .cfa -8 + ^
STACK CFI c04e $r12: .cfa -40 + ^ $r13: .cfa -32 + ^ $rbp: .cfa -48 + ^ $rbx: .cfa -56 + ^
STACK CFI c05f $r14: .cfa -24 + ^ $r15: .cfa -16 + ^ .cfa: $rsp 128 +
STACK CFI c0a1 .cfa: $rsp 8 +
STACK CFI c0a8 .cfa: $rsp 128 +
STACK CFI INIT c260 320 .cfa: $rsp 8 + .ra: .cfa -8 + ^
STACK CFI c26a $rbp: .cfa -48 + ^ $rbx: .cfa -56 + ^
STACK CFI c288 $r12: .cfa -40 + ^ $r13: .cfa -32 + ^ $r14: .cfa -24 + ^ $r15: .cfa -16 + ^ .cfa: $rsp 128 +
STACK CFI c2f5 .cfa: $rsp 8 +
STACK CFI c300 .cfa: $rsp 128 +
STACK CFI INIT c580 460 .cfa: $rsp 8 + .ra: .cfa -8 + ^
STACK CFI c582 $r15: .cfa -16 + ^ .cfa: $rsp 16 +
STACK CFI c584 $r14: .cfa -24 + ^ .cfa: $rsp 24 +
STACK CFI c586 $r13: .cfa -32 + ^ .cfa: $rsp 32 +
STACK CFI c588 $r12: .cfa -40 + ^ .cfa: $rsp 40 +
STACK CFI c589 $rbp: .cfa -48 + ^ .cfa: $rsp 48 +
STACK CFI c58d $rbx: .cfa -56 + ^ .cfa: $rsp 56 +
STACK CFI c591 .cfa: $rsp 128 +
STACK CFI c638 .cfa: $rsp 56 +
STACK CFI c639 .cfa: $rsp 48 +
STACK CFI c63a .cfa: $rsp 40 +
STACK CFI c63c .cfa: $rsp 32 +
STACK CFI c63e .cfa: $rsp 24 +
STACK CFI c640 .cfa: $rsp 16 +
STACK CFI c642 .cfa: $rsp 8 +
STACK CFI c648 .cfa: $rsp 128 +
STACK CFI c6c8 .cfa: $rsp 56 +
STACK CFI c6c9 .cfa: $rsp 48 +
STACK CFI c6ca .cfa: $rsp 40 +
STACK CFI c6cc .cfa: $rsp 32 +
STACK CFI c6ce .cfa: $rsp 24 +
STACK CFI c6d0 .cfa: $rsp 16 +
STACK CFI c6d2 .cfa: $rsp 8 +
STACK CFI c6d8 .cfa: $rsp 128 +
STACK CFI c8c8 .cfa: $rsp 56 +
STACK CFI c8c9 .cfa: $rsp 48 +
STACK CFI c8ca .cfa: $rsp 40 +
STACK CFI c8cc .cfa: $rsp 32 +
STACK CFI c8ce .cfa: $rsp 24 +
STACK CFI c8d0 .cfa: $rsp 16 +
STACK CFI c8d2 .cfa: $rsp 8 +
STACK CFI c8d8 .cfa: $rsp 128 +
STACK CFI INIT b260 1a9 .cfa: $rsp 8 + .ra: .cfa -8 + ^
STACK CFI b26a $rbp: .cfa -40 + ^ $rbx: .cfa -48 + ^
STACK CFI b284 $r12: .cfa -32 + ^ $r13: .cfa -24 + ^ $r14: .cfa -16 + ^ .cfa: $rsp 64 +
STACK CFI b3ae .cfa: $rsp 8 +
STACK CFI b3b0 .cfa: $rsp 64 +
STACK CFI INIT c9e0 43f .cfa: $rsp 8 + .ra: .cfa -8 + ^
STACK CFI c9e2 $r15: .cfa -16 + ^ .cfa: $rsp 16 +
STACK CFI c9e4 $r14: .cfa -24 + ^ .cfa: $rsp 24 +
STACK CFI c9e6 $r13: .cfa -32 + ^ .cfa: $rsp 32 +
STACK CFI c9e8 $r12: .cfa -40 + ^ .cfa: $rsp 40 +
STACK CFI c9ec $rbp: .cfa -48 + ^ .cfa: $rsp 48 +
STACK CFI c9ed $rbx: .cfa -56 + ^ .cfa: $rsp 56 +
STACK CFI c9f1 .cfa: $rsp 128 +
STACK CFI cab0 .cfa: $rsp 56 +
STACK CFI cab1 .cfa: $rsp 48 +
STACK CFI cab2 .cfa: $rsp 40 +
STACK CFI cab4 .cfa: $rsp 32 +
STACK CFI cab6 .cfa: $rsp 24 +
STACK CFI cab8 .cfa: $rsp 16 +
STACK CFI caba .cfa: $rsp 8 +
STACK CFI cac0 .cfa: $rsp 128 +
STACK CFI cb30 .cfa: $rsp 56 +
STACK CFI cb31 .cfa: $rsp 48 +
STACK CFI cb32 .cfa: $rsp 40 +
STACK CFI cb34 .cfa: $rsp 32 +
STACK CFI cb36 .cfa: $rsp 24 +
STACK CFI cb38 .cfa: $rsp 16 +
STACK CFI cb3a .cfa: $rsp 8 +
STACK CFI cb40 .cfa: $rsp 128 +
STACK CFI ccfd .cfa: $rsp 56 +
STACK CFI ccfe .cfa: $rsp 48 +
STACK CFI ccff .cfa: $rsp 40 +
STACK CFI cd01 .cfa: $rsp 32 +
STACK CFI cd03 .cfa: $rsp 24 +
STACK CFI cd05 .cfa: $rsp 16 +
STACK CFI cd07 .cfa: $rsp 8 +
STACK CFI cd10 .cfa: $rsp 128 +
STACK CFI INIT b410 7b2 .cfa: $rsp 8 + .ra: .cfa -8 + ^
STACK CFI b412 $r15: .cfa -16 + ^ .cfa: $rsp 16 +
STACK CFI b41e $r14: .cfa -24 + ^ .cfa: $rsp 24 +
STACK CFI b420 $r13: .cfa -32 + ^ .cfa: $rsp 32 +
STACK CFI b422 $r12: .cfa -40 + ^ .cfa: $rsp 40 +
STACK CFI b423 $rbp: .cfa -48 + ^ .cfa: $rsp 48 +
STACK CFI b424 $rbx: .cfa -56 + ^ .cfa: $rsp 56 +
STACK CFI b42b .cfa: $rsp 464 +
STACK CFI b44c .cfa: $rsp 56 +
STACK CFI b44d .cfa: $rsp 48 +
STACK CFI b44e .cfa: $rsp 40 +
STACK CFI b450 .cfa: $rsp 32 +
STACK CFI b452 .cfa: $rsp 24 +
STACK CFI b454 .cfa: $rsp 16 +
STACK CFI b456 .cfa: $rsp 8 +
STACK CFI b457 .cfa: $rsp 464 +
STACK CFI INIT ce20 3 .cfa: $rsp 8 + .ra: .cfa -8 + ^
STACK CFI INIT db00 13 .cfa: $rsp 8 + .ra: .cfa -8 + ^
STACK CFI INIT ce30 d8 .cfa: $rsp 8 + .ra: .cfa -8 + ^
STACK CFI ce46 $r12: .cfa -40 + ^ $r13: .cfa -32 + ^ $rbp: .cfa -48 + ^ $rbx: .cfa -56 + ^
STACK CFI ce57 $r14: .cfa -24 + ^ $r15: .cfa -16 + ^ .cfa: $rsp 64 +
STACK CFI cea0 .cfa: $rsp 8 +
STACK CFI cea8 .cfa: $rsp 64 +
STACK CFI INIT cf10 ac .cfa: $rsp 8 + .ra: .cfa -8 + ^
STACK CFI cf12 $r15: .cfa -16 + ^ .cfa: $rsp 16 +
STACK CFI cf17 $r14: .cfa -24 + ^ .cfa: $rsp 24 +
STACK CFI cf19 $r13: .cfa -32 + ^ .cfa: $rsp 32 +
STACK CFI cf1b $r12: .cfa -40 + ^ .cfa: $rsp 40 +
STACK CFI cf1c $rbp: .cfa -48 + ^ .cfa: $rsp 48 +
STACK CFI cf1d $rbx: .cfa -56 + ^ .cfa: $rsp 56 +
STACK CFI cf21 .cfa: $rsp 96 +
STACK CFI cf94 .cfa: $rsp 56 +
STACK CFI cf95 .cfa: $rsp 48 +
STACK CFI cf96 .cfa: $rsp 40 +
STACK CFI cf98 .cfa: $rsp 32 +
STACK CFI cf9a .cfa: $rsp 24 +
STACK CFI cf9c .cfa: $rsp 16 +
STACK CFI cf9e .cfa: $rsp 8 +
STACK CFI cfa0 .cfa: $rsp 96 +
STACK CFI INIT cfc0 c2 .cfa: $rsp 8 + .ra: .cfa -8 + ^
STACK CFI cfc2 $r13: .cfa -16 + ^ .cfa: $rsp 16 +
STACK CFI cfc7 $r12: .cfa -24 + ^ .cfa: $rsp 24 +
STACK CFI cfc8 $rbp: .cfa -32 + ^ .cfa: $rsp 32 +
STACK CFI cfcc $rbx: .cfa -40 + ^ .cfa: $rsp 40 +
STACK CFI cfd0 .cfa: $rsp 64 +
STACK CFI d04f .cfa: $rsp 40 +
STACK CFI d053 .cfa: $rsp 32 +
STACK CFI d054 .cfa: $rsp 24 +
STACK CFI d056 .cfa: $rsp 16 +
STACK CFI d058 .cfa: $rsp 8 +
STACK CFI d060 .cfa: $rsp 64 +
STACK CFI INIT db20 20 .cfa: $rsp 8 + .ra: .cfa -8 + ^
STACK CFI db28 $rbx: .cfa -16 + ^ .cfa: $rsp 16 +
STACK CFI db3b .cfa: $rsp 8 +
STACK CFI INIT d090 49f .cfa: $rsp 8 + .ra: .cfa -8 + ^
STACK CFI d092 $r15: .cfa -16 + ^ .cfa: $rsp 16 +
STACK CFI d094 $r14: .cfa -24 + ^ .cfa: $rsp 24 +
STACK CFI d096 $r13: .cfa -32 + ^ .cfa: $rsp 32 +
STACK CFI d098 $r12: .cfa -40 + ^ .cfa: $rsp 40 +
STACK CFI d09c $rbp: .cfa -48 + ^ .cfa: $rsp 48 +
STACK CFI d09d $rbx: .cfa -56 + ^ .cfa: $rsp 56 +
STACK CFI d0a7 .cfa: $rsp 336 +
STACK CFI d0ef .cfa: $rsp 56 +
STACK CFI d0f0 .cfa: $rsp 48 +
STACK CFI d0f1 .cfa: $rsp 40 +
STACK CFI d0f3 .cfa: $rsp 32 +
STACK CFI d0f5 .cfa: $rsp 24 +
STACK CFI d0f7 .cfa: $rsp 16 +
STACK CFI d0f9 .cfa: $rsp 8 +
STACK CFI d0fa .cfa: $rsp 336 +
STACK CFI INIT d530 20 .cfa: $rsp 8 + .ra: .cfa -8 + ^
STACK CFI d531 $rbx: .cfa -16 + ^ .cfa: $rsp 16 +
STACK CFI d54f .cfa: $rsp 8 +
STACK CFI INIT db40 306 .cfa: $rsp 8 + .ra: .cfa -8 + ^
STACK CFI db45 $rbx: .cfa -56 + ^
STACK CFI db57 $r12: .cfa -40 + ^ $r14: .cfa -24 + ^ $rbp: .cfa -48 + ^
STACK CFI db68 $r13: .cfa -32 + ^ $r15: .cfa -16 + ^ .cfa: $rsp 128 +
STACK CFI dbce .cfa: $rsp 8 +
STACK CFI dbd0 .cfa: $rsp 128 +
STACK CFI INIT d550 36d .cfa: $rsp 8 + .ra: .cfa -8 + ^
STACK CFI d55a $rbp: .cfa -48 + ^ $rbx: .cfa -56 + ^
STACK CFI d57f $r12: .cfa -40 + ^ $r13: .cfa -32 + ^ $r14: .cfa -24 + ^ $r15: .cfa -16 + ^ .cfa: $rsp 352 +
STACK CFI d5cd .cfa: $rsp 8 +
STACK CFI d5d0 .cfa: $rsp 352 +
STACK CFI INIT de50 458 .cfa: $rsp 8 + .ra: .cfa -8 + ^
STACK CFI de52 $r15: .cfa -16 + ^ .cfa: $rsp 16 +
STACK CFI de54 $r14: .cfa -24 + ^ .cfa: $rsp 24 +
STACK CFI de56 $r13: .cfa -32 + ^ .cfa: $rsp 32 +
STACK CFI de58 $r12: .cfa -40 + ^ .cfa: $rsp 40 +
STACK CFI de59 $rbp: .cfa -48 + ^ .cfa: $rsp 48 +
STACK CFI de5d $rbx: .cfa -56 + ^ .cfa: $rsp 56 +
STACK CFI de61 .cfa: $rsp 128 +
STACK CFI df08 .cfa: $rsp 56 +
STACK CFI df09 .cfa: $rsp 48 +
STACK CFI df0a .cfa: $rsp 40 +
STACK CFI df0c .cfa: $rsp 32 +
STACK CFI df0e .cfa: $rsp 24 +
STACK CFI df10 .cfa: $rsp 16 +
STACK CFI df12 .cfa: $rsp 8 +
STACK CFI df18 .cfa: $rsp 128 +
STACK CFI df90 .cfa: $rsp 56 +
STACK CFI df91 .cfa: $rsp 48 +
STACK CFI df92 .cfa: $rsp 40 +
STACK CFI df94 .cfa: $rsp 32 +
STACK CFI df96 .cfa: $rsp 24 +
STACK CFI df98 .cfa: $rsp 16 +
STACK CFI df9a .cfa: $rsp 8 +
STACK CFI dfa0 .cfa: $rsp 128 +
STACK CFI e18e .cfa: $rsp 56 +
STACK CFI e18f .cfa: $rsp 48 +
STACK CFI e190 .cfa: $rsp 40 +
STACK CFI e192 .cfa: $rsp 32 +
STACK CFI e194 .cfa: $rsp 24 +
STACK CFI e196 .cfa: $rsp 16 +
STACK CFI e198 .cfa: $rsp 8 +
STACK CFI e1a0 .cfa: $rsp 128 +
STACK CFI INIT d8c0 235 .cfa: $rsp 8 + .ra: .cfa -8 + ^
STACK CFI d8c2 $r15: .cfa -16 + ^ .cfa: $rsp 16 +
STACK CFI d8c9 $r14: .cfa -24 + ^ .cfa: $rsp 24 +
STACK CFI d8cb $r13: .cfa -32 + ^ .cfa: $rsp 32 +
STACK CFI d8cd $r12: .cfa -40 + ^ .cfa: $rsp 40 +
STACK CFI d8d1 $rbp: .cfa -48 + ^ .cfa: $rsp 48 +
STACK CFI d8d2 $rbx: .cfa -56 + ^ .cfa: $rsp 56 +
STACK CFI d8d9 .cfa: $rsp 320 +
STACK CFI da54 .cfa: $rsp 56 +
STACK CFI da55 .cfa: $rsp 48 +
STACK CFI da56 .cfa: $rsp 40 +
STACK CFI da58 .cfa: $rsp 32 +
STACK CFI da5a .cfa: $rsp 24 +
STACK CFI da5c .cfa: $rsp 16 +
STACK CFI da5e .cfa: $rsp 8 +
STACK CFI da60 .cfa: $rsp 320 +
STACK CFI INIT e2b0 e3 .cfa: $rsp 8 + .ra: .cfa -8 + ^
STACK CFI INIT e3a0 fe .cfa: $rsp 8 + .ra: .cfa -8 + ^
STACK CFI e3a4 $rbp: .cfa -16 + ^ .cfa: $rsp 16 +
STACK CFI e3a8 $rbx: .cfa -24 + ^ .cfa: $rsp 24 +
STACK CFI e427 .cfa: $rsp 16 +
STACK CFI e428 .cfa: $rsp 8 +
STACK CFI e430 .cfa: $rsp 24 +
STACK CFI e48b .cfa: $rsp 16 +
STACK CFI e48c .cfa: $rsp 8 +
STACK CFI e48d .cfa: $rsp 24 +
STACK CFI INIT e4a0 e6 .cfa: $rsp 8 + .ra: .cfa -8 + ^
STACK CFI e4b1 $r12: .cfa -16 + ^ .cfa: $rsp 16 +
STACK CFI e4b2 $rbp: .cfa -24 + ^ .cfa: $rsp 24 +
STACK CFI e4b3 $rbx: .cfa -32 + ^ .cfa: $rsp 32 +
STACK CFI e528 $rbx: $rbx .cfa: $rsp 24 +
STACK CFI e529 $rbp: $rbp .cfa: $rsp 16 +
STACK CFI e536 $r12: $r12 .cfa: $rsp 8 +
STACK CFI e540 $r12: .cfa -16 + ^ $rbp: .cfa -24 + ^ $rbx: .cfa -32 + ^ .cfa: $rsp 32 +
STACK CFI e54b $rbx: $rbx .cfa: $rsp 24 +
STACK CFI e54c $rbp: $rbp .cfa: $rsp 16 +
STACK CFI e559 $r12: $r12 .cfa: $rsp 8 +
STACK CFI e560 $r12: .cfa -16 + ^ $rbp: .cfa -24 + ^ $rbx: .cfa -32 + ^ .cfa: $rsp 32 +
STACK CFI e561 $rbx: $rbx .cfa: $rsp 24 +
STACK CFI e562 $rbp: $rbp .cfa: $rsp 16 +
STACK CFI e56c $r12: $r12 .cfa: $rsp 8 +
STACK CFI e56d $r12: .cfa -16 + ^ $rbp: .cfa -24 + ^ $rbx: .cfa -32 + ^ .cfa: $rsp 32 +
STACK CFI e56e $rbx: $rbx .cfa: $rsp 24 +
STACK CFI e56f $rbp: $rbp .cfa: $rsp 16 +
STACK CFI e57c $r12: $r12 .cfa: $rsp 8 +
STACK CFI INIT e590 216 .cfa: $rsp 8 + .ra: .cfa -8 + ^
STACK CFI e592 $r13: .cfa -16 + ^ .cfa: $rsp 16 +
STACK CFI e597 $r12: .cfa -24 + ^ .cfa: $rsp 24 +
STACK CFI e59b $rbp: .cfa -32 + ^ .cfa: $rsp 32 +
STACK CFI e59f $rbx: .cfa -40 + ^ .cfa: $rsp 40 +
STACK CFI e636 .cfa: $rsp 32 +
STACK CFI e642 .cfa: $rsp 24 +
STACK CFI e644 .cfa: $rsp 16 +
STACK CFI e646 .cfa: $rsp 8 +
STACK CFI e650 .cfa: $rsp 40 +
STACK CFI e73b .cfa: $rsp 32 +
STACK CFI e744 .cfa: $rsp 24 +
STACK CFI e746 .cfa: $rsp 16 +
STACK CFI e748 .cfa: $rsp 8 +
STACK CFI e750 .cfa: $rsp 40 +
STACK CFI e75b .cfa: $rsp 32 +
STACK CFI e767 .cfa: $rsp 24 +
STACK CFI e769 .cfa: $rsp 16 +
STACK CFI e76b .cfa: $rsp 8 +
STACK CFI e76c .cfa: $rsp 40 +
STACK CFI e774 .cfa: $rsp 32 +
STACK CFI e783 .cfa: $rsp 24 +
STACK CFI e785 .cfa: $rsp 16 +
STACK CFI e787 .cfa: $rsp 8 +
STACK CFI e788 .cfa: $rsp 40 +
STACK CFI INIT e7b0 2b .cfa: $rsp 8 + .ra: .cfa -8 + ^
STACK CFI INIT e7e0 265 .cfa: $rsp 8 + .ra: .cfa -8 + ^
STACK CFI e7e2 $r15: .cfa -16 + ^ .cfa: $rsp 16 +
STACK CFI e7e4 $r14: .cfa -24 + ^ .cfa: $rsp 24 +
STACK CFI e7e6 $r13: .cfa -32 + ^ .cfa: $rsp 32 +
STACK CFI e7e8 $r12: .cfa -40 + ^ .cfa: $rsp 40 +
STACK CFI e7e9 $rbp: .cfa -48 + ^ .cfa: $rsp 48 +
STACK CFI e7ea $rbx: .cfa -56 + ^ .cfa: $rsp 56 +
STACK CFI e7ee .cfa: $rsp 96 +
STACK CFI e943 .cfa: $rsp 56 +
STACK CFI e944 .cfa: $rsp 48 +
STACK CFI e945 .cfa: $rsp 40 +
STACK CFI e947 .cfa: $rsp 32 +
STACK CFI e949 .cfa: $rsp 24 +
STACK CFI e94b .cfa: $rsp 16 +
STACK CFI e94d .cfa: $rsp 8 +
STACK CFI e950 .cfa: $rsp 96 +
STACK CFI INIT ea50 1c0 .cfa: $rsp 8 + .ra: .cfa -8 + ^
STACK CFI ea52 $r14: .cfa -16 + ^ .cfa: $rsp 16 +
STACK CFI ea59 $r13: .cfa -24 + ^ .cfa: $rsp 24 +
STACK CFI ea5e $r12: .cfa -32 + ^ .cfa: $rsp 32 +
STACK CFI ea5f $rbp: .cfa -40 + ^ .cfa: $rsp 40 +
STACK CFI ea63 $rbx: .cfa -48 + ^ .cfa: $rsp 48 +
STACK CFI eb98 .cfa: $rsp 40 +
STACK CFI eb9f .cfa: $rsp 32 +
STACK CFI eba1 .cfa: $rsp 24 +
STACK CFI eba3 .cfa: $rsp 16 +
STACK CFI eba5 .cfa: $rsp 8 +
STACK CFI ebb0 .cfa: $rsp 48 +
STACK CFI ebc1 .cfa: $rsp 40 +
STACK CFI ebcd .cfa: $rsp 32 +
STACK CFI ebcf .cfa: $rsp 24 +
STACK CFI ebd1 .cfa: $rsp 16 +
STACK CFI ebd3 .cfa: $rsp 8 +
STACK CFI ebd4 .cfa: $rsp 48 +
STACK CFI ebdc .cfa: $rsp 40 +
STACK CFI ebeb .cfa: $rsp 32 +
STACK CFI ebed .cfa: $rsp 24 +
STACK CFI ebef .cfa: $rsp 16 +
STACK CFI ebf1 .cfa: $rsp 8 +
STACK CFI ebf2 .cfa: $rsp 48 +
STACK CFI INIT ec10 29f .cfa: $rsp 8 + .ra: .cfa -8 + ^
STACK CFI ec12 $r15: .cfa -16 + ^ .cfa: $rsp 16 +
STACK CFI ec14 $r14: .cfa -24 + ^ .cfa: $rsp 24 +
STACK CFI ec16 $r13: .cfa -32 + ^ .cfa: $rsp 32 +
STACK CFI ec18 $r12: .cfa -40 + ^ .cfa: $rsp 40 +
STACK CFI ec19 $rbp: .cfa -48 + ^ .cfa: $rsp 48 +
STACK CFI ec1a $rbx: .cfa -56 + ^ .cfa: $rsp 56 +
STACK CFI ec1e .cfa: $rsp 104 +
STACK CFI edbe .cfa: $rsp 56 +
STACK CFI edbf .cfa: $rsp 48 +
STACK CFI edc0 .cfa: $rsp 40 +
STACK CFI edc2 .cfa: $rsp 32 +
STACK CFI edc4 .cfa: $rsp 24 +
STACK CFI edc6 .cfa: $rsp 16 +
STACK CFI edc8 .cfa: $rsp 8 +
STACK CFI edd0 .cfa: $rsp 104 +
STACK CFI INIT eeb0 a .cfa: $rsp 8 + .ra: .cfa -8 + ^
STACK CFI INIT eec0 1ee .cfa: $rsp 8 + .ra: .cfa -8 + ^
STACK CFI eec2 $r12: .cfa -16 + ^ .cfa: $rsp 16 +
STACK CFI eec6 $rbp: .cfa -24 + ^ .cfa: $rsp 24 +
STACK CFI eec7 $rbx: .cfa -32 + ^ .cfa: $rsp 32 +
STACK CFI eed3 .cfa: $rsp 48 +
STACK CFI efab .cfa: $rsp 32 +
STACK CFI efac .cfa: $rsp 24 +
STACK CFI efad .cfa: $rsp 16 +
STACK CFI efaf .cfa: $rsp 8 +
STACK CFI efb0 .cfa: $rsp 48 +
STACK CFI INIT f0b0 59 .cfa: $rsp 8 + .ra: .cfa -8 + ^
STACK CFI f0b1 $rbx: .cfa -16 + ^ .cfa: $rsp 16 +
STACK CFI f0bb .cfa: $rsp 48 +
STACK CFI f0ee .cfa: $rsp 16 +
STACK CFI f0ef .cfa: $rsp 8 +
STACK CFI f0f0 .cfa: $rsp 48 +
STACK CFI INIT f110 e5 .cfa: $rsp 8 + .ra: .cfa -8 + ^
STACK CFI f111 $rbp: .cfa -16 + ^ .cfa: $rsp 16 +
STACK CFI f112 $rbx: .cfa -24 + ^ .cfa: $rsp 24 +
STACK CFI f1dc .cfa: $rsp 16 +
STACK CFI f1e1 .cfa: $rsp 8 +
STACK CFI f1e2 .cfa: $rsp 24 +
STACK CFI f1ef .cfa: $rsp 16 +
STACK CFI f1f4 .cfa: $rsp 8 +
STACK CFI INIT f200 10 .cfa: $rsp 8 + .ra: .cfa -8 + ^
STACK CFI INIT f210 56 .cfa: $rsp 8 + .ra: .cfa -8 + ^
STACK CFI f21a $rbp: .cfa -16 + ^ $rbx: .cfa -24 + ^
STACK CFI f221 .cfa: $rsp 32 +
STACK CFI f265 .cfa: $rsp 8 +
STACK CFI INIT f270 193 .cfa: $rsp 8 + .ra: .cfa -8 + ^
STACK CFI f27a $rbp: .cfa -32 + ^ $rbx: .cfa -40 + ^
STACK CFI f286 $r12: .cfa -24 + ^ $r13: .cfa -16 + ^
STACK CFI f290 .cfa: $rsp 192 +
STACK CFI f2e5 .cfa: $rsp 8 +
STACK CFI f2f0 .cfa: $rsp 192 +
STACK CFI INIT f410 14 .cfa: $rsp 8 + .ra: .cfa -8 + ^
STACK CFI INIT f430 5 .cfa: $rsp 8 + .ra: .cfa -8 + ^
STACK CFI INIT f440 3a .cfa: $rsp 8 + .ra: .cfa -8 + ^
STACK CFI f441 $rbx: .cfa -16 + ^ .cfa: $rsp 16 +
STACK CFI f45f .cfa: $rsp 8 +
STACK CFI f460 .cfa: $rsp 16 +
STACK CFI f475 .cfa: $rsp 8 +
STACK CFI f476 .cfa: $rsp 16 +
STACK CFI f479 .cfa: $rsp 8 +
STACK CFI INIT f480 1f .cfa: $rsp 8 + .ra: .cfa -8 + ^
STACK CFI f48b .cfa: $rsp 16 +
STACK CFI f49e .cfa: $rsp 8 +
STACK CFI INIT f4a0 5 .cfa: $rsp 8 + .ra: .cfa -8 + ^
STACK CFI INIT f4b0 466 .cfa: $rsp 8 + .ra: .cfa -8 + ^
STACK CFI f4ba $rbp: .cfa -48 + ^ $rbx: .cfa -56 + ^
STACK CFI f4d5 $r12: .cfa -40 + ^ $r13: .cfa -32 + ^ $r14: .cfa -24 + ^ $r15: .cfa -16 + ^ .cfa: $rsp 112 +
STACK CFI f53c .cfa: $rsp 8 +
STACK CFI f540 .cfa: $rsp 112 +
STACK CFI INIT f920 29c .cfa: $rsp 8 + .ra: .cfa -8 + ^
STACK CFI f92a $rbp: .cfa -40 + ^ $rbx: .cfa -48 + ^
STACK CFI f940 $r12: .cfa -32 + ^ $r13: .cfa -24 + ^ $r14: .cfa -16 + ^ .cfa: $rsp 48 +
STACK CFI f99b .cfa: $rsp 8 +
STACK CFI f9a0 .cfa: $rsp 48 +
STACK CFI INIT fbc0 2 .cfa: $rsp 8 + .ra: .cfa -8 + ^
STACK CFI INIT fbd0 89 .cfa: $rsp 8 + .ra: .cfa -8 + ^
STACK CFI fbe1 $r12: .cfa -40 + ^ $rbp: .cfa -48 + ^
STACK CFI fc00 .cfa: $rsp 64 +
STACK CFI fc06 $r13: .cfa -32 + ^ $r14: .cfa -24 + ^ $r15: .cfa -16 + ^ $rbx: .cfa -56 + ^
