MODULE Linux x86_64 18B180F90887D8F8B5C35D185444AF4C0 libgcc_s.so.1
PUBLIC 2fe0 0 __multi3
PUBLIC 3030 0 __negti2
PUBLIC 3060 0 __lshrti3
PUBLIC 30d0 0 __ashlti3
PUBLIC 3140 0 __ashrti3
PUBLIC 31b0 0 __cmpti2
PUBLIC 31f0 0 __ucmpti2
PUBLIC 3230 0 __clear_cache
PUBLIC 3240 0 __absvdi2
PUBLIC 3260 0 __absvsi2
PUBLIC 3280 0 __absvti2
PUBLIC 32b0 0 __addvdi3
PUBLIC 32e0 0 __addvsi3
PUBLIC 3310 0 __addvti3
PUBLIC 3360 0 __subvdi3
PUBLIC 3390 0 __subvsi3
PUBLIC 33c0 0 __subvti3
PUBLIC 3420 0 __mulvdi3
PUBLIC 3440 0 __mulvsi3
PUBLIC 3470 0 __mulvti3
PUBLIC 36e0 0 __negvdi2
PUBLIC 3710 0 __negvsi2
PUBLIC 3730 0 __negvti2
PUBLIC 3780 0 __ffsdi2
PUBLIC 3790 0 __ffsti2
PUBLIC 37b0 0 __clzdi2
PUBLIC 37c0 0 __clzti2
PUBLIC 37e0 0 __ctzdi2
PUBLIC 37f0 0 __ctzti2
PUBLIC 3810 0 __popcountdi2
PUBLIC 3840 0 __popcountti2
PUBLIC 3890 0 __paritydi2
PUBLIC 38d0 0 __parityti2
PUBLIC 3910 0 __powisf2
PUBLIC 3960 0 __powidf2
PUBLIC 39c0 0 __powixf2
PUBLIC 3a20 0 __mulsc3
PUBLIC 3cd0 0 __muldc3
PUBLIC 3fc0 0 __mulxc3
PUBLIC 4420 0 __divsc3
PUBLIC 46f0 0 __divdc3
PUBLIC 4a00 0 __divxc3
PUBLIC 4d00 0 __bswapsi2
PUBLIC 4d10 0 __bswapdi2
PUBLIC 4d20 0 __clrsbdi2
PUBLIC 4d50 0 __clrsbti2
PUBLIC 4da0 0 __fixunssfdi
PUBLIC 4dd0 0 __fixunsdfdi
PUBLIC 4e00 0 __fixunsxfdi
PUBLIC 4e70 0 __fixsfti
PUBLIC 4eb0 0 __fixdfti
PUBLIC 4ef0 0 __fixxfti
PUBLIC 4f30 0 __fixunssfti
PUBLIC 4fd0 0 __fixunsdfti
PUBLIC 5070 0 __fixunsxfti
PUBLIC 5260 0 __floattisf
PUBLIC 5330 0 __floattidf
PUBLIC 5400 0 __floattixf
PUBLIC 5430 0 __floatuntisf
PUBLIC 5520 0 __floatuntidf
PUBLIC 5610 0 __floatuntixf
PUBLIC 5650 0 __divti3
PUBLIC 57f0 0 __modti3
PUBLIC 59e0 0 __udivti3
PUBLIC 5b10 0 __umodti3
PUBLIC 5cb0 0 __udivmodti4
PUBLIC 5f00 0 __addtf3
PUBLIC 73d0 0 __divtf3
PUBLIC 7e50 0 __multf3
PUBLIC 8820 0 __negtf2
PUBLIC 8b70 0 __subtf3
PUBLIC a0e0 0 __unordtf2
PUBLIC a190 0 __fixtfsi
PUBLIC a2a0 0 __fixunstfsi
PUBLIC a380 0 __floatsitf
PUBLIC a470 0 __floatunsitf
PUBLIC a550 0 __fixtfdi
PUBLIC a6d0 0 __fixunstfdi
PUBLIC a800 0 __floatditf
PUBLIC a8f0 0 __floatunditf
PUBLIC a9d0 0 __fixtfti
PUBLIC abb0 0 __fixunstfti
PUBLIC ad40 0 __floattitf
PUBLIC b0d0 0 __floatuntitf
PUBLIC b430 0 __extendsftf2
PUBLIC b5a0 0 __extenddftf2
PUBLIC b730 0 __extendxftf2
PUBLIC b880 0 __trunctfsf2
PUBLIC bd70 0 __trunctfdf2
PUBLIC c2a0 0 __trunctfxf2
PUBLIC c7b0 0 __gttf2
PUBLIC c9e0 0 __letf2
PUBLIC cbe0 0 __eqtf2
PUBLIC cd40 0 __divtc3
PUBLIC d3c0 0 __multc3
PUBLIC da30 0 __powitf2
PUBLIC dad0 0 __enable_execute_stack
PUBLIC de60 0 _Unwind_GetGR
PUBLIC deb0 0 _Unwind_GetCFA
PUBLIC dec0 0 _Unwind_SetGR
PUBLIC df10 0 _Unwind_GetIP
PUBLIC df20 0 _Unwind_GetIPInfo
PUBLIC df40 0 _Unwind_SetIP
PUBLIC df50 0 _Unwind_GetLanguageSpecificData
PUBLIC df60 0 _Unwind_GetRegionStart
PUBLIC df70 0 _Unwind_FindEnclosingFunction
PUBLIC dfa0 0 _Unwind_GetDataRelBase
PUBLIC dfb0 0 _Unwind_GetTextRelBase
PUBLIC fef0 0 _Unwind_RaiseException
PUBLIC 10060 0 _Unwind_ForcedUnwind
PUBLIC 10150 0 _Unwind_Resume
PUBLIC 10230 0 _Unwind_Resume_or_Rethrow
PUBLIC 10330 0 _Unwind_DeleteException
PUBLIC 10350 0 _Unwind_Backtrace
PUBLIC 11ac0 0 __register_frame_info_bases
PUBLIC 11b50 0 __register_frame_info
PUBLIC 11b60 0 __register_frame
PUBLIC 11b90 0 __register_frame_info_table_bases
PUBLIC 11c10 0 __register_frame_info_table
PUBLIC 11c20 0 __register_frame_table
PUBLIC 11c40 0 __deregister_frame_info_bases
PUBLIC 11d60 0 __deregister_frame_info
PUBLIC 11d70 0 __deregister_frame
PUBLIC 11da0 0 _Unwind_Find_FDE
PUBLIC 12160 0 __gcc_personality_v0
PUBLIC 12420 0 __emutls_get_address
PUBLIC 125a0 0 __emutls_register_common
STACK CFI INIT 2bb0 2c0 .cfa: $rsp 16 + .ra: .cfa -8 + ^
STACK CFI 2bb6 .cfa: $rsp 24 +
STACK CFI INIT 2fe0 4b .cfa: $rsp 8 + .ra: .cfa -8 + ^
STACK CFI INIT 3030 29 .cfa: $rsp 8 + .ra: .cfa -8 + ^
STACK CFI INIT 3060 67 .cfa: $rsp 8 + .ra: .cfa -8 + ^
STACK CFI INIT 30d0 67 .cfa: $rsp 8 + .ra: .cfa -8 + ^
STACK CFI INIT 3140 6a .cfa: $rsp 8 + .ra: .cfa -8 + ^
STACK CFI INIT 31b0 32 .cfa: $rsp 8 + .ra: .cfa -8 + ^
STACK CFI INIT 31f0 32 .cfa: $rsp 8 + .ra: .cfa -8 + ^
STACK CFI INIT 3230 2 .cfa: $rsp 8 + .ra: .cfa -8 + ^
STACK CFI INIT 3240 1e .cfa: $rsp 8 + .ra: .cfa -8 + ^
STACK CFI 3259 .cfa: $rsp 16 +
STACK CFI INIT 3260 1c .cfa: $rsp 8 + .ra: .cfa -8 + ^
STACK CFI 3277 .cfa: $rsp 16 +
STACK CFI INIT 3280 25 .cfa: $rsp 8 + .ra: .cfa -8 + ^
STACK CFI 32a0 .cfa: $rsp 16 +
STACK CFI INIT 32b0 26 .cfa: $rsp 8 + .ra: .cfa -8 + ^
STACK CFI 32d1 .cfa: $rsp 16 +
STACK CFI INIT 32e0 25 .cfa: $rsp 8 + .ra: .cfa -8 + ^
STACK CFI 3300 .cfa: $rsp 16 +
STACK CFI INIT 3310 45 .cfa: $rsp 8 + .ra: .cfa -8 + ^
STACK CFI 3317 .cfa: $rsp 16 +
STACK CFI 3354 .cfa: $rsp 8 +
STACK CFI INIT 3360 2e .cfa: $rsp 8 + .ra: .cfa -8 + ^
STACK CFI 3389 .cfa: $rsp 16 +
STACK CFI INIT 3390 25 .cfa: $rsp 8 + .ra: .cfa -8 + ^
STACK CFI 33b0 .cfa: $rsp 16 +
STACK CFI INIT 33c0 55 .cfa: $rsp 8 + .ra: .cfa -8 + ^
STACK CFI 33ca .cfa: $rsp 16 +
STACK CFI 3414 .cfa: $rsp 8 +
STACK CFI INIT 3420 1a .cfa: $rsp 8 + .ra: .cfa -8 + ^
STACK CFI 3435 .cfa: $rsp 16 +
STACK CFI INIT 3440 22 .cfa: $rsp 8 + .ra: .cfa -8 + ^
STACK CFI 345d .cfa: $rsp 16 +
STACK CFI INIT 3470 26e .cfa: $rsp 8 + .ra: .cfa -8 + ^
STACK CFI 3477 .cfa: $rsp 160 +
STACK CFI 34de .cfa: $rsp 8 +
STACK CFI 34df .cfa: $rsp 160 +
STACK CFI INIT 36e0 24 .cfa: $rsp 8 + .ra: .cfa -8 + ^
STACK CFI 36ff .cfa: $rsp 16 +
STACK CFI INIT 3710 1e .cfa: $rsp 8 + .ra: .cfa -8 + ^
STACK CFI 3729 .cfa: $rsp 16 +
STACK CFI INIT 3730 47 .cfa: $rsp 8 + .ra: .cfa -8 + ^
STACK CFI 3772 .cfa: $rsp 16 +
STACK CFI INIT 3780 10 .cfa: $rsp 8 + .ra: .cfa -8 + ^
STACK CFI INIT 3790 1e .cfa: $rsp 8 + .ra: .cfa -8 + ^
STACK CFI INIT 37b0 9 .cfa: $rsp 8 + .ra: .cfa -8 + ^
STACK CFI INIT 37c0 1e .cfa: $rsp 8 + .ra: .cfa -8 + ^
STACK CFI INIT 37e0 5 .cfa: $rsp 8 + .ra: .cfa -8 + ^
STACK CFI INIT 37f0 1b .cfa: $rsp 8 + .ra: .cfa -8 + ^
STACK CFI INIT 3810 2c .cfa: $rsp 8 + .ra: .cfa -8 + ^
STACK CFI INIT 3840 46 .cfa: $rsp 8 + .ra: .cfa -8 + ^
STACK CFI INIT 3890 36 .cfa: $rsp 8 + .ra: .cfa -8 + ^
STACK CFI INIT 38d0 39 .cfa: $rsp 8 + .ra: .cfa -8 + ^
STACK CFI INIT 3910 50 .cfa: $rsp 8 + .ra: .cfa -8 + ^
STACK CFI INIT 3960 51 .cfa: $rsp 8 + .ra: .cfa -8 + ^
STACK CFI INIT 39c0 5f .cfa: $rsp 8 + .ra: .cfa -8 + ^
STACK CFI INIT 3a20 2a8 .cfa: $rsp 8 + .ra: .cfa -8 + ^
STACK CFI INIT 3cd0 2ea .cfa: $rsp 8 + .ra: .cfa -8 + ^
STACK CFI INIT 3fc0 456 .cfa: $rsp 8 + .ra: .cfa -8 + ^
STACK CFI INIT 4420 2cb .cfa: $rsp 8 + .ra: .cfa -8 + ^
STACK CFI INIT 46f0 30a .cfa: $rsp 8 + .ra: .cfa -8 + ^
STACK CFI INIT 4a00 2fb .cfa: $rsp 8 + .ra: .cfa -8 + ^
STACK CFI INIT 4d00 5 .cfa: $rsp 8 + .ra: .cfa -8 + ^
STACK CFI INIT 4d10 7 .cfa: $rsp 8 + .ra: .cfa -8 + ^
STACK CFI INIT 4d20 23 .cfa: $rsp 8 + .ra: .cfa -8 + ^
STACK CFI INIT 4d50 4d .cfa: $rsp 8 + .ra: .cfa -8 + ^
STACK CFI INIT 4da0 2b .cfa: $rsp 8 + .ra: .cfa -8 + ^
STACK CFI INIT 4dd0 2f .cfa: $rsp 8 + .ra: .cfa -8 + ^
STACK CFI INIT 4e00 6a .cfa: $rsp 8 + .ra: .cfa -8 + ^
STACK CFI INIT 4e70 33 .cfa: $rsp 8 + .ra: .cfa -8 + ^
STACK CFI 4e84 .cfa: $rsp 16 +
STACK CFI 4e9f .cfa: $rsp 8 +
STACK CFI INIT 4eb0 34 .cfa: $rsp 8 + .ra: .cfa -8 + ^
STACK CFI 4ec4 .cfa: $rsp 16 +
STACK CFI 4ee0 .cfa: $rsp 8 +
STACK CFI INIT 4ef0 39 .cfa: $rsp 8 + .ra: .cfa -8 + ^
STACK CFI 4ef4 .cfa: $rsp 32 +
STACK CFI 4f06 .cfa: $rsp 8 +
STACK CFI 4f10 .cfa: $rsp 32 +
STACK CFI 4f25 .cfa: $rsp 8 +
STACK CFI INIT 4f30 9f .cfa: $rsp 8 + .ra: .cfa -8 + ^
STACK CFI INIT 4fd0 97 .cfa: $rsp 8 + .ra: .cfa -8 + ^
STACK CFI INIT 5070 1e1 .cfa: $rsp 8 + .ra: .cfa -8 + ^
STACK CFI 5072 $r14: .cfa -16 + ^ .cfa: $rsp 16 +
STACK CFI 5074 $r13: .cfa -24 + ^ .cfa: $rsp 24 +
STACK CFI 5078 .cfa: $rsp 96 +
STACK CFI 513a .cfa: $rsp 24 +
STACK CFI 513c .cfa: $rsp 16 +
STACK CFI 513e .cfa: $rsp 8 +
STACK CFI 5140 .cfa: $rsp 96 +
STACK CFI 51fe .cfa: $rsp 24 +
STACK CFI 5200 .cfa: $rsp 16 +
STACK CFI 5202 .cfa: $rsp 8 +
STACK CFI 5208 .cfa: $rsp 96 +
STACK CFI 5248 .cfa: $rsp 24 +
STACK CFI 524e .cfa: $rsp 16 +
STACK CFI 5250 .cfa: $rsp 8 +
STACK CFI INIT 5260 ca .cfa: $rsp 8 + .ra: .cfa -8 + ^
STACK CFI INIT 5330 ca .cfa: $rsp 8 + .ra: .cfa -8 + ^
STACK CFI INIT 5400 2d .cfa: $rsp 8 + .ra: .cfa -8 + ^
STACK CFI INIT 5430 ee .cfa: $rsp 8 + .ra: .cfa -8 + ^
STACK CFI INIT 5520 ee .cfa: $rsp 8 + .ra: .cfa -8 + ^
STACK CFI INIT 5610 3d .cfa: $rsp 8 + .ra: .cfa -8 + ^
STACK CFI INIT 5650 19c .cfa: $rsp 8 + .ra: .cfa -8 + ^
STACK CFI 5651 $rbx: .cfa -16 + ^ .cfa: $rsp 16 +
STACK CFI 56ee .cfa: $rsp 8 +
STACK CFI 56f0 .cfa: $rsp 16 +
STACK CFI INIT 57f0 1eb .cfa: $rsp 8 + .ra: .cfa -8 + ^
STACK CFI 57f2 $r12: .cfa -16 + ^ .cfa: $rsp 16 +
STACK CFI 57fc $rbp: .cfa -24 + ^ .cfa: $rsp 24 +
STACK CFI 57fd $rbx: .cfa -32 + ^ .cfa: $rsp 32 +
STACK CFI 58a9 .cfa: $rsp 24 +
STACK CFI 58aa .cfa: $rsp 16 +
STACK CFI 58ac .cfa: $rsp 8 +
STACK CFI 58b0 .cfa: $rsp 32 +
STACK CFI INIT 59e0 12b .cfa: $rsp 8 + .ra: .cfa -8 + ^
STACK CFI INIT 5b10 189 .cfa: $rsp 8 + .ra: .cfa -8 + ^
STACK CFI 5b11 $rbp: .cfa -16 + ^ .cfa: $rsp 16 +
STACK CFI 5b1b $rbx: .cfa -24 + ^ .cfa: $rsp 24 +
STACK CFI 5b4e .cfa: $rsp 16 +
STACK CFI 5b4f .cfa: $rsp 8 +
STACK CFI 5b50 .cfa: $rsp 24 +
STACK CFI 5b8f .cfa: $rsp 16 +
STACK CFI 5b90 .cfa: $rsp 8 +
STACK CFI 5b98 .cfa: $rsp 24 +
STACK CFI 5bd5 .cfa: $rsp 16 +
STACK CFI 5bd6 .cfa: $rsp 8 +
STACK CFI 5be0 .cfa: $rsp 24 +
STACK CFI 5c69 .cfa: $rsp 16 +
STACK CFI 5c6a .cfa: $rsp 8 +
STACK CFI 5c70 .cfa: $rsp 24 +
STACK CFI INIT 5ca0 3 .cfa: $rsp 8 + .ra: .cfa -8 + ^
STACK CFI INIT 5cb0 247 .cfa: $rsp 8 + .ra: .cfa -8 + ^
STACK CFI 5cd2 $r12: .cfa -24 + ^ $r13: .cfa -16 + ^ $rbp: .cfa -32 + ^ $rbx: .cfa -40 + ^
STACK CFI INIT 5f00 14c4 .cfa: $rsp 8 + .ra: .cfa -8 + ^
STACK CFI 5f02 $r15: .cfa -16 + ^ .cfa: $rsp 16 +
STACK CFI 5f11 $r14: .cfa -24 + ^ .cfa: $rsp 24 +
STACK CFI 5f13 $r13: .cfa -32 + ^ .cfa: $rsp 32 +
STACK CFI 5f15 $r12: .cfa -40 + ^ .cfa: $rsp 40 +
STACK CFI 5f16 $rbp: .cfa -48 + ^ .cfa: $rsp 48 +
STACK CFI 5f17 $rbx: .cfa -56 + ^ .cfa: $rsp 56 +
STACK CFI 5f1b .cfa: $rsp 72 +
STACK CFI 6170 .cfa: $rsp 56 +
STACK CFI 6171 .cfa: $rsp 48 +
STACK CFI 6172 .cfa: $rsp 40 +
STACK CFI 6174 .cfa: $rsp 32 +
STACK CFI 6176 .cfa: $rsp 24 +
STACK CFI 6178 .cfa: $rsp 16 +
STACK CFI 617a .cfa: $rsp 8 +
STACK CFI 6180 .cfa: $rsp 72 +
STACK CFI INIT 73d0 a79 .cfa: $rsp 8 + .ra: .cfa -8 + ^
STACK CFI 73d2 $r15: .cfa -16 + ^ .cfa: $rsp 16 +
STACK CFI 73d4 $r14: .cfa -24 + ^ .cfa: $rsp 24 +
STACK CFI 73d6 $r13: .cfa -32 + ^ .cfa: $rsp 32 +
STACK CFI 73d8 $r12: .cfa -40 + ^ .cfa: $rsp 40 +
STACK CFI 73d9 $rbp: .cfa -48 + ^ .cfa: $rsp 48 +
STACK CFI 73da $rbx: .cfa -56 + ^ .cfa: $rsp 56 +
STACK CFI 73de .cfa: $rsp 88 +
STACK CFI 7790 .cfa: $rsp 56 +
STACK CFI 7791 .cfa: $rsp 48 +
STACK CFI 7792 .cfa: $rsp 40 +
STACK CFI 7794 .cfa: $rsp 32 +
STACK CFI 7796 .cfa: $rsp 24 +
STACK CFI 7798 .cfa: $rsp 16 +
STACK CFI 779a .cfa: $rsp 8 +
STACK CFI 77a0 .cfa: $rsp 88 +
STACK CFI INIT 7e50 9c7 .cfa: $rsp 8 + .ra: .cfa -8 + ^
STACK CFI 7e52 $r15: .cfa -16 + ^ .cfa: $rsp 16 +
STACK CFI 7e54 $r14: .cfa -24 + ^ .cfa: $rsp 24 +
STACK CFI 7e56 $r13: .cfa -32 + ^ .cfa: $rsp 32 +
STACK CFI 7e58 $r12: .cfa -40 + ^ .cfa: $rsp 40 +
STACK CFI 7e59 $rbp: .cfa -48 + ^ .cfa: $rsp 48 +
STACK CFI 7e5a $rbx: .cfa -56 + ^ .cfa: $rsp 56 +
STACK CFI 7e5e .cfa: $rsp 72 +
STACK CFI 833b .cfa: $rsp 56 +
STACK CFI 833c .cfa: $rsp 48 +
STACK CFI 833d .cfa: $rsp 40 +
STACK CFI 833f .cfa: $rsp 32 +
STACK CFI 8341 .cfa: $rsp 24 +
STACK CFI 8343 .cfa: $rsp 16 +
STACK CFI 8345 .cfa: $rsp 8 +
STACK CFI 8350 .cfa: $rsp 72 +
STACK CFI INIT 8820 346 .cfa: $rsp 8 + .ra: .cfa -8 + ^
STACK CFI INIT 8b70 1561 .cfa: $rsp 8 + .ra: .cfa -8 + ^
STACK CFI 8b72 $r15: .cfa -16 + ^ .cfa: $rsp 16 +
STACK CFI 8b81 $r14: .cfa -24 + ^ .cfa: $rsp 24 +
STACK CFI 8b83 $r13: .cfa -32 + ^ .cfa: $rsp 32 +
STACK CFI 8b85 $r12: .cfa -40 + ^ .cfa: $rsp 40 +
STACK CFI 8b86 $rbp: .cfa -48 + ^ .cfa: $rsp 48 +
STACK CFI 8b87 $rbx: .cfa -56 + ^ .cfa: $rsp 56 +
STACK CFI 8b8b .cfa: $rsp 72 +
STACK CFI 8f48 .cfa: $rsp 56 +
STACK CFI 8f49 .cfa: $rsp 48 +
STACK CFI 8f4a .cfa: $rsp 40 +
STACK CFI 8f4c .cfa: $rsp 32 +
STACK CFI 8f4e .cfa: $rsp 24 +
STACK CFI 8f50 .cfa: $rsp 16 +
STACK CFI 8f52 .cfa: $rsp 8 +
STACK CFI 8f58 .cfa: $rsp 72 +
STACK CFI INIT a0e0 ab .cfa: $rsp 8 + .ra: .cfa -8 + ^
STACK CFI INIT a190 108 .cfa: $rsp 8 + .ra: .cfa -8 + ^
STACK CFI INIT a2a0 dc .cfa: $rsp 8 + .ra: .cfa -8 + ^
STACK CFI INIT a380 ed .cfa: $rsp 8 + .ra: .cfa -8 + ^
STACK CFI INIT a470 db .cfa: $rsp 8 + .ra: .cfa -8 + ^
STACK CFI INIT a550 171 .cfa: $rsp 8 + .ra: .cfa -8 + ^
STACK CFI INIT a6d0 123 .cfa: $rsp 8 + .ra: .cfa -8 + ^
STACK CFI INIT a800 ed .cfa: $rsp 8 + .ra: .cfa -8 + ^
STACK CFI INIT a8f0 db .cfa: $rsp 8 + .ra: .cfa -8 + ^
STACK CFI INIT a9d0 1dc .cfa: $rsp 8 + .ra: .cfa -8 + ^
STACK CFI a9d1 $rbx: .cfa -16 + ^ .cfa: $rsp 16 +
STACK CFI aa31 .cfa: $rsp 8 +
STACK CFI aa38 .cfa: $rsp 16 +
STACK CFI aa84 .cfa: $rsp 8 +
STACK CFI aa88 .cfa: $rsp 16 +
STACK CFI aa92 .cfa: $rsp 8 +
STACK CFI aa98 .cfa: $rsp 16 +
STACK CFI ab2b .cfa: $rsp 8 +
STACK CFI ab30 .cfa: $rsp 16 +
STACK CFI INIT abb0 18a .cfa: $rsp 8 + .ra: .cfa -8 + ^
STACK CFI INIT ad40 38b .cfa: $rsp 8 + .ra: .cfa -8 + ^
STACK CFI INIT b0d0 35b .cfa: $rsp 8 + .ra: .cfa -8 + ^
STACK CFI INIT b430 16a .cfa: $rsp 8 + .ra: .cfa -8 + ^
STACK CFI INIT b5a0 18a .cfa: $rsp 8 + .ra: .cfa -8 + ^
STACK CFI INIT b730 14b .cfa: $rsp 8 + .ra: .cfa -8 + ^
STACK CFI INIT b880 4e9 .cfa: $rsp 8 + .ra: .cfa -8 + ^
STACK CFI INIT bd70 528 .cfa: $rsp 8 + .ra: .cfa -8 + ^
STACK CFI INIT c2a0 510 .cfa: $rsp 8 + .ra: .cfa -8 + ^
STACK CFI c2a1 $rbx: .cfa -16 + ^ .cfa: $rsp 16 +
STACK CFI c457 .cfa: $rsp 8 +
STACK CFI c460 .cfa: $rsp 16 +
STACK CFI INIT c7b0 225 .cfa: $rsp 8 + .ra: .cfa -8 + ^
STACK CFI c7b1 $rbx: .cfa -16 + ^ .cfa: $rsp 16 +
STACK CFI c8aa .cfa: $rsp 8 +
STACK CFI c8b0 .cfa: $rsp 16 +
STACK CFI c8d6 .cfa: $rsp 8 +
STACK CFI c8e0 .cfa: $rsp 16 +
STACK CFI c91c .cfa: $rsp 8 +
STACK CFI c921 .cfa: $rsp 16 +
STACK CFI c937 .cfa: $rsp 8 +
STACK CFI c940 .cfa: $rsp 16 +
STACK CFI c956 .cfa: $rsp 8 +
STACK CFI c960 .cfa: $rsp 16 +
STACK CFI c9c5 .cfa: $rsp 8 +
STACK CFI c9c6 .cfa: $rsp 16 +
STACK CFI INIT c9e0 1f8 .cfa: $rsp 8 + .ra: .cfa -8 + ^
STACK CFI c9e1 $rbx: .cfa -16 + ^ .cfa: $rsp 16 +
STACK CFI cace .cfa: $rsp 8 +
STACK CFI cad0 .cfa: $rsp 16 +
STACK CFI cae4 .cfa: $rsp 8 +
STACK CFI cae8 .cfa: $rsp 16 +
STACK CFI cb13 .cfa: $rsp 8 +
STACK CFI cb18 .cfa: $rsp 16 +
STACK CFI cb4d .cfa: $rsp 8 +
STACK CFI cb4e .cfa: $rsp 16 +
STACK CFI cb64 .cfa: $rsp 8 +
STACK CFI cb68 .cfa: $rsp 16 +
STACK CFI cbc9 .cfa: $rsp 8 +
STACK CFI cbca .cfa: $rsp 16 +
STACK CFI INIT cbe0 152 .cfa: $rsp 8 + .ra: .cfa -8 + ^
STACK CFI INIT cd40 679 .cfa: $rsp 8 + .ra: .cfa -8 + ^
STACK CFI cd42 $r12: .cfa -16 + ^ .cfa: $rsp 16 +
STACK CFI cd43 $rbp: .cfa -24 + ^ .cfa: $rsp 24 +
STACK CFI cd44 $rbx: .cfa -32 + ^ .cfa: $rsp 32 +
STACK CFI cd4b .cfa: $rsp 160 +
STACK CFI ce4e .cfa: $rsp 32 +
STACK CFI ce4f .cfa: $rsp 24 +
STACK CFI ce50 .cfa: $rsp 16 +
STACK CFI ce52 .cfa: $rsp 8 +
STACK CFI ce58 .cfa: $rsp 160 +
STACK CFI INIT d3c0 66a .cfa: $rsp 8 + .ra: .cfa -8 + ^
STACK CFI d3ca $rbp: .cfa -32 + ^ $rbx: .cfa -40 + ^
STACK CFI d3de $r12: .cfa -24 + ^ $r13: .cfa -16 + ^ .cfa: $rsp 240 +
STACK CFI d4d4 .cfa: $rsp 8 +
STACK CFI d4d5 .cfa: $rsp 240 +
STACK CFI INIT da30 97 .cfa: $rsp 8 + .ra: .cfa -8 + ^
STACK CFI da31 $rbp: .cfa -16 + ^ .cfa: $rsp 16 +
STACK CFI da3d $rbx: .cfa -24 + ^ .cfa: $rsp 24 +
STACK CFI da45 .cfa: $rsp 64 +
STACK CFI dac4 .cfa: $rsp 24 +
STACK CFI dac5 .cfa: $rsp 16 +
STACK CFI dac6 .cfa: $rsp 8 +
STACK CFI INIT dad0 2 .cfa: $rsp 8 + .ra: .cfa -8 + ^
STACK CFI INIT dae0 46 .cfa: $rsp 8 + .ra: .cfa -8 + ^
STACK CFI INIT db30 13c .cfa: $rsp 8 + .ra: .cfa -8 + ^
STACK CFI db3a $r12: .cfa -16 + ^ $rbx: .cfa -32 + ^
STACK CFI db45 $rbp: .cfa -24 + ^ .cfa: $rsp 64 +
STACK CFI dbbf .cfa: $rsp 8 +
STACK CFI dbc0 .cfa: $rsp 64 +
STACK CFI INIT dc70 78 .cfa: $rsp 8 + .ra: .cfa -8 + ^
STACK CFI INIT dcf0 162 .cfa: $rsp 8 + .ra: .cfa -8 + ^
STACK CFI dcf2 $r12: .cfa -16 + ^ .cfa: $rsp 16 +
STACK CFI dcf6 $rbp: .cfa -24 + ^ .cfa: $rsp 24 +
STACK CFI dcfa $rbx: .cfa -32 + ^ .cfa: $rsp 32 +
STACK CFI dcfe .cfa: $rsp 48 +
STACK CFI ddd6 .cfa: $rsp 32 +
STACK CFI ddd7 .cfa: $rsp 24 +
STACK CFI ddd8 .cfa: $rsp 16 +
STACK CFI ddda .cfa: $rsp 8 +
STACK CFI dde0 .cfa: $rsp 48 +
STACK CFI de07 .cfa: $rsp 32 +
STACK CFI de08 .cfa: $rsp 24 +
STACK CFI de09 .cfa: $rsp 16 +
STACK CFI de0b .cfa: $rsp 8 +
STACK CFI de0c .cfa: $rsp 48 +
STACK CFI de4d .cfa: $rsp 32 +
STACK CFI de4e .cfa: $rsp 24 +
STACK CFI de4f .cfa: $rsp 16 +
STACK CFI de51 .cfa: $rsp 8 +
STACK CFI INIT de60 48 .cfa: $rsp 8 + .ra: .cfa -8 + ^
STACK CFI de64 .cfa: $rsp 16 +
STACK CFI de9e .cfa: $rsp 8 +
STACK CFI dea0 .cfa: $rsp 16 +
STACK CFI dea7 .cfa: $rsp 8 +
STACK CFI INIT deb0 8 .cfa: $rsp 8 + .ra: .cfa -8 + ^
STACK CFI INIT dec0 50 .cfa: $rsp 8 + .ra: .cfa -8 + ^
STACK CFI dec4 .cfa: $rsp 16 +
STACK CFI df02 .cfa: $rsp 8 +
STACK CFI df08 .cfa: $rsp 16 +
STACK CFI df0f .cfa: $rsp 8 +
STACK CFI INIT df10 8 .cfa: $rsp 8 + .ra: .cfa -8 + ^
STACK CFI INIT df20 15 .cfa: $rsp 8 + .ra: .cfa -8 + ^
STACK CFI INIT df40 8 .cfa: $rsp 8 + .ra: .cfa -8 + ^
STACK CFI INIT df50 8 .cfa: $rsp 8 + .ra: .cfa -8 + ^
STACK CFI INIT df60 8 .cfa: $rsp 8 + .ra: .cfa -8 + ^
STACK CFI INIT df70 24 .cfa: $rsp 8 + .ra: .cfa -8 + ^
STACK CFI df74 .cfa: $rsp 48 +
STACK CFI df8e .cfa: $rsp 8 +
STACK CFI df90 .cfa: $rsp 48 +
STACK CFI INIT dfa0 8 .cfa: $rsp 8 + .ra: .cfa -8 + ^
STACK CFI INIT dfb0 8 .cfa: $rsp 8 + .ra: .cfa -8 + ^
STACK CFI INIT dfc0 7c .cfa: $rsp 8 + .ra: .cfa -8 + ^
STACK CFI dfc4 .cfa: $rsp 16 +
STACK CFI dffa .cfa: $rsp 8 +
STACK CFI e000 .cfa: $rsp 16 +
STACK CFI e017 .cfa: $rsp 8 +
STACK CFI e020 .cfa: $rsp 16 +
STACK CFI e027 .cfa: $rsp 8 +
STACK CFI e030 .cfa: $rsp 16 +
STACK CFI e037 .cfa: $rsp 8 +
STACK CFI INIT e040 6c6 .cfa: $rsp 8 + .ra: .cfa -8 + ^
STACK CFI e042 $r15: .cfa -16 + ^ .cfa: $rsp 16 +
STACK CFI e047 $r14: .cfa -24 + ^ .cfa: $rsp 24 +
STACK CFI e049 $r13: .cfa -32 + ^ .cfa: $rsp 32 +
STACK CFI e04b $r12: .cfa -40 + ^ .cfa: $rsp 40 +
STACK CFI e04f $rbp: .cfa -48 + ^ .cfa: $rsp 48 +
STACK CFI e050 $rbx: .cfa -56 + ^ .cfa: $rsp 56 +
STACK CFI e057 .cfa: $rsp 608 +
STACK CFI e0eb .cfa: $rsp 56 +
STACK CFI e0ef .cfa: $rsp 48 +
STACK CFI e0f0 .cfa: $rsp 40 +
STACK CFI e0f2 .cfa: $rsp 32 +
STACK CFI e0f4 .cfa: $rsp 24 +
STACK CFI e0f6 .cfa: $rsp 16 +
STACK CFI e0f8 .cfa: $rsp 8 +
STACK CFI e100 .cfa: $rsp 608 +
STACK CFI INIT e710 3a6 .cfa: $rsp 8 + .ra: .cfa -8 + ^
STACK CFI e712 $r15: .cfa -16 + ^ .cfa: $rsp 16 +
STACK CFI e719 $r14: .cfa -24 + ^ .cfa: $rsp 24 +
STACK CFI e71e $r13: .cfa -32 + ^ .cfa: $rsp 32 +
STACK CFI e720 $r12: .cfa -40 + ^ .cfa: $rsp 40 +
STACK CFI e721 $rbp: .cfa -48 + ^ .cfa: $rsp 48 +
STACK CFI e722 $rbx: .cfa -56 + ^ .cfa: $rsp 56 +
STACK CFI e729 .cfa: $rsp 368 +
STACK CFI e8d0 .cfa: $rsp 56 +
STACK CFI e8d1 .cfa: $rsp 48 +
STACK CFI e8d2 .cfa: $rsp 40 +
STACK CFI e8d4 .cfa: $rsp 32 +
STACK CFI e8d6 .cfa: $rsp 24 +
STACK CFI e8d8 .cfa: $rsp 16 +
STACK CFI e8da .cfa: $rsp 8 +
STACK CFI e8e0 .cfa: $rsp 368 +
STACK CFI INIT eac0 a2 .cfa: $rsp 8 + .ra: .cfa -8 + ^
STACK CFI eaca $rbp: .cfa -16 + ^ $rbx: .cfa -24 + ^
STACK CFI ead1 .cfa: $rsp 32 +
STACK CFI eb40 .cfa: $rsp 8 +
STACK CFI eb48 .cfa: $rsp 32 +
STACK CFI eb61 .cfa: $rsp 8 +
STACK CFI INIT eb70 85e .cfa: $rsp 8 + .ra: .cfa -8 + ^
STACK CFI eb71 $rbp: .cfa -16 + ^ .cfa: $rsp 16 +
STACK CFI eb77 .cfa: $rbp 16 +
STACK CFI eb79 $r15: .cfa -24 + ^
STACK CFI eb82 $r12: .cfa -48 + ^ $r13: .cfa -40 + ^ $r14: .cfa -32 + ^
STACK CFI eb8a $rbx: .cfa -56 + ^
STACK CFI ec4c .cfa: $rsp 8 +
STACK CFI ec50 .cfa: $rbp 16 +
STACK CFI INIT f3d0 64f .cfa: $rsp 8 + .ra: .cfa -8 + ^
STACK CFI f3d2 $r15: .cfa -16 + ^ .cfa: $rsp 16 +
STACK CFI f3d9 $r14: .cfa -24 + ^ .cfa: $rsp 24 +
STACK CFI f3db $r13: .cfa -32 + ^ .cfa: $rsp 32 +
STACK CFI f3e3 $r12: .cfa -40 + ^ .cfa: $rsp 40 +
STACK CFI f3e4 $rbp: .cfa -48 + ^ .cfa: $rsp 48 +
STACK CFI f3e8 $rbx: .cfa -56 + ^ .cfa: $rsp 56 +
STACK CFI f3ec .cfa: $rsp 96 +
STACK CFI f619 .cfa: $rsp 56 +
STACK CFI f61a .cfa: $rsp 48 +
STACK CFI f61b .cfa: $rsp 40 +
STACK CFI f61d .cfa: $rsp 32 +
STACK CFI f61f .cfa: $rsp 24 +
STACK CFI f621 .cfa: $rsp 16 +
STACK CFI f623 .cfa: $rsp 8 +
STACK CFI f628 .cfa: $rsp 96 +
STACK CFI f710 .cfa: $rsp 56 +
STACK CFI f713 .cfa: $rsp 48 +
STACK CFI f714 .cfa: $rsp 40 +
STACK CFI f716 .cfa: $rsp 32 +
STACK CFI f718 .cfa: $rsp 24 +
STACK CFI f71a .cfa: $rsp 16 +
STACK CFI f71c .cfa: $rsp 8 +
STACK CFI f71d .cfa: $rsp 96 +
STACK CFI f91d .cfa: $rsp 56 +
STACK CFI f923 .cfa: $rsp 48 +
STACK CFI f924 .cfa: $rsp 40 +
STACK CFI f926 .cfa: $rsp 32 +
STACK CFI f928 .cfa: $rsp 24 +
STACK CFI f92a .cfa: $rsp 16 +
STACK CFI f92c .cfa: $rsp 8 +
STACK CFI f92d .cfa: $rsp 96 +
STACK CFI INIT fa20 20a .cfa: $rsp 8 + .ra: .cfa -8 + ^
STACK CFI fa22 $r12: .cfa -16 + ^ .cfa: $rsp 16 +
STACK CFI fa2c $rbp: .cfa -24 + ^ .cfa: $rsp 24 +
STACK CFI fa30 $rbx: .cfa -32 + ^ .cfa: $rsp 32 +
STACK CFI fa3a .cfa: $rsp 432 +
STACK CFI fbde .cfa: $rsp 32 +
STACK CFI fbdf .cfa: $rsp 24 +
STACK CFI fbe0 .cfa: $rsp 16 +
STACK CFI fbe2 .cfa: $rsp 8 +
STACK CFI fbe8 .cfa: $rsp 432 +
STACK CFI INIT fc30 ea .cfa: $rsp 8 + .ra: .cfa -8 + ^
STACK CFI fc32 $r14: .cfa -16 + ^ .cfa: $rsp 16 +
STACK CFI fc34 $r13: .cfa -24 + ^ .cfa: $rsp 24 +
STACK CFI fc36 $r12: .cfa -32 + ^ .cfa: $rsp 32 +
STACK CFI fc3a $rbp: .cfa -40 + ^ .cfa: $rsp 40 +
STACK CFI fc3e $rbx: .cfa -48 + ^ .cfa: $rsp 48 +
STACK CFI fc45 .cfa: $rsp 432 +
STACK CFI fcfc .cfa: $rsp 48 +
STACK CFI fcff .cfa: $rsp 40 +
STACK CFI fd00 .cfa: $rsp 32 +
STACK CFI fd02 .cfa: $rsp 24 +
STACK CFI fd04 .cfa: $rsp 16 +
STACK CFI fd06 .cfa: $rsp 8 +
STACK CFI fd10 .cfa: $rsp 432 +
STACK CFI INIT fd20 a3 .cfa: $rsp 8 + .ra: .cfa -8 + ^
STACK CFI fd22 $r13: .cfa -16 + ^ .cfa: $rsp 16 +
STACK CFI fd24 $r12: .cfa -24 + ^ .cfa: $rsp 24 +
STACK CFI fd28 $rbp: .cfa -32 + ^ .cfa: $rsp 32 +
STACK CFI fd29 $rbx: .cfa -40 + ^ .cfa: $rsp 40 +
STACK CFI fd33 .cfa: $rsp 432 +
STACK CFI fdb7 .cfa: $rsp 40 +
STACK CFI fdb8 .cfa: $rsp 32 +
STACK CFI fdb9 .cfa: $rsp 24 +
STACK CFI fdbb .cfa: $rsp 16 +
STACK CFI fdbd .cfa: $rsp 8 +
STACK CFI fdbe .cfa: $rsp 432 +
STACK CFI INIT fdd0 110 .cfa: $rsp 8 + .ra: .cfa -8 + ^
STACK CFI fdd1 $rbx: .cfa -16 + ^ .cfa: $rsp 16 +
STACK CFI fde9 .cfa: $rsp 640 +
STACK CFI fecd .cfa: $rsp 16 +
STACK CFI fed1 .cfa: $rsp 8 +
STACK CFI fed2 .cfa: $rsp 640 +
STACK CFI fedb .cfa: $rsp 16 +
STACK CFI fedf .cfa: $rsp 8 +
STACK CFI INIT fee0 1 .cfa: $rsp 8 + .ra: .cfa -8 + ^
STACK CFI INIT fef0 167 .cfa: $rsp 8 + .ra: .cfa -8 + ^
STACK CFI fef1 $rbp: .cfa -16 + ^ .cfa: $rsp 16 +
STACK CFI fef4 .cfa: $rbp 16 +
STACK CFI fefe $r13: .cfa -40 + ^ $r14: .cfa -32 + ^ $r15: .cfa -24 + ^
STACK CFI ff07 $r12: .cfa -48 + ^
STACK CFI ff0e $rbx: .cfa -56 + ^
STACK CFI ff1e $rax: .cfa -72 + ^ $rdx: .cfa -64 + ^
STACK CFI ffa5 .cfa: $rsp 8 +
STACK CFI ffb0 .cfa: $rbp 16 +
STACK CFI 10053 $rbp: $rbp .cfa: $rcx 8 +
STACK CFI INIT 10060 e6 .cfa: $rsp 8 + .ra: .cfa -8 + ^
STACK CFI 10061 $rbp: .cfa -16 + ^ .cfa: $rsp 16 +
STACK CFI 10064 .cfa: $rbp 16 +
STACK CFI 10074 $r12: .cfa -48 + ^ $rax: .cfa -72 + ^ $rbx: .cfa -56 + ^ $rdx: .cfa -64 + ^
STACK CFI 10083 $r13: .cfa -40 + ^ $r14: .cfa -32 + ^
STACK CFI 10091 $r15: .cfa -24 + ^
STACK CFI 100ec .cfa: $rsp 8 +
STACK CFI 100ed .cfa: $rbp 16 +
STACK CFI 10142 $rbp: $rbp .cfa: $rcx 8 +
STACK CFI INIT 10150 d7 .cfa: $rsp 8 + .ra: .cfa -8 + ^
STACK CFI 10151 $rbp: .cfa -16 + ^ .cfa: $rsp 16 +
STACK CFI 10154 .cfa: $rbp 16 +
STACK CFI 1015c $rbx: .cfa -56 + ^ $rdx: .cfa -64 + ^
STACK CFI 10177 $r12: .cfa -48 + ^ $r13: .cfa -40 + ^ $r14: .cfa -32 + ^ $rax: .cfa -72 + ^
STACK CFI 10189 $r15: .cfa -24 + ^
STACK CFI 10223 $rbp: $rbp .cfa: $rcx 8 +
STACK CFI INIT 10230 f1 .cfa: $rsp 8 + .ra: .cfa -8 + ^
STACK CFI 10231 $rbp: .cfa -16 + ^ .cfa: $rsp 16 +
STACK CFI 10234 .cfa: $rbp 16 +
STACK CFI 1023c $rax: .cfa -72 + ^ $rbx: .cfa -56 + ^
STACK CFI 1025a $r12: .cfa -48 + ^ $r13: .cfa -40 + ^ $r14: .cfa -32 + ^ $r15: .cfa -24 + ^ $rdx: .cfa -64 + ^
STACK CFI 1027b .cfa: $rsp 8 +
STACK CFI 10280 .cfa: $rbp 16 +
STACK CFI 1031d $rbp: $rbp .cfa: $rcx 8 +
STACK CFI INIT 10330 1a .cfa: $rsp 8 + .ra: .cfa -8 + ^
STACK CFI INIT 10350 99 .cfa: $rsp 8 + .ra: .cfa -8 + ^
STACK CFI 10351 $rbp: .cfa -16 + ^ .cfa: $rsp 16 +
STACK CFI 10354 .cfa: $rbp 16 +
STACK CFI 1035a $r13: .cfa -40 + ^ $r14: .cfa -32 + ^ $r15: .cfa -24 + ^
STACK CFI 10366 $r12: .cfa -48 + ^
STACK CFI 10375 $rbx: .cfa -56 + ^
STACK CFI 103e8 .cfa: $rsp 8 +
STACK CFI INIT 103f0 46 .cfa: $rsp 8 + .ra: .cfa -8 + ^
STACK CFI INIT 10440 1b .cfa: $rsp 8 + .ra: .cfa -8 + ^
STACK CFI INIT 10460 a3 .cfa: $rsp 8 + .ra: .cfa -8 + ^
STACK CFI 10462 $r15: .cfa -16 + ^ .cfa: $rsp 16 +
STACK CFI 10464 $r14: .cfa -24 + ^ .cfa: $rsp 24 +
STACK CFI 10469 $r13: .cfa -32 + ^ .cfa: $rsp 32 +
STACK CFI 1046e $r12: .cfa -40 + ^ .cfa: $rsp 40 +
STACK CFI 10472 $rbp: .cfa -48 + ^ .cfa: $rsp 48 +
STACK CFI 10473 $rbx: .cfa -56 + ^ .cfa: $rsp 56 +
STACK CFI 1047b .cfa: $rsp 80 +
STACK CFI 104cd .cfa: $rsp 56 +
STACK CFI 104ce .cfa: $rsp 48 +
STACK CFI 104cf .cfa: $rsp 40 +
STACK CFI 104d1 .cfa: $rsp 32 +
STACK CFI 104d3 .cfa: $rsp 24 +
STACK CFI 104d5 .cfa: $rsp 16 +
STACK CFI 104d7 .cfa: $rsp 8 +
STACK CFI 104e0 .cfa: $rsp 80 +
STACK CFI INIT 10510 c8 .cfa: $rsp 8 + .ra: .cfa -8 + ^
STACK CFI 10512 $r15: .cfa -16 + ^ .cfa: $rsp 16 +
STACK CFI 10518 $r14: .cfa -24 + ^ .cfa: $rsp 24 +
STACK CFI 1051a $r13: .cfa -32 + ^ .cfa: $rsp 32 +
STACK CFI 1051f $r12: .cfa -40 + ^ .cfa: $rsp 40 +
STACK CFI 10523 $rbp: .cfa -48 + ^ .cfa: $rsp 48 +
STACK CFI 10524 $rbx: .cfa -56 + ^ .cfa: $rsp 56 +
STACK CFI 1052b .cfa: $rsp 80 +
STACK CFI 105cd .cfa: $rsp 56 +
STACK CFI 105ce .cfa: $rsp 48 +
STACK CFI 105cf .cfa: $rsp 40 +
STACK CFI 105d1 .cfa: $rsp 32 +
STACK CFI 105d3 .cfa: $rsp 24 +
STACK CFI 105d5 .cfa: $rsp 16 +
STACK CFI 105d7 .cfa: $rsp 8 +
STACK CFI INIT 105e0 67 .cfa: $rsp 8 + .ra: .cfa -8 + ^
STACK CFI 105e4 .cfa: $rsp 16 +
STACK CFI 1061e .cfa: $rsp 8 +
STACK CFI 10620 .cfa: $rsp 16 +
STACK CFI 10629 .cfa: $rsp 8 +
STACK CFI 10630 .cfa: $rsp 16 +
STACK CFI 10639 .cfa: $rsp 8 +
STACK CFI 10640 .cfa: $rsp 16 +
STACK CFI 10646 .cfa: $rsp 8 +
STACK CFI INIT 10650 13c .cfa: $rsp 8 + .ra: .cfa -8 + ^
STACK CFI 1065a $r12: .cfa -16 + ^ $rbx: .cfa -32 + ^
STACK CFI 10665 $rbp: .cfa -24 + ^ .cfa: $rsp 64 +
STACK CFI 106df .cfa: $rsp 8 +
STACK CFI 106e0 .cfa: $rsp 64 +
STACK CFI INIT 10790 109 .cfa: $rsp 8 + .ra: .cfa -8 + ^
STACK CFI 10791 $rbp: .cfa -16 + ^ .cfa: $rsp 16 +
STACK CFI 10799 $rbx: .cfa -24 + ^ .cfa: $rsp 24 +
STACK CFI 1079d .cfa: $rsp 48 +
STACK CFI 107c5 .cfa: $rsp 24 +
STACK CFI 107c6 .cfa: $rsp 16 +
STACK CFI 107c7 .cfa: $rsp 8 +
STACK CFI 107d0 .cfa: $rsp 48 +
STACK CFI 10867 .cfa: $rsp 24 +
STACK CFI 10868 .cfa: $rsp 16 +
STACK CFI 10869 .cfa: $rsp 8 +
STACK CFI 10870 .cfa: $rsp 48 +
STACK CFI INIT 108a0 6b .cfa: $rsp 8 + .ra: .cfa -8 + ^
STACK CFI 108a4 .cfa: $rsp 16 +
STACK CFI 108db .cfa: $rsp 8 +
STACK CFI 108e0 .cfa: $rsp 16 +
STACK CFI 108e7 .cfa: $rsp 8 +
STACK CFI 108f0 .cfa: $rsp 16 +
STACK CFI 108f7 .cfa: $rsp 8 +
STACK CFI 10900 .cfa: $rsp 16 +
STACK CFI INIT 10910 178 .cfa: $rsp 8 + .ra: .cfa -8 + ^
STACK CFI 10912 $r15: .cfa -16 + ^ .cfa: $rsp 16 +
STACK CFI 10917 $r14: .cfa -24 + ^ .cfa: $rsp 24 +
STACK CFI 10919 $r13: .cfa -32 + ^ .cfa: $rsp 32 +
STACK CFI 1091b $r12: .cfa -40 + ^ .cfa: $rsp 40 +
STACK CFI 1091c $rbp: .cfa -48 + ^ .cfa: $rsp 48 +
STACK CFI 1091d $rbx: .cfa -56 + ^ .cfa: $rsp 56 +
STACK CFI 10921 .cfa: $rsp 112 +
STACK CFI 10a72 .cfa: $rsp 56 +
STACK CFI 10a73 .cfa: $rsp 48 +
STACK CFI 10a74 .cfa: $rsp 40 +
STACK CFI 10a76 .cfa: $rsp 32 +
STACK CFI 10a78 .cfa: $rsp 24 +
STACK CFI 10a7a .cfa: $rsp 16 +
STACK CFI 10a7c .cfa: $rsp 8 +
STACK CFI 10a7d .cfa: $rsp 112 +
STACK CFI INIT 10a90 157 .cfa: $rsp 8 + .ra: .cfa -8 + ^
STACK CFI 10a92 $r15: .cfa -16 + ^ .cfa: $rsp 16 +
STACK CFI 10a9b $r14: .cfa -24 + ^ .cfa: $rsp 24 +
STACK CFI 10a9d $r13: .cfa -32 + ^ .cfa: $rsp 32 +
STACK CFI 10aa5 $r12: .cfa -40 + ^ .cfa: $rsp 40 +
STACK CFI 10aaa $rbp: .cfa -48 + ^ .cfa: $rsp 48 +
STACK CFI 10aab $rbx: .cfa -56 + ^ .cfa: $rsp 56 +
STACK CFI 10ab5 .cfa: $rsp 112 +
STACK CFI 10bdc .cfa: $rsp 56 +
STACK CFI 10bdd .cfa: $rsp 48 +
STACK CFI 10bde .cfa: $rsp 40 +
STACK CFI 10be0 .cfa: $rsp 32 +
STACK CFI 10be2 .cfa: $rsp 24 +
STACK CFI 10be4 .cfa: $rsp 16 +
STACK CFI 10be6 .cfa: $rsp 8 +
STACK CFI INIT 10bf0 b0 .cfa: $rsp 8 + .ra: .cfa -8 + ^
STACK CFI 10bfa $rbp: .cfa -40 + ^ $rbx: .cfa -48 + ^
STACK CFI 10c07 $r13: .cfa -24 + ^ $r14: .cfa -16 + ^
STACK CFI 10c13 $r12: .cfa -32 + ^ .cfa: $rsp 64 +
STACK CFI 10c9f .cfa: $rsp 8 +
STACK CFI INIT 10ca0 194 .cfa: $rsp 8 + .ra: .cfa -8 + ^
STACK CFI 10ca2 $r15: .cfa -16 + ^ .cfa: $rsp 16 +
STACK CFI 10cac $r14: .cfa -24 + ^ .cfa: $rsp 24 +
STACK CFI 10cb1 $r13: .cfa -32 + ^ .cfa: $rsp 32 +
STACK CFI 10cb6 $r12: .cfa -40 + ^ .cfa: $rsp 40 +
STACK CFI 10cb7 $rbp: .cfa -48 + ^ .cfa: $rsp 48 +
STACK CFI 10cbe $rbx: .cfa -56 + ^ .cfa: $rsp 56 +
STACK CFI 10cc8 .cfa: $rsp 112 +
STACK CFI 10e1c .cfa: $rsp 56 +
STACK CFI 10e20 .cfa: $rsp 48 +
STACK CFI 10e21 .cfa: $rsp 40 +
STACK CFI 10e23 .cfa: $rsp 32 +
STACK CFI 10e25 .cfa: $rsp 24 +
STACK CFI 10e27 .cfa: $rsp 16 +
STACK CFI 10e29 .cfa: $rsp 8 +
STACK CFI 10e30 .cfa: $rsp 112 +
STACK CFI INIT 10e40 6b .cfa: $rsp 8 + .ra: .cfa -8 + ^
STACK CFI 10e44 .cfa: $rsp 16 +
STACK CFI 10e7b .cfa: $rsp 8 +
STACK CFI 10e80 .cfa: $rsp 16 +
STACK CFI 10e87 .cfa: $rsp 8 +
STACK CFI 10e90 .cfa: $rsp 16 +
STACK CFI 10e97 .cfa: $rsp 8 +
STACK CFI 10ea0 .cfa: $rsp 16 +
STACK CFI INIT 10eb0 673 .cfa: $rsp 8 + .ra: .cfa -8 + ^
STACK CFI 10eb2 $r15: .cfa -16 + ^ .cfa: $rsp 16 +
STACK CFI 10eb4 $r14: .cfa -24 + ^ .cfa: $rsp 24 +
STACK CFI 10eb6 $r13: .cfa -32 + ^ .cfa: $rsp 32 +
STACK CFI 10eb8 $r12: .cfa -40 + ^ .cfa: $rsp 40 +
STACK CFI 10eb9 $rbp: .cfa -48 + ^ .cfa: $rsp 48 +
STACK CFI 10eba $rbx: .cfa -56 + ^ .cfa: $rsp 56 +
STACK CFI 10ec1 .cfa: $rsp 144 +
STACK CFI 10f3e .cfa: $rsp 56 +
STACK CFI 10f42 .cfa: $rsp 48 +
STACK CFI 10f43 .cfa: $rsp 40 +
STACK CFI 10f45 .cfa: $rsp 32 +
STACK CFI 10f47 .cfa: $rsp 24 +
STACK CFI 10f49 .cfa: $rsp 16 +
STACK CFI 10f4b .cfa: $rsp 8 +
STACK CFI 10f50 .cfa: $rsp 144 +
STACK CFI INIT 11530 cf .cfa: $rsp 8 + .ra: .cfa -8 + ^
STACK CFI 1153a $rbp: .cfa -40 + ^ $rbx: .cfa -48 + ^
STACK CFI 11547 $r12: .cfa -32 + ^ $r13: .cfa -24 + ^
STACK CFI 11553 $r14: .cfa -16 + ^ .cfa: $rsp 64 +
STACK CFI 115fe .cfa: $rsp 8 +
STACK CFI INIT 11600 4b3 .cfa: $rsp 8 + .ra: .cfa -8 + ^
STACK CFI 11602 $r15: .cfa -16 + ^ .cfa: $rsp 16 +
STACK CFI 11604 $r14: .cfa -24 + ^ .cfa: $rsp 24 +
STACK CFI 11606 $r13: .cfa -32 + ^ .cfa: $rsp 32 +
STACK CFI 11608 $r12: .cfa -40 + ^ .cfa: $rsp 40 +
STACK CFI 11609 $rbp: .cfa -48 + ^ .cfa: $rsp 48 +
STACK CFI 1160a $rbx: .cfa -56 + ^ .cfa: $rsp 56 +
STACK CFI 11611 .cfa: $rsp 160 +
STACK CFI 11703 .cfa: $rsp 56 +
STACK CFI 11706 .cfa: $rsp 48 +
STACK CFI 11707 .cfa: $rsp 40 +
STACK CFI 11709 .cfa: $rsp 32 +
STACK CFI 1170b .cfa: $rsp 24 +
STACK CFI 1170d .cfa: $rsp 16 +
STACK CFI 1170f .cfa: $rsp 8 +
STACK CFI 11710 .cfa: $rsp 160 +
STACK CFI INIT 11ac0 8a .cfa: $rsp 8 + .ra: .cfa -8 + ^
STACK CFI 11b06 .cfa: $rsp 32 +
STACK CFI 11b32 .cfa: $rsp 8 +
STACK CFI INIT 11b50 9 .cfa: $rsp 8 + .ra: .cfa -8 + ^
STACK CFI INIT 11b60 26 .cfa: $rsp 8 + .ra: .cfa -8 + ^
STACK CFI 11b61 $rbx: .cfa -16 + ^ .cfa: $rsp 16 +
STACK CFI 11b6b .cfa: $rsp 8 +
STACK CFI 11b70 .cfa: $rsp 16 +
STACK CFI 11b81 .cfa: $rsp 8 +
STACK CFI INIT 11b90 72 .cfa: $rsp 8 + .ra: .cfa -8 + ^
STACK CFI 11bab $rbx: .cfa -16 + ^ .cfa: $rsp 16 +
STACK CFI 11be9 .cfa: $rsp 8 +
STACK CFI 11bee .cfa: $rsp 16 +
STACK CFI 11bfd .cfa: $rsp 8 +
STACK CFI INIT 11c10 9 .cfa: $rsp 8 + .ra: .cfa -8 + ^
STACK CFI INIT 11c20 1a .cfa: $rsp 8 + .ra: .cfa -8 + ^
STACK CFI 11c21 $rbx: .cfa -16 + ^ .cfa: $rsp 16 +
STACK CFI 11c35 .cfa: $rsp 8 +
STACK CFI INIT 11c40 113 .cfa: $rsp 8 + .ra: .cfa -8 + ^
STACK CFI 11c42 $r12: .cfa -16 + ^ .cfa: $rsp 16 +
STACK CFI 11c46 $rbp: .cfa -24 + ^ .cfa: $rsp 24 +
STACK CFI 11c4a $rbx: .cfa -32 + ^ .cfa: $rsp 32 +
STACK CFI 11d03 .cfa: $rsp 24 +
STACK CFI 11d04 .cfa: $rsp 16 +
STACK CFI 11d06 .cfa: $rsp 8 +
STACK CFI 11d10 .cfa: $rsp 32 +
STACK CFI 11d26 .cfa: $rsp 24 +
STACK CFI 11d27 .cfa: $rsp 16 +
STACK CFI 11d29 .cfa: $rsp 8 +
STACK CFI 11d30 .cfa: $rsp 32 +
STACK CFI INIT 11d60 5 .cfa: $rsp 8 + .ra: .cfa -8 + ^
STACK CFI INIT 11d70 25 .cfa: $rsp 8 + .ra: .cfa -8 + ^
STACK CFI 11d84 .cfa: $rsp 16 +
STACK CFI 11d8d .cfa: $rsp 8 +
STACK CFI INIT 11da0 1f8 .cfa: $rsp 8 + .ra: .cfa -8 + ^
STACK CFI 11da2 $r14: .cfa -16 + ^ .cfa: $rsp 16 +
STACK CFI 11da4 $r13: .cfa -24 + ^ .cfa: $rsp 24 +
STACK CFI 11da9 $r12: .cfa -32 + ^ .cfa: $rsp 32 +
STACK CFI 11daa $rbp: .cfa -40 + ^ .cfa: $rsp 40 +
STACK CFI 11dae $rbx: .cfa -48 + ^ .cfa: $rsp 48 +
STACK CFI 11db2 .cfa: $rsp 112 +
STACK CFI 11e7d .cfa: $rsp 48 +
STACK CFI 11e81 .cfa: $rsp 40 +
STACK CFI 11e82 .cfa: $rsp 32 +
STACK CFI 11e84 .cfa: $rsp 24 +
STACK CFI 11e86 .cfa: $rsp 16 +
STACK CFI 11e88 .cfa: $rsp 8 +
STACK CFI 11e89 .cfa: $rsp 112 +
STACK CFI INIT 11fa0 7c .cfa: $rsp 8 + .ra: .cfa -8 + ^
STACK CFI 11fa4 .cfa: $rsp 16 +
STACK CFI 11fda .cfa: $rsp 8 +
STACK CFI 11fe0 .cfa: $rsp 16 +
STACK CFI 11ff7 .cfa: $rsp 8 +
STACK CFI 12000 .cfa: $rsp 16 +
STACK CFI 12007 .cfa: $rsp 8 +
STACK CFI 12010 .cfa: $rsp 16 +
STACK CFI 12017 .cfa: $rsp 8 +
STACK CFI INIT 12020 13c .cfa: $rsp 8 + .ra: .cfa -8 + ^
STACK CFI 12025 $rbx: .cfa -16 + ^ .cfa: $rsp 16 +
STACK CFI 1207f .cfa: $rsp 8 +
STACK CFI 12080 .cfa: $rsp 16 +
STACK CFI 1215b .cfa: $rsp 8 +
STACK CFI INIT 12160 242 .cfa: $rsp 8 + .ra: .cfa -8 + ^
STACK CFI 12182 $r14: .cfa -16 + ^ .cfa: $rsp 16 +
STACK CFI 12187 $r13: .cfa -24 + ^ .cfa: $rsp 24 +
STACK CFI 1218c $r12: .cfa -32 + ^ .cfa: $rsp 32 +
STACK CFI 12190 $rbp: .cfa -40 + ^ .cfa: $rsp 40 +
STACK CFI 12191 $rbx: .cfa -48 + ^ .cfa: $rsp 48 +
STACK CFI 12195 .cfa: $rsp 128 +
STACK CFI 12313 .cfa: $rsp 48 +
STACK CFI 12314 $rbx: $rbx .cfa: $rsp 40 +
STACK CFI 12315 $rbp: $rbp .cfa: $rsp 32 +
STACK CFI 12317 $r12: $r12 .cfa: $rsp 24 +
STACK CFI 12319 $r13: $r13 .cfa: $rsp 16 +
STACK CFI 1231b $r14: $r14 .cfa: $rsp 8 +
STACK CFI 12320 $r12: .cfa -32 + ^ $r13: .cfa -24 + ^ $r14: .cfa -16 + ^ $rbp: .cfa -40 + ^ $rbx: .cfa -48 + ^ .cfa: $rsp 128 +
STACK CFI INIT 123b0 25 .cfa: $rsp 8 + .ra: .cfa -8 + ^
STACK CFI 123c2 .cfa: $rsp 16 +
STACK CFI 123cf .cfa: $rsp 8 +
STACK CFI 123d0 .cfa: $rsp 16 +
STACK CFI INIT 2e70 6e .cfa: $rsp 8 + .ra: .cfa -8 + ^
STACK CFI 2e71 $rbp: .cfa -16 + ^ .cfa: $rsp 16 +
STACK CFI 2e72 $rbx: .cfa -24 + ^ .cfa: $rsp 24 +
STACK CFI 2e76 .cfa: $rsp 32 +
STACK CFI 2edb .cfa: $rsp 24 +
STACK CFI 2edc .cfa: $rsp 16 +
STACK CFI 2edd .cfa: $rsp 8 +
STACK CFI INIT 123e0 40 .cfa: $rsp 8 + .ra: .cfa -8 + ^
STACK CFI 123e2 $r12: .cfa -16 + ^ .cfa: $rsp 16 +
STACK CFI 123e3 $rbp: .cfa -24 + ^ .cfa: $rsp 24 +
STACK CFI 123e7 $rbx: .cfa -32 + ^ .cfa: $rsp 32 +
STACK CFI 12415 .cfa: $rsp 24 +
STACK CFI 12419 .cfa: $rsp 16 +
STACK CFI 1241b .cfa: $rsp 8 +
STACK CFI INIT 12420 17f .cfa: $rsp 8 + .ra: .cfa -8 + ^
STACK CFI 1242a $rbp: .cfa -40 + ^ $rbx: .cfa -48 + ^
STACK CFI 12440 $r12: .cfa -32 + ^ $r13: .cfa -24 + ^ $r14: .cfa -16 + ^ .cfa: $rsp 48 +
STACK CFI 1246f .cfa: $rsp 8 +
STACK CFI 12470 .cfa: $rsp 48 +
STACK CFI INIT 125a0 35 .cfa: $rsp 8 + .ra: .cfa -8 + ^
