MODULE Linux x86_64 C32AD7E235EA6112E02A5B9D6219C4850 ld-2.13.so
PUBLIC 8600 0 _dl_rtld_di_serinfo
PUBLIC e780 0 _dl_debug_state
PUBLIC fa80 0 _dl_mcount
PUBLIC 106e0 0 _dl_get_tls_static_info
PUBLIC 10930 0 _dl_allocate_tls_init
PUBLIC 10cf0 0 _dl_deallocate_tls
PUBLIC 110c0 0 __tls_get_addr
PUBLIC 11260 0 _dl_allocate_tls
PUBLIC 114a0 0 _dl_tls_setup
PUBLIC 117a0 0 _dl_make_stack_executable
PUBLIC 15480 0 free
PUBLIC 154c0 0 __libc_memalign
PUBLIC 155c0 0 malloc
PUBLIC 155d0 0 realloc
PUBLIC 15680 0 calloc
STACK CFI INIT b40 8 .cfa: $rsp 8 + .ra: .cfa -8 + ^
STACK CFI INIT b50 5 .cfa: $rsp 8 + .ra: .cfa -8 + ^
STACK CFI INIT b60 5 .cfa: $rsp 8 + .ra: .cfa -8 + ^
STACK CFI INIT b70 69 .cfa: $rsp 8 + .ra: .cfa -8 + ^
STACK CFI b71 .cfa: $rsp 16 +
STACK CFI b74 $rbx: .cfa -16 + ^
STACK CFI b7e .cfa: $rsp 48 +
STACK CFI INIT be0 49 .cfa: $rsp 8 + .ra: .cfa -8 + ^
STACK CFI be1 .cfa: $rsp 16 +
STACK CFI be4 $rbx: .cfa -16 + ^
STACK CFI bfb .cfa: $rsp 32 +
STACK CFI INIT c30 4ed .cfa: $rsp 8 + .ra: .cfa -8 + ^
STACK CFI c32 .cfa: $rsp 16 +
STACK CFI c3e .cfa: $rsp 24 +
STACK CFI c41 $r13: .cfa -24 + ^ $r14: .cfa -16 + ^
STACK CFI c43 .cfa: $rsp 32 +
STACK CFI c44 .cfa: $rsp 40 +
STACK CFI c45 .cfa: $rsp 48 +
STACK CFI c4c $r12: .cfa -32 + ^ $rbp: .cfa -40 + ^ $rbx: .cfa -48 + ^
STACK CFI c53 .cfa: $rsp 320 +
STACK CFI INIT 1120 600 .cfa: $rsp 8 + .ra: .cfa -8 + ^
STACK CFI 1121 .cfa: $rsp 16 +
STACK CFI 1124 $rbp: .cfa -16 + ^ .cfa: $rbp 16 +
STACK CFI 1130 $r12: .cfa -48 + ^ $r13: .cfa -40 + ^ $r14: .cfa -32 + ^ $r15: .cfa -24 + ^ $rbx: .cfa -56 + ^
STACK CFI INIT 1720 9b .cfa: $rsp 8 + .ra: .cfa -8 + ^
STACK CFI 172d $rbp: .cfa -24 + ^ $rbx: .cfa -32 + ^
STACK CFI 1736 .cfa: $rsp 96 +
STACK CFI 1739 $r12: .cfa -16 + ^
STACK CFI INIT 17c0 33 .cfa: $rsp 8 + .ra: .cfa -8 + ^
STACK CFI INIT 1800 31 .cfa: $rsp 8 + .ra: .cfa -8 + ^
STACK CFI INIT 1840 24 .cfa: $rsp 8 + .ra: .cfa -8 + ^
STACK CFI 1841 .cfa: $rsp 16 +
STACK CFI 1844 $rbx: .cfa -16 + ^
STACK CFI INIT 1870 92 .cfa: $rsp 8 + .ra: .cfa -8 + ^
STACK CFI 1871 .cfa: $rsp 16 +
STACK CFI 1872 .cfa: $rsp 24 +
STACK CFI 1876 .cfa: $rsp 48 +
STACK CFI 187b $rbp: .cfa -16 + ^ $rbx: .cfa -24 + ^
STACK CFI INIT 1910 17 .cfa: $rsp 8 + .ra: .cfa -8 + ^
STACK CFI INIT 1930 217 .cfa: $rsp 8 + .ra: .cfa -8 + ^
STACK CFI 1931 .cfa: $rsp 16 +
STACK CFI 1934 $rbp: .cfa -16 + ^ .cfa: $rbp 16 +
STACK CFI 193d $r14: .cfa -24 + ^
STACK CFI 1946 $r13: .cfa -32 + ^
STACK CFI 194c $r12: .cfa -40 + ^ $rbx: .cfa -48 + ^
STACK CFI INIT 1b50 6cb .cfa: $rsp 8 + .ra: .cfa -8 + ^
STACK CFI 1b51 .cfa: $rsp 16 +
STACK CFI 1b62 $rbp: .cfa -16 + ^ .cfa: $rbp 16 +
STACK CFI 1b6f $r13: .cfa -40 + ^ $r14: .cfa -32 + ^ $r15: .cfa -24 + ^
STACK CFI 1b75 $r12: .cfa -48 + ^
STACK CFI 1bb3 $rbx: .cfa -56 + ^
STACK CFI INIT 2220 1d .cfa: $rsp 8 + .ra: .cfa -8 + ^
STACK CFI 2227 .cfa: $rsp 16 +
STACK CFI INIT 2240 163 .cfa: $rsp 8 + .ra: .cfa -8 + ^
STACK CFI 2252 .cfa: $rsp 16 +
STACK CFI 225b $rbx: .cfa -16 + ^
STACK CFI INIT 23b0 128 .cfa: $rsp 8 + .ra: .cfa -8 + ^
STACK CFI 23c3 .cfa: $rsp 48 +
STACK CFI 23d8 $r12: .cfa -16 + ^ $rbp: .cfa -24 + ^ $rbx: .cfa -32 + ^
STACK CFI INIT 24e0 272f .cfa: $rsp 8 + .ra: .cfa -8 + ^
STACK CFI 24e1 .cfa: $rsp 16 +
STACK CFI 24eb $rbp: .cfa -16 + ^ .cfa: $rbp 16 +
STACK CFI 24f2 $r14: .cfa -32 + ^ $r15: .cfa -24 + ^
STACK CFI 2500 $r12: .cfa -48 + ^ $r13: .cfa -40 + ^
STACK CFI 2551 $rbx: .cfa -56 + ^
STACK CFI INIT 4c10 33 .cfa: $rsp 8 + .ra: .cfa -8 + ^
STACK CFI 4c11 .cfa: $rsp 16 +
STACK CFI 4c14 $rbx: .cfa -16 + ^
STACK CFI INIT 4c50 f7 .cfa: $rsp 8 + .ra: .cfa -8 + ^
STACK CFI INIT 4d50 ae .cfa: $rsp 8 + .ra: .cfa -8 + ^
STACK CFI 4d52 .cfa: $rsp 16 +
STACK CFI 4d58 $r13: .cfa -16 + ^
STACK CFI 4d5a .cfa: $rsp 24 +
STACK CFI 4d5d $r12: .cfa -24 + ^
STACK CFI 4d5e .cfa: $rsp 32 +
STACK CFI 4d60 $rbp: .cfa -32 + ^
STACK CFI 4d61 .cfa: $rsp 40 +
STACK CFI 4d65 .cfa: $rsp 48 +
STACK CFI 4d67 $rbx: .cfa -40 + ^
STACK CFI INIT 4e00 57 .cfa: $rsp 8 + .ra: .cfa -8 + ^
STACK CFI 4e0e .cfa: $rsp 32 +
STACK CFI 4e11 $rbp: .cfa -16 + ^ $rbx: .cfa -24 + ^
STACK CFI INIT 4e60 32a .cfa: $rsp 8 + .ra: .cfa -8 + ^
STACK CFI 4e62 .cfa: $rsp 16 +
STACK CFI 4e64 .cfa: $rsp 24 +
STACK CFI 4e66 .cfa: $rsp 32 +
STACK CFI 4e69 $r13: .cfa -32 + ^ $r14: .cfa -24 + ^ $r15: .cfa -16 + ^
STACK CFI 4e6b .cfa: $rsp 40 +
STACK CFI 4e6c .cfa: $rsp 48 +
STACK CFI 4e6e $r12: .cfa -40 + ^ $rbp: .cfa -48 + ^
STACK CFI 4e6f .cfa: $rsp 56 +
STACK CFI 4e72 $rbx: .cfa -56 + ^
STACK CFI 4e76 .cfa: $rsp 128 +
STACK CFI INIT 5190 dc .cfa: $rsp 8 + .ra: .cfa -8 + ^
STACK CFI 5192 .cfa: $rsp 16 +
STACK CFI 5194 .cfa: $rsp 24 +
STACK CFI 5197 $r12: .cfa -24 + ^ $r13: .cfa -16 + ^
STACK CFI 5198 .cfa: $rsp 32 +
STACK CFI 5199 .cfa: $rsp 40 +
STACK CFI 519c $rbp: .cfa -32 + ^ $rbx: .cfa -40 + ^
STACK CFI 51a0 .cfa: $rsp 48 +
STACK CFI INIT 5270 176 .cfa: $rsp 8 + .ra: .cfa -8 + ^
STACK CFI 5271 .cfa: $rsp 16 +
STACK CFI 5277 $rbp: .cfa -16 + ^ .cfa: $rbp 16 +
STACK CFI INIT 53f0 19c .cfa: $rsp 8 + .ra: .cfa -8 + ^
STACK CFI 53f1 .cfa: $rsp 16 +
STACK CFI 53f4 $rbp: .cfa -16 + ^ .cfa: $rbp 16 +
STACK CFI 53ff $r12: .cfa -48 + ^ $r13: .cfa -40 + ^ $r14: .cfa -32 + ^ $r15: .cfa -24 + ^
STACK CFI 542e $rbx: .cfa -56 + ^
STACK CFI INIT 5590 72 .cfa: $rsp 8 + .ra: .cfa -8 + ^
STACK CFI 559c $rbp: .cfa -48 + ^ $rbx: .cfa -56 + ^
STACK CFI 55b7 .cfa: $rsp 64 +
STACK CFI 55bd $r12: .cfa -40 + ^ $r13: .cfa -32 + ^ $r14: .cfa -24 + ^ $r15: .cfa -16 + ^
STACK CFI INIT 5610 58c .cfa: $rsp 8 + .ra: .cfa -8 + ^
STACK CFI 5611 .cfa: $rsp 16 +
STACK CFI 5617 $rbp: .cfa -16 + ^ .cfa: $rbp 16 +
STACK CFI 561c $r15: .cfa -24 + ^
STACK CFI 5625 $r12: .cfa -48 + ^ $r13: .cfa -40 + ^ $r14: .cfa -32 + ^
STACK CFI 5629 $rbx: .cfa -56 + ^
STACK CFI INIT 5ba0 438 .cfa: $rsp 8 + .ra: .cfa -8 + ^
STACK CFI 5ba1 .cfa: $rsp 16 +
STACK CFI 5ba4 $rbp: .cfa -16 + ^ .cfa: $rbp 16 +
STACK CFI 5bf0 $r12: .cfa -48 + ^ $r13: .cfa -40 + ^ $r14: .cfa -32 + ^ $r15: .cfa -24 + ^ $rbx: .cfa -56 + ^
STACK CFI INIT 5fe0 119d .cfa: $rsp 8 + .ra: .cfa -8 + ^
STACK CFI 5fe1 .cfa: $rsp 16 +
STACK CFI 5fe4 $rbp: .cfa -16 + ^ .cfa: $rbp 16 +
STACK CFI 5feb $r14: .cfa -32 + ^ $r15: .cfa -24 + ^
STACK CFI 5ff0 $r13: .cfa -40 + ^
STACK CFI 5ff5 $r12: .cfa -48 + ^
STACK CFI 6017 $rbx: .cfa -56 + ^
STACK CFI INIT 7180 2c7 .cfa: $rsp 8 + .ra: .cfa -8 + ^
STACK CFI 7182 .cfa: $rsp 16 +
STACK CFI 718b $r15: .cfa -16 + ^
STACK CFI 718d .cfa: $rsp 24 +
STACK CFI 7190 $r14: .cfa -24 + ^
STACK CFI 7192 .cfa: $rsp 32 +
STACK CFI 7195 $r13: .cfa -32 + ^
STACK CFI 7197 .cfa: $rsp 40 +
STACK CFI 719a $r12: .cfa -40 + ^
STACK CFI 719b .cfa: $rsp 48 +
STACK CFI 719c .cfa: $rsp 56 +
STACK CFI 719f $rbp: .cfa -48 + ^ $rbx: .cfa -56 + ^
STACK CFI 71a6 .cfa: $rsp 96 +
STACK CFI INIT 7450 18f .cfa: $rsp 8 + .ra: .cfa -8 + ^
STACK CFI 7458 $rbx: .cfa -48 + ^
STACK CFI 746a $r12: .cfa -32 + ^ $r13: .cfa -24 + ^ $rbp: .cfa -40 + ^
STACK CFI 7478 .cfa: $rsp 48 +
STACK CFI 747e $r14: .cfa -16 + ^
STACK CFI INIT 75e0 171 .cfa: $rsp 8 + .ra: .cfa -8 + ^
STACK CFI 75e2 .cfa: $rsp 16 +
STACK CFI 75eb .cfa: $rsp 24 +
STACK CFI 75ee $r13: .cfa -24 + ^ $r14: .cfa -16 + ^
STACK CFI 75f3 .cfa: $rsp 32 +
STACK CFI 75f6 $r12: .cfa -32 + ^
STACK CFI 75fa .cfa: $rsp 40 +
STACK CFI 75fb .cfa: $rsp 48 +
STACK CFI 7605 $rbp: .cfa -40 + ^ $rbx: .cfa -48 + ^
STACK CFI INIT 7760 50 .cfa: $rsp 8 + .ra: .cfa -8 + ^
STACK CFI INIT 77b0 8e1 .cfa: $rsp 8 + .ra: .cfa -8 + ^
STACK CFI 77b2 .cfa: $rsp 16 +
STACK CFI 77b4 .cfa: $rsp 24 +
STACK CFI 77b7 $r14: .cfa -24 + ^ $r15: .cfa -16 + ^
STACK CFI 77b9 .cfa: $rsp 32 +
STACK CFI 77bb .cfa: $rsp 40 +
STACK CFI 77be $r12: .cfa -40 + ^ $r13: .cfa -32 + ^
STACK CFI 77bf .cfa: $rsp 48 +
STACK CFI 77c2 $rbp: .cfa -48 + ^
STACK CFI 77c3 .cfa: $rsp 56 +
STACK CFI 77c6 $rbx: .cfa -56 + ^
STACK CFI 77cd .cfa: $rsp 1072 +
STACK CFI INIT 80a0 48a .cfa: $rsp 8 + .ra: .cfa -8 + ^
STACK CFI 80a1 .cfa: $rsp 16 +
STACK CFI 80b2 $rbp: .cfa -16 + ^ .cfa: $rbp 16 +
STACK CFI 80bb $r12: .cfa -40 + ^ $r13: .cfa -32 + ^ $r14: .cfa -24 + ^
STACK CFI 80ca $rbx: .cfa -48 + ^
STACK CFI INIT 8530 cb .cfa: $rsp 8 + .ra: .cfa -8 + ^
STACK CFI 8532 .cfa: $rsp 16 +
STACK CFI 8534 .cfa: $rsp 24 +
STACK CFI 8536 .cfa: $rsp 32 +
STACK CFI 8537 .cfa: $rsp 40 +
STACK CFI 8538 .cfa: $rsp 48 +
STACK CFI 853b $r12: .cfa -32 + ^ $r13: .cfa -24 + ^ $r14: .cfa -16 + ^ $rbp: .cfa -40 + ^ $rbx: .cfa -48 + ^
STACK CFI INIT 8600 1b6 .cfa: $rsp 8 + .ra: .cfa -8 + ^
STACK CFI 860d $rbp: .cfa -32 + ^ $rbx: .cfa -40 + ^
STACK CFI 861b .cfa: $rsp 80 +
STACK CFI 8623 $r12: .cfa -24 + ^ $r13: .cfa -16 + ^
STACK CFI INIT 87c0 e1 .cfa: $rsp 8 + .ra: .cfa -8 + ^
STACK CFI INIT 88b0 31 .cfa: $rsp 8 + .ra: .cfa -8 + ^
STACK CFI 88b4 .cfa: $rsp 16 +
STACK CFI INIT 88f0 629 .cfa: $rsp 8 + .ra: .cfa -8 + ^
STACK CFI 88f2 .cfa: $rsp 16 +
STACK CFI 88f4 .cfa: $rsp 24 +
STACK CFI 88f6 .cfa: $rsp 32 +
STACK CFI 88f8 .cfa: $rsp 40 +
STACK CFI 88f9 .cfa: $rsp 48 +
STACK CFI 88fa .cfa: $rsp 56 +
STACK CFI 88fd $r12: .cfa -40 + ^ $r13: .cfa -32 + ^ $r14: .cfa -24 + ^ $r15: .cfa -16 + ^ $rbp: .cfa -48 + ^ $rbx: .cfa -56 + ^
STACK CFI 8901 .cfa: $rsp 96 +
STACK CFI INIT 8f20 72 .cfa: $rsp 8 + .ra: .cfa -8 + ^
STACK CFI 8f21 .cfa: $rsp 16 +
STACK CFI 8f28 $rbp: .cfa -16 + ^
STACK CFI 8f29 .cfa: $rsp 24 +
STACK CFI 8f2b $rbx: .cfa -24 + ^
STACK CFI INIT 8fa0 bb .cfa: $rsp 8 + .ra: .cfa -8 + ^
STACK CFI 8fa4 .cfa: $rsp 16 +
STACK CFI INIT 9060 1b5 .cfa: $rsp 8 + .ra: .cfa -8 + ^
STACK CFI 906d $rbp: .cfa -32 + ^ $rbx: .cfa -40 + ^
STACK CFI 907b .cfa: $rsp 64 +
STACK CFI 908b $r12: .cfa -24 + ^ $r13: .cfa -16 + ^
STACK CFI INIT 9220 873 .cfa: $rsp 8 + .ra: .cfa -8 + ^
STACK CFI 9222 .cfa: $rsp 16 +
STACK CFI 9225 $r15: .cfa -16 + ^
STACK CFI 9227 .cfa: $rsp 24 +
STACK CFI 9229 .cfa: $rsp 32 +
STACK CFI 922c $r13: .cfa -32 + ^ $r14: .cfa -24 + ^
STACK CFI 922e .cfa: $rsp 40 +
STACK CFI 922f .cfa: $rsp 48 +
STACK CFI 9230 .cfa: $rsp 56 +
STACK CFI 9237 .cfa: $rsp 208 +
STACK CFI 923b $r12: .cfa -40 + ^ $rbp: .cfa -48 + ^ $rbx: .cfa -56 + ^
STACK CFI INIT 9aa0 f15 .cfa: $rsp 8 + .ra: .cfa -8 + ^
STACK CFI 9aa1 .cfa: $rsp 16 +
STACK CFI 9aa4 $rbp: .cfa -16 + ^ .cfa: $rbp 16 +
STACK CFI 9aac $r15: .cfa -24 + ^
STACK CFI 9ab1 $r14: .cfa -32 + ^
STACK CFI 9ab6 $r13: .cfa -40 + ^
STACK CFI 9ac0 $r12: .cfa -48 + ^
STACK CFI 9ae7 $rbx: .cfa -56 + ^
STACK CFI INIT a9c0 96 .cfa: $rsp 8 + .ra: .cfa -8 + ^
STACK CFI a9c1 .cfa: $rsp 16 +
STACK CFI a9c4 $rbp: .cfa -16 + ^
STACK CFI a9c5 .cfa: $rsp 24 +
STACK CFI a9c8 $rbx: .cfa -24 + ^
STACK CFI a9d3 .cfa: $rsp 32 +
STACK CFI INIT aa60 348 .cfa: $rsp 8 + .ra: .cfa -8 + ^
STACK CFI aa62 .cfa: $rsp 16 +
STACK CFI aa65 $r15: .cfa -16 + ^
STACK CFI aa67 .cfa: $rsp 24 +
STACK CFI aa69 .cfa: $rsp 32 +
STACK CFI aa6b .cfa: $rsp 40 +
STACK CFI aa6c .cfa: $rsp 48 +
STACK CFI aa6f $r12: .cfa -40 + ^ $r13: .cfa -32 + ^ $r14: .cfa -24 + ^ $rbp: .cfa -48 + ^
STACK CFI aa70 .cfa: $rsp 56 +
STACK CFI aa73 $rbx: .cfa -56 + ^
STACK CFI aa7a .cfa: $rsp 96 +
STACK CFI INIT adb0 d9 .cfa: $rsp 8 + .ra: .cfa -8 + ^
STACK CFI adc8 $r12: .cfa -16 + ^ $rbp: .cfa -24 + ^ $rbx: .cfa -32 + ^
STACK CFI adcc .cfa: $rsp 80 +
STACK CFI INIT ae90 59 .cfa: $rsp 8 + .ra: .cfa -8 + ^
STACK CFI ae98 .cfa: $rsp 16 +
STACK CFI ae9b $rbx: .cfa -16 + ^
STACK CFI INIT aef0 8f .cfa: $rsp 8 + .ra: .cfa -8 + ^
STACK CFI aef4 .cfa: $rsp 16 +
STACK CFI af04 $rbx: .cfa -16 + ^
STACK CFI INIT af80 c9 .cfa: $rsp 8 + .ra: .cfa -8 + ^
STACK CFI af81 .cfa: $rsp 16 +
STACK CFI af8c $rbx: .cfa -16 + ^
STACK CFI INIT b050 2d .cfa: $rsp 8 + .ra: .cfa -8 + ^
STACK CFI b051 .cfa: $rsp 16 +
STACK CFI b05c $rbx: .cfa -16 + ^
STACK CFI INIT b080 f97 .cfa: $rsp 8 + .ra: .cfa -8 + ^
STACK CFI b081 .cfa: $rsp 16 +
STACK CFI b084 $rbp: .cfa -16 + ^ .cfa: $rbp 16 +
STACK CFI b08f $r12: .cfa -48 + ^ $r13: .cfa -40 + ^ $r14: .cfa -32 + ^ $r15: .cfa -24 + ^
STACK CFI b097 $rbx: .cfa -56 + ^
STACK CFI INIT c020 7d .cfa: $rsp 8 + .ra: .cfa -8 + ^
STACK CFI c022 .cfa: $rsp 16 +
STACK CFI c025 $r12: .cfa -16 + ^
STACK CFI c026 .cfa: $rsp 24 +
STACK CFI c02a $rbp: .cfa -24 + ^
STACK CFI c02b .cfa: $rsp 32 +
STACK CFI c04d $rbx: .cfa -32 + ^
STACK CFI INIT c0a0 1134 .cfa: $rsp 8 + .ra: .cfa -8 + ^
STACK CFI c0a1 .cfa: $rsp 16 +
STACK CFI c0a7 $rbp: .cfa -16 + ^ .cfa: $rbp 16 +
STACK CFI c11b $r12: .cfa -48 + ^ $r13: .cfa -40 + ^ $r14: .cfa -32 + ^ $r15: .cfa -24 + ^ $rbx: .cfa -56 + ^
STACK CFI INIT d1e0 38 .cfa: $rsp 8 + .ra: .cfa -8 + ^
STACK CFI d1e1 .cfa: $rsp 16 +
STACK CFI d1e4 $rbx: .cfa -16 + ^
STACK CFI INIT d220 10f .cfa: $rsp 8 + .ra: .cfa -8 + ^
STACK CFI d222 .cfa: $rsp 16 +
STACK CFI d225 $r15: .cfa -16 + ^
STACK CFI d227 .cfa: $rsp 24 +
STACK CFI d229 .cfa: $rsp 32 +
STACK CFI d22b .cfa: $rsp 40 +
STACK CFI d22e $r12: .cfa -40 + ^ $r13: .cfa -32 + ^ $r14: .cfa -24 + ^
STACK CFI d233 .cfa: $rsp 48 +
STACK CFI d234 .cfa: $rsp 56 +
STACK CFI d238 .cfa: $rsp 144 +
STACK CFI d246 $rbp: .cfa -48 + ^ $rbx: .cfa -56 + ^
STACK CFI INIT d330 5c2 .cfa: $rsp 8 + .ra: .cfa -8 + ^
STACK CFI d332 .cfa: $rsp 16 +
STACK CFI d336 .cfa: $rsp 24 +
STACK CFI d338 .cfa: $rsp 32 +
STACK CFI d33a .cfa: $rsp 40 +
STACK CFI d33d $r12: .cfa -40 + ^ $r13: .cfa -32 + ^ $r14: .cfa -24 + ^ $r15: .cfa -16 + ^
STACK CFI d33e .cfa: $rsp 48 +
STACK CFI d341 $rbp: .cfa -48 + ^
STACK CFI d346 .cfa: $rsp 56 +
STACK CFI d34d .cfa: $rsp 208 +
STACK CFI d367 $rbx: .cfa -56 + ^
STACK CFI INIT d900 1ee .cfa: $rsp 8 + .ra: .cfa -8 + ^
STACK CFI d902 .cfa: $rsp 16 +
STACK CFI d90a .cfa: $rsp 24 +
STACK CFI d90f .cfa: $rsp 32 +
STACK CFI d910 .cfa: $rsp 40 +
STACK CFI d914 .cfa: $rsp 80 +
STACK CFI d91f $r12: .cfa -24 + ^ $r13: .cfa -16 + ^ $rbp: .cfa -32 + ^ $rbx: .cfa -40 + ^
STACK CFI INIT daf0 7f .cfa: $rsp 8 + .ra: .cfa -8 + ^
STACK CFI dafd $rbp: .cfa -48 + ^ $rbx: .cfa -56 + ^
STACK CFI db18 .cfa: $rsp 64 +
STACK CFI db1b $r12: .cfa -40 + ^ $r13: .cfa -32 + ^ $r14: .cfa -24 + ^ $r15: .cfa -16 + ^
STACK CFI INIT db70 e2 .cfa: $rsp 8 + .ra: .cfa -8 + ^
STACK CFI db71 .cfa: $rsp 16 +
STACK CFI db78 .cfa: $rsp 304 +
STACK CFI db9a $rbx: .cfa -16 + ^
STACK CFI INIT dc60 1a1 .cfa: $rsp 8 + .ra: .cfa -8 + ^
STACK CFI dc7e $r12: .cfa -40 + ^ $r13: .cfa -32 + ^ $rbp: .cfa -48 + ^ $rbx: .cfa -56 + ^
STACK CFI dc8f .cfa: $rsp 1136 +
STACK CFI dca6 $r14: .cfa -24 + ^ $r15: .cfa -16 + ^
STACK CFI INIT de10 9a .cfa: $rsp 8 + .ra: .cfa -8 + ^
STACK CFI de1d $rbp: .cfa -32 + ^ $rbx: .cfa -40 + ^
STACK CFI de2b .cfa: $rsp 48 +
STACK CFI de38 $r12: .cfa -24 + ^ $r13: .cfa -16 + ^
STACK CFI INIT deb0 14f .cfa: $rsp 8 + .ra: .cfa -8 + ^
STACK CFI debc $rbp: .cfa -48 + ^ $rbx: .cfa -56 + ^
STACK CFI dec9 $r12: .cfa -40 + ^ $r13: .cfa -32 + ^
STACK CFI ded7 .cfa: $rsp 64 +
STACK CFI deec $r14: .cfa -24 + ^ $r15: .cfa -16 + ^
STACK CFI INIT e000 10e .cfa: $rsp 8 + .ra: .cfa -8 + ^
STACK CFI e002 .cfa: $rsp 16 +
STACK CFI e004 .cfa: $rsp 24 +
STACK CFI e006 .cfa: $rsp 32 +
STACK CFI e009 $r13: .cfa -32 + ^ $r14: .cfa -24 + ^ $r15: .cfa -16 + ^
STACK CFI e00b .cfa: $rsp 40 +
STACK CFI e00e $r12: .cfa -40 + ^
STACK CFI e00f .cfa: $rsp 48 +
STACK CFI e011 $rbp: .cfa -48 + ^
STACK CFI e012 .cfa: $rsp 56 +
STACK CFI e015 $rbx: .cfa -56 + ^
STACK CFI e019 .cfa: $rsp 80 +
STACK CFI INIT e110 1f8 .cfa: $rsp 8 + .ra: .cfa -8 + ^
STACK CFI e111 .cfa: $rsp 16 +
STACK CFI e114 $rbp: .cfa -16 + ^ .cfa: $rbp 16 +
STACK CFI e120 $r12: .cfa -48 + ^ $r13: .cfa -40 + ^ $r14: .cfa -32 + ^ $r15: .cfa -24 + ^ $rbx: .cfa -56 + ^
STACK CFI INIT e310 3d9 .cfa: $rsp 8 + .ra: .cfa -8 + ^
STACK CFI e311 .cfa: $rsp 16 +
STACK CFI e314 $rbp: .cfa -16 + ^ .cfa: $rbp 16 +
STACK CFI e31f $r12: .cfa -48 + ^ $r13: .cfa -40 + ^ $r14: .cfa -32 + ^ $r15: .cfa -24 + ^
STACK CFI e322 $rbx: .cfa -56 + ^
STACK CFI INIT e6f0 8a .cfa: $rsp 8 + .ra: .cfa -8 + ^
STACK CFI INIT e780 2 .cfa: $rsp 8 + .ra: .cfa -8 + ^
STACK CFI INIT e790 7b .cfa: $rsp 8 + .ra: .cfa -8 + ^
STACK CFI INIT e810 59 .cfa: $rsp 8 + .ra: .cfa -8 + ^
STACK CFI e811 .cfa: $rsp 16 +
STACK CFI e814 $rbp: .cfa -16 + ^
STACK CFI e815 .cfa: $rsp 24 +
STACK CFI e818 $rbx: .cfa -24 + ^
STACK CFI e81c .cfa: $rsp 32 +
STACK CFI INIT e870 5f8 .cfa: $rsp 8 + .ra: .cfa -8 + ^
STACK CFI e871 .cfa: $rsp 16 +
STACK CFI e884 $rbp: .cfa -16 + ^ .cfa: $rbp 16 +
STACK CFI e88d $r15: .cfa -24 + ^
STACK CFI e893 $r14: .cfa -32 + ^
STACK CFI e898 $r13: .cfa -40 + ^
STACK CFI e89d $r12: .cfa -48 + ^
STACK CFI e8a0 $rbx: .cfa -56 + ^
STACK CFI INIT ee70 95 .cfa: $rsp 8 + .ra: .cfa -8 + ^
STACK CFI ee77 .cfa: $rsp 224 +
STACK CFI INIT ef10 a3 .cfa: $rsp 8 + .ra: .cfa -8 + ^
STACK CFI ef17 .cfa: $rsp 224 +
STACK CFI INIT efc0 a3 .cfa: $rsp 8 + .ra: .cfa -8 + ^
STACK CFI efc7 .cfa: $rsp 224 +
STACK CFI INIT f070 ac .cfa: $rsp 8 + .ra: .cfa -8 + ^
STACK CFI f089 $r12: .cfa -24 + ^ $r13: .cfa -16 + ^ $rbp: .cfa -32 + ^ $rbx: .cfa -40 + ^
STACK CFI f090 .cfa: $rsp 192 +
STACK CFI INIT f120 3f1 .cfa: $rsp 8 + .ra: .cfa -8 + ^
STACK CFI f121 .cfa: $rsp 16 +
STACK CFI f124 $rbp: .cfa -16 + ^ .cfa: $rbp 16 +
STACK CFI f12f $r12: .cfa -48 + ^ $rbx: .cfa -56 + ^
STACK CFI f15a $r13: .cfa -40 + ^ $r14: .cfa -32 + ^ $r15: .cfa -24 + ^
STACK CFI INIT f520 4e5 .cfa: $rsp 8 + .ra: .cfa -8 + ^
STACK CFI f521 .cfa: $rsp 16 +
STACK CFI f524 $rbp: .cfa -16 + ^ .cfa: $rbp 16 +
STACK CFI f52d $r13: .cfa -40 + ^ $r14: .cfa -32 + ^ $r15: .cfa -24 + ^
STACK CFI f54d $r12: .cfa -48 + ^ $rbx: .cfa -56 + ^
STACK CFI INIT fa10 61 .cfa: $rsp 8 + .ra: .cfa -8 + ^
STACK CFI fa12 .cfa: $rsp 16 +
STACK CFI fa15 $r13: .cfa -16 + ^
STACK CFI fa17 .cfa: $rsp 24 +
STACK CFI fa1a $r12: .cfa -24 + ^
STACK CFI fa1b .cfa: $rsp 32 +
STACK CFI fa1d $rbp: .cfa -32 + ^
STACK CFI fa1e .cfa: $rsp 40 +
STACK CFI fa21 $rbx: .cfa -40 + ^
STACK CFI fa25 .cfa: $rsp 48 +
STACK CFI INIT fa80 299 .cfa: $rsp 8 + .ra: .cfa -8 + ^
STACK CFI faa7 $r12: .cfa -32 + ^ $r13: .cfa -24 + ^ $r14: .cfa -16 + ^ $rbp: .cfa -40 + ^ $rbx: .cfa -48 + ^
STACK CFI INIT fd20 7eb .cfa: $rsp 8 + .ra: .cfa -8 + ^
STACK CFI fd21 .cfa: $rsp 16 +
STACK CFI fd24 $rbp: .cfa -16 + ^ .cfa: $rbp 16 +
STACK CFI fd66 $r12: .cfa -48 + ^ $r13: .cfa -40 + ^ $r14: .cfa -32 + ^ $r15: .cfa -24 + ^ $rbx: .cfa -56 + ^
STACK CFI INIT 10510 1c6 .cfa: $rsp 8 + .ra: .cfa -8 + ^
STACK CFI 1051d $rbp: .cfa -48 + ^ $rbx: .cfa -56 + ^
STACK CFI 1052a $r12: .cfa -40 + ^ $r13: .cfa -32 + ^
STACK CFI 10538 .cfa: $rsp 80 +
STACK CFI 10548 $r14: .cfa -24 + ^ $r15: .cfa -16 + ^
STACK CFI INIT 106e0 15 .cfa: $rsp 8 + .ra: .cfa -8 + ^
STACK CFI INIT 10700 d7 .cfa: $rsp 8 + .ra: .cfa -8 + ^
STACK CFI 10702 .cfa: $rsp 16 +
STACK CFI 1070a .cfa: $rsp 24 +
STACK CFI 1070d $r12: .cfa -16 + ^ $rbp: .cfa -24 + ^
STACK CFI 1070e .cfa: $rsp 32 +
STACK CFI 10715 $rbx: .cfa -32 + ^
STACK CFI INIT 107e0 63 .cfa: $rsp 8 + .ra: .cfa -8 + ^
STACK CFI INIT 10850 de .cfa: $rsp 8 + .ra: .cfa -8 + ^
STACK CFI 10854 .cfa: $rsp 16 +
STACK CFI INIT 10930 23c .cfa: $rsp 8 + .ra: .cfa -8 + ^
STACK CFI 10932 .cfa: $rsp 16 +
STACK CFI 10934 .cfa: $rsp 24 +
STACK CFI 10936 .cfa: $rsp 32 +
STACK CFI 10938 .cfa: $rsp 40 +
STACK CFI 10939 .cfa: $rsp 48 +
STACK CFI 1093a .cfa: $rsp 56 +
STACK CFI 1093e .cfa: $rsp 96 +
STACK CFI 1094c $r12: .cfa -40 + ^ $r13: .cfa -32 + ^ $r14: .cfa -24 + ^ $r15: .cfa -16 + ^ $rbp: .cfa -48 + ^ $rbx: .cfa -56 + ^
STACK CFI INIT 10b70 21 .cfa: $rsp 8 + .ra: .cfa -8 + ^
STACK CFI 10b80 .cfa: $rsp 16 +
STACK CFI INIT 10ba0 143 .cfa: $rsp 8 + .ra: .cfa -8 + ^
STACK CFI 10bad $rbp: .cfa -32 + ^ $rbx: .cfa -40 + ^
STACK CFI 10bbb .cfa: $rsp 48 +
STACK CFI 10bc4 $r12: .cfa -24 + ^ $r13: .cfa -16 + ^
STACK CFI INIT 10cf0 a1 .cfa: $rsp 8 + .ra: .cfa -8 + ^
STACK CFI 10cf2 .cfa: $rsp 16 +
STACK CFI 10cf5 $r15: .cfa -16 + ^
STACK CFI 10cf7 .cfa: $rsp 24 +
STACK CFI 10cf9 .cfa: $rsp 32 +
STACK CFI 10cfb .cfa: $rsp 40 +
STACK CFI 10cfe $r12: .cfa -40 + ^ $r13: .cfa -32 + ^ $r14: .cfa -24 + ^
STACK CFI 10cff .cfa: $rsp 48 +
STACK CFI 10d00 .cfa: $rsp 56 +
STACK CFI 10d03 $rbp: .cfa -48 + ^ $rbx: .cfa -56 + ^
STACK CFI 10d07 .cfa: $rsp 64 +
STACK CFI INIT 10da0 31b .cfa: $rsp 8 + .ra: .cfa -8 + ^
STACK CFI 10da2 .cfa: $rsp 16 +
STACK CFI 10da4 .cfa: $rsp 24 +
STACK CFI 10da6 .cfa: $rsp 32 +
STACK CFI 10da8 .cfa: $rsp 40 +
STACK CFI 10da9 .cfa: $rsp 48 +
STACK CFI 10daa .cfa: $rsp 56 +
STACK CFI 10dae .cfa: $rsp 128 +
STACK CFI 10dd3 $r12: .cfa -40 + ^ $r13: .cfa -32 + ^ $r14: .cfa -24 + ^ $r15: .cfa -16 + ^ $rbp: .cfa -48 + ^ $rbx: .cfa -56 + ^
STACK CFI INIT 110c0 52 .cfa: $rsp 8 + .ra: .cfa -8 + ^
STACK CFI 110c1 .cfa: $rsp 16 +
STACK CFI 110c4 $rbx: .cfa -16 + ^
STACK CFI INIT 11120 131 .cfa: $rsp 8 + .ra: .cfa -8 + ^
STACK CFI 11122 .cfa: $rsp 16 +
STACK CFI 1112a .cfa: $rsp 24 +
STACK CFI 1112b .cfa: $rsp 32 +
STACK CFI 11132 $r12: .cfa -16 + ^ $rbp: .cfa -24 + ^ $rbx: .cfa -32 + ^
STACK CFI INIT 11260 6a .cfa: $rsp 8 + .ra: .cfa -8 + ^
STACK CFI 1126e .cfa: $rsp 32 +
STACK CFI 11274 $rbp: .cfa -16 + ^ $rbx: .cfa -24 + ^
STACK CFI INIT 112d0 1c9 .cfa: $rsp 8 + .ra: .cfa -8 + ^
STACK CFI 112d2 .cfa: $rsp 16 +
STACK CFI 112d4 .cfa: $rsp 24 +
STACK CFI 112d6 .cfa: $rsp 32 +
STACK CFI 112d8 .cfa: $rsp 40 +
STACK CFI 112d9 .cfa: $rsp 48 +
STACK CFI 112da .cfa: $rsp 56 +
STACK CFI 112de .cfa: $rsp 64 +
STACK CFI 112e5 $r12: .cfa -40 + ^ $r13: .cfa -32 + ^ $r14: .cfa -24 + ^ $r15: .cfa -16 + ^ $rbp: .cfa -48 + ^ $rbx: .cfa -56 + ^
STACK CFI INIT 114a0 a1 .cfa: $rsp 8 + .ra: .cfa -8 + ^
STACK CFI 114a4 .cfa: $rsp 16 +
STACK CFI INIT 11550 179 .cfa: $rsp 8 + .ra: .cfa -8 + ^
STACK CFI 11551 .cfa: $rsp 16 +
STACK CFI 11563 .cfa: $rsp 24 +
STACK CFI 1156a .cfa: $rsp 4128 +
STACK CFI 11576 $rbp: .cfa -16 + ^ $rbx: .cfa -24 + ^
STACK CFI INIT 116d0 cb .cfa: $rsp 8 + .ra: .cfa -8 + ^
STACK CFI 116dd $rbp: .cfa -16 + ^ $rbx: .cfa -24 + ^
STACK CFI 116e1 .cfa: $rsp 32 +
STACK CFI INIT 117a0 91 .cfa: $rsp 8 + .ra: .cfa -8 + ^
STACK CFI 117ad $r12: .cfa -16 + ^ $rbx: .cfa -32 + ^
STACK CFI 117b6 .cfa: $rsp 32 +
STACK CFI 117be $rbp: .cfa -24 + ^
STACK CFI INIT 11840 1d4 .cfa: $rsp 8 + .ra: .cfa -8 + ^
STACK CFI 11842 .cfa: $rsp 16 +
STACK CFI 1184e .cfa: $rsp 24 +
STACK CFI 11853 .cfa: $rsp 32 +
STACK CFI 11855 .cfa: $rsp 40 +
STACK CFI 11856 .cfa: $rsp 48 +
STACK CFI 11857 .cfa: $rsp 56 +
STACK CFI 11862 $r12: .cfa -40 + ^ $r13: .cfa -32 + ^ $r14: .cfa -24 + ^ $r15: .cfa -16 + ^ $rbp: .cfa -48 + ^ $rbx: .cfa -56 + ^
STACK CFI INIT 11a20 63 .cfa: $rsp 8 + .ra: .cfa -8 + ^
STACK CFI INIT 11a90 364 .cfa: $rsp 8 + .ra: .cfa -8 + ^
STACK CFI 11a91 .cfa: $rsp 16 +
STACK CFI 11a94 $rbp: .cfa -16 + ^ .cfa: $rbp 16 +
STACK CFI 11a9e $r12: .cfa -48 + ^ $rbx: .cfa -56 + ^
STACK CFI 11aa9 $r13: .cfa -40 + ^ $r14: .cfa -32 + ^
STACK CFI 11abb $r15: .cfa -24 + ^
STACK CFI INIT 11e00 1d4 .cfa: $rsp 8 + .ra: .cfa -8 + ^
STACK CFI 11e02 .cfa: $rsp 16 +
STACK CFI 11e06 .cfa: $rsp 24 +
STACK CFI 11e08 .cfa: $rsp 32 +
STACK CFI 11e09 .cfa: $rsp 40 +
STACK CFI 11e0c $r12: .cfa -32 + ^ $r13: .cfa -24 + ^ $r14: .cfa -16 + ^ $rbp: .cfa -40 + ^
STACK CFI 11e0d .cfa: $rsp 48 +
STACK CFI 11e19 $rbx: .cfa -48 + ^
STACK CFI INIT 11fe0 9a8 .cfa: $rsp 8 + .ra: .cfa -8 + ^
STACK CFI 11fe1 .cfa: $rsp 16 +
STACK CFI 11fe9 $rbp: .cfa -16 + ^ .cfa: $rbp 16 +
STACK CFI 11ff5 $r12: .cfa -48 + ^ $r13: .cfa -40 + ^ $r14: .cfa -32 + ^ $r15: .cfa -24 + ^ $rbx: .cfa -56 + ^
STACK CFI INIT 12990 158 .cfa: $rsp 8 + .ra: .cfa -8 + ^
STACK CFI 12991 .cfa: $rsp 16 +
STACK CFI 12997 $rbp: .cfa -16 + ^
STACK CFI 1299b .cfa: $rsp 24 +
STACK CFI 1299e $rbx: .cfa -24 + ^
STACK CFI 129a2 .cfa: $rsp 32 +
STACK CFI INIT 12af0 eaa .cfa: $rsp 8 + .ra: .cfa -8 + ^
STACK CFI 12af1 .cfa: $rsp 16 +
STACK CFI 12b0b $rbp: .cfa -16 + ^ .cfa: $rbp 16 +
STACK CFI 12b2e $r12: .cfa -48 + ^ $r13: .cfa -40 + ^ $r14: .cfa -32 + ^ $r15: .cfa -24 + ^ $rbx: .cfa -56 + ^
STACK CFI INIT 139a0 80 .cfa: $rsp 8 + .ra: .cfa -8 + ^
STACK CFI 139a1 .cfa: $rsp 16 +
STACK CFI 139ab $rbx: .cfa -16 + ^
STACK CFI INIT 13a20 61 .cfa: $rsp 24 + .ra: .cfa -8 + ^
STACK CFI 13a24 .cfa: $rsp 80 +
STACK CFI 13a7e .cfa: $rsp 8 +
STACK CFI INIT 13a90 55d .cfa: $rsp 24 + .ra: .cfa -8 + ^
STACK CFI 13a94 .cfa: $rsp 56 +
STACK CFI 13a98 $rbx: .cfa -56 + ^
STACK CFI 13aa0 .cfa: $rbx 56 +
STACK CFI 13dfa $rbx: $rbx .cfa: $rsp 56 +
STACK CFI 13dfe .cfa: $rsp 8 +
STACK CFI 13e01 $rbx: .cfa -56 + ^ .cfa: $rbx 56 +
STACK CFI 13eda $rbx: $rbx .cfa: $rsp 56 +
STACK CFI 13ede .cfa: $rsp 8 +
STACK CFI 13edf $rbx: .cfa -56 + ^ .cfa: $rbx 56 +
STACK CFI 13f60 $rbx: $rbx .cfa: $rsp 56 +
STACK CFI 13f64 .cfa: $rsp 8 +
STACK CFI 13f67 $rbx: .cfa -56 + ^ .cfa: $rbx 56 +
STACK CFI 13fe8 $rbx: $rbx .cfa: $rsp 56 +
STACK CFI 13fec .cfa: $rsp 8 +
STACK CFI INIT 13ff0 e6 .cfa: $rsp 8 + .ra: .cfa -8 + ^
STACK CFI INIT 140e0 ab .cfa: $rsp 8 + .ra: .cfa -8 + ^
STACK CFI INIT 14190 2 .cfa: $rsp 8 + .ra: .cfa -8 + ^
STACK CFI INIT 141a0 1c1 .cfa: $rsp 8 + .ra: .cfa -8 + ^
STACK CFI 141a2 .cfa: $rsp 16 +
STACK CFI 141a3 .cfa: $rsp 24 +
STACK CFI 141a4 .cfa: $rsp 32 +
STACK CFI 141ab .cfa: $rsp 496 +
STACK CFI 141b2 $r12: .cfa -16 + ^ $rbp: .cfa -24 + ^ $rbx: .cfa -32 + ^
STACK CFI INIT 14370 741 .cfa: $rsp 8 + .ra: .cfa -8 + ^
STACK CFI 14371 .cfa: $rsp 16 +
STACK CFI 14374 $rbp: .cfa -16 + ^ .cfa: $rbp 16 +
STACK CFI 1437f $r12: .cfa -48 + ^ $r13: .cfa -40 + ^ $r14: .cfa -32 + ^ $r15: .cfa -24 + ^
STACK CFI 1438e $rbx: .cfa -56 + ^
STACK CFI INIT 14ac0 18a .cfa: $rsp 8 + .ra: .cfa -8 + ^
STACK CFI 14ac2 .cfa: $rsp 16 +
STACK CFI 14ac4 .cfa: $rsp 24 +
STACK CFI 14ac6 .cfa: $rsp 32 +
STACK CFI 14ac8 .cfa: $rsp 40 +
STACK CFI 14ac9 .cfa: $rsp 48 +
STACK CFI 14aca .cfa: $rsp 56 +
STACK CFI 14ace .cfa: $rsp 160 +
STACK CFI 14ad5 $r12: .cfa -40 + ^ $r13: .cfa -32 + ^ $r14: .cfa -24 + ^ $r15: .cfa -16 + ^ $rbp: .cfa -48 + ^ $rbx: .cfa -56 + ^
STACK CFI INIT 14c50 325 .cfa: $rsp 8 + .ra: .cfa -8 + ^
STACK CFI 14c52 .cfa: $rsp 16 +
STACK CFI 14c54 .cfa: $rsp 24 +
STACK CFI 14c56 .cfa: $rsp 32 +
STACK CFI 14c58 .cfa: $rsp 40 +
STACK CFI 14c59 .cfa: $rsp 48 +
STACK CFI 14c5c $r12: .cfa -40 + ^ $r13: .cfa -32 + ^ $r14: .cfa -24 + ^ $r15: .cfa -16 + ^ $rbp: .cfa -48 + ^
STACK CFI 14c5d .cfa: $rsp 56 +
STACK CFI 14c61 .cfa: $rsp 80 +
STACK CFI 14c90 $rbx: .cfa -56 + ^
STACK CFI INIT 14f80 6a .cfa: $rsp 8 + .ra: .cfa -8 + ^
STACK CFI INIT 14ff0 3e .cfa: $rsp 8 + .ra: .cfa -8 + ^
STACK CFI INIT 15030 a .cfa: $rsp 8 + .ra: .cfa -8 + ^
STACK CFI INIT 15040 e .cfa: $rsp 8 + .ra: .cfa -8 + ^
STACK CFI 15044 .cfa: $rsp 16 +
STACK CFI INIT 15050 4c .cfa: $rsp 8 + .ra: .cfa -8 + ^
STACK CFI 15054 .cfa: $rsp 32 +
STACK CFI INIT 150a0 93 .cfa: $rsp 8 + .ra: .cfa -8 + ^
STACK CFI 150a4 .cfa: $rsp 16 +
STACK CFI INIT 15140 53 .cfa: $rsp 8 + .ra: .cfa -8 + ^
STACK CFI 15144 .cfa: $rsp 16 +
STACK CFI INIT 151a0 173 .cfa: $rsp 8 + .ra: .cfa -8 + ^
STACK CFI 151a4 .cfa: $rsp 16 +
STACK CFI INIT 15320 d8 .cfa: $rsp 8 + .ra: .cfa -8 + ^
STACK CFI INIT 15400 74 .cfa: $rsp 8 + .ra: .cfa -8 + ^
STACK CFI 1540d $rbp: .cfa -24 + ^ $rbx: .cfa -32 + ^
STACK CFI 15419 .cfa: $rsp 448 +
STACK CFI 1541c $r12: .cfa -16 + ^
STACK CFI INIT 15480 3c .cfa: $rsp 8 + .ra: .cfa -8 + ^
STACK CFI 15484 .cfa: $rsp 16 +
STACK CFI INIT 154c0 f4 .cfa: $rsp 8 + .ra: .cfa -8 + ^
STACK CFI 154c1 .cfa: $rsp 16 +
STACK CFI 154c4 $rbp: .cfa -16 + ^
STACK CFI 154c5 .cfa: $rsp 24 +
STACK CFI 154c9 .cfa: $rsp 32 +
STACK CFI 154d9 $rbx: .cfa -24 + ^
STACK CFI INIT 155c0 d .cfa: $rsp 8 + .ra: .cfa -8 + ^
STACK CFI INIT 155d0 ad .cfa: $rsp 8 + .ra: .cfa -8 + ^
STACK CFI 155de .cfa: $rsp 32 +
STACK CFI 155e4 $rbp: .cfa -16 + ^ $rbx: .cfa -24 + ^
STACK CFI INIT 15680 35 .cfa: $rsp 8 + .ra: .cfa -8 + ^
STACK CFI INIT 156c0 50 .cfa: $rsp 8 + .ra: .cfa -8 + ^
STACK CFI INIT 15710 91 .cfa: $rsp 8 + .ra: .cfa -8 + ^
STACK CFI 1571e .cfa: $rsp 32 +
STACK CFI 15725 $rbp: .cfa -16 + ^ $rbx: .cfa -24 + ^
STACK CFI INIT 157b0 5 .cfa: $rsp 8 + .ra: .cfa -8 + ^
STACK CFI INIT 157c0 f .cfa: $rsp 8 + .ra: .cfa -8 + ^
STACK CFI INIT 157d0 39 .cfa: $rsp 8 + .ra: .cfa -8 + ^
STACK CFI 157d4 .cfa: $rsp 16 +
STACK CFI INIT 15810 93 .cfa: $rsp 8 + .ra: .cfa -8 + ^
STACK CFI 15812 .cfa: $rsp 16 +
STACK CFI 15814 .cfa: $rsp 24 +
STACK CFI 15815 .cfa: $rsp 32 +
STACK CFI 15816 .cfa: $rsp 40 +
STACK CFI 15819 $r12: .cfa -24 + ^ $r13: .cfa -16 + ^ $rbp: .cfa -32 + ^ $rbx: .cfa -40 + ^
STACK CFI 1581d .cfa: $rsp 48 +
STACK CFI INIT 158b0 2b9 .cfa: $rsp 8 + .ra: .cfa -8 + ^
STACK CFI 158b2 .cfa: $rsp 16 +
STACK CFI 158b4 .cfa: $rsp 24 +
STACK CFI 158b6 .cfa: $rsp 32 +
STACK CFI 158b9 $r13: .cfa -32 + ^ $r14: .cfa -24 + ^ $r15: .cfa -16 + ^
STACK CFI 158c2 .cfa: $rsp 40 +
STACK CFI 158c5 $r12: .cfa -40 + ^
STACK CFI 158c6 .cfa: $rsp 48 +
STACK CFI 158c7 .cfa: $rsp 56 +
STACK CFI 158cb $rbp: .cfa -48 + ^ $rbx: .cfa -56 + ^ .cfa: $rsp 80 +
STACK CFI INIT 15b70 1cd .cfa: $rsp 8 + .ra: .cfa -8 + ^
STACK CFI 15b7d $rbp: .cfa -24 + ^ $rbx: .cfa -32 + ^
STACK CFI 15b86 .cfa: $rsp 80 +
STACK CFI 15b97 $r12: .cfa -16 + ^
STACK CFI INIT 15d40 5 .cfa: $rsp 8 + .ra: .cfa -8 + ^
STACK CFI INIT 15d45 19 .cfa: $rsp 8 + .ra: .cfa -8 + ^
STACK CFI INIT 15d5e 96 .cfa: $rsp 8 + .ra: .cfa -8 + ^
STACK CFI 15dad .cfa: $rsp 80 +
STACK CFI 15df2 .cfa: $rsp 8 +
STACK CFI INIT 15df4 7b .cfa: $rsp 8 + .ra: .cfa -8 + ^
STACK CFI 15e00 .cfa: $rsp 16 +
STACK CFI 15e04 .cfa: $rsp 88 +
STACK CFI 15e6d .cfa: $rsp 8 +
STACK CFI INIT 15e6f 73 .cfa: $rsp 8 + .ra: .cfa -8 + ^
STACK CFI 15e74 .cfa: $rsp 80 +
STACK CFI 15edf .cfa: $rsp 8 +
STACK CFI INIT 15ef0 c3 .cfa: $rsp 8 + .ra: .cfa -8 + ^
STACK CFI 15f03 $r12: .cfa -16 + ^ $rbp: .cfa -24 + ^ $rbx: .cfa -32 + ^
STACK CFI 15f0a .cfa: $rsp 176 +
STACK CFI INIT 15fc0 32 .cfa: $rsp 8 + .ra: .cfa -8 + ^
STACK CFI 15fc4 .cfa: $rsp 16 +
STACK CFI INIT 16000 55 .cfa: $rsp 8 + .ra: .cfa -8 + ^
STACK CFI INIT 16060 d7 .cfa: $rsp 8 + .ra: .cfa -8 + ^
STACK CFI 16067 .cfa: $rsp 208 +
STACK CFI INIT 16140 7 .cfa: $rsp 8 + .ra: .cfa -8 + ^
STACK CFI INIT 16150 3c .cfa: $rsp 8 + .ra: .cfa -8 + ^
STACK CFI INIT 16190 3c .cfa: $rsp 8 + .ra: .cfa -8 + ^
STACK CFI INIT 161d0 24 .cfa: $rsp 8 + .ra: .cfa -8 + ^
STACK CFI INIT 16200 24 .cfa: $rsp 8 + .ra: .cfa -8 + ^
STACK CFI INIT 16230 24 .cfa: $rsp 8 + .ra: .cfa -8 + ^
STACK CFI INIT 16260 24 .cfa: $rsp 8 + .ra: .cfa -8 + ^
STACK CFI INIT 16290 24 .cfa: $rsp 8 + .ra: .cfa -8 + ^
STACK CFI INIT 162c0 da .cfa: $rsp 8 + .ra: .cfa -8 + ^
STACK CFI INIT 163a0 68 .cfa: $rsp 8 + .ra: .cfa -8 + ^
STACK CFI 163a4 .cfa: $rsp 16 +
STACK CFI INIT 16410 27 .cfa: $rsp 8 + .ra: .cfa -8 + ^
STACK CFI INIT 16440 24 .cfa: $rsp 8 + .ra: .cfa -8 + ^
STACK CFI INIT 16470 24 .cfa: $rsp 8 + .ra: .cfa -8 + ^
STACK CFI INIT 164a0 24 .cfa: $rsp 8 + .ra: .cfa -8 + ^
STACK CFI INIT 164d0 24 .cfa: $rsp 8 + .ra: .cfa -8 + ^
STACK CFI INIT 16500 44 .cfa: $rsp 8 + .ra: .cfa -8 + ^
STACK CFI INIT 16550 8 .cfa: $rsp 8 + .ra: .cfa -8 + ^
STACK CFI INIT 16560 4f .cfa: $rsp 8 + .ra: .cfa -8 + ^
STACK CFI INIT 165b0 4a .cfa: $rsp 8 + .ra: .cfa -8 + ^
STACK CFI 165dd $r12: .cfa 16 + ^ $r13: .cfa 24 + ^ $r14: .cfa 32 + ^ $r15: .cfa 40 + ^ $rbp: $r9 $rbx: .cfa 0 + ^ $rsp: $r8 .cfa: $rdi 0 + .ra: $rdx
STACK CFI INIT 1660f a .ra: $rip
STACK CFI INIT 16620 1f2 .cfa: $rsp 8 + .ra: .cfa -8 + ^
STACK CFI 16627 .cfa: $rsp 216 +
STACK CFI INIT 16820 1b .cfa: $rsp 8 + .ra: .cfa -8 + ^
STACK CFI INIT 16840 7c .cfa: $rsp 8 + .ra: .cfa -8 + ^
STACK CFI INIT 168c0 21 .cfa: $rsp 8 + .ra: .cfa -8 + ^
STACK CFI INIT 168f0 dc .cfa: $rsp 8 + .ra: .cfa -8 + ^
STACK CFI INIT 169d0 e9 .cfa: $rsp 8 + .ra: .cfa -8 + ^
STACK CFI INIT 16ac0 6d .cfa: $rsp 8 + .ra: .cfa -8 + ^
STACK CFI INIT 16b30 75 .cfa: $rsp 8 + .ra: .cfa -8 + ^
STACK CFI INIT 16bb0 4d5 .cfa: $rsp 8 + .ra: .cfa -8 + ^
STACK CFI 16bb2 .cfa: $rsp 16 +
STACK CFI 16bb8 .cfa: $rsp 24 +
STACK CFI 16bba .cfa: $rsp 32 +
STACK CFI 16bbc .cfa: $rsp 40 +
STACK CFI 16bbd .cfa: $rsp 48 +
STACK CFI 16bbe .cfa: $rsp 56 +
STACK CFI 16bc4 $r12: .cfa -40 + ^ $r13: .cfa -32 + ^ $r14: .cfa -24 + ^ $r15: .cfa -16 + ^ $rbp: .cfa -48 + ^ $rbx: .cfa -56 + ^
STACK CFI INIT 17090 197 .cfa: $rsp 8 + .ra: .cfa -8 + ^
STACK CFI 17092 .cfa: $rsp 16 +
STACK CFI 1709a .cfa: $rsp 24 +
STACK CFI 170a0 $r13: .cfa -24 + ^ $r14: .cfa -16 + ^
STACK CFI 170a2 .cfa: $rsp 32 +
STACK CFI 170a5 $r12: .cfa -32 + ^
STACK CFI 170a6 .cfa: $rsp 40 +
STACK CFI 170a7 .cfa: $rsp 48 +
STACK CFI 170aa $rbp: .cfa -40 + ^ $rbx: .cfa -48 + ^
STACK CFI INIT 17230 550 .cfa: $rsp 8 + .ra: .cfa -8 + ^
STACK CFI INIT 17780 14d .cfa: $rsp 8 + .ra: .cfa -8 + ^
STACK CFI INIT 178d0 dc .cfa: $rsp 8 + .ra: .cfa -8 + ^
STACK CFI INIT 179b0 160 .cfa: $rsp 8 + .ra: .cfa -8 + ^
STACK CFI INIT 17b10 135 .cfa: $rsp 8 + .ra: .cfa -8 + ^
STACK CFI INIT 17c50 126 .cfa: $rsp 8 + .ra: .cfa -8 + ^
STACK CFI 17c57 .cfa: $rsp 16 +
STACK CFI 17c6c .cfa: $rsp 24 +
STACK CFI 17c79 $rbp: .cfa -16 + ^ $rbx: .cfa -24 + ^
STACK CFI INIT 17d80 18b .cfa: $rsp 8 + .ra: .cfa -8 + ^
STACK CFI INIT 17f10 17b .cfa: $rsp 8 + .ra: .cfa -8 + ^
STACK CFI 17f4b $r12: .cfa -24 + ^ $r13: .cfa -16 + ^ $rbp: .cfa -32 + ^ $rbx: .cfa -40 + ^
STACK CFI INIT 18090 4c .cfa: $rsp 8 + .ra: .cfa -8 + ^
STACK CFI INIT 180e0 10 .cfa: $rsp 8 + .ra: .cfa -8 + ^
STACK CFI INIT 180f0 1b2 .cfa: $rsp 8 + .ra: .cfa -8 + ^
STACK CFI 180f1 .cfa: $rsp 16 +
STACK CFI 180f6 $rbx: .cfa -16 + ^
STACK CFI INIT 182b0 292 .cfa: $rsp 8 + .ra: .cfa -8 + ^
STACK CFI 182b2 .cfa: $rsp 16 +
STACK CFI 182b5 $r15: .cfa -16 + ^
STACK CFI 182b7 .cfa: $rsp 24 +
STACK CFI 182ba $r14: .cfa -24 + ^
STACK CFI 182bc .cfa: $rsp 32 +
STACK CFI 182bf $r13: .cfa -32 + ^
STACK CFI 182c1 .cfa: $rsp 40 +
STACK CFI 182c2 .cfa: $rsp 48 +
STACK CFI 182c3 .cfa: $rsp 56 +
STACK CFI 182c5 $r12: .cfa -40 + ^ $rbp: .cfa -48 + ^ $rbx: .cfa -56 + ^
STACK CFI 182c9 .cfa: $rsp 80 +
STACK CFI INIT 18550 f7 .cfa: $rsp 8 + .ra: .cfa -8 + ^
STACK CFI 18552 .cfa: $rsp 16 +
STACK CFI 18556 .cfa: $rsp 24 +
STACK CFI 18558 .cfa: $rsp 32 +
STACK CFI 1855a .cfa: $rsp 40 +
STACK CFI 1855b .cfa: $rsp 48 +
STACK CFI 1855d $r12: .cfa -40 + ^ $r13: .cfa -32 + ^ $r14: .cfa -24 + ^ $r15: .cfa -16 + ^ $rbp: .cfa -48 + ^
STACK CFI 1855e .cfa: $rsp 56 +
STACK CFI 18562 .cfa: $rsp 96 +
STACK CFI 1856b $rbx: .cfa -56 + ^
STACK CFI INIT 18650 2f6 .cfa: $rsp 8 + .ra: .cfa -8 + ^
STACK CFI 18663 .cfa: $rsp 32 +
STACK CFI 1866d $r12: .cfa -16 + ^ $rbp: .cfa -24 + ^ $rbx: .cfa -32 + ^
STACK CFI INIT 18950 5f .cfa: $rsp 8 + .ra: .cfa -8 + ^
STACK CFI 18954 .cfa: $rsp 32 +
STACK CFI INIT 189b0 24 .cfa: $rsp 8 + .ra: .cfa -8 + ^
STACK CFI INIT 189e0 1f2 .cfa: $rsp 8 + .ra: .cfa -8 + ^
STACK CFI 189e3 $rbx: .cfa -16 + ^ .cfa: $rsp 16 +
STACK CFI INIT 18be0 17 .cfa: $rsp 8 + .ra: .cfa -8 + ^
STACK CFI INIT 18c00 83 .cfa: $rsp 8 + .ra: .cfa -8 + ^
STACK CFI 18c02 .cfa: $rsp 16 +
STACK CFI 18c05 $r15: .cfa -16 + ^
STACK CFI 18c07 .cfa: $rsp 24 +
STACK CFI 18c0a $r14: .cfa -24 + ^
STACK CFI 18c0c .cfa: $rsp 32 +
STACK CFI 18c0e .cfa: $rsp 40 +
STACK CFI 18c11 $r12: .cfa -40 + ^ $r13: .cfa -32 + ^
STACK CFI 18c12 .cfa: $rsp 48 +
STACK CFI 18c15 $rbp: .cfa -48 + ^
STACK CFI 18c16 .cfa: $rsp 56 +
STACK CFI 18c19 $rbx: .cfa -56 + ^
STACK CFI 18c1d .cfa: $rsp 80 +
