MODULE windows x86 BCE8785C57B44245A669896B6A19B9542 kernel32.pdb
PUBLIC b5ae c BaseDllInitialize
PUBLIC 9b47 4 CloseHandle
PUBLIC 17826 0 BaseDllInitializeMemoryManager
PUBLIC 55709 10 EnumResourceNamesW
PUBLIC be41 4 BaseDllMapResourceIdA
PUBLIC 98f4 8 BasepMapModuleHandle
PUBLIC 936b 4 BaseSetLastNTError
PUBLIC 92b0 4 SetLastError
PUBLIC 30769 0 GetLastError
PUBLIC b722 0 ConsoleApp
PUBLIC 29d7a 18 SetUpConsoleInfo
PUBLIC 1b069 0 InitExeName
PUBLIC 17860 0 InitializeCtrlHandling
PUBLIC 29f30 4 SetUpHandles
PUBLIC 1dc03 8 SetStdHandle
PUBLIC 12f39 4 GetStdHandle
PUBLIC 17889 4 BaseDllInitializeIniFileMappings
PUBLIC 17923 0 NlsServerInitialize
PUBLIC 180a6 0 NlsProcessInitialize
PUBLIC 1795e 0 AllocTables
PUBLIC 179ea 0 GetUnicodeFileInfo
PUBLIC 16e70 c GetLocaleFileInfo
PUBLIC 18a21 0 GetDefaultSortkeyFileInfo
PUBLIC 17cb5 0 GetDefaultSortTablesFileInfo
PUBLIC 1839b 8 GetSortTablesFileInfo
PUBLIC 998d 8 LocalAlloc
PUBLIC 992f 4 LocalFree
PUBLIC 1625 20 DeviceIoControl
PUBLIC 32eb1 4 LocalUnlock
PUBLIC 32e1d 4 LocalLock
PUBLIC a03b 4 ResetEvent
PUBLIC a017 4 SetEvent
PUBLIC 55921 4 SetLocalTime
PUBLIC a35e 18 CompareStringW
PUBLIC 55a0e 4 LocalFlags
PUBLIC 55b09 4 LocalHandle
PUBLIC 30927 c LocalReAlloc
PUBLIC 30bd3 c InternalFindAtom
PUBLIC 37923 0 wcscpy
PUBLIC 33107 14 InternalGetAtomName
PUBLIC ffb1 c InternalAddAtom
PUBLIC 326c1 4 AddAtomW
PUBLIC ab78 4 BaseDllMapResourceIdW
PUBLIC 2d9b2 0 wcslen
PUBLIC 330e7 c GetAtomNameW
PUBLIC a9cc 8 lstrcmpW
PUBLIC ba64 8 lstrcpyW
PUBLIC bbce c FindResourceW
PUBLIC e6dc 18 SearchPathW
PUBLIC 1021c 10 BaseCreateStack
PUBLIC 55bb1 0 wcscat
PUBLIC 30b7d 8 InternalDeleteAtom
PUBLIC 2c86d 0 CloseProfileUserMapping
PUBLIC ddfe 1c DuplicateHandle
PUBLIC a996 8 lstrcmpiW
PUBLIC b64c 8 BaseThreadStart
PUBLIC 2520 8 WaitForSingleObject
PUBLIC 1042c 1c CreateRemoteThread
PUBLIC 98eb 0 GetCurrentThread
PUBLIC 9766 4 InterlockedIncrement
PUBLIC 977a 4 InterlockedDecrement
PUBLIC 978e 8 InterlockedExchange
PUBLIC 97a2 c InterlockedCompareExchange
PUBLIC 97b6 8 InterlockedExchangeAdd
PUBLIC 97c6 c MulDiv
PUBLIC 10659 8 BaseThreadStartThunk
PUBLIC 10665 8 BaseProcessStartThunk
PUBLIC 10672 4 SwitchToFiber
PUBLIC 106fa 18 _ResourceCallEnumLangRoutine
PUBLIC 1071e 14 _ResourceCallEnumNameRoutine
PUBLIC 1073e 10 _ResourceCallEnumTypeRoutine
PUBLIC 2ff92 0 BaseFiberStart
PUBLIC 103a3 14 BaseInitializeContext
PUBLIC 55bbc 4 ResetAccessDate
PUBLIC 55bee 4 ComputeRemainingSize
PUBLIC 55c24 8 ComputeRequestSize
PUBLIC 55c57 c ReportTransfer
PUBLIC 55c83 8 BackupReadBuffer
PUBLIC 55cd4 c BackupReadStream
PUBLIC 55df2 4 BackupTestRestartStream
PUBLIC 55eb4 8 BasepIsDataAttribute
PUBLIC 55eef 18 BackupSeek
PUBLIC 5604f c BackupWriteHeader
PUBLIC 560f8 c BackupWriteSparse
PUBLIC 561d4 c BackupWriteStream
PUBLIC 5627e c BackupWriteAlternateData
PUBLIC 56381 4 BackupAlloc
PUBLIC 563b1 4 BackupFree
PUBLIC 563d6 8 GrowBuffer
PUBLIC 5643b 4 FreeBuffer
PUBLIC 5645f 4 FreeContext
PUBLIC 564b8 4 AllocContext
PUBLIC 56519 c BackupGetSparseMap
PUBLIC 5669e c BackupReadData
PUBLIC 5676b c BackupReadAlternateData
PUBLIC 569ec c BackupReadEaData
PUBLIC 56ada c BackupReadObjectId
PUBLIC 56b94 c BackupReadReparseData
PUBLIC 56cc7 c BackupReadSecurityData
PUBLIC 56ddf 1c BackupRead
PUBLIC 57012 8 BackupWriteBuffer
PUBLIC 570a4 c BackupWriteEaData
PUBLIC 570ef c BackupWriteReparseData
PUBLIC 5714f c BackupWriteObjectId
PUBLIC 571c9 c BackupWriteSecurityData
PUBLIC 572ae c BackupWriteLinkData
PUBLIC 573fe 1c BackupWrite
PUBLIC 37bfc 0 NotifySoundSentry
PUBLIC 37a77 8 Beep
PUBLIC 575f7 4 BaseValidateNetbiosName
PUBLIC 57665 4 BaseValidateDnsNames
PUBLIC 576da 10 BasepGetMultiValueAddr
PUBLIC 5773b c BaseGetMultiValueIndex
PUBLIC 577c2 c BaseRemoveMultiValue
PUBLIC 5786b c BaseAddMultiValue
PUBLIC 202af 10 BasepGetNameFromReg
PUBLIC 578bb c BaseSetNameInReg
PUBLIC 5795d 10 BaseSetMultiNameInReg
PUBLIC 579f7 c BaseCreateMultiValue
PUBLIC 57aa8 c BaseAddMultiNameInReg
PUBLIC 57bae c BaseRemoveMultiNameFromReg
PUBLIC 57c97 4 BaseSetNetbiosName
PUBLIC 57cd4 4 BaseSetDnsName
PUBLIC 57da5 4 BaseSetDnsDomain
PUBLIC 57e41 4 BaseSetAltNetBiosName
PUBLIC 57e85 4 BaseSetAltDnsFQHostname
PUBLIC 57eb6 4 BaseIsAltDnsFQHostname
PUBLIC 57f59 4 BaseRemoveAltNetBiosName
PUBLIC 57f8a 8 BaseEnumAltDnsFQHostnames
PUBLIC 57fdd 8 BaseParseDnsName
PUBLIC 31893 10 GetNameFromValue
PUBLIC 316c7 8 GetComputerNameW
PUBLIC 5808d 4 SetComputerNameW
PUBLIC 201f1 c GetComputerNameExW
PUBLIC 581b3 8 SetComputerNameExW
PUBLIC 216a4 8 GetComputerNameA
PUBLIC 58234 4 SetComputerNameA
PUBLIC 582a7 c GetComputerNameExA
PUBLIC 5834c 8 SetComputerNameExA
PUBLIC 583a3 10 EnumerateLocalComputerNamesW
PUBLIC 58523 10 EnumerateLocalComputerNamesA
PUBLIC 2ceb2 c DnsHostnameToComputerNameW
PUBLIC 585cf c DnsHostnameToComputerNameA
PUBLIC 5866b 10 BasepGetComputerNameFromNtPath
PUBLIC 58bc3 8 BaseMultiByteToWideCharWithAlloc
PUBLIC 58c3e 4 BaseConvertCharFree
PUBLIC 58c69 4 BaseIsNetBiosNameInUse
PUBLIC 58e0a 8 AddLocalAlternateComputerNameW
PUBLIC 58f26 8 AddLocalAlternateComputerNameA
PUBLIC 58f6f 8 RemoveLocalAlternateComputerNameW
PUBLIC 59050 8 RemoveLocalAlternateComputerNameA
PUBLIC 59099 8 SetLocalPrimaryComputerNameW
PUBLIC 592af 8 SetLocalPrimaryComputerNameA
PUBLIC 592f8 8 LZCopy
PUBLIC 593ae 8 CopyLZFile
PUBLIC b852 10 GetFullPathNameW
PUBLIC b877 8 GetCurrentDirectoryW
PUBLIC 30b14 0 GetLogicalDrives
PUBLIC f272 4 CheckForSameCurdir
PUBLIC 138fc 10 GetFullPathNameA
PUBLIC 34ffe 8 GetCurrentDirectoryA
PUBLIC 360dd 4 SetCurrentDirectoryA
PUBLIC f2ee 4 SetCurrentDirectoryW
PUBLIC 176b 4 GetSystemTime
PUBLIC 17e5 4 GetSystemTimeAsFileTime
PUBLIC 593be 4 SetSystemTime
PUBLIC 929c 0 GetTickCount
PUBLIC e7ec 8 FileTimeToSystemTime
PUBLIC 10b1c 8 SystemTimeToFileTime
PUBLIC e866 8 FileTimeToLocalFileTime
PUBLIC 35524 8 LocalFileTimeToFileTime
PUBLIC 3065d c FileTimeToDosDateTime
PUBLIC 3214e c DosDateTimeToFileTime
PUBLIC 10ad9 8 CompareFileTime
PUBLIC 350bf 4 GetTimeZoneInformation
PUBLIC 5945e 4 SetTimeZoneInformation
PUBLIC 2d36f c GetSystemTimeAdjustment
PUBLIC 59584 8 SetSystemTimeAdjustment
PUBLIC 2e9c1 c SystemTimeToTzSpecificLocalTime
PUBLIC 595c1 c TzSpecificLocalTimeToSystemTime
PUBLIC 5983e 8 CalcClientTimeZoneIdAndBias
PUBLIC a7d4 4 GetLocalTime
PUBLIC 59a31 4 SetClientTimeZoneInformation
PUBLIC 13093 0 IsDebuggerPresent
PUBLIC 59b1e 8 CheckRemoteDebuggerPresent
PUBLIC 59b72 0 DebugBreak
PUBLIC 59b7c 0 CreateDBWinMutex
PUBLIC 59d78 4 OutputDebugStringA
PUBLIC 5a0bd 4 ProcessIdToHandle
PUBLIC 5a123 4 DebugActiveProcess
PUBLIC 5a176 4 DebugBreakProcess
PUBLIC 5a19d 4 DebugSetProcessKillOnExit
PUBLIC 5a1e8 c GetThreadSelectorEntry
PUBLIC 5a231 c SaveThreadHandle
PUBLIC 5a28f 8 SaveProcessHandle
PUBLIC 5a2eb 4 MarkThreadHandle
PUBLIC 5a31b 4 MarkProcessHandle
PUBLIC 5a351 8 RemoveHandles
PUBLIC 5a3c6 4 CloseAllProcessHandles
PUBLIC 5a42d 4 OutputDebugStringW
PUBLIC 5a480 8 WaitForDebugEvent
PUBLIC 5a565 c ContinueDebugEvent
PUBLIC 5a5a9 4 DebugActiveProcessStop
PUBLIC 36f5b 4 RemoveDirectoryW
PUBLIC 323d2 8 CreateDirectoryW
PUBLIC 5a5f2 c CreateDirectoryExW
PUBLIC 5b219 4 RemoveDirectoryA
PUBLIC 217ac 8 CreateDirectoryA
PUBLIC 5b23b c CreateDirectoryExA
PUBLIC 2af8f 4 InitAtomTable
PUBLIC 30cce 0 InternalInitAtomTable
PUBLIC 360a9 4 GlobalAddAtomA
PUBLIC 360c3 4 GlobalFindAtomA
PUBLIC 30bbb 4 GlobalDeleteAtom
PUBLIC 5b28b c GlobalGetAtomNameA
PUBLIC 1006c 4 GlobalAddAtomW
PUBLIC 34e97 4 GlobalFindAtomW
PUBLIC 2c3be c GlobalGetAtomNameW
PUBLIC 354ed 4 AddAtomA
PUBLIC 30cfe 4 FindAtomA
PUBLIC 32695 4 DeleteAtom
PUBLIC 5b2ab c GetAtomNameA
PUBLIC 2f827 4 FindAtomW
PUBLIC f726 c BaseDllGetApplicationName
PUBLIC f763 c BaseDllGetVariableName
PUBLIC 1ee95 10 BaseDllGetVariableValue
PUBLIC f88c 14 BaseDllAppendBufferToResultBuffer
PUBLIC f6da 8 BaseDllIniFileNameLength
PUBLIC f7a0 c BaseDllFindIniFileNameMapping
PUBLIC 1c858 0 BaseDllFlushRegistryCache
PUBLIC 1c8a6 8 BaseDllFindVarNameMapping
PUBLIC 5b2cb 8 BaseDllCheckKeyNotEmpty
PUBLIC 1e361 4 BaseDllOpenIniFileOnDisk
PUBLIC 1e6e1 4 BaseDllCloseIniFileOnDisk
PUBLIC 35889 4 BaseDllCalculateDeleteLength
PUBLIC 1e891 8 BaseDllAdvanceTextPointer
PUBLIC 1f18a 14 BaseDllModifyMappedFile
PUBLIC 5b355 1c BaseDllCheckInitFromIniFile
PUBLIC 3331f 0 OpenProfileUserMapping
PUBLIC f460 28 BaseDllCaptureIniFileParameters
PUBLIC f928 4 BaseDllAppendNullToResultBuffer
PUBLIC f851 10 BaseDllAppendStringToResultBuffer
PUBLIC 1c8db 14 BaseDllOpenMappingTarget
PUBLIC 5b435 4 BaseDllReadApplicationNames
PUBLIC 1b42d 8 BaseDllReadVariableNames
PUBLIC 1cac2 10 BaseDllReadVariableValue
PUBLIC 5b592 8 BaseDllReadApplicationVariables
PUBLIC 2bb93 10 BaseDllWriteVariableValue
PUBLIC 32dd3 4 BaseDllReadSectionNames
PUBLIC 1e793 4 BaseDllFindSection
PUBLIC 1e9c5 4 BaseDllFindKeyword
PUBLIC 5b71c 10 QueryWin31IniFilesMappedToRegistry
PUBLIC 2dc81 8 BaseDllDeleteApplicationVariables
PUBLIC 2dc43 8 BaseDllWriteApplicationVariables
PUBLIC 358ed 4 BaseDllReadKeywordNames
PUBLIC 1ea7d 4 BaseDllReadKeywordValue
PUBLIC 1ecd2 4 BaseDllReadSection
PUBLIC 5b828 4 BaseDllWriteSection
PUBLIC 1f021 8 BaseDllWriteKeywordValue
PUBLIC 1c7f4 4 BaseDllReadWriteIniFileViaMapping
PUBLIC 1e291 4 BaseDllReadWriteIniFileOnDisk
PUBLIC f331 20 BaseDllReadWriteIniFile
PUBLIC 32b56 18 GetPrivateProfileStringA
PUBLIC 35d54 10 WritePrivateProfileStringA
PUBLIC 35f21 10 GetPrivateProfileSectionA
PUBLIC 5ba7c c WritePrivateProfileSectionA
PUBLIC f95d 18 GetPrivateProfileStringW
PUBLIC 1ee4c 10 WritePrivateProfileStringW
PUBLIC 1edbd 10 GetPrivateProfileSectionW
PUBLIC 5bac3 c WritePrivateProfileSectionW
PUBLIC 32da7 c GetPrivateProfileSectionNamesA
PUBLIC 5bb0a c GetPrivateProfileSectionNamesW
PUBLIC 5bb2b 14 GetPrivateProfileStructA
PUBLIC 5bc95 14 GetPrivateProfileStructW
PUBLIC 5be23 14 WritePrivateProfileStructA
PUBLIC 5bf65 14 WritePrivateProfileStructW
PUBLIC 21495 14 GetProfileStringA
PUBLIC 5c0b9 c WriteProfileStringA
PUBLIC 5c0d7 c GetProfileSectionA
PUBLIC 5c0f5 8 WriteProfileSectionA
PUBLIC 213f8 14 GetProfileStringW
PUBLIC 332b1 c WriteProfileStringW
PUBLIC 5c110 c GetProfileSectionW
PUBLIC 5c12e 8 WriteProfileSectionW
PUBLIC 36434 10 GetPrivateProfileIntA
PUBLIC 32730 10 GetPrivateProfileIntW
PUBLIC 364a9 c GetProfileIntA
PUBLIC 2f89a c GetProfileIntW
PUBLIC 21f1e c DefineDosDeviceW
PUBLIC 5c149 8 IsGlobalDeviceMap
PUBLIC 5c269 10 FindSymbolicLinkEntry
PUBLIC 21d8d c QueryDosDeviceW
PUBLIC 5c2c5 c DefineDosDeviceA
PUBLIC 5c36c c QueryDosDeviceA
PUBLIC 31385 10 CreateIoCompletionPort
PUBLIC 126f2 10 PostQueuedCompletionStatus
PUBLIC a71d 14 GetQueuedCompletionStatus
PUBLIC 315c4 10 GetOverlappedResult
PUBLIC ac4d 0 GetErrorMode
PUBLIC ac0f 4 SetErrorMode
PUBLIC ef3a 8 FindNextFileW
PUBLIC edd7 4 FindClose
PUBLIC 5c46c 8 BaseFindFirstDevice
PUBLIC 34bef c FindFirstChangeNotificationW
PUBLIC 32113 4 FindNextChangeNotification
PUBLIC 3162f 20 ReadDirectoryChangesW
PUBLIC ee81 4 BasepInitializeFindFileHandle
PUBLIC 34eb1 8 FindNextFileA
PUBLIC ea7d 18 FindFirstFileExW
PUBLIC 5c4ab c FindFirstChangeNotificationA
PUBLIC 137d9 8 FindFirstFileA
PUBLIC eee1 8 FindFirstFileW
PUBLIC 5c512 18 FindFirstFileExA
PUBLIC 180e 14 ReadFile
PUBLIC 10d87 14 WriteFile
PUBLIC 32044 4 SetEndOfFile
PUBLIC 10b8e 10 SetFilePointer
PUBLIC 21057 14 SetFilePointerEx
PUBLIC 10c6d 8 GetFileInformationByHandle
PUBLIC 31c45 10 GetFileTime
PUBLIC 31cb8 10 SetFileTime
PUBLIC 12641 4 FlushFileBuffers
PUBLIC 32361 14 LockFile
PUBLIC 2f569 18 LockFileEx
PUBLIC 322fb 14 UnlockFileEx
PUBLIC 10a09 8 GetFileSizeEx
PUBLIC 5c64e c BasepIoCompletion
PUBLIC 2bd84 c BasepIoCompletionSimple
PUBLIC 2bcfb 14 ReadFileEx
PUBLIC 5c701 14 WriteFileEx
PUBLIC 300da 4 CancelIo
PUBLIC 2de51 14 ReadFileScatter
PUBLIC 2dda5 14 WriteFileGather
PUBLIC 5c7a1 c SetFileValidData
PUBLIC 5c7f7 8 SetFileShortNameW
PUBLIC 5c8c4 8 SetFileShortNameA
PUBLIC 10e51 4 GetFileType
PUBLIC 322bc 14 UnlockFile
PUBLIC 10a77 8 GetFileSize
PUBLIC bada c OpenFileMappingW
PUBLIC b896 18 MapViewOfFileEx
PUBLIC 35971 8 FlushViewOfFile
PUBLIC b974 4 UnmapViewOfFile
PUBLIC 938e 18 CreateFileMappingW
PUBLIC bb76 c OpenFileMappingA
PUBLIC b905 14 MapViewOfFile
PUBLIC 945c 18 CreateFileMappingA
PUBLIC 110f5 c GetFileAttributesExW
PUBLIC 31f31 4 DeleteFileW
PUBLIC 5c8e9 34 BasepMoveFileCopyProgress
PUBLIC 5c94f 10 BasepNotifyTrackingService
PUBLIC 5cbc1 10 BasepMoveFileDelayed
PUBLIC 5cf6b 20 BasepOpenFileForMove
PUBLIC 5d0e9 c PrivMoveFileIdentityW
PUBLIC 5d371 8 GetCompressedFileSizeW
PUBLIC 314d5 8 SetFileAttributesW
PUBLIC b74c 4 GetFileAttributesW
PUBLIC 137b1 c GetFileAttributesExA
PUBLIC 31eab 4 DeleteFileA
PUBLIC 1f72e 14 MoveFileWithProgressW
PUBLIC 5d499 8 GetCompressedFileSizeA
PUBLIC 12782 8 SetFileAttributesA
PUBLIC 1153c 4 GetFileAttributesA
PUBLIC 35eae 14 MoveFileWithProgressA
PUBLIC 21261 8 MoveFileW
PUBLIC 3565b c MoveFileExW
PUBLIC 35e8f 8 MoveFileA
PUBLIC 5d4c3 c MoveFileExA
PUBLIC 21950 4 BasepOfShareToWin32Share
PUBLIC 5d4e3 14 LoadDuplicateEncryptionInfoFile
PUBLIC 10978 8 BaseIsThisAConsoleName
PUBLIC 5d539 20 CopyNameGraftNow
PUBLIC 284bd 14 BasepProcessNameGrafting
PUBLIC 5d9a1 8 BasepChecksum
PUBLIC 2879d 8 BasepRemoteFile
PUBLIC 5d9e0 8 BasepCreateDispositionToWin32
PUBLIC 5da30 0 CheckAllowDecryptedRemoteDestinationPolicy
PUBLIC 10760 1c CreateFileW
PUBLIC 3719a 20 BasepCopyFileCallback
PUBLIC 5dadd 8 BaseMarkFileForDelete
PUBLIC 5db55 8 CopyReparsePoint
PUBLIC 5dc16 24 BasepOpenRestartableFile
PUBLIC 5de71 1c BasepCopyCompression
PUBLIC 285c6 38 BasepCopyEncryption
PUBLIC 1a24 1c CreateFileA
PUBLIC 21982 c OpenFile
PUBLIC 5e021 28 BasepCopySecurityInformation
PUBLIC 27bdb 38 BaseCopyStream
PUBLIC 36c3c 18 ReplaceFileW
PUBLIC 27613 24 BasepCopyFileExW
PUBLIC 27b32 18 CopyFileExW
PUBLIC 2005f 18 PrivCopyFileExW
PUBLIC 5e307 18 ReplaceFileA
PUBLIC 286ee c CopyFileA
PUBLIC 2f873 c CopyFileW
PUBLIC 5e3c4 18 CopyFileExA
PUBLIC 5e41d 10 GetFirmwareEnvironmentVariableW
PUBLIC 5e4ac 10 SetFirmwareEnvironmentVariableW
PUBLIC 5e534 10 GetFirmwareEnvironmentVariableA
PUBLIC 5e5c7 10 SetFirmwareEnvironmentVariableA
PUBLIC 5e65a 4 RegisterWowBaseHandlers
PUBLIC fd2d 8 GlobalAlloc
PUBLIC 123b9 c GlobalReAlloc
PUBLIC ff19 4 GlobalLock
PUBLIC 34cb9 4 GlobalHandle
PUBLIC fe82 4 GlobalUnlock
PUBLIC 34da1 4 GlobalSize
PUBLIC 36772 4 GlobalFlags
PUBLIC fc2f 4 GlobalFree
PUBLIC 5e670 4 LocalCompact
PUBLIC 5e686 4 GlobalFix
PUBLIC 5e6a0 4 GlobalUnfix
PUBLIC 5e6ba 4 GlobalWire
PUBLIC 5e6ca 4 GlobalUnWire
PUBLIC 310f2 4 GlobalMemoryStatus
PUBLIC 9a72 14 VirtualAllocEx
PUBLIC 9b02 10 VirtualFreeEx
PUBLIC 1a5d 14 VirtualProtectEx
PUBLIC b9a0 10 VirtualQueryEx
PUBLIC 2b13f 8 VirtualLock
PUBLIC 5e6da 8 VirtualUnlock
PUBLIC 355bc c FlushInstructionCache
PUBLIC 5e712 c AllocateUserPhysicalPages
PUBLIC 5e740 c FreeUserPhysicalPages
PUBLIC 5e76e c MapUserPhysicalPages
PUBLIC 5e79c c MapUserPhysicalPagesScatter
PUBLIC 1f992 4 GlobalMemoryStatusEx
PUBLIC 5e7ca 18 GetWriteWatch
PUBLIC 5e803 8 ResetWriteWatch
PUBLIC 9a51 10 VirtualAlloc
PUBLIC 9ae4 c VirtualFree
PUBLIC 1ad0 10 VirtualProtect
PUBLIC b9d1 c VirtualQuery
PUBLIC 2e18c c SetHandleInformation
PUBLIC 2bdb5 8 GetHandleInformation
PUBLIC 1d07e 0 SetFileApisToOEM
PUBLIC 365f6 0 SetFileApisToANSI
PUBLIC 3594f 0 AreFileApisANSI
PUBLIC 17443 0 BaseProcessInitPostImport
PUBLIC 934b 0 BaseGetNamedObjectDirectory
PUBLIC b5c3 c _BaseDllInitialize
PUBLIC 5e830 8 _lopen
PUBLIC 365a5 8 _lcreat
PUBLIC 353ce c _lread
PUBLIC 38ae7 c _lwrite
PUBLIC 34e64 4 _lclose
PUBLIC 35406 c _llseek
PUBLIC 30d74 8 lstrcmpA
PUBLIC baa1 8 lstrcmpiA
PUBLIC be01 8 lstrcpyA
PUBLIC 10111 c lstrcpynA
PUBLIC 34d41 8 lstrcatA
PUBLIC bdb6 4 lstrlenA
PUBLIC b9ef c lstrcpynW
PUBLIC 10f32 8 lstrcatW
PUBLIC 9a09 4 lstrlenW
PUBLIC 325bc 4 LocalSize
PUBLIC 5e882 8 LocalShrink
PUBLIC 12bb6 c HeapCreate
PUBLIC 10ef8 4 HeapDestroy
PUBLIC 5e898 10 HeapExtend
PUBLIC 5e8c9 10 HeapCreateTagsW
PUBLIC 5e8da 14 HeapQueryTagW
PUBLIC 5e8eb c HeapSummary
PUBLIC 5e947 14 HeapUsage
PUBLIC 5e9bb c HeapValidate
PUBLIC abc1 0 GetProcessHeap
PUBLIC 5e9db 8 GetProcessHeaps
PUBLIC 3611e 8 HeapCompact
PUBLIC 5e9ec 4 HeapLock
PUBLIC 5ea06 4 HeapUnlock
PUBLIC 5ea20 8 HeapWalk
PUBLIC 39469 10 HeapSetInformation
PUBLIC 5eb25 14 HeapQueryInformation
PUBLIC 5eb58 14 GetMailslotInfo
PUBLIC 2cdd8 8 SetMailslotInfo
PUBLIC 2ccdc 10 CreateMailslotW
PUBLIC 2cc8b 10 CreateMailslotA
PUBLIC 34932 c CreateVirtualBuffer
PUBLIC 5ebf4 8 ExtendVirtualBuffer
PUBLIC 5ec4e 4 TrimVirtualBuffer
PUBLIC 34b69 4 FreeVirtualBuffer
PUBLIC 5ec71 c VirtualBufferExceptionHandler
PUBLIC 349d8 20 BaseDllFormatMessage
PUBLIC 2f7a0 1c FormatMessageA
PUBLIC 34b8f 1c FormatMessageW
PUBLIC abde 4 FreeLibrary
PUBLIC c170 8 FreeLibraryAndExitThread
PUBLIC 11296 4 DisableThreadLibraryCalls
PUBLIC 5ecb0 4 SetDllDirectoryW
PUBLIC 5ed46 4 SetDllDirectoryA
PUBLIC 5edd7 8 GetDllDirectoryW
PUBLIC e477 4 GetModuleHandleForUnicodeString
PUBLIC 1fcff c BasepGetModuleHandleExParameterValidation
PUBLIC e4b9 10 BasepGetModuleHandleExW
PUBLIC 111da 0 GetVersion
PUBLIC ae65 4 GetVersionExW
PUBLIC 1fb26 10 VerifyVersionInfoW
PUBLIC 5ee46 10 VerifyVersionInfoA
PUBLIC 9f81 4 BaseDllFreeResourceId
PUBLIC 5eee3 c ReturnMem16Data
PUBLIC 5eef0 1c UTRegister
PUBLIC 14c3c c BasepLoadLibraryAsDataFile
PUBLIC 1af1 c LoadLibraryExW
PUBLIC 5ef47 8 GetDllDirectoryA
PUBLIC b3d5 c GetModuleFileNameW
PUBLIC b4cf c GetModuleFileNameA
PUBLIC e43d 4 GetModuleHandleW
PUBLIC 5efe6 c GetModuleHandleExA
PUBLIC 1fcc1 c GetModuleHandleExW
PUBLIC ada0 8 GetProcAddress
PUBLIC 12ade 4 GetVersionExA
PUBLIC be89 c FindResourceA
PUBLIC 35f78 10 FindResourceExA
PUBLIC 9fb5 8 LoadResource
PUBLIC bc69 8 SizeofResource
PUBLIC 5f03c c EnumResourceTypesA
PUBLIC 5f229 10 EnumResourceNamesA
PUBLIC 2e000 14 EnumResourceLanguagesA
PUBLIC ac88 10 FindResourceExW
PUBLIC 5f449 c EnumResourceTypesW
PUBLIC 5f631 14 EnumResourceLanguagesW
PUBLIC ae4b 4 LoadLibraryW
PUBLIC 1d4f c LoadLibraryExA
PUBLIC b6a1 4 GetModuleHandleA
PUBLIC 1d77 4 LoadLibraryA
PUBLIC 3145b 8 ConnectNamedPipe
PUBLIC 1269f 4 DisconnectNamedPipe
PUBLIC 5f781 c NpGetUserNamep
PUBLIC 313ec 10 SetNamedPipeHandleState
PUBLIC 5f88a 14 GetNamedPipeInfo
PUBLIC 5f90f 18 PeekNamedPipe
PUBLIC 312e5 1c TransactNamedPipe
PUBLIC 2c664 8 WaitNamedPipeW
PUBLIC 2f0d4 20 CreateNamedPipeW
PUBLIC 5fa85 1c GetNamedPipeHandleStateW
PUBLIC 5fb7f 1c CallNamedPipeW
PUBLIC 5fc39 8 WaitNamedPipeA
PUBLIC 5fc74 20 CreateNamedPipeA
PUBLIC 5fceb 1c GetNamedPipeHandleStateA
PUBLIC 5fdce 1c CallNamedPipeA
PUBLIC 5fe41 4 GetNumaHighestNodeNumber
PUBLIC 5fe8c 8 GetNumaProcessorNode
PUBLIC 5ff19 8 GetNumaNodeProcessorMask
PUBLIC 5ff7e c GetNumaProcessorMap
PUBLIC 5ffc4 c GetNumaAvailableMemory
PUBLIC 6000a 8 GetNumaAvailableMemoryNode
PUBLIC 600d2 10 NumaVirtualQueryNode
PUBLIC f182 8 IsThisARootDirectory
PUBLIC 31db9 8 GetSystemDirectoryW
PUBLIC ad29 8 GetSystemWindowsDirectoryW
PUBLIC ad7b 8 GetWindowsDirectoryW
PUBLIC b2d0 4 GetDriveTypeW
PUBLIC 112d5 c BasepGetTempPathW
PUBLIC 359b7 10 GetTempFileNameW
PUBLIC 301af 14 GetDiskFreeSpaceW
PUBLIC 12803 10 GetDiskFreeSpaceExW
PUBLIC f9e5 20 GetVolumeInformationW
PUBLIC 2c2d3 8 GetLogicalDriveStringsA
PUBLIC 603cf 8 GetLogicalDriveStringsW
PUBLIC 60499 8 SetVolumeLabelW
PUBLIC 60811 14 CheckNameLegalDOS8Dot3W
PUBLIC 14eea 8 GetSystemDirectoryA
PUBLIC 212f1 8 GetSystemWindowsDirectoryA
PUBLIC 21363 8 GetWindowsDirectoryA
PUBLIC 214e3 4 GetDriveTypeA
PUBLIC 217ea 18 SearchPathA
PUBLIC 30789 8 GetTempPathW
PUBLIC 608ff 10 GetTempFileNameA
PUBLIC 302ed 14 GetDiskFreeSpaceA
PUBLIC 3039b 10 GetDiskFreeSpaceExA
PUBLIC 21ba5 20 GetVolumeInformationA
PUBLIC 609ed 8 SetVolumeLabelA
PUBLIC 60a51 14 CheckNameLegalDOS8Dot3A
PUBLIC 35dca 8 GetTempPathA
PUBLIC a427 4 QueryPerformanceCounter
PUBLIC 2fa46 4 QueryPerformanceFrequency
PUBLIC 1e0c7 10 CreatePipe
PUBLIC 35340 4 GetSystemPowerStatus
PUBLIC 60aab 8 SetSystemPowerState
PUBLIC 392b5 4 SetThreadExecutionState
PUBLIC 60af4 4 RequestWakeupLatency
PUBLIC 60b1c 8 GetDevicePowerState
PUBLIC 60b60 0 IsSystemResumeAutomatic
PUBLIC 60b6f 4 RequestDeviceWakeup
PUBLIC 60b97 4 CancelDeviceWakeupRequest
PUBLIC 60bbf 8 SetMessageWaitingIndicator
PUBLIC 2f3a4 4 BasepIsSetupInvokedByWinLogon
PUBLIC 1a1cf 8 BasepIsImageVersionOk
PUBLIC 1500c 0 IsShimInfrastructureDisabled
PUBLIC 1930f 1c BasepCheckBadapp
PUBLIC 16f8e 4 RegisterWaitForInputIdle
PUBLIC 2dfa0 c StuffStdHandle
PUBLIC 60bd3 c BasepReplaceProcessThreadTokens
PUBLIC 309e1 c OpenProcess
PUBLIC 1cd34 4 _ExitProcess
PUBLIC 1cdda 4 ExitProcess
PUBLIC 1e16 8 TerminateProcess
PUBLIC 1ae17 8 GetExitCodeProcess
PUBLIC 1e50 4 GetStartupInfoW
PUBLIC 1eee 4 GetStartupInfoA
PUBLIC 12f1d 0 GetCommandLineA
PUBLIC 16f83 0 GetCommandLineW
PUBLIC 1df77 4 FreeEnvironmentStringsA
PUBLIC 12f08 0 GetEnvironmentStringsW
PUBLIC 1cf5b 0 GetEnvironmentStrings
PUBLIC 14af2 c GetEnvironmentVariableA
PUBLIC 33478 8 SetEnvironmentVariableA
PUBLIC f0f4 c GetEnvironmentVariableW
PUBLIC 101be 8 SetEnvironmentVariableW
PUBLIC 329d9 c ExpandEnvironmentStringsA
PUBLIC 305f6 c ExpandEnvironmentStringsW
PUBLIC 9920 0 GetCurrentProcessId
PUBLIC 60c75 4 GetProcessId
PUBLIC 21cc 14 ReadProcessMemory
PUBLIC 220f 14 WriteProcessMemory
PUBLIC 60caa 8 FatalAppExitW
PUBLIC 60cf8 8 FatalAppExitA
PUBLIC 60d46 4 FatalExit
PUBLIC ae2a 4 IsProcessorFeaturePresent
PUBLIC 60d58 10 BuildSubSysCommandLine
PUBLIC 60e13 4 GetPriorityClass
PUBLIC 9e01 8 IsBadReadPtr
PUBLIC 3593f 8 IsBadHugeReadPtr
PUBLIC 9e79 8 IsBadWritePtr
PUBLIC bf9d 8 IsBadHugeWritePtr
PUBLIC bccf 4 IsBadCodePtr
PUBLIC 32259 8 IsBadStringPtrA
PUBLIC a5dc 8 IsBadStringPtrW
PUBLIC 2c8ed 8 SetProcessShutdownParameters
PUBLIC 60e79 8 GetProcessShutdownParameters
PUBLIC 60ee8 4 BasepIsRealtimeAllowed
PUBLIC 60f22 c GetSystemTimes
PUBLIC 352d9 14 GetProcessTimes
PUBLIC 21765 c GetProcessAffinityMask
PUBLIC 61068 c GetProcessWorkingSetSize
PUBLIC 303d0 c SetProcessWorkingSetSize
PUBLIC 12c23 4 GetProcessVersion
PUBLIC 610b0 8 SetProcessAffinityMask
PUBLIC 610e0 8 SetProcessPriorityBoost
PUBLIC 6111b 8 GetProcessPriorityBoost
PUBLIC 61155 8 GetProcessIoCounters
PUBLIC 61186 8 GetProcessHandleCount
PUBLIC 611c0 8 GetSystemRegistryQuota
PUBLIC 6120a c BasepSaveAppCertRegistryValue
PUBLIC 15199 8 IsWow64Process
PUBLIC 194dd 4 BasepIsProcessAllowed
PUBLIC 19805 18 BasepCheckWinSaferRestrictions
PUBLIC 19513 30 CreateProcessInternalW
PUBLIC 2332 28 CreateProcessW
PUBLIC 12cb0 c GetSystemInfoInternal
PUBLIC 12d56 4 GetSystemInfo
PUBLIC 37945 4 GetNativeSystemInfo
PUBLIC 2c338 8 SetPriorityClass
PUBLIC 61351 18 BasepConfigureAppCertDlls
PUBLIC 1ddd6 30 CreateProcessInternalA
PUBLIC 2367 28 CreateProcessA
PUBLIC 6136d 8 WinExec
PUBLIC 6147e 8 LoadModule
PUBLIC 3965a 4 CreateMemoryResourceNotification
PUBLIC 395d8 8 QueryMemoryResourceNotification
PUBLIC 2c1e7 c DosPathToSessionPathW
PUBLIC 12f89 8 ProcessIdToSessionId
PUBLIC 132ee 0 WTSGetActiveConsoleSessionId
PUBLIC 61799 c DosPathToSessionPathA
PUBLIC 92ea c BaseFormatObjectAttributes
PUBLIC 2470 8 BaseFormatTimeOut
PUBLIC 16fb4 4 BaseProcessStart
PUBLIC 61901 c BaseFreeThreadStack
PUBLIC e0df 4 BasepEndOfDirName
PUBLIC 176db c BasepLocateExeLdrEntry
PUBLIC 61933 4 BasepUnicodeStringToOemSize
PUBLIC 6195c 4 BasepUnicodeStringToAnsiSize
PUBLIC 30445 8 BasepAcquirePrivilegeEx
PUBLIC 3053e 4 BasepReleasePrivilege
PUBLIC e275 c BasepComputeProcessPath
PUBLIC df9e 8 BaseComputeProcessDllPath
PUBLIC 31d8e 0 BaseComputeProcessSearchPath
PUBLIC e074 4 Basep8BitStringToStaticUnicodeString
PUBLIC 114f8 8 Basep8BitStringToDynamicUnicodeString
PUBLIC 1a2ce 34 BasePushProcessParameters
PUBLIC 9ef1 4 InitializeCriticalSection
PUBLIC b829 8 InitializeCriticalSectionAndSpinCount
PUBLIC 13140 c OpenEventW
PUBLIC 2c05e 4 PulseEvent
PUBLIC 10086 10 CreateSemaphoreW
PUBLIC 2e30f c OpenSemaphoreW
PUBLIC bfad c ReleaseSemaphore
PUBLIC e8b7 c CreateMutexW
PUBLIC e995 c OpenMutexW
PUBLIC 24a7 4 ReleaseMutex
PUBLIC 2540 c WaitForSingleObjectEx
PUBLIC 36696 10 SignalObjectAndWait
PUBLIC 952a 14 WaitForMultipleObjectsEx
PUBLIC 239c 8 SleepEx
PUBLIC 2fb52 c CreateWaitableTimerW
PUBLIC 61985 c OpenWaitableTimerW
PUBLIC 95f9 18 SetWaitableTimer
PUBLIC 2cc09 4 CancelWaitableTimer
PUBLIC a6a9 10 CreateEventW
PUBLIC 1320c c OpenEventA
PUBLIC 12e1d 10 CreateSemaphoreA
PUBLIC 2ca47 c OpenSemaphoreA
PUBLIC e93f c CreateMutexA
PUBLIC ea1b c OpenMutexA
PUBLIC a05d 10 WaitForMultipleObjects
PUBLIC 2442 4 Sleep
PUBLIC 61a81 c CreateWaitableTimerA
PUBLIC 61af0 c OpenWaitableTimerA
PUBLIC 308ad 10 CreateEventA
PUBLIC 33609 0 StringCopyExWorkerW(unsigned short *,unsigned int,unsigned int,unsigned short const *,unsigned short * *,unsigned int *,unsigned long)
PUBLIC 61b64 0 StringLengthWorkerW(unsigned short const *,unsigned int,unsigned int *)
PUBLIC 1746c 0 IsTerminalServerCompatible
PUBLIC 17499 0 IsTSAppCompatEnabled
PUBLIC f1fa 0 IsSystemLUID
PUBLIC 17459 0 InitializeTermsrvFpns
PUBLIC 1efce 0 TermsrvAppInstallMode
PUBLIC 61ba2 4 SetTermsrvAppInstallMode
PUBLIC 61d3f c TermsrvGetSyncTime
PUBLIC 61ffd c TermsrvPutSyncTime
PUBLIC 6240a 8 TermsrvCheckIniSync
PUBLIC 62473 4 TermsrvDoesFileExist
PUBLIC 624ba c TermsrvIniSyncLoop
PUBLIC 17f41 8 GetPerUserWindowsDirectory
PUBLIC 6277d 18 StringCbCopyExW
PUBLIC 627db 1c StringCatExWorkerW
PUBLIC 6297f 18 StringCbCatExW
PUBLIC 1ebb1 4 TermsrvSyncUserIniFile
PUBLIC 629dd 10 StringVPrintfWorkerW
PUBLIC 12980 c BaseCreateThreadPoolThread
PUBLIC 2fc00 c OpenThread
PUBLIC c108 8 SetThreadPriority
PUBLIC a793 4 GetThreadPriority
PUBLIC 62a30 8 SetThreadPriorityBoost
PUBLIC 62a6b 8 GetThreadPriorityBoost
PUBLIC c058 4 ExitThread
PUBLIC 1ce03 8 TerminateThread
PUBLIC 21435 8 GetExitCodeThread
PUBLIC 9728 0 GetCurrentThreadId
PUBLIC 3970d 8 GetThreadContext
PUBLIC 62aa5 8 SetThreadContext
PUBLIC 39732 4 SuspendThread
PUBLIC 328f7 4 ResumeThread
PUBLIC 12a09 10 RaiseException
PUBLIC 62ad0 8 FillUEFInfo
PUBLIC 4479d 4 SetUnhandledExceptionFilter
PUBLIC 62b4f 4 BasepCheckForReadOnlyResource
PUBLIC 12d9f 0 TlsAlloc
PUBLIC 9740 4 TlsGetValue
PUBLIC 9bc5 8 TlsSetValue
PUBLIC 136d7 4 TlsFree
PUBLIC 62c9c 14 GetThreadTimes
PUBLIC 62d09 8 GetThreadIOPendingFlag
PUBLIC 2fa7a 8 SetThreadAffinityMask
PUBLIC 2c0e6 c BaseDispatchAPC
PUBLIC 2c082 c QueueUserAPC
PUBLIC 62d48 8 SetThreadIdealProcessor
PUBLIC 2ffcf 14 CreateFiberEx
PUBLIC 2fe84 4 DeleteFiber
PUBLIC 2ff16 4 ConvertThreadToFiber
PUBLIC 2fed7 0 ConvertFiberToThread
PUBLIC 32992 0 SwitchToThread
PUBLIC 211cd 18 RegisterWaitForSingleObject
PUBLIC 2b086 14 RegisterWaitForSingleObjectEx
PUBLIC 2bff8 4 UnregisterWait
PUBLIC 30062 8 UnregisterWaitEx
PUBLIC 30a62 c QueueUserWorkItem
PUBLIC 2c02c c BindIoCompletionCallback
PUBLIC 2cba2 0 BasepCreateDefaultTimerQueue
PUBLIC 2bfd6 0 CreateTimerQueue
PUBLIC 2117d 1c CreateTimerQueueTimer
PUBLIC 12723 10 ChangeTimerQueueTimer
PUBLIC 21130 c DeleteTimerQueueTimer
PUBLIC 62d7c 8 DeleteTimerQueueEx
PUBLIC 2b26e 18 SetTimerQueueTimer
PUBLIC 62dc3 4 DeleteTimerQueue
PUBLIC 62df0 8 CancelTimerQueueTimer
PUBLIC 62e34 0 StringCchPrintfW
PUBLIC 10637 18 CreateThread
PUBLIC c1e0 4 BaseExitThreadPoolThread
PUBLIC 62e62 4 UnhandledExceptionFilter
PUBLIC 2ffaf c CreateFiber
PUBLIC 63999 8 Heap32ListFirst
PUBLIC 63a47 8 Heap32ListNext
PUBLIC 63ade c Heap32First
PUBLIC 63bf8 4 Heap32Next
PUBLIC 63d24 14 Toolhelp32ReadProcessMemory
PUBLIC 63d64 8 Process32FirstW
PUBLIC 63e1d 8 Process32First
PUBLIC 63eef 8 Process32NextW
PUBLIC 63f90 8 Process32Next
PUBLIC 64062 8 Thread32First
PUBLIC 64116 8 Thread32Next
PUBLIC 641af 8 Module32FirstW
PUBLIC 64268 8 Module32First
PUBLIC 6434c 8 Module32NextW
PUBLIC 643ed 8 Module32Next
PUBLIC 644c8 14 ThpCreateRawSnap
PUBLIC 64679 18 ThpAllocateSnapshotSection
PUBLIC 6481c c ThpCopyAnsiToUnicode
PUBLIC 64858 18 ThpProcessToSnap
PUBLIC 64b47 8 CreateToolhelp32Snapshot
PUBLIC 64bcf 8 GetExpandedNameA
PUBLIC 64c7c 8 GetExpandedNameW
PUBLIC 64d93 4 ConvertWin32FHToDos
PUBLIC 64e03 4 ConvertDosFHToWin32
PUBLIC 64e2a 4 LZInit
PUBLIC 64f85 14 LZCreateFileW
PUBLIC 65053 c LZOpenFileA
PUBLIC 65114 c LZOpenFileW
PUBLIC 651ab c LZSeek
PUBLIC 65236 c LZRead
PUBLIC 65444 4 LZCloseFile
PUBLIC 654bb 4 LZClose
PUBLIC 6557c c ClearCommError
PUBLIC 656c7 c SetupComm
PUBLIC 6578e 8 EscapeCommFunction
PUBLIC 6588a 8 GetCommMask
PUBLIC 65913 8 GetCommModemStatus
PUBLIC 6599c 8 GetCommProperties
PUBLIC 65a54 8 GetCommState
PUBLIC 22128 8 GetCommTimeouts
PUBLIC 65d02 8 PurgeComm
PUBLIC 65d8c 4 SetCommBreak
PUBLIC 65da4 8 SetCommMask
PUBLIC 65e43 8 SetCommState
PUBLIC 6614b 8 SetCommTimeouts
PUBLIC 661f6 8 TransmitCommChar
PUBLIC 66280 c WaitCommEvent
PUBLIC 663c8 8 GetFriendlyUi
PUBLIC 6677d c CommConfigDialogW
PUBLIC 66871 c CommConfigDialogA
PUBLIC 66949 c GetDefaultCommConfigW
PUBLIC 66a41 c GetDefaultCommConfigA
PUBLIC 66b19 c SetDefaultCommConfigW
PUBLIC 66c11 c SetDefaultCommConfigA
PUBLIC 66cf1 4 ClearCommBreak
PUBLIC 66d09 c GetCommConfig
PUBLIC 66eab c SetCommConfig
PUBLIC 66f43 4 GetNextVDMCommand
PUBLIC 67695 8 ExitVDM
PUBLIC 67714 8 SetVDMCurrentDirectories
PUBLIC 67849 8 GetVDMCurrentDirectories
PUBLIC 2f609 4 CmdBatNotification
PUBLIC 679a9 4 RegisterWowExec
PUBLIC 67a01 c GetVDMConfigValue
PUBLIC 67a4a 10 BaseUpdateVDMEntry
PUBLIC 28b87 8 BaseIsDosApplication
PUBLIC 1ae5e 8 BaseCheckForVDM
PUBLIC 67b2e 8 BaseDestroyVDMEnvironment
PUBLIC 67b70 8 BaseGetEnvNameType_U
PUBLIC 1143f 4 SkipPathTypeIndicator_U
PUBLIC 1f5a6 8 IsShortName_U
PUBLIC 132f9 8 IsLongName_U
PUBLIC 67bcc 8 GetBinaryTypeW
PUBLIC 67e19 4 VDMOperationStarted
PUBLIC 67e35 14 BaseGetVDMKeyword
PUBLIC 1146a 10 FindLFNorSFN_U
PUBLIC 6802b 8 GetBinaryTypeA
PUBLIC 1f26e c GetShortPathNameW
PUBLIC 680be c BaseCreateVDMEnvironment
PUBLIC 13353 c GetLongPathNameW
PUBLIC 28c38 24 BaseCheckVDMp
PUBLIC 68509 24 BaseCheckVDM
PUBLIC 35bb0 c GetShortPathNameA
PUBLIC 68586 c GetLongPathNameA
PUBLIC 687a1 14 BaseGetVdmConfigInfo
PUBLIC 2cf9b c FindNextVolumeW
PUBLIC 2cf60 4 FindVolumeClose
PUBLIC 68abf 10 FindNextVolumeMountPointHelper
PUBLIC 68db1 c FindFirstVolumeMountPointW
PUBLIC 68f11 8 IsThisAVolumeName
PUBLIC 6905d c FindNextVolumeMountPointW
PUBLIC 357d5 4 FindCloseChangeNotification
PUBLIC 2080d c GetVolumeNameForRoot
PUBLIC 31b99 10 BasepGetVolumeNameFromReparsePoint
PUBLIC 20799 10 BasepGetVolumeNameForVolumeMountPoint
PUBLIC 1fb88 c GetVolumeNameForVolumeMountPointW
PUBLIC 6907b 8 SetVolumeNameForRoot
PUBLIC 69218 c NotifyMountMgr
PUBLIC 69395 8 SetVolumeMountPointW
PUBLIC 69778 4 DeleteVolumeNameForRoot
PUBLIC 69930 4 DeleteVolumeMountPointW
PUBLIC 2e61c c GetVolumePathNameW
PUBLIC 20d14 10 GetVolumePathNamesForVolumeNameW
PUBLIC 2d2af 8 FindFirstVolumeW
PUBLIC 69bff c FindNextVolumeA
PUBLIC 69d19 c FindFirstVolumeMountPointA
PUBLIC 69e49 c FindNextVolumeMountPointA
PUBLIC 69f61 c GetVolumeNameForVolumeMountPointA
PUBLIC 6a091 8 SetVolumeMountPointA
PUBLIC 6a0de 4 DeleteVolumeMountPointA
PUBLIC 2e8b2 c GetVolumePathNameA
PUBLIC 6a100 10 GetVolumePathNamesForVolumeNameA
PUBLIC 6a259 8 FindFirstVolumeA
PUBLIC 6aebf c BuildCommDCBAndTimeoutsA
PUBLIC 6aeed 8 BuildCommDCBA
PUBLIC 6af1f c BuildCommDCBAndTimeoutsW
PUBLIC 6af79 8 BuildCommDCBW
PUBLIC 6afd0 18 BasepDoTapeOperation
PUBLIC 6b046 18 SetTapePosition
PUBLIC 6b08c 14 GetTapePosition
PUBLIC 6b0e8 c PrepareTape
PUBLIC 6b11b c EraseTape
PUBLIC 6b14e 10 CreateTapePartition
PUBLIC 6b188 10 WriteTapemark
PUBLIC 6b1c2 10 GetTapeParameters
PUBLIC 6b21e c SetTapeParameters
PUBLIC 6b25f 4 GetTapeStatus
PUBLIC 2cb03 8 CreateJobObjectW
PUBLIC 6b280 c OpenJobObjectW
PUBLIC 2e44a 8 AssignProcessToJobObject
PUBLIC 6b2f7 8 TerminateJobObject
PUBLIC 2afc9 14 QueryInformationJobObject
PUBLIC 2ca9f 10 SetInformationJobObject
PUBLIC 6b324 c IsProcessInJob
PUBLIC 6b35e c CreateJobSet
PUBLIC 6b38c 8 CreateJobObjectA
PUBLIC 6b3f8 c OpenJobObjectA
PUBLIC 6b46c c CreateHardLinkW
PUBLIC 6b629 c CreateHardLinkA
PUBLIC 6b683 4 GetHandleContext
PUBLIC 2146c 8 GetSystemWow64DirectoryW
PUBLIC 6b694 0 CreateSocketHandle
PUBLIC 1301e 18 BasepSxsActivationContextNotification
PUBLIC 6b6a3 10 BasepSxsSuitableManifestCallback
PUBLIC 17190 c BasepSxsFindSuitableManifestResourceFor
PUBLIC 2bf01 4 AddRefActCtx
PUBLIC 1305f 4 ReleaseActCtx
PUBLIC 6b6fb 4 ZombifyActCtx
PUBLIC a644 8 ActivateActCtx
PUBLIC a675 8 DeactivateActCtx
PUBLIC 300a9 4 GetCurrentActCtx
PUBLIC 967c 10 BasepAllocateActivationContextActivationBlock
PUBLIC 6b723 4 BasepFreeActivationContextActivationBlock
PUBLIC 130a6 4 BasepSxsCloseHandles
PUBLIC 15350 14 BasepSxsCreateResourceStream
PUBLIC 6b761 8 BasepSxsOverrideStreamToMessageStream
PUBLIC 1530d 4 BasepSxsIsStatusFileNotFoundEtc
PUBLIC 19aaa 4 BasepSxsIsStatusResourceNotFound
PUBLIC 1a9d9 8 BasepSxsGetProcessImageBaseAddress
PUBLIC 15229 10 BasepSxsCreateFileStream
PUBLIC 162db 1c QueryActCtxW
PUBLIC 1529b 3c BasepSxsCreateStreams
PUBLIC 1a86f 28 BasepSxsCreateProcessCsrMessage
PUBLIC 15921 c BasepCreateActCtx
PUBLIC 1545c 4 CreateActCtxW
PUBLIC 11210 c BasepProbeForDllManifest
PUBLIC 6b7a5 4 CreateActCtxA
PUBLIC 2fe16 c BasepFindActCtxSection_FillOutReturnData
PUBLIC 30e9a c BasepFindActCtxSection_CheckAndConvertParameters
PUBLIC 2fd92 14 BasepFindActCtxSectionString
PUBLIC 6bb0f 14 FindActCtxSectionStringA
PUBLIC 2fd4c 14 FindActCtxSectionStringW
PUBLIC 30f21 14 FindActCtxSectionGuid
PUBLIC 38653 14 BasepQueryModuleData
PUBLIC 3835a 14 BaseQueryModuleData
PUBLIC 1612f 4 CsrBasepCreateActCtx
PUBLIC 6bb65 4 SetComPlusPackageInstallStatus
PUBLIC 6bba2 0 GetComPlusPackageInstallStatus
PUBLIC 6bbcf 4 BasepShimCacheWrite
PUBLIC 16763 c BasepCheckStringPrefixUnicode
PUBLIC 16602 4 BasepInitUserTempPath
PUBLIC 1aa2c 0 BasepShimCacheInitTempDirs
PUBLIC 169ea c BasepShimCacheQueryFileInformation
PUBLIC 1691d 8 BasepIsRemovableMedia
PUBLIC 2b335 c BasepShimCacheInit
PUBLIC 16473 10 BasepShimCacheSearch
PUBLIC 1697f c BasepShimCacheUpdateLRUIndex
PUBLIC 2c59b c BasepShimCacheRemoveEntry
PUBLIC 2f70b 1c BasepShimCacheAllocateEntry
PUBLIC 2f695 10 BasepShimCacheUpdate
PUBLIC 1642c 8 BasepBitMapCountBits
PUBLIC 168bb c BasepBitMapSetBit
PUBLIC 16396 4 BasepShimCacheCheckIntegrity
PUBLIC 165e9 0 BasepShimCacheUnlock
PUBLIC 16b75 4 BasepCheckCacheExcludeList
PUBLIC 164cd 0 BaseInitAppcompatCache
PUBLIC 2b553 8 BasepShimCacheRead
PUBLIC 16662 14 BasepShimCacheCheckBypass
PUBLIC 16879 10 BasepShimCacheLookup
PUBLIC 16562 8 BasepShimCacheLock
PUBLIC 167d7 10 BaseCheckAppcompatCache
PUBLIC 15120 c BaseUpdateAppcompatCache
PUBLIC 6bc3f 0 BaseFlushAppcompatCache
PUBLIC 6bcc1 0 BaseDumpAppcompatCache
PUBLIC 2b38d 0 BaseInitAppcompatCacheSupport
PUBLIC 6be06 0 BaseCleanupAppcompatCache
PUBLIC 6be8a 4 BaseCleanupAppcompatCacheSupport
PUBLIC 1204d c StringCopyWorkerW
PUBLIC 6bec2 0 FreeOne(_RESNAME *)
PUBLIC 6bf37 0 FreeData(_UPDATEDATA *)
PUBLIC 6c041 0 AddStringOrID(unsigned short const *,_UPDATEDATA *)
PUBLIC 6c1ad 0 DeleteResourceFromList(_UPDATEDATA *,_RESTYPE *,_RESNAME *,int,int,int)
PUBLIC 6c317 0 InsertResourceIntoLangList(_UPDATEDATA *,MY_STRING *,MY_STRING *,_RESTYPE *,_RESNAME *,int,int,int,void *)
PUBLIC 6c414 0 FilePos(int)
PUBLIC 6c42e 0 MuMoveFilePos(int,unsigned long)
PUBLIC 6c449 0 MuWrite(int,void *,unsigned long)
PUBLIC 6c470 0 MuRead(int,unsigned char *,unsigned long)
PUBLIC 6c497 0 MuCopy(int,int,unsigned long)
PUBLIC 6c536 0 SetResdata(_IMAGE_RESOURCE_DATA_ENTRY *,unsigned long,unsigned long)
PUBLIC 6c55d 0 SetRestab(_IMAGE_RESOURCE_DIRECTORY *,long,unsigned short,unsigned short)
PUBLIC 6c592 0 FindSection(_IMAGE_SECTION_HEADER *,_IMAGE_SECTION_HEADER *,char *)
PUBLIC 6c5e7 0 AssignResourceToSection(_RESNAME * *,unsigned long,unsigned long,long,long *)
PUBLIC 6c62a 0 WriteResSection(_UPDATEDATA *,int,unsigned long,unsigned long,_RESNAME *)
PUBLIC 6c7a6 0 PatchDebug<_IMAGE_NT_HEADERS>(int,int,_IMAGE_SECTION_HEADER *,_IMAGE_SECTION_HEADER *,_IMAGE_SECTION_HEADER *,_IMAGE_SECTION_HEADER *,_IMAGE_NT_HEADERS *,_IMAGE_NT_HEADERS *,unsigned long,unsigned long *)
PUBLIC 6c922 0 PatchDebug<_IMAGE_NT_HEADERS64>(int,int,_IMAGE_SECTION_HEADER *,_IMAGE_SECTION_HEADER *,_IMAGE_SECTION_HEADER *,_IMAGE_SECTION_HEADER *,_IMAGE_NT_HEADERS64 *,_IMAGE_NT_HEADERS64 *,unsigned long,unsigned long *)
PUBLIC 6ca9e 0 PatchRVAs<_IMAGE_NT_HEADERS>(int,int,_IMAGE_SECTION_HEADER *,unsigned long,_IMAGE_NT_HEADERS *,unsigned long)
PUBLIC 6cc38 0 PatchRVAs<_IMAGE_NT_HEADERS64>(int,int,_IMAGE_SECTION_HEADER *,unsigned long,_IMAGE_NT_HEADERS64 *,unsigned long)
PUBLIC 6cdd5 0 PEWriteResource<_IMAGE_NT_HEADERS>(int,int,unsigned long,_UPDATEDATA *,_IMAGE_NT_HEADERS *)
PUBLIC 6df34 0 PEWriteResource<_IMAGE_NT_HEADERS64>(int,int,unsigned long,_UPDATEDATA *,_IMAGE_NT_HEADERS64 *)
PUBLIC 335b7 0 StringCchCopyW(unsigned short *,unsigned int,unsigned short const *)
PUBLIC 6f093 0 AddResource(MY_STRING *,MY_STRING *,unsigned short,_UPDATEDATA *,void *,unsigned long)
PUBLIC 6f3ef 0 PEWriteResFile(int,int,unsigned long,_UPDATEDATA *)
PUBLIC 6f49a 0 WriteResFile(void *,unsigned short *)
PUBLIC 6f5a3 18 UpdateResourceW
PUBLIC 6f6aa 18 UpdateResourceA
PUBLIC 6f774 8 EndUpdateResourceW
PUBLIC 6f949 8 EndUpdateResourceA
PUBLIC 6f959 0 EnumLangsFunc(void *,unsigned short *,unsigned short *,unsigned short,long)
PUBLIC 6fa8d 0 EnumNamesFunc(void *,unsigned short *,unsigned short *,long)
PUBLIC 6fab4 0 EnumTypesFunc(void *,unsigned short *,long)
PUBLIC 6fad8 8 BeginUpdateResourceW
PUBLIC 6fc7b 8 BeginUpdateResourceA
PUBLIC 6fcdc 0 __report_gsfailure
PUBLIC 6fdca 0 __security_init_cookie_ex
PUBLIC 189fc 0 __security_init_cookie
PUBLIC 9702 0 __security_check_cookie
PUBLIC 6fe51 8 GetCurrentExeName
PUBLIC 6febb c GetExeName
PUBLIC 6ff39 18 GetConsoleAliasInternal
PUBLIC 70086 10 GetConsoleAliasW
PUBLIC 700b2 10 GetConsoleAliasA
PUBLIC 700dc 8 GetConsoleAliasesLengthInternal
PUBLIC 701a1 4 GetConsoleAliasesLengthW
PUBLIC 701b9 4 GetConsoleAliasesLengthA
PUBLIC 701d1 4 GetConsoleAliasExesLengthInternal
PUBLIC 70245 0 GetConsoleAliasExesLengthW
PUBLIC 70252 0 GetConsoleAliasExesLengthA
PUBLIC 7025f 10 GetConsoleAliasesInternal
PUBLIC 703c9 c GetConsoleAliasesW
PUBLIC 703e7 c GetConsoleAliasesA
PUBLIC 70405 c GetConsoleAliasExesInternal
PUBLIC 70531 8 GetConsoleAliasExesW
PUBLIC 7054c 8 GetConsoleAliasExesA
PUBLIC 70567 8 ExpungeConsoleCommandHistoryInternal
PUBLIC 7060f 4 ExpungeConsoleCommandHistoryW
PUBLIC 70627 4 ExpungeConsoleCommandHistoryA
PUBLIC 7063f c SetConsoleNumberOfCommandsInternal
PUBLIC 7070a 8 SetConsoleNumberOfCommandsW
PUBLIC 70725 8 SetConsoleNumberOfCommandsA
PUBLIC 70740 8 GetConsoleCommandHistoryLengthInternal
PUBLIC 707ed 4 GetConsoleCommandHistoryLengthW
PUBLIC 70805 4 GetConsoleCommandHistoryLengthA
PUBLIC 7081d 10 GetConsoleCommandHistoryInternal
PUBLIC 70989 c GetConsoleCommandHistoryW
PUBLIC 709a7 c GetConsoleCommandHistoryA
PUBLIC 709c5 4 SetConsoleCommandHistoryMode
PUBLIC 1ba6a c GetConsoleTitleInternal
PUBLIC 70a39 8 GetConsoleTitleA
PUBLIC 1ba3c 8 GetConsoleTitleW
PUBLIC 2da09 c SetConsoleTitleInternal
PUBLIC 70a61 4 SetConsoleTitleA
PUBLIC 2d9bd 4 SetConsoleTitleW
PUBLIC 70ad1 8 GetConsoleInputExeNameW
PUBLIC 1b355 4 SetConsoleInputExeNameW
PUBLIC 70b61 18 AddConsoleAliasInternal
PUBLIC 70c81 c AddConsoleAliasW
PUBLIC 70cbf c AddConsoleAliasA
PUBLIC 70cfc 8 GetConsoleInputExeNameA
PUBLIC 70da8 4 SetConsoleInputExeNameA
PUBLIC 1b10f 10 SetUpAppName
PUBLIC 29ee3 8 ParseReserved
PUBLIC 1aff3 4 GetConsoleLangId
PUBLIC 1afd5 0 SetTEBLangID
PUBLIC 18c64 c ConnectConsoleInternal
PUBLIC 70e05 2c AllocConsoleInternal
PUBLIC 71011 0 FreeConsoleInternal
PUBLIC 7108d 0 FreeConsole
PUBLIC 710e1 4 PropRoutine
PUBLIC 71191 10 AttachConsoleInternal
PUBLIC b6d7 8 ConDllInitialize
PUBLIC 71311 0 AllocConsole
PUBLIC 714f9 4 AttachConsole
PUBLIC 715f9 0 GetConsoleInputWaitHandle
PUBLIC 1ce32 14 WriteConsoleInternal
PUBLIC 1cf25 14 WriteConsoleA
PUBLIC 35484 14 WriteConsoleW
PUBLIC 1dc7e 4 CloseConsoleHandle
PUBLIC 1dd4d 10 DuplicateConsoleHandle
PUBLIC 71604 8 GetConsoleHandleInformation
PUBLIC 716c9 c SetConsoleHandleInformation
PUBLIC 1aeaa 4 VerifyConsoleIoHandle
PUBLIC 1ff5b 10 OpenConsoleWInternal
PUBLIC 10fe1 10 OpenConsoleW
PUBLIC 71749 20 ReadConsoleInternal
PUBLIC 71a1d 14 ReadConsoleA
PUBLIC 71a6c 14 ReadConsoleW
PUBLIC 71ac2 2c RegisterConsoleVDM
PUBLIC 71c19 c GetConsoleHardwareState
PUBLIC 71ce9 c SetConsoleHardwareState
PUBLIC 37c53 4 GetConsoleDisplayMode
PUBLIC 71d69 10 SetConsoleKeyShortcuts
PUBLIC 71e30 4 SetConsoleMenuClose
PUBLIC 71ea4 10 WriteConsoleInputVDMA
PUBLIC 71ec7 10 WriteConsoleInputVDMW
PUBLIC 71eea 8 SetConsoleCursor
PUBLIC 71f64 8 ShowConsoleCursor
PUBLIC 71fbf c ConsoleMenuControl
PUBLIC 72020 c SetConsolePaletteInternal
PUBLIC 720a0 c SetConsoleDisplayMode
PUBLIC 721c9 c SetConsolePalette
PUBLIC 72269 18 WriteConsoleInputInternal
PUBLIC 723c5 10 WriteConsoleInputA
PUBLIC 723e8 10 WriteConsoleInputW
PUBLIC 7240b 18 CopyRectangle
PUBLIC 7254f 18 ReadConsoleOutputInternal
PUBLIC 727e1 14 ReadConsoleOutputW
PUBLIC 72805 14 ReadConsoleOutputA
PUBLIC 72829 18 WriteConsoleOutputInternal
PUBLIC 72b21 14 WriteConsoleOutputW
PUBLIC 72b45 14 WriteConsoleOutputA
PUBLIC 72b69 1c ReadConsoleOutputString
PUBLIC 72cd9 14 ReadConsoleOutputCharacterA
PUBLIC 72cff 14 ReadConsoleOutputCharacterW
PUBLIC 72d25 14 ReadConsoleOutputAttribute
PUBLIC 72d4b 1c WriteConsoleOutputString
PUBLIC 72ea5 14 WriteConsoleOutputCharacterA
PUBLIC 72ecb 14 WriteConsoleOutputCharacterW
PUBLIC 72ef1 14 WriteConsoleOutputAttribute
PUBLIC 72f17 18 FillConsoleOutput
PUBLIC 72ff9 14 FillConsoleOutputCharacterA
PUBLIC 73020 14 FillConsoleOutputCharacterW
PUBLIC 73044 14 FillConsoleOutputAttribute
PUBLIC 73068 14 CreateConsoleScreenBuffer
PUBLIC 73215 8 InvalidateConsoleDIBits
PUBLIC 732e1 18 GetConsoleInput
PUBLIC 7348d 10 PeekConsoleInputA
PUBLIC 734b0 10 PeekConsoleInputW
PUBLIC 734d3 10 ReadConsoleInputA
PUBLIC 734f6 10 ReadConsoleInputW
PUBLIC 73519 14 ReadConsoleInputExA
PUBLIC 7353d 14 ReadConsoleInputExW
PUBLIC 73561 8 GetConsoleCursorInfo
PUBLIC 73629 4 GetConsoleSelectionInfo
PUBLIC 736e1 4 GetNumberOfConsoleMouseButtons
PUBLIC 73799 10 GetConsoleFontInfo
PUBLIC 738c1 8 GetConsoleFontSize
PUBLIC 7394f c GetCurrentConsoleFont
PUBLIC 1b1f0 8 SetConsoleMode
PUBLIC 73a21 8 GenerateConsoleCtrlEvent
PUBLIC 73aa8 4 SetConsoleActiveScreenBuffer
PUBLIC 73b1c 4 FlushConsoleInputBuffer
PUBLIC 73b90 8 SetConsoleScreenBufferSize
PUBLIC 73c0a 8 SetConsoleCursorPosition
PUBLIC 73c84 8 SetConsoleCursorInfo
PUBLIC 73d51 c SetConsoleWindowInfo
PUBLIC 73e21 18 ScrollConsoleScreenBufferInternal
PUBLIC 73f21 14 ScrollConsoleScreenBufferA
PUBLIC 73f45 14 ScrollConsoleScreenBufferW
PUBLIC 73f69 8 SetConsoleTextAttribute
PUBLIC 73fe5 8 SetConsoleFont
PUBLIC 7405f 4 SetConsoleIcon
PUBLIC 740d3 0 GetConsoleCP
PUBLIC 74143 4 SetConsoleCP
PUBLIC 1b18f 0 GetConsoleOutputCP
PUBLIC 741fe 4 SetConsoleOutputCPInternal
PUBLIC 74261 4 SetConsoleOutputCP
PUBLIC 74294 8 GetConsoleKeyboardLayoutNameWorker
PUBLIC 74329 4 GetConsoleKeyboardLayoutNameA
PUBLIC 74341 4 GetConsoleKeyboardLayoutNameW
PUBLIC 74359 0 GetConsoleWindow
PUBLIC 743c5 8 GetConsoleProcessList
PUBLIC 1af14 8 GetConsoleMode
PUBLIC 74501 0 GetNumberOfConsoleFonts
PUBLIC 7456d 8 GetNumberOfConsoleInputEvents
PUBLIC 74631 4 GetLargestConsoleWindowSize
PUBLIC 1bc2b 8 GetConsoleScreenBufferInfo
PUBLIC 746b9 10 SetConsoleLocalEUDC
PUBLIC 7477f c SetConsoleCursorMode
PUBLIC 747ff c GetConsoleCursorMode
PUBLIC 748c9 4 RegisterConsoleOS2
PUBLIC 7493d 4 SetConsoleOS2OemFormat
PUBLIC 749b1 14 RegisterConsoleIMEInternal
PUBLIC 74ab9 8 RegisterConsoleIME
PUBLIC 74b12 4 UnregisterConsoleIMEInternal
PUBLIC 74b86 0 UnregisterConsoleIME
PUBLIC 74b97 c MyRegOpenKey
PUBLIC 74be9 10 MyRegQueryValue
PUBLIC 74c8e 8 GetCommandLineString
PUBLIC 74e13 4 ConsoleIMERoutine
PUBLIC 74f87 8 GetConsoleNlsMode
PUBLIC 750d9 8 SetConsoleNlsMode
PUBLIC 751a3 c GetConsoleCharType
PUBLIC 75271 4 DefaultHandler
PUBLIC 1b5c6 4 SetCtrlHandler
PUBLIC 2000c 4 RemoveCtrlHandler
PUBLIC 1b58b 8 SetConsoleCtrlHandler
PUBLIC 75280 4 CtrlRoutine
PUBLIC 75489 0 SetLastConsoleEventActiveInternal
PUBLIC 754d3 0 SetLastConsoleEventActive
PUBLIC 754e4 8 VDMConsoleOperation
PUBLIC 38211 10 EnumCalendarInfoA
PUBLIC 75749 10 EnumCalendarInfoExA
PUBLIC 7576c c EnumTimeFormatsA
PUBLIC 7578a c EnumDateFormatsA
PUBLIC 757aa c EnumDateFormatsExA
PUBLIC 757ca c EnumSystemLanguageGroupsA
PUBLIC 757e8 10 EnumLanguageGroupLocalesA
PUBLIC 75809 c EnumUILanguagesA
PUBLIC 37ce1 8 EnumSystemLocalesA
PUBLIC 75827 8 EnumSystemCodePagesA
PUBLIC 75842 14 GetGeoInfoA
PUBLIC a459 8 NlsGetACPFromLocale
PUBLIC cf52 18 NlsAnsiToUnicode
PUBLIC d239 14 NlsUnicodeToAnsi
PUBLIC 380ef c NlsEnumUnicodeToAnsi
PUBLIC 38063 24 NlsDispatchAnsiEnumProc
PUBLIC d077 18 CompareStringA
PUBLIC 38de8 18 LCMapStringA
PUBLIC d262 10 GetLocaleInfoA
PUBLIC 758cb c SetLocaleInfoA
PUBLIC 7596b 18 GetCalendarInfoA
PUBLIC 75ad6 10 SetCalendarInfoA
PUBLIC 3632d 18 GetTimeFormatA
PUBLIC 361ee 18 GetDateFormatA
PUBLIC 2ec56 18 GetNumberFormatA
PUBLIC 75b79 18 GetCurrencyFormatA
PUBLIC 38a0c 14 GetStringTypeA
PUBLIC 75eb1 14 FoldStringA
PUBLIC 76047 c GetCPInfoExA
PUBLIC 760cf 14 GetStringTypeExA
PUBLIC a490 10 GetStringTypeW
PUBLIC 760df 3c FindJamoDifference
PUBLIC bfef 14 GetStringTypeExW
PUBLIC af4f 1c LongCompareStringW
PUBLIC 763c9 0 NlsResetProcessLocale
PUBLIC 763ef 8 IsValidLanguageGroup
PUBLIC 1c48b 8 IsValidLocale
PUBLIC 764fb 4 IsValidUILanguage
PUBLIC a415 0 GetThreadLocale
PUBLIC 13038 0 GetSystemDefaultUILanguage
PUBLIC 13070 0 GetUserDefaultUILanguage
PUBLIC 127b2 0 GetSystemDefaultLangID
PUBLIC bf3d 0 GetSystemDefaultLCID
PUBLIC 9f10 0 GetUserDefaultLCID
PUBLIC 7668d c SetCurrentUserRegValue
PUBLIC 76734 1c SetMultipleUserInfoInRegistry
PUBLIC 769f2 1c SetMultipleUserInfo
PUBLIC 39200 c GetTwoDigitYearInfo
PUBLIC 76a53 c SetTwoDigitYearInfo
PUBLIC 76c59 10 GetNativeLanguageName
PUBLIC 383cf 4 ConvertDefaultLocale
PUBLIC 1bbba 4 SetThreadLocale
PUBLIC bf64 0 GetUserDefaultLangID
PUBLIC 2f041 c VerLanguageNameW
PUBLIC 2efb9 c VerLanguageNameA
PUBLIC 11562 10 GetLocaleInfoW
PUBLIC 39020 18 GetCalendarInfoW
PUBLIC 76d1b 10 SetCalendarInfoW
PUBLIC 76e34 c SetUserInfo
PUBLIC 1b258 4 SetThreadUILanguage
PUBLIC 76e73 c SetLocaleInfoW
PUBLIC 77cf7 10 CreateRegKey
PUBLIC 1bcfe 10 OpenRegKey
PUBLIC 15047 14 QueryRegValue
PUBLIC 77df0 10 SetRegValue
PUBLIC 1734f 10 MapSection
PUBLIC 77e24 4 UnMapSection
PUBLIC 17f7d 18 GetNlsSectionName
PUBLIC 77e43 c GetCodePageDLLPathName
PUBLIC 2ae21 8 GetNTFileName
PUBLIC 2ac6c c CreateNlsSecurityDescriptor
PUBLIC 2b95b 8 AppendAccessAllowedACE
PUBLIC 2b883 0 CreateNlsObjectDirectory
PUBLIC 172de 14 OpenSection
PUBLIC 2ad98 8 OpenDataFile
PUBLIC 77f87 8 CreateSectionTemp
PUBLIC 77fec 10 Internal_EnumSystemLanguageGroups
PUBLIC 782c6 14 Internal_EnumLanguageGroupLocales
PUBLIC 2a8fa 10 Internal_EnumUILanguages
PUBLIC 37cfc c Internal_EnumSystemLocales
PUBLIC 7849b c Internal_EnumSystemCodePages
PUBLIC 38234 18 Internal_EnumCalendarInfo
PUBLIC 38958 38 EnumDateTime
PUBLIC 786e5 c EnumSystemLanguageGroupsW
PUBLIC 78703 10 EnumLanguageGroupLocalesW
PUBLIC 2a8dc c EnumUILanguagesW
PUBLIC 78724 8 EnumSystemLocalesW
PUBLIC 7873f 8 EnumSystemCodePagesW
PUBLIC 7875a 10 EnumCalendarInfoW
PUBLIC 7877d 10 EnumCalendarInfoExW
PUBLIC 388dc 10 Internal_EnumTimeFormats
PUBLIC 38801 14 Internal_EnumDateFormats
PUBLIC 388be c EnumTimeFormatsW
PUBLIC 387e1 c EnumDateFormatsW
PUBLIC 787a0 c EnumDateFormatsExW
PUBLIC 787c0 8 GetGeoLCID
PUBLIC 78847 14 GetGeoInfoW
PUBLIC 78bd9 c EnumSystemGeoID
PUBLIC 3798e 4 GetUserGeoID
PUBLIC 78c5c 4 SetUserGeoID
PUBLIC 78db1 10 FoldCZone
PUBLIC 78e32 10 FoldDigits
PUBLIC 78eb3 10 FoldCZone_Digits
PUBLIC 78f7b 10 FoldLigatures
PUBLIC 790a7 10 FoldPreComposed
PUBLIC 791d2 10 FoldComposite
PUBLIC ce53 18 MapCase
PUBLIC 2d4ad 1c MapSortKey
PUBLIC 79269 18 MapNormalization
PUBLIC 374eb 18 MapHalfKana
PUBLIC 37787 18 MapFullKana
PUBLIC 794fb 1c MapTraditionalSimplified
PUBLIC 79636 14 FoldStringW
PUBLIC 37693 18 MapKanaWidth
PUBLIC cca8 18 LCMapStringW
PUBLIC 110cb 4 IsValidCodePage
PUBLIC 9915 0 GetACP
PUBLIC 797c3 4 SetCPGlobal
PUBLIC 127a7 0 GetOEMCP
PUBLIC b7dc 4 IsDBCSLeadByte
PUBLIC 2f540 10 GetWCCompSB
PUBLIC 797df 1c GetWCCompMB
PUBLIC 79866 14 GetWCCompSBErr
PUBLIC 798c1 1c GetWCCompMBErr
PUBLIC a1fb 18 GetMBNoDefault
PUBLIC bd19 20 GetMBDefault
PUBLIC 32cf3 1c GetMBCompSB
PUBLIC 7998a 24 GetMBCompMB
PUBLIC 7a064 0 GetMacCodePage
PUBLIC cfd4 18 SpecialMBToWC
PUBLIC 12e76 8 GetCPInfo
PUBLIC 7a1cd c GetCPInfoExW
PUBLIC 7a4ce 8 IsDBCSLeadByteEx
PUBLIC 9bf8 18 MultiByteToWideChar
PUBLIC 32c7b 20 GetMBDefaultComp
PUBLIC a0d4 20 WideCharToMultiByte
PUBLIC 7a6b5 0 GetXPSP2ResModuleHandle
PUBLIC 7a6e2 0 GetXPSP3ResModuleHandle
PUBLIC 35819 0 NlsGetCacheUpdateCount
PUBLIC 34474 c IsValidSeparatorString
PUBLIC 7a712 c IsValidGroupingString
PUBLIC 336f6 8 IsValidCalendarType
PUBLIC 33735 8 IsValidCalendarTypeStr
PUBLIC 7a773 0 GetPreComposedChar
PUBLIC 2f440 4 GetCompositeChars
PUBLIC 7a7f3 4 InsertPreComposedForm
PUBLIC 37834 8 InsertFullWidthPreComposedForm
PUBLIC 2f40d 0 InsertCompositeForm
PUBLIC 7a850 8 NlsConvertIntegerToHexStringW
PUBLIC 124d1 8 NlsConvertStringToIntegerW
PUBLIC 121de 0 NlsStrCpyW
PUBLIC 1bdd2 0 NlsStrCatW
PUBLIC a2d4 0 NlsStrLenW
PUBLIC 7a8b2 0 NlsStrEqualW
PUBLIC 7a962 4 NlsStrNEqualW
PUBLIC 7aa41 4 GetDefaultSortkeySize
PUBLIC 7aa6b 4 GetLinguistLangSize
PUBLIC 7aa95 10 ValidateLCType
PUBLIC 2ee51 14 GetStringTableEntry
PUBLIC 7ad9c 0 NlsIsDll
PUBLIC 2c16a 0 UpdateUserInfoCache
PUBLIC 12544 c NlsStringIsInRange
PUBLIC 2a5c3 10 GetUserInfoFromRegistry
PUBLIC 12090 1c GetUserInfo
PUBLIC 14f5c 14 NlsConvertIntegerToString
PUBLIC 397f8 4 ValidateLocale
PUBLIC 384db c GetCPFileNameFromRegistry
PUBLIC 3440e 4 IsValidNumberFormat
PUBLIC 7adfe 4 IsValidCurrencyFormat
PUBLIC 7ae7f 20 GetRegIntValue
PUBLIC 7af62 8 ConvertGroupingStringToInt
PUBLIC 7afd9 1c GetGroupingValue
PUBLIC 3472b 20 GetNumberString
PUBLIC 3465d 20 ParseNumber
PUBLIC 7b04e 20 ParseCurrency
PUBLIC 344bc 18 GetNumberFormatW
PUBLIC 7b6ca 18 GetCurrencyFormatW
PUBLIC 3414d 4 IsValidTime
PUBLIC 339dc 4 IsValidDate
PUBLIC 7bad3 18 GetCalendarYear
PUBLIC 7bb6e c GetAbsoluteDate
PUBLIC 7bc59 4 GetAdvanceHijriDate
PUBLIC 7be1b 4 DaysUpToHijriYear
PUBLIC 7be83 c IsValidDateForHebrew
PUBLIC 335d4 18 StringCchCopyExW
PUBLIC 33ec8 14 ParseTime
PUBLIC 7bf4d 8 GetHijriDate
PUBLIC 7c04f 8 GetHebrewDate
PUBLIC 7c86f c NumberToHebrewLetter
PUBLIC 33fd3 18 GetTimeFormatW
PUBLIC 33a4a 20 ParseDate
PUBLIC 33775 18 GetDateFormatW
PUBLIC c0ed 0 NlsThreadCleanup
PUBLIC 17fc1 0 InitKoreanWeights
PUBLIC 1805b c NlsDllInitialize
PUBLIC 38617 4 IsCPHashNodeLoaded
PUBLIC 7caa9 0 GetGeoFileInfo
PUBLIC a557 0 GetCTypeFileInfo
PUBLIC 7cb54 8 LoadCodePageAsDLL
PUBLIC 188fc 14 MakeCPHashNode
PUBLIC 16ea9 10 MakeLocHashNode
PUBLIC 336b6 8 GetCalendar
PUBLIC 7cc2b 4 IsValidSortId
PUBLIC 7cd42 0 GetLanguageExceptionInfo
PUBLIC 7cdc6 4 FindLanguageExceptionPointers
PUBLIC 7ce1e 4 CopyLanguageExceptionInfo
PUBLIC 184dc c FindExceptionPointers
PUBLIC 7ceb0 8 CopyExceptionInfo
PUBLIC 7cf53 4 WaitOnEvent
PUBLIC 183fe 8 GetSortkeyFileInfo
PUBLIC 3996f 8 GetCodePageFileInfo
PUBLIC 1831e 10 MakeLangHashNode
PUBLIC d1ae 0 GetCPHashNode
PUBLIC 150c2 0 GetLocHashNode
PUBLIC 7cf85 8 CreateAndCopyLanguageExceptions
PUBLIC 7d1b9 4 GetLinguisticLanguageInfo
PUBLIC 18297 10 GetLanguageFileInfo
PUBLIC 7d246 0 GetLangHashNode
PUBLIC 7d340 c UpdateJamoState
PUBLIC 7d3aa 14 GetJamoComposition
PUBLIC 7d4ae 18 MapOldHangulSortKey
PUBLIC 17210 0 NlsIsInteractiveUserProcess
PUBLIC 7d5b4 0 NlsCheckForInteractiveUser
PUBLIC 2a25d 4 NlsGetCacheBuffer
PUBLIC 2a41a 0 NlsInvalidateCache
PUBLIC 7d659 4 NlsFlushProcessCache
PUBLIC 2a855 10 NlsQueryCurrentUserInfo
PUBLIC 11fff 18 NlsGetCurrentUserNlsInfo
PUBLIC 2a532 4 NlsGetUserLocale
PUBLIC 7d6b7 c CsrBasepNlsSetUserInfo
PUBLIC 16ff1 8 CsrBasepNlsGetUserInfo
PUBLIC 7d765 1c CsrBasepNlsSetMultipleUserInfo
PUBLIC 7d9c9 0 CsrBasepNlsUpdateCacheCount
PUBLIC 7da0e c UTFCPInfo
PUBLIC 7da7f 10 UTF7ToUnicode
PUBLIC 31054 14 UTF8ToUnicode
PUBLIC 7dc45 10 UnicodeToUTF7
PUBLIC 21523 10 UnicodeToUTF8
PUBLIC 30f99 18 UTFToUnicode
PUBLIC 215f5 20 UnicodeToUTF
PUBLIC 2ad39 c CsrBasepNlsCreateSection
PUBLIC 7dead 8 DelayLoadFailureHook
PUBLIC 7debd 4 FindDll
PUBLIC 7dfad 8 LookupHandlerByName
PUBLIC 7e036 8 LookupHandlerByOrdinal
PUBLIC 7e07f 8 LookupHandler
PUBLIC 7e0cb 14 GetSSIDForAdapter
PUBLIC 7e0ef 18 GetSignalStrengthForAdapter
PUBLIC ddf5 0 GetCurrentProcess
PUBLIC 7e27b 4 ntohs
PUBLIC 7e299 c WSAEnumProtocolsW
PUBLIC 7e2bd 24 WSAIoctl
PUBLIC 7e313 4 GetActivePwrScheme
PUBLIC 7e34b 28 WinStationSendMessageW
PUBLIC 7e362 8 ReadPwrScheme
PUBLIC 7e39e 18 SdbQueryData
PUBLIC 14ae7 4 FreeEnvironmentStringsW
PUBLIC 7e3a9 c mixerGetID
PUBLIC 7e536 18 SetupDiGetDeviceInterfaceDetailA
PUBLIC cc97 4 LockResource
PUBLIC 7e848 8 DnsRecordCompare
PUBLIC 7e878 10 DnsRecordSetCompare
PUBLIC 260c2 4 DnsApiAlloc
PUBLIC 7e8b2 c DnsRecordSetCopyEx
PUBLIC 7e98d 4 DnsApiFree
PUBLIC 7e9e7 0 LZStart
PUBLIC 7ea57 c SfpInstallCatalog
PUBLIC 7ea62 8 SfpDeleteCatalog
PUBLIC 7eb14 10 pSetupConcatenatePaths
PUBLIC 7eb60 c SetActivePwrScheme
PUBLIC 7ec59 0 IsPwrShutdownAllowed
PUBLIC 7ece6 10 UrlMkSetSessionOption
PUBLIC 7f052 0 ldap_search_init_pageW
PUBLIC 7f078 8 DnsFreeConfigStructure
PUBLIC 7f0c5 c DnsSetConfigDword
PUBLIC 7f1f1 10 WZCProviderDeleteWirelessProfile
PUBLIC 7f1fe 0 LZDone
PUBLIC 7f215 8 SetConsoleMaximumWindowSize
PUBLIC 7f23b 1c MprAdminConnectionEnum
PUBLIC 7f251 8 NPCancelConnectionForCSCAgent
PUBLIC 7f6a5 5c LocalEnrollNoDS
PUBLIC 328ec 0 memmove
PUBLIC 2cf55 c RtlDnsHostNameToComputerName
PUBLIC 11fc7 0 wcsncpy
PUBLIC 7f853 0 wcschr
PUBLIC 29f14 0 wcsstr
PUBLIC a0c9 0 _allmul
PUBLIC 7f85e 0 DbgBreakPoint
PUBLIC 7f869 0 DbgPrint
PUBLIC 24c6 0 _SEH_prolog
PUBLIC 2501 0 _SEH_epilog
PUBLIC 39aa8 0 _except_handler3
PUBLIC 39b8e 4 _seh_longjmp_unwind
PUBLIC 7f874 4 DbgUiDebugActiveProcess
PUBLIC 7f87f 0 DbgUiConnectToDbg
PUBLIC 7f88a 4 DbgUiIssueRemoteBreakin
PUBLIC 7f895 14 NtSetInformationDebugObject
PUBLIC 7f8a0 0 DbgUiGetThreadDebugObject
PUBLIC 7f8ab 8 DbgUiConvertStateChangeStructure
PUBLIC 7f8b6 8 DbgUiWaitStateChange
PUBLIC 7f8c1 8 DbgUiContinue
PUBLIC 7f8cc 4 DbgUiStopDebugging
PUBLIC 7f8d7 0 strncpy
PUBLIC 7f8e2 8 RtlFlushSecureMemoryCache
PUBLIC de84 0 _global_unwind2
PUBLIC dedf 0 _local_unwind2
PUBLIC df3f 0 _NLG_Return2
PUBLIC df4f 0 _abnormal_termination
PUBLIC df72 0 _NLG_Notify1
PUBLIC df7b 0 _NLG_Notify
PUBLIC df91 0 _NLG_Dispatch2
PUBLIC 7f8ed 18 NtQueryVirtualMemory
PUBLIC 18045 4 LdrSetDllManifestProber
PUBLIC 18050 8 RtlSetThreadPoolStartFunc
PUBLIC 1017b 4 RtlEncodePointer
PUBLIC 39493 10 RtlSetHeapInformation
PUBLIC 7f8f8 14 RtlQueryHeapInformation
PUBLIC abd3 4 LdrUnloadDll
PUBLIC 14e44 4 LdrUnloadAlternateResourceModule
PUBLIC 112bb 4 LdrDisableThreadCalloutsForDll
PUBLIC e46c 10 LdrGetDllHandle
PUBLIC b4c4 8 LdrUnlockLoaderLock
PUBLIC 2129a 8 LdrAddRefDll
PUBLIC b3ca c LdrLockLoaderLock
PUBLIC 17779 c LdrEnumerateLoadedModules
PUBLIC 14e0f 8 LdrLoadAlternateResourceModule
PUBLIC e069 10 LdrLoadDll
PUBLIC ad95 10 LdrGetProcedureAddress
PUBLIC 9f9f 10 LdrFindResource_U
PUBLIC 9faa 10 LdrAccessResource
PUBLIC 1126d 10 LdrFindResourceDirectory_U
PUBLIC 1cdf8 0 LdrShutdownProcess
PUBLIC 7f903 8 NtTerminateProcess
PUBLIC 1a204 18 LdrQueryImageFileExecutionOptions
PUBLIC 7f90e 0 wcsncmp
PUBLIC c0d1 0 LdrShutdownThread
PUBLIC 10186 4 RtlDecodePointer
PUBLIC 2c053 c RtlSetIoCompletionCallback
PUBLIC 7f919 28 RtlApplicationVerifierStop
PUBLIC 7f924 0 _alloca_probe
PUBLIC 19a62 0 DbgPrintEx
PUBLIC 15451 4 LdrDestroyOutOfProcessImage
PUBLIC 162a8 14 LdrAccessOutOfProcessResource
PUBLIC 15446 14 LdrFindCreateProcessManifest
PUBLIC 15345 10 LdrCreateOutOfProcessImage
PUBLIC 16912 0 _allshl
PUBLIC 7f92f 4 RtlUnhandledExceptionFilter
PUBLIC 7f93a 0 wcspbrk
PUBLIC 7f945 0 _wcslwr
PUBLIC 37a6c 0 _wtol
PUBLIC 7f950 0 _strlwr
PUBLIC 7f95b 0 _ValidateEH3RN
PUBLIC 7fb82 10 RtlUnwind
PUBLIC 7fb8d c InitGlobalBuffers
PUBLIC 7fc40 0 InitGlobalBuffersEx
PUBLIC 7fc57 4 FreeGlobalBuffers
PUBLIC 7fca5 c lz_CopyFile
PUBLIC 7fd63 c ExpandOrCopyFile
PUBLIC 7fe21 4 ExtractFileNameW
PUBLIC 7fe56 4 ExtractFileName
PUBLIC 7fea2 4 ExtractExtensionW
PUBLIC 7fed7 4 ExtractExtension
PUBLIC 7ff1d 4 MakeCompressedNameW
PUBLIC 7ff89 4 MakeCompressedName
PUBLIC 7fff3 8 MakeExpandedName
PUBLIC 800fc 8 CopyDateTimeStamp
PUBLIC 80146 c GetHdr
PUBLIC 801f9 4 IsCompressed
PUBLIC 80246 18 LZDecode
PUBLIC 804ad c ReadInBuf
PUBLIC 80527 c WriteOutBuf
PUBLIC 80579 4 LZIsCharLowerA
PUBLIC 805dc 4 LZIsCharUpperA
PUBLIC 8063f 4 LZCharNextA
STACK WIN 4 b5ae 16 5 0 c 0 0 0 1 $T0 $ebp = $eip $T0 4 + ^ = $ebp $T0 ^ = $esp $T0 8 + = $L $T0 .cbSavedRegs - = $P $T0 4 + .cbParams + =
STACK WIN 4 9b47 66 5 0 4 0 0 0 1 $T0 $ebp = $eip $T0 4 + ^ = $ebp $T0 ^ = $esp $T0 8 + = $L $T0 .cbSavedRegs - = $P $T0 4 + .cbParams + =
STACK WIN 4 17826 35 0 0 0 0 0 0 1 $T2 $esp .cbLocals + .cbSavedRegs + = $T0 .raSearchStart = $eip $T0 ^ = $esp $T0 4 + =
STACK WIN 4 55709 1f7 c 0 10 8 4c 0 1 $T0 $ebp = $eip $T0 4 + ^ = $ebp $T0 ^ = $esp $T0 8 + = $L $T0 .cbSavedRegs - = $P $T0 4 + .cbParams + =
STACK WIN 4 558b4 e 0 0 10 8 4c 0 1 $T0 $ebp = $T2 $esp = $T1 .raSearchStart = $eip $T1 ^ = $ebp $ebp = $esp $T1 4 + = $L $T0 .cbSavedRegs - = $P $T0 4 + .cbParams + =
STACK WIN 4 be41 c7 c 0 4 8 3c 0 1 $T0 $ebp = $eip $T0 4 + ^ = $ebp $T0 ^ = $esp $T0 8 + = $L $T0 .cbSavedRegs - = $P $T0 4 + .cbParams + =
STACK WIN 4 39bc8 e 0 0 4 8 3c 0 1 $T0 $ebp = $T2 $esp = $T1 .raSearchStart = $eip $T1 ^ = $ebp $ebp = $esp $T1 4 + = $L $T0 .cbSavedRegs - = $P $T0 4 + .cbParams + =
STACK WIN 4 98f4 2b 5 0 8 0 0 0 1 $T0 $ebp = $eip $T0 4 + ^ = $ebp $T0 ^ = $esp $T0 8 + = $L $T0 .cbSavedRegs - = $P $T0 4 + .cbParams + =
STACK WIN 4 936b 1e 6 0 4 0 0 0 1 $T0 $ebp = $eip $T0 4 + ^ = $ebp $T0 ^ = $esp $T0 8 + = $L $T0 .cbSavedRegs - = $P $T0 4 + .cbParams + =
STACK WIN 4 9371 14 0 0 4 4 0 0 1 $T0 $ebp = $eip $T0 4 + ^ = $ebp $T0 ^ = $esp $T0 8 + = $L $T0 .cbSavedRegs - = $P $T0 4 + .cbParams + =
STACK WIN 4 92b0 32 7 0 4 0 0 0 1 $T0 $ebp = $eip $T0 4 + ^ = $ebp $T0 ^ = $esp $T0 8 + = $L $T0 .cbSavedRegs - = $P $T0 4 + .cbParams + =
STACK WIN 4 92b6 28 1 0 4 4 0 0 1 $T0 $ebp = $eip $T0 4 + ^ = $ebp $T0 ^ = $esp $T0 8 + = $L $T0 .cbSavedRegs - = $P $T0 4 + .cbParams + =
STACK WIN 4 92b7 26 0 0 4 8 0 0 1 $T0 $ebp = $eip $T0 4 + ^ = $ebp $T0 ^ = $esp $T0 8 + = $L $T0 .cbSavedRegs - = $P $T0 4 + .cbParams + =
STACK WIN 4 30769 a 0 0 0 0 0 0 1 $T2 $esp .cbLocals + .cbSavedRegs + = $T0 .raSearchStart = $eip $T0 ^ = $esp $T0 4 + =
STACK WIN 4 b722 20 0 0 0 0 0 0 1 $T2 $esp .cbLocals + .cbSavedRegs + = $T0 .raSearchStart = $eip $T0 ^ = $esp $T0 4 + =
STACK WIN 4 29d7a 164 a 0 18 0 44 0 1 $T0 $ebp = $eip $T0 4 + ^ = $ebp $T0 ^ = $esp $T0 8 + = $L $T0 .cbSavedRegs - = $P $T0 4 + .cbParams + =
STACK WIN 4 29d83 157 1 0 18 4 44 0 1 $T0 $ebp = $eip $T0 4 + ^ = $ebp $T0 ^ = $esp $T0 8 + = $L $T0 .cbSavedRegs - = $P $T0 4 + .cbParams + = $ebx $T0 76 - ^ =
STACK WIN 4 29d84 155 0 0 18 8 44 0 1 $T0 $ebp = $eip $T0 4 + ^ = $ebp $T0 ^ = $esp $T0 8 + = $L $T0 .cbSavedRegs - = $P $T0 4 + .cbParams + = $ebx $T0 76 - ^ =
STACK WIN 4 29dc5 8e 0 0 18 c 44 0 1 $T0 $ebp = $eip $T0 4 + ^ = $ebp $T0 ^ = $esp $T0 8 + = $L $T0 .cbSavedRegs - = $P $T0 4 + .cbParams + = $ebx $T0 76 - ^ =
STACK WIN 4 1b069 a1 0 0 0 0 0 0 1 $T2 $esp .cbLocals + .cbSavedRegs + = $T0 .raSearchStart = $eip $T0 ^ = $esp $T0 4 + =
STACK WIN 4 1b078 90 0 0 0 4 0 0 1 $T2 $esp .cbLocals + .cbSavedRegs + = $T0 .raSearchStart = $eip $T0 ^ = $esp $T0 4 + =
STACK WIN 4 1b079 82 0 0 0 8 0 0 1 $T2 $esp .cbLocals + .cbSavedRegs + = $T0 .raSearchStart = $eip $T0 ^ = $esp $T0 4 + =
STACK WIN 4 17860 24 0 0 0 0 0 0 1 $T2 $esp .cbLocals + .cbSavedRegs + = $T0 .raSearchStart = $eip $T0 ^ = $esp $T0 4 + =
STACK WIN 4 29f30 6f 6 0 4 0 0 0 1 $T0 $ebp = $eip $T0 4 + ^ = $ebp $T0 ^ = $esp $T0 8 + = $L $T0 .cbSavedRegs - = $P $T0 4 + .cbParams + =
STACK WIN 4 29f36 65 0 0 4 4 0 0 1 $T0 $ebp = $eip $T0 4 + ^ = $ebp $T0 ^ = $esp $T0 8 + = $L $T0 .cbSavedRegs - = $P $T0 4 + .cbParams + =
STACK WIN 4 1dc03 54 5 0 8 0 0 0 1 $T0 $ebp = $eip $T0 4 + ^ = $ebp $T0 ^ = $esp $T0 8 + = $L $T0 .cbSavedRegs - = $P $T0 4 + .cbParams + =
STACK WIN 4 12f39 52 6 0 4 0 0 0 1 $T0 $ebp = $eip $T0 4 + ^ = $ebp $T0 ^ = $esp $T0 8 + = $L $T0 .cbSavedRegs - = $P $T0 4 + .cbParams + =
STACK WIN 4 12f3f 48 0 0 4 4 0 0 1 $T0 $ebp = $eip $T0 4 + ^ = $ebp $T0 ^ = $esp $T0 8 + = $L $T0 .cbSavedRegs - = $P $T0 4 + .cbParams + =
STACK WIN 4 17889 5c 1d 0 4 0 0 0 1 $T0 $ebp = $eip $T0 4 + ^ = $ebp $T0 ^ = $esp $T0 8 + = $L $T0 .cbSavedRegs - = $P $T0 4 + .cbParams + =
STACK WIN 4 1789f 42 7 0 4 4 0 0 1 $T0 $ebp = $eip $T0 4 + ^ = $ebp $T0 ^ = $esp $T0 8 + = $L $T0 .cbSavedRegs - = $P $T0 4 + .cbParams + =
STACK WIN 4 178a6 38 0 0 4 8 0 0 1 $T0 $ebp = $eip $T0 4 + ^ = $ebp $T0 ^ = $esp $T0 8 + = $L $T0 .cbSavedRegs - = $P $T0 4 + .cbParams + =
STACK WIN 4 17923 98 7 0 0 0 4 0 1 $T0 $ebp = $eip $T0 4 + ^ = $ebp $T0 ^ = $esp $T0 8 + = $L $T0 .cbSavedRegs - = $P $T0 4 + .cbParams + =
STACK WIN 4 1792a 8f 0 0 0 4 4 0 1 $T0 $ebp = $eip $T0 4 + ^ = $ebp $T0 ^ = $esp $T0 8 + = $L $T0 .cbSavedRegs - = $P $T0 4 + .cbParams + =
STACK WIN 4 180a6 23c 9 0 0 0 c 0 1 $T0 $ebp = $eip $T0 4 + ^ = $ebp $T0 ^ = $esp $T0 8 + = $L $T0 .cbSavedRegs - = $P $T0 4 + .cbParams + =
STACK WIN 4 180af 231 0 0 0 4 c 0 1 $T0 $ebp = $eip $T0 4 + ^ = $ebp $T0 ^ = $esp $T0 8 + = $L $T0 .cbSavedRegs - = $P $T0 4 + .cbParams + =
STACK WIN 4 180c5 21a 0 0 0 8 c 0 1 $T0 $ebp = $eip $T0 4 + ^ = $ebp $T0 ^ = $esp $T0 8 + = $L $T0 .cbSavedRegs - = $P $T0 4 + .cbParams + =
STACK WIN 4 1795e 89 3 0 0 0 0 0 1 $T2 $esp .cbLocals + .cbSavedRegs + = $T0 .raSearchStart = $eip $T0 ^ = $esp $T0 4 + =
STACK WIN 4 17961 85 0 0 0 4 0 0 1 $T2 $esp .cbLocals + .cbSavedRegs + = $T0 .raSearchStart = $eip $T0 ^ = $esp $T0 4 + =
STACK WIN 4 1798a 5a 0 0 0 8 0 0 1 $T2 $esp .cbLocals + .cbSavedRegs + = $T0 .raSearchStart = $eip $T0 ^ = $esp $T0 4 + =
STACK WIN 4 179ea 212 8 0 0 0 2c 0 1 $T0 $ebp = $eip $T0 4 + ^ = $ebp $T0 ^ = $esp $T0 8 + = $L $T0 .cbSavedRegs - = $P $T0 4 + .cbParams + =
STACK WIN 4 17a3c 1bd 0 0 0 4 2c 0 1 $T0 $ebp = $eip $T0 4 + ^ = $ebp $T0 ^ = $esp $T0 8 + = $L $T0 .cbSavedRegs - = $P $T0 4 + .cbParams + =
STACK WIN 4 17a49 1af 0 0 0 8 2c 0 1 $T0 $ebp = $eip $T0 4 + ^ = $ebp $T0 ^ = $esp $T0 8 + = $L $T0 .cbSavedRegs - = $P $T0 4 + .cbParams + =
STACK WIN 4 16e70 85 8 0 c 0 10 0 1 $T0 $ebp = $eip $T0 4 + ^ = $ebp $T0 ^ = $esp $T0 8 + = $L $T0 .cbSavedRegs - = $P $T0 4 + .cbParams + =
STACK WIN 4 18a21 a1 e 0 0 0 20 0 1 $T0 $ebp = $eip $T0 4 + ^ = $ebp $T0 ^ = $esp $T0 8 + = $L $T0 .cbSavedRegs - = $P $T0 4 + .cbParams + =
STACK WIN 4 18a2f 91 0 0 0 4 20 0 1 $T0 $ebp = $eip $T0 4 + ^ = $ebp $T0 ^ = $esp $T0 8 + = $L $T0 .cbSavedRegs - = $P $T0 4 + .cbParams + =
STACK WIN 4 18a68 57 0 0 0 8 20 0 1 $T0 $ebp = $eip $T0 4 + ^ = $ebp $T0 ^ = $esp $T0 8 + = $L $T0 .cbSavedRegs - = $P $T0 4 + .cbParams + =
STACK WIN 4 17cb5 257 8 0 0 0 10 0 1 $T0 $ebp = $eip $T0 4 + ^ = $ebp $T0 ^ = $esp $T0 8 + = $L $T0 .cbSavedRegs - = $P $T0 4 + .cbParams + =
STACK WIN 4 17e09 89 0 0 0 4 10 0 1 $T0 $ebp = $eip $T0 4 + ^ = $ebp $T0 ^ = $esp $T0 8 + = $L $T0 .cbSavedRegs - = $P $T0 4 + .cbParams + =
STACK WIN 4 1839b d3 1b 0 8 0 0 0 1 $T0 $ebp = $eip $T0 4 + ^ = $ebp $T0 ^ = $esp $T0 8 + = $L $T0 .cbSavedRegs - = $P $T0 4 + .cbParams + =
STACK WIN 4 183b2 b8 4 0 8 4 0 0 1 $T0 $ebp = $eip $T0 4 + ^ = $ebp $T0 ^ = $esp $T0 8 + = $L $T0 .cbSavedRegs - = $P $T0 4 + .cbParams + = $ebx $T0 8 - ^ =
STACK WIN 4 183b6 b3 0 0 8 8 0 0 1 $T0 $ebp = $eip $T0 4 + ^ = $ebp $T0 ^ = $esp $T0 8 + = $L $T0 .cbSavedRegs - = $P $T0 4 + .cbParams + = $ebx $T0 8 - ^ =
STACK WIN 4 998d 16b c 0 8 8 2c 0 1 $T0 $ebp = $eip $T0 4 + ^ = $ebp $T0 ^ = $esp $T0 8 + = $L $T0 .cbSavedRegs - = $P $T0 4 + .cbParams + =
STACK WIN 4 39e42 e 0 0 8 8 2c 0 1 $T0 $ebp = $T2 $esp = $T1 .raSearchStart = $eip $T1 ^ = $ebp $ebp = $esp $T1 4 + = $L $T0 .cbSavedRegs - = $P $T0 4 + .cbParams + =
STACK WIN 4 992f 10b c 0 4 8 28 0 1 $T0 $ebp = $eip $T0 4 + ^ = $ebp $T0 ^ = $esp $T0 8 + = $L $T0 .cbSavedRegs - = $P $T0 4 + .cbParams + =
STACK WIN 4 39ea2 e 0 0 4 8 28 0 1 $T0 $ebp = $T2 $esp = $T1 .raSearchStart = $eip $T1 ^ = $ebp $ebp = $esp $T1 4 + = $L $T0 .cbSavedRegs - = $P $T0 4 + .cbParams + =
STACK WIN 4 39eca e 0 0 4 8 28 0 1 $T0 $ebp = $T2 $esp = $T1 .raSearchStart = $eip $T1 ^ = $ebp $ebp = $esp $T1 4 + = $L $T0 .cbSavedRegs - = $P $T0 4 + .cbParams + =
STACK WIN 4 1625 129 c 0 20 8 24 0 1 $T0 $ebp = $eip $T0 4 + ^ = $ebp $T0 ^ = $esp $T0 8 + = $L $T0 .cbSavedRegs - = $P $T0 4 + .cbParams + =
STACK WIN 4 1717 4 0 0 20 8 24 0 1 $T0 $ebp = $T2 $esp = $T1 .raSearchStart = $eip $T1 ^ = $ebp $ebp = $esp $T1 4 + = $L $T0 .cbSavedRegs - = $P $T0 4 + .cbParams + =
STACK WIN 4 32eb1 ba c 0 4 8 24 0 1 $T0 $ebp = $eip $T0 4 + ^ = $ebp $T0 ^ = $esp $T0 8 + = $L $T0 .cbSavedRegs - = $P $T0 4 + .cbParams + =
STACK WIN 4 39f0b e 0 0 4 8 24 0 1 $T0 $ebp = $T2 $esp = $T1 .raSearchStart = $eip $T1 ^ = $ebp $ebp = $esp $T1 4 + = $L $T0 .cbSavedRegs - = $P $T0 4 + .cbParams + =
STACK WIN 4 32e1d bb c 0 4 8 24 0 1 $T0 $ebp = $eip $T0 4 + ^ = $ebp $T0 ^ = $esp $T0 8 + = $L $T0 .cbSavedRegs - = $P $T0 4 + .cbParams + =
STACK WIN 4 39f69 e 0 0 4 8 24 0 1 $T0 $ebp = $T2 $esp = $T1 .raSearchStart = $eip $T1 ^ = $ebp $ebp = $esp $T1 4 + = $L $T0 .cbSavedRegs - = $P $T0 4 + .cbParams + =
STACK WIN 4 a03b 23 5 0 4 0 0 0 1 $T0 $ebp = $eip $T0 4 + ^ = $ebp $T0 ^ = $esp $T0 8 + = $L $T0 .cbSavedRegs - = $P $T0 4 + .cbParams + =
STACK WIN 4 a017 25 5 0 4 0 0 0 1 $T0 $ebp = $eip $T0 4 + ^ = $ebp $T0 ^ = $esp $T0 8 + = $L $T0 .cbSavedRegs - = $P $T0 4 + .cbParams + =
STACK WIN 4 55921 e8 8 0 4 0 24 0 1 $T0 $ebp = $eip $T0 4 + ^ = $ebp $T0 ^ = $esp $T0 8 + = $L $T0 .cbSavedRegs - = $P $T0 4 + .cbParams + =
STACK WIN 4 5595c a5 0 0 4 4 24 0 1 $T0 $ebp = $eip $T0 4 + ^ = $ebp $T0 ^ = $esp $T0 8 + = $L $T0 .cbSavedRegs - = $P $T0 4 + .cbParams + =
STACK WIN 4 5595d a3 0 0 4 8 24 0 1 $T0 $ebp = $eip $T0 4 + ^ = $ebp $T0 ^ = $esp $T0 8 + = $L $T0 .cbSavedRegs - = $P $T0 4 + .cbParams + =
STACK WIN 4 a35e b91 19 0 18 0 7c 0 1 $T0 $ebp = $eip $T0 4 + ^ = $ebp $T0 ^ = $esp $T0 8 + = $L $T0 .cbSavedRegs - = $P $T0 4 + .cbParams + =
STACK WIN 4 a36a b81 d 0 18 4 7c 0 1 $T0 $ebp = $eip $T0 4 + ^ = $ebp $T0 ^ = $esp $T0 8 + = $L $T0 .cbSavedRegs - = $P $T0 4 + .cbParams + = $ebx $T0 132 - ^ =
STACK WIN 4 a36b b7f c 0 18 8 7c 0 1 $T0 $ebp = $eip $T0 4 + ^ = $ebp $T0 ^ = $esp $T0 8 + = $L $T0 .cbSavedRegs - = $P $T0 4 + .cbParams + = $ebx $T0 132 - ^ =
STACK WIN 4 a377 b72 0 0 18 c 7c 0 1 $T0 $ebp = $eip $T0 4 + ^ = $ebp $T0 ^ = $esp $T0 8 + = $L $T0 .cbSavedRegs - = $P $T0 4 + .cbParams + = $ebx $T0 132 - ^ =
STACK WIN 4 55a0e e0 c 0 4 8 2c 0 1 $T0 $ebp = $eip $T0 4 + ^ = $ebp $T0 ^ = $esp $T0 8 + = $L $T0 .cbSavedRegs - = $P $T0 4 + .cbParams + =
STACK WIN 4 55abf e 0 0 4 8 2c 0 1 $T0 $ebp = $T2 $esp = $T1 .raSearchStart = $eip $T1 ^ = $ebp $ebp = $esp $T1 4 + = $L $T0 .cbSavedRegs - = $P $T0 4 + .cbParams + =
STACK WIN 4 55b09 8b c 0 4 8 24 0 1 $T0 $ebp = $eip $T0 4 + ^ = $ebp $T0 ^ = $esp $T0 8 + = $L $T0 .cbSavedRegs - = $P $T0 4 + .cbParams + =
STACK WIN 4 55b65 e 0 0 4 8 24 0 1 $T0 $ebp = $T2 $esp = $T1 .raSearchStart = $eip $T1 ^ = $ebp $ebp = $esp $T1 4 + = $L $T0 .cbSavedRegs - = $P $T0 4 + .cbParams + =
STACK WIN 4 30927 209 c 0 c 8 30 0 1 $T0 $ebp = $eip $T0 4 + ^ = $ebp $T0 ^ = $esp $T0 8 + = $L $T0 .cbSavedRegs - = $P $T0 4 + .cbParams + =
STACK WIN 4 3a7c5 e 0 0 c 8 30 0 1 $T0 $ebp = $T2 $esp = $T1 .raSearchStart = $eip $T1 ^ = $ebp $ebp = $esp $T1 4 + = $L $T0 .cbSavedRegs - = $P $T0 4 + .cbParams + =
STACK WIN 4 30bd3 142 c 0 c 8 3c 0 1 $T0 $ebp = $eip $T0 4 + ^ = $ebp $T0 ^ = $esp $T0 8 + = $L $T0 .cbSavedRegs - = $P $T0 4 + .cbParams + =
STACK WIN 4 3a824 e 0 0 c 8 3c 0 1 $T0 $ebp = $T2 $esp = $T1 .raSearchStart = $eip $T1 ^ = $ebp $ebp = $esp $T1 4 + = $L $T0 .cbSavedRegs - = $P $T0 4 + .cbParams + =
STACK WIN 4 3a86a 19 0 0 c 8 3c 0 1 $T0 $ebp = $T2 $esp = $T1 .raSearchStart = $eip $T1 ^ = $ebp $ebp = $esp $T1 4 + = $L $T0 .cbSavedRegs - = $P $T0 4 + .cbParams + =
STACK WIN 4 33107 18f f 0 14 0 14 0 1 $T0 $ebp = $eip $T0 4 + ^ = $ebp $T0 ^ = $esp $T0 8 + = $L $T0 .cbSavedRegs - = $P $T0 4 + .cbParams + =
STACK WIN 4 33110 182 6 0 14 4 14 0 1 $T0 $ebp = $eip $T0 4 + ^ = $ebp $T0 ^ = $esp $T0 8 + = $L $T0 .cbSavedRegs - = $P $T0 4 + .cbParams + = $ebx $T0 28 - ^ =
STACK WIN 4 33116 17b 0 0 14 8 14 0 1 $T0 $ebp = $eip $T0 4 + ^ = $ebp $T0 ^ = $esp $T0 8 + = $L $T0 .cbSavedRegs - = $P $T0 4 + .cbParams + = $ebx $T0 28 - ^ =
STACK WIN 4 3312f 14d 0 0 14 c 14 0 1 $T0 $ebp = $eip $T0 4 + ^ = $ebp $T0 ^ = $esp $T0 8 + = $L $T0 .cbSavedRegs - = $P $T0 4 + .cbParams + = $ebx $T0 28 - ^ =
STACK WIN 4 ffb1 12d c 0 c 8 3c 0 1 $T0 $ebp = $eip $T0 4 + ^ = $ebp $T0 ^ = $esp $T0 8 + = $L $T0 .cbSavedRegs - = $P $T0 4 + .cbParams + =
STACK WIN 4 3a94d e 0 0 c 8 3c 0 1 $T0 $ebp = $T2 $esp = $T1 .raSearchStart = $eip $T1 ^ = $ebp $ebp = $esp $T1 4 + = $L $T0 .cbSavedRegs - = $P $T0 4 + .cbParams + =
STACK WIN 4 3a995 19 0 0 c 8 3c 0 1 $T0 $ebp = $T2 $esp = $T1 .raSearchStart = $eip $T1 ^ = $ebp $ebp = $esp $T1 4 + = $L $T0 .cbSavedRegs - = $P $T0 4 + .cbParams + =
STACK WIN 4 326c1 15 5 0 4 0 0 0 1 $T0 $ebp = $eip $T0 4 + ^ = $ebp $T0 ^ = $esp $T0 8 + = $L $T0 .cbSavedRegs - = $P $T0 4 + .cbParams + =
STACK WIN 4 ab78 ff c 0 4 8 38 0 1 $T0 $ebp = $eip $T0 4 + ^ = $ebp $T0 ^ = $esp $T0 8 + = $L $T0 .cbSavedRegs - = $P $T0 4 + .cbParams + =
STACK WIN 4 3a9c6 e 0 0 4 8 38 0 1 $T0 $ebp = $T2 $esp = $T1 .raSearchStart = $eip $T1 ^ = $ebp $ebp = $esp $T1 4 + = $L $T0 .cbSavedRegs - = $P $T0 4 + .cbParams + =
STACK WIN 4 330e7 1b 5 0 c 0 0 0 1 $T0 $ebp = $eip $T0 4 + ^ = $ebp $T0 ^ = $esp $T0 8 + = $L $T0 .cbSavedRegs - = $P $T0 4 + .cbParams + =
STACK WIN 4 a9cc 64 a 0 8 0 0 0 1 $T0 $ebp = $eip $T0 4 + ^ = $ebp $T0 ^ = $esp $T0 8 + = $L $T0 .cbSavedRegs - = $P $T0 4 + .cbParams + =
STACK WIN 4 a9d2 5a 4 0 8 4 0 0 1 $T0 $ebp = $eip $T0 4 + ^ = $ebp $T0 ^ = $esp $T0 8 + = $L $T0 .cbSavedRegs - = $P $T0 4 + .cbParams + = $ebx $T0 8 - ^ =
STACK WIN 4 a9d6 55 0 0 8 8 0 0 1 $T0 $ebp = $eip $T0 4 + ^ = $ebp $T0 ^ = $esp $T0 8 + = $L $T0 .cbSavedRegs - = $P $T0 4 + .cbParams + = $ebx $T0 8 - ^ =
STACK WIN 4 ba64 39 c 0 8 8 18 0 1 $T0 $ebp = $eip $T0 4 + ^ = $ebp $T0 ^ = $esp $T0 8 + = $L $T0 .cbSavedRegs - = $P $T0 4 + .cbParams + =
STACK WIN 4 3aa01 4 0 0 8 8 18 0 1 $T0 $ebp = $T2 $esp = $T1 .raSearchStart = $eip $T1 ^ = $ebp $ebp = $esp $T1 4 + = $L $T0 .cbSavedRegs - = $P $T0 4 + .cbParams + =
STACK WIN 4 bbce b2 c 0 c 8 30 0 1 $T0 $ebp = $eip $T0 4 + ^ = $ebp $T0 ^ = $esp $T0 8 + = $L $T0 .cbSavedRegs - = $P $T0 4 + .cbParams + =
STACK WIN 4 3aa1d e 0 0 c 8 30 0 1 $T0 $ebp = $T2 $esp = $T1 .raSearchStart = $eip $T1 ^ = $ebp $ebp = $esp $T1 4 + = $L $T0 .cbSavedRegs - = $P $T0 4 + .cbParams + =
STACK WIN 4 e6dc 185 c 0 18 0 30 0 1 $T0 $ebp = $eip $T0 4 + ^ = $ebp $T0 ^ = $esp $T0 8 + = $L $T0 .cbSavedRegs - = $P $T0 4 + .cbParams + =
STACK WIN 4 e6e8 175 0 0 18 4 30 0 1 $T0 $ebp = $eip $T0 4 + ^ = $ebp $T0 ^ = $esp $T0 8 + = $L $T0 .cbSavedRegs - = $P $T0 4 + .cbParams + = $ebx $T0 56 - ^ =
STACK WIN 4 e701 13c 0 0 18 8 30 0 1 $T0 $ebp = $eip $T0 4 + ^ = $ebp $T0 ^ = $esp $T0 8 + = $L $T0 .cbSavedRegs - = $P $T0 4 + .cbParams + = $ebx $T0 56 - ^ =
STACK WIN 4 e73a ed 0 0 18 c 30 0 1 $T0 $ebp = $eip $T0 4 + ^ = $ebp $T0 ^ = $esp $T0 8 + = $L $T0 .cbSavedRegs - = $P $T0 4 + .cbParams + = $ebx $T0 56 - ^ =
STACK WIN 4 1021c 1ba 9 0 10 0 c 0 1 $T0 $ebp = $eip $T0 4 + ^ = $ebp $T0 ^ = $esp $T0 8 + = $L $T0 .cbSavedRegs - = $P $T0 4 + .cbParams + =
STACK WIN 4 10225 1ad 0 0 10 4 c 0 1 $T0 $ebp = $eip $T0 4 + ^ = $ebp $T0 ^ = $esp $T0 8 + = $L $T0 .cbSavedRegs - = $P $T0 4 + .cbParams + =
STACK WIN 4 1026f 15c 0 0 10 8 c 0 1 $T0 $ebp = $eip $T0 4 + ^ = $ebp $T0 ^ = $esp $T0 8 + = $L $T0 .cbSavedRegs - = $P $T0 4 + .cbParams + =
STACK WIN 4 30b7d 3b 5 0 8 0 0 0 1 $T0 $ebp = $eip $T0 4 + ^ = $ebp $T0 ^ = $esp $T0 8 + = $L $T0 .cbSavedRegs - = $P $T0 4 + .cbParams + =
STACK WIN 4 2c86d 29 0 0 0 0 0 0 1 $T2 $esp .cbLocals + .cbSavedRegs + = $T0 .raSearchStart = $eip $T0 ^ = $esp $T0 4 + =
STACK WIN 4 2c87c 16 0 0 0 4 0 0 1 $T2 $esp .cbLocals + .cbSavedRegs + = $T0 .raSearchStart = $eip $T0 ^ = $esp $T0 4 + =
STACK WIN 4 ddfe d3 c 0 1c 8 18 0 1 $T0 $ebp = $eip $T0 4 + ^ = $ebp $T0 ^ = $esp $T0 8 + = $L $T0 .cbSavedRegs - = $P $T0 4 + .cbParams + =
STACK WIN 4 3aad0 4 0 0 1c 8 18 0 1 $T0 $ebp = $T2 $esp = $T1 .raSearchStart = $eip $T1 ^ = $ebp $ebp = $esp $T1 4 + = $L $T0 .cbSavedRegs - = $P $T0 4 + .cbParams + =
STACK WIN 4 a996 65 a 0 8 0 0 0 1 $T0 $ebp = $eip $T0 4 + ^ = $ebp $T0 ^ = $esp $T0 8 + = $L $T0 .cbSavedRegs - = $P $T0 4 + .cbParams + =
STACK WIN 4 a99c 5b 4 0 8 4 0 0 1 $T0 $ebp = $eip $T0 4 + ^ = $ebp $T0 ^ = $esp $T0 8 + = $L $T0 .cbSavedRegs - = $P $T0 4 + .cbParams + = $ebx $T0 8 - ^ =
STACK WIN 4 a9a0 56 0 0 8 8 0 0 1 $T0 $ebp = $eip $T0 4 + ^ = $ebp $T0 ^ = $esp $T0 8 + = $L $T0 .cbSavedRegs - = $P $T0 4 + .cbParams + = $ebx $T0 8 - ^ =
STACK WIN 4 b64c 63 c 0 8 8 20 0 1 $T0 $ebp = $eip $T0 4 + ^ = $ebp $T0 ^ = $esp $T0 8 + = $L $T0 .cbSavedRegs - = $P $T0 4 + .cbParams + =
STACK WIN 4 3ab10 11 0 0 8 8 20 0 1 $T0 $ebp = $T2 $esp = $T1 .raSearchStart = $eip $T1 ^ = $ebp $ebp = $esp $T1 4 + = $L $T0 .cbSavedRegs - = $P $T0 4 + .cbParams + =
STACK WIN 4 2520 16 5 0 8 0 0 0 1 $T0 $ebp = $eip $T0 4 + ^ = $ebp $T0 ^ = $esp $T0 8 + = $L $T0 .cbSavedRegs - = $P $T0 4 + .cbParams + =
STACK WIN 4 1042c 301 17 0 1c 8 420 0 1 $T0 $ebp = $eip $T0 4 + ^ = $ebp $T0 ^ = $esp $T0 8 + = $L $T0 .cbSavedRegs - = $P $T0 4 + .cbParams + =
STACK WIN 4 3abe7 7a 0 0 1c 8 420 0 1 $T0 $ebp = $T2 $esp = $T1 .raSearchStart = $eip $T1 ^ = $ebp $ebp = $esp $T1 4 + = $L $T0 .cbSavedRegs - = $P $T0 4 + .cbParams + =
STACK WIN 4 98eb 4 0 0 0 0 0 0 1 $T2 $esp .cbLocals + .cbSavedRegs + = $T0 .raSearchStart = $eip $T0 ^ = $esp $T0 4 + =
STACK WIN 4 2ff92 18 0 0 0 0 0 0 1 $T2 $esp .cbLocals + .cbSavedRegs + = $T0 .raSearchStart = $eip $T0 ^ = $esp $T0 4 + =
STACK WIN 4 103a3 9e 5 0 14 0 0 0 1 $T0 $ebp = $eip $T0 4 + ^ = $ebp $T0 ^ = $esp $T0 8 + = $L $T0 .cbSavedRegs - = $P $T0 4 + .cbParams + =
STACK WIN 4 55bbc 2d 7 0 4 0 8 0 1 $T0 $ebp = $eip $T0 4 + ^ = $ebp $T0 ^ = $esp $T0 8 + = $L $T0 .cbSavedRegs - = $P $T0 4 + .cbParams + =
STACK WIN 4 55bee 31 5 0 4 0 0 0 1 $T0 $ebp = $eip $T0 4 + ^ = $ebp $T0 ^ = $esp $T0 8 + = $L $T0 .cbSavedRegs - = $P $T0 4 + .cbParams + =
STACK WIN 4 55c24 2e 8 0 8 0 8 0 1 $T0 $ebp = $eip $T0 4 + ^ = $ebp $T0 ^ = $esp $T0 8 + = $L $T0 .cbSavedRegs - = $P $T0 4 + .cbParams + =
STACK WIN 4 55c2c 22 0 0 8 4 8 0 1 $T0 $ebp = $eip $T0 4 + ^ = $ebp $T0 ^ = $esp $T0 8 + = $L $T0 .cbSavedRegs - = $P $T0 4 + .cbParams + =
STACK WIN 4 55c57 27 5 0 c 0 0 0 1 $T0 $ebp = $eip $T0 4 + ^ = $ebp $T0 ^ = $esp $T0 8 + = $L $T0 .cbSavedRegs - = $P $T0 4 + .cbParams + =
STACK WIN 4 55c83 4c b 0 8 0 0 0 1 $T0 $ebp = $eip $T0 4 + ^ = $ebp $T0 ^ = $esp $T0 8 + = $L $T0 .cbSavedRegs - = $P $T0 4 + .cbParams + =
STACK WIN 4 55c89 42 5 0 8 4 0 0 1 $T0 $ebp = $eip $T0 4 + ^ = $ebp $T0 ^ = $esp $T0 8 + = $L $T0 .cbSavedRegs - = $P $T0 4 + .cbParams + = $ebx $T0 8 - ^ =
STACK WIN 4 55c8d 3d 1 0 8 8 0 0 1 $T0 $ebp = $eip $T0 4 + ^ = $ebp $T0 ^ = $esp $T0 8 + = $L $T0 .cbSavedRegs - = $P $T0 4 + .cbParams + = $ebx $T0 8 - ^ =
STACK WIN 4 55c8e 3b 0 0 8 c 0 0 1 $T0 $ebp = $eip $T0 4 + ^ = $ebp $T0 ^ = $esp $T0 8 + = $L $T0 .cbSavedRegs - = $P $T0 4 + .cbParams + = $ebx $T0 8 - ^ =
STACK WIN 4 55cd4 119 15 0 c 0 8 0 1 $T0 $ebp = $eip $T0 4 + ^ = $ebp $T0 ^ = $esp $T0 8 + = $L $T0 .cbSavedRegs - = $P $T0 4 + .cbParams + =
STACK WIN 4 55cdc 10d d 0 c 4 8 0 1 $T0 $ebp = $eip $T0 4 + ^ = $ebp $T0 ^ = $esp $T0 8 + = $L $T0 .cbSavedRegs - = $P $T0 4 + .cbParams + = $ebx $T0 16 - ^ =
STACK WIN 4 55cdd 10b c 0 c 8 8 0 1 $T0 $ebp = $eip $T0 4 + ^ = $ebp $T0 ^ = $esp $T0 8 + = $L $T0 .cbSavedRegs - = $P $T0 4 + .cbParams + = $ebx $T0 16 - ^ =
STACK WIN 4 55ce9 fe 0 0 c c 8 0 1 $T0 $ebp = $eip $T0 4 + ^ = $ebp $T0 ^ = $esp $T0 8 + = $L $T0 .cbSavedRegs - = $P $T0 4 + .cbParams + = $ebx $T0 16 - ^ =
STACK WIN 4 55df2 bd 6 0 4 0 0 0 1 $T0 $ebp = $eip $T0 4 + ^ = $ebp $T0 ^ = $esp $T0 8 + = $L $T0 .cbSavedRegs - = $P $T0 4 + .cbParams + =
STACK WIN 4 55df8 b3 0 0 4 4 0 0 1 $T0 $ebp = $eip $T0 4 + ^ = $ebp $T0 ^ = $esp $T0 8 + = $L $T0 .cbSavedRegs - = $P $T0 4 + .cbParams + =
STACK WIN 4 55e53 15 0 0 4 8 0 0 1 $T0 $ebp = $eip $T0 4 + ^ = $ebp $T0 ^ = $esp $T0 8 + = $L $T0 .cbSavedRegs - = $P $T0 4 + .cbParams + =
STACK WIN 4 55eb4 36 5 0 8 0 0 0 1 $T0 $ebp = $eip $T0 4 + ^ = $ebp $T0 ^ = $esp $T0 8 + = $L $T0 .cbSavedRegs - = $P $T0 4 + .cbParams + =
STACK WIN 4 55eef 15b 12 0 18 0 1c 0 1 $T0 $ebp = $eip $T0 4 + ^ = $ebp $T0 ^ = $esp $T0 8 + = $L $T0 .cbSavedRegs - = $P $T0 4 + .cbParams + =
STACK WIN 4 55efb 14b 6 0 18 4 1c 0 1 $T0 $ebp = $eip $T0 4 + ^ = $ebp $T0 ^ = $esp $T0 8 + = $L $T0 .cbSavedRegs - = $P $T0 4 + .cbParams + =
STACK WIN 4 55f01 144 0 0 18 8 1c 0 1 $T0 $ebp = $eip $T0 4 + ^ = $ebp $T0 ^ = $esp $T0 8 + = $L $T0 .cbSavedRegs - = $P $T0 4 + .cbParams + =
STACK WIN 4 5604f a4 18 0 c 0 8 0 1 $T0 $ebp = $eip $T0 4 + ^ = $ebp $T0 ^ = $esp $T0 8 + = $L $T0 .cbSavedRegs - = $P $T0 4 + .cbParams + =
STACK WIN 4 5605a 95 d 0 c 4 8 0 1 $T0 $ebp = $eip $T0 4 + ^ = $ebp $T0 ^ = $esp $T0 8 + = $L $T0 .cbSavedRegs - = $P $T0 4 + .cbParams + = $ebx $T0 16 - ^ =
STACK WIN 4 5605e 90 9 0 c 8 8 0 1 $T0 $ebp = $eip $T0 4 + ^ = $ebp $T0 ^ = $esp $T0 8 + = $L $T0 .cbSavedRegs - = $P $T0 4 + .cbParams + = $ebx $T0 16 - ^ =
STACK WIN 4 56067 86 0 0 c c 8 0 1 $T0 $ebp = $eip $T0 4 + ^ = $ebp $T0 ^ = $esp $T0 8 + = $L $T0 .cbSavedRegs - = $P $T0 4 + .cbParams + = $ebx $T0 16 - ^ =
STACK WIN 4 560f8 d7 9 0 c 0 8 0 1 $T0 $ebp = $eip $T0 4 + ^ = $ebp $T0 ^ = $esp $T0 8 + = $L $T0 .cbSavedRegs - = $P $T0 4 + .cbParams + =
STACK WIN 4 56100 cb 1 0 c 4 8 0 1 $T0 $ebp = $eip $T0 4 + ^ = $ebp $T0 ^ = $esp $T0 8 + = $L $T0 .cbSavedRegs - = $P $T0 4 + .cbParams + = $ebx $T0 16 - ^ =
STACK WIN 4 56101 c9 0 0 c 8 8 0 1 $T0 $ebp = $eip $T0 4 + ^ = $ebp $T0 ^ = $esp $T0 8 + = $L $T0 .cbSavedRegs - = $P $T0 4 + .cbParams + = $ebx $T0 16 - ^ =
STACK WIN 4 5618d 3c 0 0 c c 8 0 1 $T0 $ebp = $eip $T0 4 + ^ = $ebp $T0 ^ = $esp $T0 8 + = $L $T0 .cbSavedRegs - = $P $T0 4 + .cbParams + = $ebx $T0 16 - ^ =
STACK WIN 4 561d4 a5 16 0 c 0 10 0 1 $T0 $ebp = $eip $T0 4 + ^ = $ebp $T0 ^ = $esp $T0 8 + = $L $T0 .cbSavedRegs - = $P $T0 4 + .cbParams + =
STACK WIN 4 561dd 98 d 0 c 4 10 0 1 $T0 $ebp = $eip $T0 4 + ^ = $ebp $T0 ^ = $esp $T0 8 + = $L $T0 .cbSavedRegs - = $P $T0 4 + .cbParams + = $ebx $T0 24 - ^ =
STACK WIN 4 561de 94 c 0 c 8 10 0 1 $T0 $ebp = $eip $T0 4 + ^ = $ebp $T0 ^ = $esp $T0 8 + = $L $T0 .cbSavedRegs - = $P $T0 4 + .cbParams + = $ebx $T0 24 - ^ =
STACK WIN 4 561ea 87 0 0 c c 10 0 1 $T0 $ebp = $eip $T0 4 + ^ = $ebp $T0 ^ = $esp $T0 8 + = $L $T0 .cbSavedRegs - = $P $T0 4 + .cbParams + = $ebx $T0 24 - ^ =
STACK WIN 4 5627e fe 16 0 c 0 28 0 1 $T0 $ebp = $eip $T0 4 + ^ = $ebp $T0 ^ = $esp $T0 8 + = $L $T0 .cbSavedRegs - = $P $T0 4 + .cbParams + =
STACK WIN 4 56287 f1 d 0 c 4 28 0 1 $T0 $ebp = $eip $T0 4 + ^ = $ebp $T0 ^ = $esp $T0 8 + = $L $T0 .cbSavedRegs - = $P $T0 4 + .cbParams + = $ebx $T0 48 - ^ =
STACK WIN 4 56288 ef c 0 c 8 28 0 1 $T0 $ebp = $eip $T0 4 + ^ = $ebp $T0 ^ = $esp $T0 8 + = $L $T0 .cbSavedRegs - = $P $T0 4 + .cbParams + = $ebx $T0 48 - ^ =
STACK WIN 4 56294 e2 0 0 c c 28 0 1 $T0 $ebp = $eip $T0 4 + ^ = $ebp $T0 ^ = $esp $T0 8 + = $L $T0 .cbSavedRegs - = $P $T0 4 + .cbParams + = $ebx $T0 48 - ^ =
STACK WIN 4 56381 2b 5 0 4 0 0 0 1 $T0 $ebp = $eip $T0 4 + ^ = $ebp $T0 ^ = $esp $T0 8 + = $L $T0 .cbSavedRegs - = $P $T0 4 + .cbParams + =
STACK WIN 4 563b1 20 5 0 4 0 0 0 1 $T0 $ebp = $eip $T0 4 + ^ = $ebp $T0 ^ = $esp $T0 8 + = $L $T0 .cbSavedRegs - = $P $T0 4 + .cbParams + =
STACK WIN 4 563d6 60 10 0 8 0 0 0 1 $T0 $ebp = $eip $T0 4 + ^ = $ebp $T0 ^ = $esp $T0 8 + = $L $T0 .cbSavedRegs - = $P $T0 4 + .cbParams + =
STACK WIN 4 563df 53 7 0 8 4 0 0 1 $T0 $ebp = $eip $T0 4 + ^ = $ebp $T0 ^ = $esp $T0 8 + = $L $T0 .cbSavedRegs - = $P $T0 4 + .cbParams + = $ebx $T0 8 - ^ =
STACK WIN 4 563e6 4b 0 0 8 8 0 0 1 $T0 $ebp = $eip $T0 4 + ^ = $ebp $T0 ^ = $esp $T0 8 + = $L $T0 .cbSavedRegs - = $P $T0 4 + .cbParams + = $ebx $T0 8 - ^ =
STACK WIN 4 56407 24 0 0 8 c 0 0 1 $T0 $ebp = $eip $T0 4 + ^ = $ebp $T0 ^ = $esp $T0 8 + = $L $T0 .cbSavedRegs - = $P $T0 4 + .cbParams + = $ebx $T0 8 - ^ =
STACK WIN 4 5643b 1f 6 0 4 0 0 0 1 $T0 $ebp = $eip $T0 4 + ^ = $ebp $T0 ^ = $esp $T0 8 + = $L $T0 .cbSavedRegs - = $P $T0 4 + .cbParams + =
STACK WIN 4 56441 15 0 0 4 4 0 0 1 $T0 $ebp = $eip $T0 4 + ^ = $ebp $T0 ^ = $esp $T0 8 + = $L $T0 .cbSavedRegs - = $P $T0 4 + .cbParams + =
STACK WIN 4 5645f 54 a 0 4 0 0 0 1 $T0 $ebp = $eip $T0 4 + ^ = $ebp $T0 ^ = $esp $T0 8 + = $L $T0 .cbSavedRegs - = $P $T0 4 + .cbParams + =
STACK WIN 4 56465 4a 4 0 4 4 0 0 1 $T0 $ebp = $eip $T0 4 + ^ = $ebp $T0 ^ = $esp $T0 8 + = $L $T0 .cbSavedRegs - = $P $T0 4 + .cbParams + = $ebx $T0 8 - ^ =
STACK WIN 4 56469 45 0 0 4 8 0 0 1 $T0 $ebp = $eip $T0 4 + ^ = $ebp $T0 ^ = $esp $T0 8 + = $L $T0 .cbSavedRegs - = $P $T0 4 + .cbParams + = $ebx $T0 8 - ^ =
STACK WIN 4 56471 3c 0 0 4 c 0 0 1 $T0 $ebp = $eip $T0 4 + ^ = $ebp $T0 ^ = $esp $T0 8 + = $L $T0 .cbSavedRegs - = $P $T0 4 + .cbParams + = $ebx $T0 8 - ^ =
STACK WIN 4 564b8 5c 6 0 4 0 0 0 1 $T0 $ebp = $eip $T0 4 + ^ = $ebp $T0 ^ = $esp $T0 8 + = $L $T0 .cbSavedRegs - = $P $T0 4 + .cbParams + =
STACK WIN 4 564be 52 0 0 4 4 0 0 1 $T0 $ebp = $eip $T0 4 + ^ = $ebp $T0 ^ = $esp $T0 8 + = $L $T0 .cbSavedRegs - = $P $T0 4 + .cbParams + =
STACK WIN 4 564cf 16 0 0 4 8 0 0 1 $T0 $ebp = $eip $T0 4 + ^ = $ebp $T0 ^ = $esp $T0 8 + = $L $T0 .cbSavedRegs - = $P $T0 4 + .cbParams + =
STACK WIN 4 56519 180 e 0 c 0 28 0 1 $T0 $ebp = $eip $T0 4 + ^ = $ebp $T0 ^ = $esp $T0 8 + = $L $T0 .cbSavedRegs - = $P $T0 4 + .cbParams + =
STACK WIN 4 56522 173 5 0 c 4 28 0 1 $T0 $ebp = $eip $T0 4 + ^ = $ebp $T0 ^ = $esp $T0 8 + = $L $T0 .cbSavedRegs - = $P $T0 4 + .cbParams + = $ebx $T0 48 - ^ =
STACK WIN 4 56523 171 4 0 c 8 28 0 1 $T0 $ebp = $eip $T0 4 + ^ = $ebp $T0 ^ = $esp $T0 8 + = $L $T0 .cbSavedRegs - = $P $T0 4 + .cbParams + = $ebx $T0 48 - ^ =
STACK WIN 4 56527 16c 0 0 c c 28 0 1 $T0 $ebp = $eip $T0 4 + ^ = $ebp $T0 ^ = $esp $T0 8 + = $L $T0 .cbSavedRegs - = $P $T0 4 + .cbParams + = $ebx $T0 48 - ^ =
STACK WIN 4 5669e c8 9 0 c 0 8 0 1 $T0 $ebp = $eip $T0 4 + ^ = $ebp $T0 ^ = $esp $T0 8 + = $L $T0 .cbSavedRegs - = $P $T0 4 + .cbParams + =
STACK WIN 4 566a6 bc 1 0 c 4 8 0 1 $T0 $ebp = $eip $T0 4 + ^ = $ebp $T0 ^ = $esp $T0 8 + = $L $T0 .cbSavedRegs - = $P $T0 4 + .cbParams + = $ebx $T0 16 - ^ =
STACK WIN 4 566a7 ba 0 0 c 8 8 0 1 $T0 $ebp = $eip $T0 4 + ^ = $ebp $T0 ^ = $esp $T0 8 + = $L $T0 .cbSavedRegs - = $P $T0 4 + .cbParams + = $ebx $T0 16 - ^ =
STACK WIN 4 5676b 27b 15 0 c 0 28 0 1 $T0 $ebp = $eip $T0 4 + ^ = $ebp $T0 ^ = $esp $T0 8 + = $L $T0 .cbSavedRegs - = $P $T0 4 + .cbParams + =
STACK WIN 4 56774 26e c 0 c 4 28 0 1 $T0 $ebp = $eip $T0 4 + ^ = $ebp $T0 ^ = $esp $T0 8 + = $L $T0 .cbSavedRegs - = $P $T0 4 + .cbParams + = $ebx $T0 48 - ^ =
STACK WIN 4 5677f 262 1 0 c 8 28 0 1 $T0 $ebp = $eip $T0 4 + ^ = $ebp $T0 ^ = $esp $T0 8 + = $L $T0 .cbSavedRegs - = $P $T0 4 + .cbParams + = $ebx $T0 48 - ^ =
STACK WIN 4 56780 260 0 0 c c 28 0 1 $T0 $ebp = $eip $T0 4 + ^ = $ebp $T0 ^ = $esp $T0 8 + = $L $T0 .cbSavedRegs - = $P $T0 4 + .cbParams + = $ebx $T0 48 - ^ =
STACK WIN 4 569ec e9 15 0 c 0 8 0 1 $T0 $ebp = $eip $T0 4 + ^ = $ebp $T0 ^ = $esp $T0 8 + = $L $T0 .cbSavedRegs - = $P $T0 4 + .cbParams + =
STACK WIN 4 569f4 dd d 0 c 4 8 0 1 $T0 $ebp = $eip $T0 4 + ^ = $ebp $T0 ^ = $esp $T0 8 + = $L $T0 .cbSavedRegs - = $P $T0 4 + .cbParams + = $ebx $T0 16 - ^ =
STACK WIN 4 569f5 db c 0 c 8 8 0 1 $T0 $ebp = $eip $T0 4 + ^ = $ebp $T0 ^ = $esp $T0 8 + = $L $T0 .cbSavedRegs - = $P $T0 4 + .cbParams + = $ebx $T0 16 - ^ =
STACK WIN 4 56a01 ce 0 0 c c 8 0 1 $T0 $ebp = $eip $T0 4 + ^ = $ebp $T0 ^ = $esp $T0 8 + = $L $T0 .cbSavedRegs - = $P $T0 4 + .cbParams + = $ebx $T0 16 - ^ =
STACK WIN 4 56ada b5 15 0 c 0 8 0 1 $T0 $ebp = $eip $T0 4 + ^ = $ebp $T0 ^ = $esp $T0 8 + = $L $T0 .cbSavedRegs - = $P $T0 4 + .cbParams + =
STACK WIN 4 56ae2 a9 d 0 c 4 8 0 1 $T0 $ebp = $eip $T0 4 + ^ = $ebp $T0 ^ = $esp $T0 8 + = $L $T0 .cbSavedRegs - = $P $T0 4 + .cbParams + = $ebx $T0 16 - ^ =
STACK WIN 4 56ae3 a7 c 0 c 8 8 0 1 $T0 $ebp = $eip $T0 4 + ^ = $ebp $T0 ^ = $esp $T0 8 + = $L $T0 .cbSavedRegs - = $P $T0 4 + .cbParams + = $ebx $T0 16 - ^ =
STACK WIN 4 56aef 9a 0 0 c c 8 0 1 $T0 $ebp = $eip $T0 4 + ^ = $ebp $T0 ^ = $esp $T0 8 + = $L $T0 .cbSavedRegs - = $P $T0 4 + .cbParams + = $ebx $T0 16 - ^ =
STACK WIN 4 56b94 12e 8 0 c 0 8 0 1 $T0 $ebp = $eip $T0 4 + ^ = $ebp $T0 ^ = $esp $T0 8 + = $L $T0 .cbSavedRegs - = $P $T0 4 + .cbParams + =
STACK WIN 4 56b9c 122 0 0 c 4 8 0 1 $T0 $ebp = $eip $T0 4 + ^ = $ebp $T0 ^ = $esp $T0 8 + = $L $T0 .cbSavedRegs - = $P $T0 4 + .cbParams + =
STACK WIN 4 56bba 102 0 0 c 8 8 0 1 $T0 $ebp = $eip $T0 4 + ^ = $ebp $T0 ^ = $esp $T0 8 + = $L $T0 .cbSavedRegs - = $P $T0 4 + .cbParams + =
STACK WIN 4 56cc7 113 5 0 c 0 0 0 1 $T0 $ebp = $eip $T0 4 + ^ = $ebp $T0 ^ = $esp $T0 8 + = $L $T0 .cbSavedRegs - = $P $T0 4 + .cbParams + =
STACK WIN 4 56cdf f6 0 0 c 4 0 0 1 $T0 $ebp = $eip $T0 4 + ^ = $ebp $T0 ^ = $esp $T0 8 + = $L $T0 .cbSavedRegs - = $P $T0 4 + .cbParams + =
STACK WIN 4 56cea ea 0 0 c 8 0 0 1 $T0 $ebp = $eip $T0 4 + ^ = $ebp $T0 ^ = $esp $T0 8 + = $L $T0 .cbSavedRegs - = $P $T0 4 + .cbParams + =
STACK WIN 4 56ddf 22e 19 0 1c 0 44 0 1 $T0 $ebp = $eip $T0 4 + ^ = $ebp $T0 ^ = $esp $T0 8 + = $L $T0 .cbSavedRegs - = $P $T0 4 + .cbParams + =
STACK WIN 4 56df1 2a 7 0 1c 4 44 0 1 $T0 $ebp = $eip $T0 4 + ^ = $ebp $T0 ^ = $esp $T0 8 + = $L $T0 .cbSavedRegs - = $P $T0 4 + .cbParams + = $ebx $T0 76 - ^ =
STACK WIN 4 56df2 28 6 0 1c 8 44 0 1 $T0 $ebp = $eip $T0 4 + ^ = $ebp $T0 ^ = $esp $T0 8 + = $L $T0 .cbSavedRegs - = $P $T0 4 + .cbParams + = $ebx $T0 76 - ^ =
STACK WIN 4 56df8 21 0 0 1c c 44 0 1 $T0 $ebp = $eip $T0 4 + ^ = $ebp $T0 ^ = $esp $T0 8 + = $L $T0 .cbSavedRegs - = $P $T0 4 + .cbParams + = $ebx $T0 76 - ^ =
STACK WIN 4 57012 8d 6 0 8 0 0 0 1 $T0 $ebp = $eip $T0 4 + ^ = $ebp $T0 ^ = $esp $T0 8 + = $L $T0 .cbSavedRegs - = $P $T0 4 + .cbParams + =
STACK WIN 4 57018 83 0 0 8 4 0 0 1 $T0 $ebp = $eip $T0 4 + ^ = $ebp $T0 ^ = $esp $T0 8 + = $L $T0 .cbSavedRegs - = $P $T0 4 + .cbParams + = $ebx $T0 8 - ^ =
STACK WIN 4 5704b 45 0 0 8 8 0 0 1 $T0 $ebp = $eip $T0 4 + ^ = $ebp $T0 ^ = $esp $T0 8 + = $L $T0 .cbSavedRegs - = $P $T0 4 + .cbParams + = $ebx $T0 8 - ^ =
STACK WIN 4 5704f 40 0 0 8 c 0 0 1 $T0 $ebp = $eip $T0 4 + ^ = $ebp $T0 ^ = $esp $T0 8 + = $L $T0 .cbSavedRegs - = $P $T0 4 + .cbParams + = $ebx $T0 8 - ^ =
STACK WIN 4 570a4 46 8 0 c 0 8 0 1 $T0 $ebp = $eip $T0 4 + ^ = $ebp $T0 ^ = $esp $T0 8 + = $L $T0 .cbSavedRegs - = $P $T0 4 + .cbParams + =
STACK WIN 4 570ac 16 0 0 c 4 8 0 1 $T0 $ebp = $eip $T0 4 + ^ = $ebp $T0 ^ = $esp $T0 8 + = $L $T0 .cbSavedRegs - = $P $T0 4 + .cbParams + =
STACK WIN 4 570ef 5b 8 0 c 0 8 0 1 $T0 $ebp = $eip $T0 4 + ^ = $ebp $T0 ^ = $esp $T0 8 + = $L $T0 .cbSavedRegs - = $P $T0 4 + .cbParams + =
STACK WIN 4 570f7 16 0 0 c 4 8 0 1 $T0 $ebp = $eip $T0 4 + ^ = $ebp $T0 ^ = $esp $T0 8 + = $L $T0 .cbSavedRegs - = $P $T0 4 + .cbParams + =
STACK WIN 4 57112 2c 0 0 c 8 8 0 1 $T0 $ebp = $eip $T0 4 + ^ = $ebp $T0 ^ = $esp $T0 8 + = $L $T0 .cbSavedRegs - = $P $T0 4 + .cbParams + =
STACK WIN 4 5714f 75 e 0 c 0 c 0 1 $T0 $ebp = $eip $T0 4 + ^ = $ebp $T0 ^ = $esp $T0 8 + = $L $T0 .cbSavedRegs - = $P $T0 4 + .cbParams + =
STACK WIN 4 5715d 5e 0 0 c 4 c 0 1 $T0 $ebp = $eip $T0 4 + ^ = $ebp $T0 ^ = $esp $T0 8 + = $L $T0 .cbSavedRegs - = $P $T0 4 + .cbParams + =
STACK WIN 4 57177 35 0 0 c 8 c 0 1 $T0 $ebp = $eip $T0 4 + ^ = $ebp $T0 ^ = $esp $T0 8 + = $L $T0 .cbSavedRegs - = $P $T0 4 + .cbParams + =
STACK WIN 4 571c9 e0 a 0 c 0 0 0 1 $T0 $ebp = $eip $T0 4 + ^ = $ebp $T0 ^ = $esp $T0 8 + = $L $T0 .cbSavedRegs - = $P $T0 4 + .cbParams + =
STACK WIN 4 571cf d6 4 0 c 4 0 0 1 $T0 $ebp = $eip $T0 4 + ^ = $ebp $T0 ^ = $esp $T0 8 + = $L $T0 .cbSavedRegs - = $P $T0 4 + .cbParams + =
STACK WIN 4 571d3 d1 0 0 c 8 0 0 1 $T0 $ebp = $eip $T0 4 + ^ = $ebp $T0 ^ = $esp $T0 8 + = $L $T0 .cbSavedRegs - = $P $T0 4 + .cbParams + =
STACK WIN 4 572ae 14b 9 0 c 0 10 0 1 $T0 $ebp = $eip $T0 4 + ^ = $ebp $T0 ^ = $esp $T0 8 + = $L $T0 .cbSavedRegs - = $P $T0 4 + .cbParams + =
STACK WIN 4 572b7 13e 0 0 c 4 10 0 1 $T0 $ebp = $eip $T0 4 + ^ = $ebp $T0 ^ = $esp $T0 8 + = $L $T0 .cbSavedRegs - = $P $T0 4 + .cbParams + =
STACK WIN 4 572df 115 0 0 c 8 10 0 1 $T0 $ebp = $eip $T0 4 + ^ = $ebp $T0 ^ = $esp $T0 8 + = $L $T0 .cbSavedRegs - = $P $T0 4 + .cbParams + =
STACK WIN 4 573fe 1f4 1c 0 1c 0 10 0 1 $T0 $ebp = $eip $T0 4 + ^ = $ebp $T0 ^ = $esp $T0 8 + = $L $T0 .cbSavedRegs - = $P $T0 4 + .cbParams + =
STACK WIN 4 5740d 1b2 d 0 1c 4 10 0 1 $T0 $ebp = $eip $T0 4 + ^ = $ebp $T0 ^ = $esp $T0 8 + = $L $T0 .cbSavedRegs - = $P $T0 4 + .cbParams + = $ebx $T0 24 - ^ =
STACK WIN 4 57411 1ad 9 0 1c 8 10 0 1 $T0 $ebp = $eip $T0 4 + ^ = $ebp $T0 ^ = $esp $T0 8 + = $L $T0 .cbSavedRegs - = $P $T0 4 + .cbParams + = $ebx $T0 24 - ^ =
STACK WIN 4 5741a 1a3 0 0 1c c 10 0 1 $T0 $ebp = $eip $T0 4 + ^ = $ebp $T0 ^ = $esp $T0 8 + = $L $T0 .cbSavedRegs - = $P $T0 4 + .cbParams + = $ebx $T0 24 - ^ =
STACK WIN 4 37bfc 52 13 0 0 0 c4 0 1 $T0 $ebp = $eip $T0 4 + ^ = $ebp $T0 ^ = $esp $T0 8 + = $L $T0 .cbSavedRegs - = $P $T0 4 + .cbParams + =
STACK WIN 4 37a77 1c7 13 0 8 0 3c 0 1 $T0 $ebp = $eip $T0 4 + ^ = $ebp $T0 ^ = $esp $T0 8 + = $L $T0 .cbSavedRegs - = $P $T0 4 + .cbParams + =
STACK WIN 4 37a80 1ba a 0 8 4 3c 0 1 $T0 $ebp = $eip $T0 4 + ^ = $ebp $T0 ^ = $esp $T0 8 + = $L $T0 .cbSavedRegs - = $P $T0 4 + .cbParams + =
STACK WIN 4 37a8a 1af 0 0 8 8 3c 0 1 $T0 $ebp = $eip $T0 4 + ^ = $ebp $T0 ^ = $esp $T0 8 + = $L $T0 .cbSavedRegs - = $P $T0 4 + .cbParams + =
STACK WIN 4 575f7 69 b 0 4 0 0 0 1 $T0 $ebp = $eip $T0 4 + ^ = $ebp $T0 ^ = $esp $T0 8 + = $L $T0 .cbSavedRegs - = $P $T0 4 + .cbParams + =
STACK WIN 4 575fd 5f 5 0 4 4 0 0 1 $T0 $ebp = $eip $T0 4 + ^ = $ebp $T0 ^ = $esp $T0 8 + = $L $T0 .cbSavedRegs - = $P $T0 4 + .cbParams + = $ebx $T0 8 - ^ =
STACK WIN 4 575fe 5d 4 0 4 8 0 0 1 $T0 $ebp = $eip $T0 4 + ^ = $ebp $T0 ^ = $esp $T0 8 + = $L $T0 .cbSavedRegs - = $P $T0 4 + .cbParams + = $ebx $T0 8 - ^ =
STACK WIN 4 57602 58 0 0 4 c 0 0 1 $T0 $ebp = $eip $T0 4 + ^ = $ebp $T0 ^ = $esp $T0 8 + = $L $T0 .cbSavedRegs - = $P $T0 4 + .cbParams + = $ebx $T0 8 - ^ =
STACK WIN 4 57665 70 6 0 4 0 0 0 1 $T0 $ebp = $eip $T0 4 + ^ = $ebp $T0 ^ = $esp $T0 8 + = $L $T0 .cbSavedRegs - = $P $T0 4 + .cbParams + =
STACK WIN 4 5766b 66 0 0 4 4 0 0 1 $T0 $ebp = $eip $T0 4 + ^ = $ebp $T0 ^ = $esp $T0 8 + = $L $T0 .cbSavedRegs - = $P $T0 4 + .cbParams + =
STACK WIN 4 576a6 2a 0 0 4 8 0 0 1 $T0 $ebp = $eip $T0 4 + ^ = $ebp $T0 ^ = $esp $T0 8 + = $L $T0 .cbSavedRegs - = $P $T0 4 + .cbParams + =
STACK WIN 4 576da 5c c 0 10 0 4 0 1 $T0 $ebp = $eip $T0 4 + ^ = $ebp $T0 ^ = $esp $T0 8 + = $L $T0 .cbSavedRegs - = $P $T0 4 + .cbParams + =
STACK WIN 4 576e1 51 5 0 10 4 4 0 1 $T0 $ebp = $eip $T0 4 + ^ = $ebp $T0 ^ = $esp $T0 8 + = $L $T0 .cbSavedRegs - = $P $T0 4 + .cbParams + = $ebx $T0 12 - ^ =
STACK WIN 4 576e2 4f 4 0 10 8 4 0 1 $T0 $ebp = $eip $T0 4 + ^ = $ebp $T0 ^ = $esp $T0 8 + = $L $T0 .cbSavedRegs - = $P $T0 4 + .cbParams + = $ebx $T0 12 - ^ =
STACK WIN 4 576e6 4a 0 0 10 c 4 0 1 $T0 $ebp = $eip $T0 4 + ^ = $ebp $T0 ^ = $esp $T0 8 + = $L $T0 .cbSavedRegs - = $P $T0 4 + .cbParams + = $ebx $T0 12 - ^ =
STACK WIN 4 5773b 82 15 0 c 0 c 0 1 $T0 $ebp = $eip $T0 4 + ^ = $ebp $T0 ^ = $esp $T0 8 + = $L $T0 .cbSavedRegs - = $P $T0 4 + .cbParams + =
STACK WIN 4 57748 71 8 0 c 4 c 0 1 $T0 $ebp = $eip $T0 4 + ^ = $ebp $T0 ^ = $esp $T0 8 + = $L $T0 .cbSavedRegs - = $P $T0 4 + .cbParams + = $ebx $T0 20 - ^ =
STACK WIN 4 57749 6f 7 0 c 8 c 0 1 $T0 $ebp = $eip $T0 4 + ^ = $ebp $T0 ^ = $esp $T0 8 + = $L $T0 .cbSavedRegs - = $P $T0 4 + .cbParams + = $ebx $T0 20 - ^ =
STACK WIN 4 57750 67 0 0 c c c 0 1 $T0 $ebp = $eip $T0 4 + ^ = $ebp $T0 ^ = $esp $T0 8 + = $L $T0 .cbSavedRegs - = $P $T0 4 + .cbParams + = $ebx $T0 20 - ^ =
STACK WIN 4 577c2 a4 e 0 c 0 10 0 1 $T0 $ebp = $eip $T0 4 + ^ = $ebp $T0 ^ = $esp $T0 8 + = $L $T0 .cbSavedRegs - = $P $T0 4 + .cbParams + =
STACK WIN 4 577cb 97 5 0 c 4 10 0 1 $T0 $ebp = $eip $T0 4 + ^ = $ebp $T0 ^ = $esp $T0 8 + = $L $T0 .cbSavedRegs - = $P $T0 4 + .cbParams + = $ebx $T0 24 - ^ =
STACK WIN 4 577cc 95 4 0 c 8 10 0 1 $T0 $ebp = $eip $T0 4 + ^ = $ebp $T0 ^ = $esp $T0 8 + = $L $T0 .cbSavedRegs - = $P $T0 4 + .cbParams + = $ebx $T0 24 - ^ =
STACK WIN 4 577d0 90 0 0 c c 10 0 1 $T0 $ebp = $eip $T0 4 + ^ = $ebp $T0 ^ = $esp $T0 8 + = $L $T0 .cbSavedRegs - = $P $T0 4 + .cbParams + = $ebx $T0 24 - ^ =
STACK WIN 4 5786b 4b 11 0 c 0 0 0 1 $T0 $ebp = $eip $T0 4 + ^ = $ebp $T0 ^ = $esp $T0 8 + = $L $T0 .cbSavedRegs - = $P $T0 4 + .cbParams + =
STACK WIN 4 57871 41 b 0 c 4 0 0 1 $T0 $ebp = $eip $T0 4 + ^ = $ebp $T0 ^ = $esp $T0 8 + = $L $T0 .cbSavedRegs - = $P $T0 4 + .cbParams + = $ebx $T0 8 - ^ =
STACK WIN 4 57878 37 4 0 c 8 0 0 1 $T0 $ebp = $eip $T0 4 + ^ = $ebp $T0 ^ = $esp $T0 8 + = $L $T0 .cbSavedRegs - = $P $T0 4 + .cbParams + = $ebx $T0 8 - ^ =
STACK WIN 4 5787c 32 0 0 c c 0 0 1 $T0 $ebp = $eip $T0 4 + ^ = $ebp $T0 ^ = $esp $T0 8 + = $L $T0 .cbSavedRegs - = $P $T0 4 + .cbParams + = $ebx $T0 8 - ^ =
STACK WIN 4 202af 1e8 22 0 10 0 c4 0 1 $T0 $ebp = $eip $T0 4 + ^ = $ebp $T0 ^ = $esp $T0 8 + = $L $T0 .cbSavedRegs - = $P $T0 4 + .cbParams + =
STACK WIN 4 202c3 1cb e 0 10 4 c4 0 1 $T0 $ebp = $eip $T0 4 + ^ = $ebp $T0 ^ = $esp $T0 8 + = $L $T0 .cbSavedRegs - = $P $T0 4 + .cbParams + = $ebx $T0 204 - ^ =
STACK WIN 4 202c4 1c9 d 0 10 8 c4 0 1 $T0 $ebp = $eip $T0 4 + ^ = $ebp $T0 ^ = $esp $T0 8 + = $L $T0 .cbSavedRegs - = $P $T0 4 + .cbParams + = $ebx $T0 204 - ^ =
STACK WIN 4 202d1 1bb 0 0 10 c c4 0 1 $T0 $ebp = $eip $T0 4 + ^ = $ebp $T0 ^ = $esp $T0 8 + = $L $T0 .cbSavedRegs - = $P $T0 4 + .cbParams + = $ebx $T0 204 - ^ =
STACK WIN 4 578bb 9d 10 0 c 0 2c 0 1 $T0 $ebp = $eip $T0 4 + ^ = $ebp $T0 ^ = $esp $T0 8 + = $L $T0 .cbSavedRegs - = $P $T0 4 + .cbParams + =
STACK WIN 4 578c4 90 7 0 c 4 2c 0 1 $T0 $ebp = $eip $T0 4 + ^ = $ebp $T0 ^ = $esp $T0 8 + = $L $T0 .cbSavedRegs - = $P $T0 4 + .cbParams + =
STACK WIN 4 578cb 88 0 0 c 8 2c 0 1 $T0 $ebp = $eip $T0 4 + ^ = $ebp $T0 ^ = $esp $T0 8 + = $L $T0 .cbSavedRegs - = $P $T0 4 + .cbParams + =
STACK WIN 4 5795d 95 a 0 10 0 2c 0 1 $T0 $ebp = $eip $T0 4 + ^ = $ebp $T0 ^ = $esp $T0 8 + = $L $T0 .cbSavedRegs - = $P $T0 4 + .cbParams + =
STACK WIN 4 57966 88 1 0 10 4 2c 0 1 $T0 $ebp = $eip $T0 4 + ^ = $ebp $T0 ^ = $esp $T0 8 + = $L $T0 .cbSavedRegs - = $P $T0 4 + .cbParams + =
STACK WIN 4 57967 86 0 0 10 8 2c 0 1 $T0 $ebp = $eip $T0 4 + ^ = $ebp $T0 ^ = $esp $T0 8 + = $L $T0 .cbSavedRegs - = $P $T0 4 + .cbParams + =
STACK WIN 4 579f7 ac 9 0 c 0 4 0 1 $T0 $ebp = $eip $T0 4 + ^ = $ebp $T0 ^ = $esp $T0 8 + = $L $T0 .cbSavedRegs - = $P $T0 4 + .cbParams + =
STACK WIN 4 579fe a1 2 0 c 4 4 0 1 $T0 $ebp = $eip $T0 4 + ^ = $ebp $T0 ^ = $esp $T0 8 + = $L $T0 .cbSavedRegs - = $P $T0 4 + .cbParams + = $ebx $T0 12 - ^ =
STACK WIN 4 579ff 9d 1 0 c 8 4 0 1 $T0 $ebp = $eip $T0 4 + ^ = $ebp $T0 ^ = $esp $T0 8 + = $L $T0 .cbSavedRegs - = $P $T0 4 + .cbParams + = $ebx $T0 12 - ^ =
STACK WIN 4 57a00 9b 0 0 c c 4 0 1 $T0 $ebp = $eip $T0 4 + ^ = $ebp $T0 ^ = $esp $T0 8 + = $L $T0 .cbSavedRegs - = $P $T0 4 + .cbParams + = $ebx $T0 12 - ^ =
STACK WIN 4 57aa8 101 9 0 c 0 8 0 1 $T0 $ebp = $eip $T0 4 + ^ = $ebp $T0 ^ = $esp $T0 8 + = $L $T0 .cbSavedRegs - = $P $T0 4 + .cbParams + =
STACK WIN 4 57ab0 f5 1 0 c 4 8 0 1 $T0 $ebp = $eip $T0 4 + ^ = $ebp $T0 ^ = $esp $T0 8 + = $L $T0 .cbSavedRegs - = $P $T0 4 + .cbParams + = $ebx $T0 16 - ^ =
STACK WIN 4 57ab1 f3 0 0 c 8 8 0 1 $T0 $ebp = $eip $T0 4 + ^ = $ebp $T0 ^ = $esp $T0 8 + = $L $T0 .cbSavedRegs - = $P $T0 4 + .cbParams + = $ebx $T0 16 - ^ =
STACK WIN 4 57ae7 93 0 0 c c 8 0 1 $T0 $ebp = $eip $T0 4 + ^ = $ebp $T0 ^ = $esp $T0 8 + = $L $T0 .cbSavedRegs - = $P $T0 4 + .cbParams + = $ebx $T0 16 - ^ =
STACK WIN 4 57bae e4 a 0 c 0 c 0 1 $T0 $ebp = $eip $T0 4 + ^ = $ebp $T0 ^ = $esp $T0 8 + = $L $T0 .cbSavedRegs - = $P $T0 4 + .cbParams + =
STACK WIN 4 57bb7 d7 1 0 c 4 c 0 1 $T0 $ebp = $eip $T0 4 + ^ = $ebp $T0 ^ = $esp $T0 8 + = $L $T0 .cbSavedRegs - = $P $T0 4 + .cbParams + = $ebx $T0 20 - ^ =
STACK WIN 4 57bb8 d5 0 0 c 8 c 0 1 $T0 $ebp = $eip $T0 4 + ^ = $ebp $T0 ^ = $esp $T0 8 + = $L $T0 .cbSavedRegs - = $P $T0 4 + .cbParams + = $ebx $T0 20 - ^ =
STACK WIN 4 57be2 a8 0 0 c c c 0 1 $T0 $ebp = $eip $T0 4 + ^ = $ebp $T0 ^ = $esp $T0 8 + = $L $T0 .cbSavedRegs - = $P $T0 4 + .cbParams + = $ebx $T0 20 - ^ =
STACK WIN 4 57c97 38 5 0 4 0 0 0 1 $T0 $ebp = $eip $T0 4 + ^ = $ebp $T0 ^ = $esp $T0 8 + = $L $T0 .cbSavedRegs - = $P $T0 4 + .cbParams + =
STACK WIN 4 57cd4 b4 9 0 4 0 10 0 1 $T0 $ebp = $eip $T0 4 + ^ = $ebp $T0 ^ = $esp $T0 8 + = $L $T0 .cbSavedRegs - = $P $T0 4 + .cbParams + =
STACK WIN 4 57cdd 54 0 0 4 4 10 0 1 $T0 $ebp = $eip $T0 4 + ^ = $ebp $T0 ^ = $esp $T0 8 + = $L $T0 .cbSavedRegs - = $P $T0 4 + .cbParams + =
STACK WIN 4 57d07 29 0 0 4 8 10 0 1 $T0 $ebp = $eip $T0 4 + ^ = $ebp $T0 ^ = $esp $T0 8 + = $L $T0 .cbSavedRegs - = $P $T0 4 + .cbParams + =
STACK WIN 4 57da5 80 b 0 4 0 0 0 1 $T0 $ebp = $eip $T0 4 + ^ = $ebp $T0 ^ = $esp $T0 8 + = $L $T0 .cbSavedRegs - = $P $T0 4 + .cbParams + =
STACK WIN 4 57dab 76 5 0 4 4 0 0 1 $T0 $ebp = $eip $T0 4 + ^ = $ebp $T0 ^ = $esp $T0 8 + = $L $T0 .cbSavedRegs - = $P $T0 4 + .cbParams + = $ebx $T0 8 - ^ =
STACK WIN 4 57daf 71 1 0 4 8 0 0 1 $T0 $ebp = $eip $T0 4 + ^ = $ebp $T0 ^ = $esp $T0 8 + = $L $T0 .cbSavedRegs - = $P $T0 4 + .cbParams + = $ebx $T0 8 - ^ =
STACK WIN 4 57db0 6f 0 0 4 c 0 0 1 $T0 $ebp = $eip $T0 4 + ^ = $ebp $T0 ^ = $esp $T0 8 + = $L $T0 .cbSavedRegs - = $P $T0 4 + .cbParams + = $ebx $T0 8 - ^ =
STACK WIN 4 57e41 3f 5 0 4 0 0 0 1 $T0 $ebp = $eip $T0 4 + ^ = $ebp $T0 ^ = $esp $T0 8 + = $L $T0 .cbSavedRegs - = $P $T0 4 + .cbParams + =
STACK WIN 4 57e85 2c 5 0 4 0 0 0 1 $T0 $ebp = $eip $T0 4 + ^ = $ebp $T0 ^ = $esp $T0 8 + = $L $T0 .cbSavedRegs - = $P $T0 4 + .cbParams + =
STACK WIN 4 57eb6 9e a 0 4 0 8 0 1 $T0 $ebp = $eip $T0 4 + ^ = $ebp $T0 ^ = $esp $T0 8 + = $L $T0 .cbSavedRegs - = $P $T0 4 + .cbParams + =
STACK WIN 4 57ebe 92 2 0 4 4 8 0 1 $T0 $ebp = $eip $T0 4 + ^ = $ebp $T0 ^ = $esp $T0 8 + = $L $T0 .cbSavedRegs - = $P $T0 4 + .cbParams + = $ebx $T0 16 - ^ =
STACK WIN 4 57ebf 8e 1 0 4 8 8 0 1 $T0 $ebp = $eip $T0 4 + ^ = $ebp $T0 ^ = $esp $T0 8 + = $L $T0 .cbSavedRegs - = $P $T0 4 + .cbParams + = $ebx $T0 16 - ^ =
STACK WIN 4 57ec0 8c 0 0 4 c 8 0 1 $T0 $ebp = $eip $T0 4 + ^ = $ebp $T0 ^ = $esp $T0 8 + = $L $T0 .cbSavedRegs - = $P $T0 4 + .cbParams + = $ebx $T0 16 - ^ =
STACK WIN 4 57f59 2c 5 0 4 0 0 0 1 $T0 $ebp = $eip $T0 4 + ^ = $ebp $T0 ^ = $esp $T0 8 + = $L $T0 .cbSavedRegs - = $P $T0 4 + .cbParams + =
STACK WIN 4 57f8a 4e a 0 8 0 0 0 1 $T0 $ebp = $eip $T0 4 + ^ = $ebp $T0 ^ = $esp $T0 8 + = $L $T0 .cbSavedRegs - = $P $T0 4 + .cbParams + =
STACK WIN 4 57f90 44 4 0 8 4 0 0 1 $T0 $ebp = $eip $T0 4 + ^ = $ebp $T0 ^ = $esp $T0 8 + = $L $T0 .cbSavedRegs - = $P $T0 4 + .cbParams + =
STACK WIN 4 57f94 3f 0 0 8 8 0 0 1 $T0 $ebp = $eip $T0 4 + ^ = $ebp $T0 ^ = $esp $T0 8 + = $L $T0 .cbSavedRegs - = $P $T0 4 + .cbParams + =
STACK WIN 4 57fdd a7 7 0 8 0 4 0 1 $T0 $ebp = $eip $T0 4 + ^ = $ebp $T0 ^ = $esp $T0 8 + = $L $T0 .cbSavedRegs - = $P $T0 4 + .cbParams + =
STACK WIN 4 57fe4 9c 0 0 8 4 4 0 1 $T0 $ebp = $eip $T0 4 + ^ = $ebp $T0 ^ = $esp $T0 8 + = $L $T0 .cbSavedRegs - = $P $T0 4 + .cbParams + = $ebx $T0 12 - ^ =
STACK WIN 4 57ff3 8c 0 0 8 8 4 0 1 $T0 $ebp = $eip $T0 4 + ^ = $ebp $T0 ^ = $esp $T0 8 + = $L $T0 .cbSavedRegs - = $P $T0 4 + .cbParams + = $ebx $T0 12 - ^ =
STACK WIN 4 57ff4 8a 0 0 8 c 4 0 1 $T0 $ebp = $eip $T0 4 + ^ = $ebp $T0 ^ = $esp $T0 8 + = $L $T0 .cbSavedRegs - = $P $T0 4 + .cbParams + = $ebx $T0 12 - ^ =
STACK WIN 4 31893 136 22 0 10 0 a8 0 1 $T0 $ebp = $eip $T0 4 + ^ = $ebp $T0 ^ = $esp $T0 8 + = $L $T0 .cbSavedRegs - = $P $T0 4 + .cbParams + =
STACK WIN 4 318a7 119 e 0 10 4 a8 0 1 $T0 $ebp = $eip $T0 4 + ^ = $ebp $T0 ^ = $esp $T0 8 + = $L $T0 .cbSavedRegs - = $P $T0 4 + .cbParams + = $ebx $T0 176 - ^ =
STACK WIN 4 318ab 114 a 0 10 8 a8 0 1 $T0 $ebp = $eip $T0 4 + ^ = $ebp $T0 ^ = $esp $T0 8 + = $L $T0 .cbSavedRegs - = $P $T0 4 + .cbParams + = $ebx $T0 176 - ^ =
STACK WIN 4 318b5 109 0 0 10 c a8 0 1 $T0 $ebp = $eip $T0 4 + ^ = $ebp $T0 ^ = $esp $T0 8 + = $L $T0 .cbSavedRegs - = $P $T0 4 + .cbParams + = $ebx $T0 176 - ^ =
STACK WIN 4 316c7 20b 13 0 8 0 3c 0 1 $T0 $ebp = $eip $T0 4 + ^ = $ebp $T0 ^ = $esp $T0 8 + = $L $T0 .cbSavedRegs - = $P $T0 4 + .cbParams + =
STACK WIN 4 316d8 139 2 0 8 4 3c 0 1 $T0 $ebp = $eip $T0 4 + ^ = $ebp $T0 ^ = $esp $T0 8 + = $L $T0 .cbSavedRegs - = $P $T0 4 + .cbParams + = $ebx $T0 68 - ^ =
STACK WIN 4 316d9 137 1 0 8 8 3c 0 1 $T0 $ebp = $eip $T0 4 + ^ = $ebp $T0 ^ = $esp $T0 8 + = $L $T0 .cbSavedRegs - = $P $T0 4 + .cbParams + = $ebx $T0 68 - ^ =
STACK WIN 4 316da 135 0 0 8 c 3c 0 1 $T0 $ebp = $eip $T0 4 + ^ = $ebp $T0 ^ = $esp $T0 8 + = $L $T0 .cbSavedRegs - = $P $T0 4 + .cbParams + = $ebx $T0 68 - ^ =
STACK WIN 4 5808d 121 15 0 4 0 30 0 1 $T0 $ebp = $eip $T0 4 + ^ = $ebp $T0 ^ = $esp $T0 8 + = $L $T0 .cbSavedRegs - = $P $T0 4 + .cbParams + =
STACK WIN 4 5809a 110 8 0 4 4 30 0 1 $T0 $ebp = $eip $T0 4 + ^ = $ebp $T0 ^ = $esp $T0 8 + = $L $T0 .cbSavedRegs - = $P $T0 4 + .cbParams + = $ebx $T0 56 - ^ =
STACK WIN 4 580a1 108 1 0 4 8 30 0 1 $T0 $ebp = $eip $T0 4 + ^ = $ebp $T0 ^ = $esp $T0 8 + = $L $T0 .cbSavedRegs - = $P $T0 4 + .cbParams + = $ebx $T0 56 - ^ =
STACK WIN 4 580a2 106 0 0 4 c 30 0 1 $T0 $ebp = $eip $T0 4 + ^ = $ebp $T0 ^ = $esp $T0 8 + = $L $T0 .cbSavedRegs - = $P $T0 4 + .cbParams + = $ebx $T0 56 - ^ =
STACK WIN 4 201f1 25b a 0 c 0 4 0 1 $T0 $ebp = $eip $T0 4 + ^ = $ebp $T0 ^ = $esp $T0 8 + = $L $T0 .cbSavedRegs - = $P $T0 4 + .cbParams + =
STACK WIN 4 201fb 22d 0 0 c 4 4 0 1 $T0 $ebp = $eip $T0 4 + ^ = $ebp $T0 ^ = $esp $T0 8 + = $L $T0 .cbSavedRegs - = $P $T0 4 + .cbParams + = $ebx $T0 12 - ^ =
STACK WIN 4 2020a 210 0 0 c 8 4 0 1 $T0 $ebp = $eip $T0 4 + ^ = $ebp $T0 ^ = $esp $T0 8 + = $L $T0 .cbSavedRegs - = $P $T0 4 + .cbParams + = $ebx $T0 12 - ^ =
STACK WIN 4 20210 209 0 0 c c 4 0 1 $T0 $ebp = $eip $T0 4 + ^ = $ebp $T0 ^ = $esp $T0 8 + = $L $T0 .cbSavedRegs - = $P $T0 4 + .cbParams + = $ebx $T0 12 - ^ =
STACK WIN 4 581b3 7c 6 0 8 0 0 0 1 $T0 $ebp = $eip $T0 4 + ^ = $ebp $T0 ^ = $esp $T0 8 + = $L $T0 .cbSavedRegs - = $P $T0 4 + .cbParams + =
STACK WIN 4 581b9 72 0 0 8 4 0 0 1 $T0 $ebp = $eip $T0 4 + ^ = $ebp $T0 ^ = $esp $T0 8 + = $L $T0 .cbSavedRegs - = $P $T0 4 + .cbParams + =
STACK WIN 4 581cc 5e 0 0 8 8 0 0 1 $T0 $ebp = $eip $T0 4 + ^ = $ebp $T0 ^ = $esp $T0 8 + = $L $T0 .cbSavedRegs - = $P $T0 4 + .cbParams + =
STACK WIN 4 216a4 105 a 0 8 0 14 0 1 $T0 $ebp = $eip $T0 4 + ^ = $ebp $T0 ^ = $esp $T0 8 + = $L $T0 .cbSavedRegs - = $P $T0 4 + .cbParams + =
STACK WIN 4 216ad f8 1 0 8 4 14 0 1 $T0 $ebp = $eip $T0 4 + ^ = $ebp $T0 ^ = $esp $T0 8 + = $L $T0 .cbSavedRegs - = $P $T0 4 + .cbParams + = $ebx $T0 28 - ^ =
STACK WIN 4 216ae f6 0 0 8 8 14 0 1 $T0 $ebp = $eip $T0 4 + ^ = $ebp $T0 ^ = $esp $T0 8 + = $L $T0 .cbSavedRegs - = $P $T0 4 + .cbParams + = $ebx $T0 28 - ^ =
STACK WIN 4 21702 84 0 0 8 c 14 0 1 $T0 $ebp = $eip $T0 4 + ^ = $ebp $T0 ^ = $esp $T0 8 + = $L $T0 .cbSavedRegs - = $P $T0 4 + .cbParams + = $ebx $T0 28 - ^ =
STACK WIN 4 58234 6e 8 0 4 0 10 0 1 $T0 $ebp = $eip $T0 4 + ^ = $ebp $T0 ^ = $esp $T0 8 + = $L $T0 .cbSavedRegs - = $P $T0 4 + .cbParams + =
STACK WIN 4 5827c 17 0 0 4 4 10 0 1 $T0 $ebp = $eip $T0 4 + ^ = $ebp $T0 ^ = $esp $T0 8 + = $L $T0 .cbSavedRegs - = $P $T0 4 + .cbParams + =
STACK WIN 4 582a7 a0 b 0 c 0 0 0 1 $T0 $ebp = $eip $T0 4 + ^ = $ebp $T0 ^ = $esp $T0 8 + = $L $T0 .cbSavedRegs - = $P $T0 4 + .cbParams + =
STACK WIN 4 582ad 96 5 0 c 4 0 0 1 $T0 $ebp = $eip $T0 4 + ^ = $ebp $T0 ^ = $esp $T0 8 + = $L $T0 .cbSavedRegs - = $P $T0 4 + .cbParams + = $ebx $T0 8 - ^ =
STACK WIN 4 582ae 94 4 0 c 8 0 0 1 $T0 $ebp = $eip $T0 4 + ^ = $ebp $T0 ^ = $esp $T0 8 + = $L $T0 .cbSavedRegs - = $P $T0 4 + .cbParams + = $ebx $T0 8 - ^ =
STACK WIN 4 582b2 8f 0 0 c c 0 0 1 $T0 $ebp = $eip $T0 4 + ^ = $ebp $T0 ^ = $esp $T0 8 + = $L $T0 .cbSavedRegs - = $P $T0 4 + .cbParams + = $ebx $T0 8 - ^ =
STACK WIN 4 5834c 52 8 0 8 0 10 0 1 $T0 $ebp = $eip $T0 4 + ^ = $ebp $T0 ^ = $esp $T0 8 + = $L $T0 .cbSavedRegs - = $P $T0 4 + .cbParams + =
STACK WIN 4 58380 1a 0 0 8 4 10 0 1 $T0 $ebp = $eip $T0 4 + ^ = $ebp $T0 ^ = $esp $T0 8 + = $L $T0 .cbSavedRegs - = $P $T0 4 + .cbParams + =
STACK WIN 4 583a3 17b 7 0 10 0 4 0 1 $T0 $ebp = $eip $T0 4 + ^ = $ebp $T0 ^ = $esp $T0 8 + = $L $T0 .cbSavedRegs - = $P $T0 4 + .cbParams + =
STACK WIN 4 583aa 170 0 0 10 4 4 0 1 $T0 $ebp = $eip $T0 4 + ^ = $ebp $T0 ^ = $esp $T0 8 + = $L $T0 .cbSavedRegs - = $P $T0 4 + .cbParams + =
STACK WIN 4 583d0 143 0 0 10 8 4 0 1 $T0 $ebp = $eip $T0 4 + ^ = $ebp $T0 ^ = $esp $T0 8 + = $L $T0 .cbSavedRegs - = $P $T0 4 + .cbParams + =
STACK WIN 4 58523 a7 b 0 10 0 0 0 1 $T0 $ebp = $eip $T0 4 + ^ = $ebp $T0 ^ = $esp $T0 8 + = $L $T0 .cbSavedRegs - = $P $T0 4 + .cbParams + =
STACK WIN 4 58529 9d 5 0 10 4 0 0 1 $T0 $ebp = $eip $T0 4 + ^ = $ebp $T0 ^ = $esp $T0 8 + = $L $T0 .cbSavedRegs - = $P $T0 4 + .cbParams + = $ebx $T0 8 - ^ =
STACK WIN 4 5852a 9b 4 0 10 8 0 0 1 $T0 $ebp = $eip $T0 4 + ^ = $ebp $T0 ^ = $esp $T0 8 + = $L $T0 .cbSavedRegs - = $P $T0 4 + .cbParams + = $ebx $T0 8 - ^ =
STACK WIN 4 5852e 96 0 0 10 c 0 0 1 $T0 $ebp = $eip $T0 4 + ^ = $ebp $T0 ^ = $esp $T0 8 + = $L $T0 .cbSavedRegs - = $P $T0 4 + .cbParams + = $ebx $T0 8 - ^ =
STACK WIN 4 2ceb2 ae 1c 0 c 0 38 0 1 $T0 $ebp = $eip $T0 4 + ^ = $ebp $T0 ^ = $esp $T0 8 + = $L $T0 .cbSavedRegs - = $P $T0 4 + .cbParams + =
STACK WIN 4 2cec0 97 e 0 c 4 38 0 1 $T0 $ebp = $eip $T0 4 + ^ = $ebp $T0 ^ = $esp $T0 8 + = $L $T0 .cbSavedRegs - = $P $T0 4 + .cbParams + = $ebx $T0 64 - ^ =
STACK WIN 4 2cec4 92 a 0 c 8 38 0 1 $T0 $ebp = $eip $T0 4 + ^ = $ebp $T0 ^ = $esp $T0 8 + = $L $T0 .cbSavedRegs - = $P $T0 4 + .cbParams + = $ebx $T0 64 - ^ =
STACK WIN 4 2cece 87 0 0 c c 38 0 1 $T0 $ebp = $eip $T0 4 + ^ = $ebp $T0 ^ = $esp $T0 8 + = $L $T0 .cbSavedRegs - = $P $T0 4 + .cbParams + = $ebx $T0 64 - ^ =
STACK WIN 4 585cf 97 18 0 c 0 3c 0 1 $T0 $ebp = $eip $T0 4 + ^ = $ebp $T0 ^ = $esp $T0 8 + = $L $T0 .cbSavedRegs - = $P $T0 4 + .cbParams + =
STACK WIN 4 585dd 76 a 0 c 4 3c 0 1 $T0 $ebp = $eip $T0 4 + ^ = $ebp $T0 ^ = $esp $T0 8 + = $L $T0 .cbSavedRegs - = $P $T0 4 + .cbParams + =
STACK WIN 4 585e7 6b 0 0 c 8 3c 0 1 $T0 $ebp = $eip $T0 4 + ^ = $ebp $T0 ^ = $esp $T0 8 + = $L $T0 .cbSavedRegs - = $P $T0 4 + .cbParams + =
STACK WIN 4 5866b 476 1c 0 10 0 68c 0 1 $T0 $ebp = $eip $T0 4 + ^ = $ebp $T0 ^ = $esp $T0 8 + = $L $T0 .cbSavedRegs - = $P $T0 4 + .cbParams + =
STACK WIN 4 5867c 2f7 b 0 10 4 68c 0 1 $T0 $ebp = $eip $T0 4 + ^ = $ebp $T0 ^ = $esp $T0 8 + = $L $T0 .cbSavedRegs - = $P $T0 4 + .cbParams + = $ebx $T0 1684 - ^ =
STACK WIN 4 58680 2f2 7 0 10 8 68c 0 1 $T0 $ebp = $eip $T0 4 + ^ = $ebp $T0 ^ = $esp $T0 8 + = $L $T0 .cbSavedRegs - = $P $T0 4 + .cbParams + = $ebx $T0 1684 - ^ =
STACK WIN 4 58687 2ea 0 0 10 c 68c 0 1 $T0 $ebp = $eip $T0 4 + ^ = $ebp $T0 ^ = $esp $T0 8 + = $L $T0 .cbSavedRegs - = $P $T0 4 + .cbParams + = $ebx $T0 1684 - ^ =
STACK WIN 4 58bc3 76 5 0 8 0 0 0 1 $T0 $ebp = $eip $T0 4 + ^ = $ebp $T0 ^ = $esp $T0 8 + = $L $T0 .cbSavedRegs - = $P $T0 4 + .cbParams + =
STACK WIN 4 58be8 4d 0 0 8 4 0 0 1 $T0 $ebp = $eip $T0 4 + ^ = $ebp $T0 ^ = $esp $T0 8 + = $L $T0 .cbSavedRegs - = $P $T0 4 + .cbParams + =
STACK WIN 4 58c3e 26 5 0 4 0 0 0 1 $T0 $ebp = $eip $T0 4 + ^ = $ebp $T0 ^ = $esp $T0 8 + = $L $T0 .cbSavedRegs - = $P $T0 4 + .cbParams + =
STACK WIN 4 58c69 19c b 0 4 0 1c 0 1 $T0 $ebp = $eip $T0 4 + ^ = $ebp $T0 ^ = $esp $T0 8 + = $L $T0 .cbSavedRegs - = $P $T0 4 + .cbParams + =
STACK WIN 4 58c72 18f 2 0 4 4 1c 0 1 $T0 $ebp = $eip $T0 4 + ^ = $ebp $T0 ^ = $esp $T0 8 + = $L $T0 .cbSavedRegs - = $P $T0 4 + .cbParams + = $ebx $T0 36 - ^ =
STACK WIN 4 58c73 18d 1 0 4 8 1c 0 1 $T0 $ebp = $eip $T0 4 + ^ = $ebp $T0 ^ = $esp $T0 8 + = $L $T0 .cbSavedRegs - = $P $T0 4 + .cbParams + = $ebx $T0 36 - ^ =
STACK WIN 4 58c74 18b 0 0 4 c 1c 0 1 $T0 $ebp = $eip $T0 4 + ^ = $ebp $T0 ^ = $esp $T0 8 + = $L $T0 .cbSavedRegs - = $P $T0 4 + .cbParams + = $ebx $T0 36 - ^ =
STACK WIN 4 58e0a 117 a 0 8 0 8 0 1 $T0 $ebp = $eip $T0 4 + ^ = $ebp $T0 ^ = $esp $T0 8 + = $L $T0 .cbSavedRegs - = $P $T0 4 + .cbParams + =
STACK WIN 4 58e12 10b 2 0 8 4 8 0 1 $T0 $ebp = $eip $T0 4 + ^ = $ebp $T0 ^ = $esp $T0 8 + = $L $T0 .cbSavedRegs - = $P $T0 4 + .cbParams + = $ebx $T0 16 - ^ =
STACK WIN 4 58e13 109 1 0 8 8 8 0 1 $T0 $ebp = $eip $T0 4 + ^ = $ebp $T0 ^ = $esp $T0 8 + = $L $T0 .cbSavedRegs - = $P $T0 4 + .cbParams + = $ebx $T0 16 - ^ =
STACK WIN 4 58e14 107 0 0 8 c 8 0 1 $T0 $ebp = $eip $T0 4 + ^ = $ebp $T0 ^ = $esp $T0 8 + = $L $T0 .cbSavedRegs - = $P $T0 4 + .cbParams + = $ebx $T0 16 - ^ =
STACK WIN 4 58f26 44 6 0 8 0 4 0 1 $T0 $ebp = $eip $T0 4 + ^ = $ebp $T0 ^ = $esp $T0 8 + = $L $T0 .cbSavedRegs - = $P $T0 4 + .cbParams + =
STACK WIN 4 58f3c 2a 0 0 8 4 4 0 1 $T0 $ebp = $eip $T0 4 + ^ = $ebp $T0 ^ = $esp $T0 8 + = $L $T0 .cbSavedRegs - = $P $T0 4 + .cbParams + =
STACK WIN 4 58f6f dc 8 0 8 0 4 0 1 $T0 $ebp = $eip $T0 4 + ^ = $ebp $T0 ^ = $esp $T0 8 + = $L $T0 .cbSavedRegs - = $P $T0 4 + .cbParams + =
STACK WIN 4 58f76 d1 1 0 8 4 4 0 1 $T0 $ebp = $eip $T0 4 + ^ = $ebp $T0 ^ = $esp $T0 8 + = $L $T0 .cbSavedRegs - = $P $T0 4 + .cbParams + = $ebx $T0 12 - ^ =
STACK WIN 4 58f77 cf 0 0 8 8 4 0 1 $T0 $ebp = $eip $T0 4 + ^ = $ebp $T0 ^ = $esp $T0 8 + = $L $T0 .cbSavedRegs - = $P $T0 4 + .cbParams + = $ebx $T0 12 - ^ =
STACK WIN 4 58f91 af 0 0 8 c 4 0 1 $T0 $ebp = $eip $T0 4 + ^ = $ebp $T0 ^ = $esp $T0 8 + = $L $T0 .cbSavedRegs - = $P $T0 4 + .cbParams + = $ebx $T0 12 - ^ =
STACK WIN 4 59050 44 6 0 8 0 4 0 1 $T0 $ebp = $eip $T0 4 + ^ = $ebp $T0 ^ = $esp $T0 8 + = $L $T0 .cbSavedRegs - = $P $T0 4 + .cbParams + =
STACK WIN 4 59066 2a 0 0 8 4 4 0 1 $T0 $ebp = $eip $T0 4 + ^ = $ebp $T0 ^ = $esp $T0 8 + = $L $T0 .cbSavedRegs - = $P $T0 4 + .cbParams + =
STACK WIN 4 59099 211 d 0 8 0 14 0 1 $T0 $ebp = $eip $T0 4 + ^ = $ebp $T0 ^ = $esp $T0 8 + = $L $T0 .cbSavedRegs - = $P $T0 4 + .cbParams + =
STACK WIN 4 590a2 6d 4 0 8 4 14 0 1 $T0 $ebp = $eip $T0 4 + ^ = $ebp $T0 ^ = $esp $T0 8 + = $L $T0 .cbSavedRegs - = $P $T0 4 + .cbParams + =
STACK WIN 4 590a6 68 0 0 8 8 14 0 1 $T0 $ebp = $eip $T0 4 + ^ = $ebp $T0 ^ = $esp $T0 8 + = $L $T0 .cbSavedRegs - = $P $T0 4 + .cbParams + =
STACK WIN 4 592af 44 6 0 8 0 4 0 1 $T0 $ebp = $eip $T0 4 + ^ = $ebp $T0 ^ = $esp $T0 8 + = $L $T0 .cbSavedRegs - = $P $T0 4 + .cbParams + =
STACK WIN 4 592c5 2a 0 0 8 4 4 0 1 $T0 $ebp = $eip $T0 4 + ^ = $ebp $T0 ^ = $esp $T0 8 + = $L $T0 .cbSavedRegs - = $P $T0 4 + .cbParams + =
STACK WIN 4 592f8 b1 11 0 8 0 0 0 1 $T0 $ebp = $eip $T0 4 + ^ = $ebp $T0 ^ = $esp $T0 8 + = $L $T0 .cbSavedRegs - = $P $T0 4 + .cbParams + =
STACK WIN 4 592fe a7 b 0 8 4 0 0 1 $T0 $ebp = $eip $T0 4 + ^ = $ebp $T0 ^ = $esp $T0 8 + = $L $T0 .cbSavedRegs - = $P $T0 4 + .cbParams + = $ebx $T0 8 - ^ =
STACK WIN 4 592ff a5 a 0 8 8 0 0 1 $T0 $ebp = $eip $T0 4 + ^ = $ebp $T0 ^ = $esp $T0 8 + = $L $T0 .cbSavedRegs - = $P $T0 4 + .cbParams + = $ebx $T0 8 - ^ =
STACK WIN 4 59309 9a 0 0 8 c 0 0 1 $T0 $ebp = $eip $T0 4 + ^ = $ebp $T0 ^ = $esp $T0 8 + = $L $T0 .cbSavedRegs - = $P $T0 4 + .cbParams + = $ebx $T0 8 - ^ =
STACK WIN 4 593ae b 5 0 8 0 0 0 1 $T0 $ebp = $eip $T0 4 + ^ = $ebp $T0 ^ = $esp $T0 8 + = $L $T0 .cbSavedRegs - = $P $T0 4 + .cbParams + =
STACK WIN 4 b852 20 5 0 10 0 0 0 1 $T0 $ebp = $eip $T0 4 + ^ = $ebp $T0 ^ = $esp $T0 8 + = $L $T0 .cbSavedRegs - = $P $T0 4 + .cbParams + =
STACK WIN 4 b877 1a 5 0 8 0 0 0 1 $T0 $ebp = $eip $T0 4 + ^ = $ebp $T0 ^ = $esp $T0 8 + = $L $T0 .cbSavedRegs - = $P $T0 4 + .cbParams + =
STACK WIN 4 30b14 3a 8 0 0 0 24 0 1 $T0 $ebp = $eip $T0 4 + ^ = $ebp $T0 ^ = $esp $T0 8 + = $L $T0 .cbSavedRegs - = $P $T0 4 + .cbParams + =
STACK WIN 4 f272 79 9 0 4 0 8 0 1 $T0 $ebp = $eip $T0 4 + ^ = $ebp $T0 ^ = $esp $T0 8 + = $L $T0 .cbSavedRegs - = $P $T0 4 + .cbParams + =
STACK WIN 4 f27a 6d 1 0 4 4 8 0 1 $T0 $ebp = $eip $T0 4 + ^ = $ebp $T0 ^ = $esp $T0 8 + = $L $T0 .cbSavedRegs - = $P $T0 4 + .cbParams + =
STACK WIN 4 f27b 6b 0 0 4 8 8 0 1 $T0 $ebp = $eip $T0 4 + ^ = $ebp $T0 ^ = $esp $T0 8 + = $L $T0 .cbSavedRegs - = $P $T0 4 + .cbParams + =
STACK WIN 4 138fc 172 d 0 10 0 20 0 1 $T0 $ebp = $eip $T0 4 + ^ = $ebp $T0 ^ = $esp $T0 8 + = $L $T0 .cbSavedRegs - = $P $T0 4 + .cbParams + =
STACK WIN 4 13905 165 4 0 10 4 20 0 1 $T0 $ebp = $eip $T0 4 + ^ = $ebp $T0 ^ = $esp $T0 8 + = $L $T0 .cbSavedRegs - = $P $T0 4 + .cbParams + =
STACK WIN 4 13909 160 0 0 10 8 20 0 1 $T0 $ebp = $eip $T0 4 + ^ = $ebp $T0 ^ = $esp $T0 8 + = $L $T0 .cbSavedRegs - = $P $T0 4 + .cbParams + =
STACK WIN 4 34ffe 96 12 0 8 0 8 0 1 $T0 $ebp = $eip $T0 4 + ^ = $ebp $T0 ^ = $esp $T0 8 + = $L $T0 .cbSavedRegs - = $P $T0 4 + .cbParams + =
STACK WIN 4 35006 8a a 0 8 4 8 0 1 $T0 $ebp = $eip $T0 4 + ^ = $ebp $T0 ^ = $esp $T0 8 + = $L $T0 .cbSavedRegs - = $P $T0 4 + .cbParams + = $ebx $T0 16 - ^ =
STACK WIN 4 35010 7f 0 0 8 8 8 0 1 $T0 $ebp = $eip $T0 4 + ^ = $ebp $T0 ^ = $esp $T0 8 + = $L $T0 .cbSavedRegs - = $P $T0 4 + .cbParams + = $ebx $T0 16 - ^ =
STACK WIN 4 360dd 63 a 0 4 0 0 0 1 $T0 $ebp = $eip $T0 4 + ^ = $ebp $T0 ^ = $esp $T0 8 + = $L $T0 .cbSavedRegs - = $P $T0 4 + .cbParams + =
STACK WIN 4 360e3 59 4 0 4 4 0 0 1 $T0 $ebp = $eip $T0 4 + ^ = $ebp $T0 ^ = $esp $T0 8 + = $L $T0 .cbSavedRegs - = $P $T0 4 + .cbParams + = $ebx $T0 8 - ^ =
STACK WIN 4 360e7 54 0 0 4 8 0 0 1 $T0 $ebp = $eip $T0 4 + ^ = $ebp $T0 ^ = $esp $T0 8 + = $L $T0 .cbSavedRegs - = $P $T0 4 + .cbParams + = $ebx $T0 8 - ^ =
STACK WIN 4 360f4 46 0 0 4 c 0 0 1 $T0 $ebp = $eip $T0 4 + ^ = $ebp $T0 ^ = $esp $T0 8 + = $L $T0 .cbSavedRegs - = $P $T0 4 + .cbParams + = $ebx $T0 8 - ^ =
STACK WIN 4 f2ee 40 7 0 4 0 8 0 1 $T0 $ebp = $eip $T0 4 + ^ = $ebp $T0 ^ = $esp $T0 8 + = $L $T0 .cbSavedRegs - = $P $T0 4 + .cbParams + =
STACK WIN 4 176b 75 8 0 4 0 18 0 1 $T0 $ebp = $eip $T0 4 + ^ = $ebp $T0 ^ = $esp $T0 8 + = $L $T0 .cbSavedRegs - = $P $T0 4 + .cbParams + =
STACK WIN 4 17e5 24 5 0 4 0 0 0 1 $T0 $ebp = $eip $T0 4 + ^ = $ebp $T0 ^ = $esp $T0 8 + = $L $T0 .cbSavedRegs - = $P $T0 4 + .cbParams + =
STACK WIN 4 593be 9b 40 0 4 0 18 0 1 $T0 $ebp = $eip $T0 4 + ^ = $ebp $T0 ^ = $esp $T0 8 + = $L $T0 .cbSavedRegs - = $P $T0 4 + .cbParams + =
STACK WIN 4 593ed 68 11 0 4 4 18 0 1 $T0 $ebp = $eip $T0 4 + ^ = $ebp $T0 ^ = $esp $T0 8 + = $L $T0 .cbSavedRegs - = $P $T0 4 + .cbParams + = $ebx $T0 32 - ^ =
STACK WIN 4 593fe 53 0 0 4 8 18 0 1 $T0 $ebp = $eip $T0 4 + ^ = $ebp $T0 ^ = $esp $T0 8 + = $L $T0 .cbSavedRegs - = $P $T0 4 + .cbParams + = $ebx $T0 32 - ^ =
STACK WIN 4 929c f 0 0 0 0 0 0 1 $T2 $esp .cbLocals + .cbSavedRegs + = $T0 .raSearchStart = $eip $T0 ^ = $esp $T0 4 + =
STACK WIN 4 e7ec 82 8 0 8 0 18 0 1 $T0 $ebp = $eip $T0 4 + ^ = $ebp $T0 ^ = $esp $T0 8 + = $L $T0 .cbSavedRegs - = $P $T0 4 + .cbParams + =
STACK WIN 4 10b1c 77 8 0 8 0 18 0 1 $T0 $ebp = $eip $T0 4 + ^ = $ebp $T0 ^ = $esp $T0 8 + = $L $T0 .cbSavedRegs - = $P $T0 4 + .cbParams + =
STACK WIN 4 e866 5d 5 0 8 0 0 0 1 $T0 $ebp = $eip $T0 4 + ^ = $ebp $T0 ^ = $esp $T0 8 + = $L $T0 .cbSavedRegs - = $P $T0 4 + .cbParams + =
STACK WIN 4 e88c 22 0 0 8 4 0 0 1 $T0 $ebp = $eip $T0 4 + ^ = $ebp $T0 ^ = $esp $T0 8 + = $L $T0 .cbSavedRegs - = $P $T0 4 + .cbParams + =
STACK WIN 4 35524 5d 5 0 8 0 0 0 1 $T0 $ebp = $eip $T0 4 + ^ = $ebp $T0 ^ = $esp $T0 8 + = $L $T0 .cbSavedRegs - = $P $T0 4 + .cbParams + =
STACK WIN 4 3554a 22 0 0 8 4 0 0 1 $T0 $ebp = $eip $T0 4 + ^ = $ebp $T0 ^ = $esp $T0 8 + = $L $T0 .cbSavedRegs - = $P $T0 4 + .cbParams + =
STACK WIN 4 3065d 96 8 0 c 0 18 0 1 $T0 $ebp = $eip $T0 4 + ^ = $ebp $T0 ^ = $esp $T0 8 + = $L $T0 .cbSavedRegs - = $P $T0 4 + .cbParams + =
STACK WIN 4 3214e 8e 8 0 c 0 18 0 1 $T0 $ebp = $eip $T0 4 + ^ = $ebp $T0 ^ = $esp $T0 8 + = $L $T0 .cbSavedRegs - = $P $T0 4 + .cbParams + =
STACK WIN 4 10ad9 3b 11 0 8 0 0 0 1 $T0 $ebp = $eip $T0 4 + ^ = $ebp $T0 ^ = $esp $T0 8 + = $L $T0 .cbSavedRegs - = $P $T0 4 + .cbParams + =
STACK WIN 4 10aea 26 0 0 8 4 0 0 1 $T0 $ebp = $eip $T0 4 + ^ = $ebp $T0 ^ = $esp $T0 8 + = $L $T0 .cbSavedRegs - = $P $T0 4 + .cbParams + =
STACK WIN 4 350bf 166 15 0 4 0 b0 0 1 $T0 $ebp = $eip $T0 4 + ^ = $ebp $T0 ^ = $esp $T0 8 + = $L $T0 .cbSavedRegs - = $P $T0 4 + .cbParams + =
STACK WIN 4 350d0 14c 4 0 4 4 b0 0 1 $T0 $ebp = $eip $T0 4 + ^ = $ebp $T0 ^ = $esp $T0 8 + = $L $T0 .cbSavedRegs - = $P $T0 4 + .cbParams + =
STACK WIN 4 350d4 147 0 0 4 8 b0 0 1 $T0 $ebp = $eip $T0 4 + ^ = $ebp $T0 ^ = $esp $T0 8 + = $L $T0 .cbSavedRegs - = $P $T0 4 + .cbParams + =
STACK WIN 4 5945e 121 2c 0 4 0 b0 0 1 $T0 $ebp = $eip $T0 4 + ^ = $ebp $T0 ^ = $esp $T0 8 + = $L $T0 .cbSavedRegs - = $P $T0 4 + .cbParams + =
STACK WIN 4 5946f eb 1b 0 4 4 b0 0 1 $T0 $ebp = $eip $T0 4 + ^ = $ebp $T0 ^ = $esp $T0 8 + = $L $T0 .cbSavedRegs - = $P $T0 4 + .cbParams + =
STACK WIN 4 5948a cf 0 0 4 8 b0 0 1 $T0 $ebp = $eip $T0 4 + ^ = $ebp $T0 ^ = $esp $T0 8 + = $L $T0 .cbSavedRegs - = $P $T0 4 + .cbParams + =
STACK WIN 4 2d36f 46 8 0 c 0 c 0 1 $T0 $ebp = $eip $T0 4 + ^ = $ebp $T0 ^ = $esp $T0 8 + = $L $T0 .cbSavedRegs - = $P $T0 4 + .cbParams + =
STACK WIN 4 59584 38 b 0 8 0 8 0 1 $T0 $ebp = $eip $T0 4 + ^ = $ebp $T0 ^ = $esp $T0 8 + = $L $T0 .cbSavedRegs - = $P $T0 4 + .cbParams + =
STACK WIN 4 5958f 29 0 0 8 4 8 0 1 $T0 $ebp = $eip $T0 4 + ^ = $ebp $T0 ^ = $esp $T0 8 + = $L $T0 .cbSavedRegs - = $P $T0 4 + .cbParams + =
STACK WIN 4 2e9c1 2e7 1d 0 c 0 188 0 1 $T0 $ebp = $eip $T0 4 + ^ = $ebp $T0 ^ = $esp $T0 8 + = $L $T0 .cbSavedRegs - = $P $T0 4 + .cbParams + =
STACK WIN 4 2e9d2 29a c 0 c 4 188 0 1 $T0 $ebp = $eip $T0 4 + ^ = $ebp $T0 ^ = $esp $T0 8 + = $L $T0 .cbSavedRegs - = $P $T0 4 + .cbParams + =
STACK WIN 4 2e9de 28d 0 0 c 8 188 0 1 $T0 $ebp = $eip $T0 4 + ^ = $ebp $T0 ^ = $esp $T0 8 + = $L $T0 .cbSavedRegs - = $P $T0 4 + .cbParams + =
STACK WIN 4 595c1 278 15 0 c 0 180 0 1 $T0 $ebp = $eip $T0 4 + ^ = $ebp $T0 ^ = $esp $T0 8 + = $L $T0 .cbSavedRegs - = $P $T0 4 + .cbParams + =
STACK WIN 4 595d2 25e 4 0 c 4 180 0 1 $T0 $ebp = $eip $T0 4 + ^ = $ebp $T0 ^ = $esp $T0 8 + = $L $T0 .cbSavedRegs - = $P $T0 4 + .cbParams + = $ebx $T0 392 - ^ =
STACK WIN 4 595d6 259 0 0 c 8 180 0 1 $T0 $ebp = $eip $T0 4 + ^ = $ebp $T0 ^ = $esp $T0 8 + = $L $T0 .cbSavedRegs - = $P $T0 4 + .cbParams + = $ebx $T0 392 - ^ =
STACK WIN 4 5961c 20f 0 0 c c 180 0 1 $T0 $ebp = $eip $T0 4 + ^ = $ebp $T0 ^ = $esp $T0 8 + = $L $T0 .cbSavedRegs - = $P $T0 4 + .cbParams + = $ebx $T0 392 - ^ =
STACK WIN 4 5983e 1ee 13 0 8 0 50 0 1 $T0 $ebp = $eip $T0 4 + ^ = $ebp $T0 ^ = $esp $T0 8 + = $L $T0 .cbSavedRegs - = $P $T0 4 + .cbParams + =
STACK WIN 4 59847 1d2 a 0 8 4 50 0 1 $T0 $ebp = $eip $T0 4 + ^ = $ebp $T0 ^ = $esp $T0 8 + = $L $T0 .cbSavedRegs - = $P $T0 4 + .cbParams + = $ebx $T0 88 - ^ =
STACK WIN 4 59848 1d0 9 0 8 8 50 0 1 $T0 $ebp = $eip $T0 4 + ^ = $ebp $T0 ^ = $esp $T0 8 + = $L $T0 .cbSavedRegs - = $P $T0 4 + .cbParams + = $ebx $T0 88 - ^ =
STACK WIN 4 59851 1c6 0 0 8 c 50 0 1 $T0 $ebp = $eip $T0 4 + ^ = $ebp $T0 ^ = $esp $T0 8 + = $L $T0 .cbSavedRegs - = $P $T0 4 + .cbParams + = $ebx $T0 88 - ^ =
STACK WIN 4 a7d4 b7 8 0 4 0 18 0 1 $T0 $ebp = $eip $T0 4 + ^ = $ebp $T0 ^ = $esp $T0 8 + = $L $T0 .cbSavedRegs - = $P $T0 4 + .cbParams + =
STACK WIN 4 a810 67 0 0 4 4 18 0 1 $T0 $ebp = $eip $T0 4 + ^ = $ebp $T0 ^ = $esp $T0 8 + = $L $T0 .cbSavedRegs - = $P $T0 4 + .cbParams + =
STACK WIN 4 a811 61 0 0 4 8 18 0 1 $T0 $ebp = $eip $T0 4 + ^ = $ebp $T0 ^ = $esp $T0 8 + = $L $T0 .cbSavedRegs - = $P $T0 4 + .cbParams + =
STACK WIN 4 59a31 e8 1b 0 4 0 c4 0 1 $T0 $ebp = $eip $T0 4 + ^ = $ebp $T0 ^ = $esp $T0 8 + = $L $T0 .cbSavedRegs - = $P $T0 4 + .cbParams + =
STACK WIN 4 59a42 ce a 0 4 4 c4 0 1 $T0 $ebp = $eip $T0 4 + ^ = $ebp $T0 ^ = $esp $T0 8 + = $L $T0 .cbSavedRegs - = $P $T0 4 + .cbParams + = $ebx $T0 204 - ^ =
STACK WIN 4 59a4b c4 1 0 4 8 c4 0 1 $T0 $ebp = $eip $T0 4 + ^ = $ebp $T0 ^ = $esp $T0 8 + = $L $T0 .cbSavedRegs - = $P $T0 4 + .cbParams + = $ebx $T0 204 - ^ =
STACK WIN 4 59a4c c2 0 0 4 c c4 0 1 $T0 $ebp = $eip $T0 4 + ^ = $ebp $T0 ^ = $esp $T0 8 + = $L $T0 .cbSavedRegs - = $P $T0 4 + .cbParams + = $ebx $T0 204 - ^ =
STACK WIN 4 13093 e 0 0 0 0 0 0 1 $T2 $esp .cbLocals + .cbSavedRegs + = $T0 .raSearchStart = $eip $T0 ^ = $esp $T0 4 + =
STACK WIN 4 59b1e 4f a 0 8 0 0 0 1 $T0 $ebp = $eip $T0 4 + ^ = $ebp $T0 ^ = $esp $T0 8 + = $L $T0 .cbSavedRegs - = $P $T0 4 + .cbParams + =
STACK WIN 4 59b28 41 0 0 8 4 0 0 1 $T0 $ebp = $eip $T0 4 + ^ = $ebp $T0 ^ = $esp $T0 8 + = $L $T0 .cbSavedRegs - = $P $T0 4 + .cbParams + =
STACK WIN 4 59b72 5 0 0 0 0 0 0 1 $T2 $esp .cbLocals + .cbSavedRegs + = $T0 .raSearchStart = $eip $T0 ^ = $esp $T0 4 + =
STACK WIN 4 59b7c 1ea 11 0 0 0 4c 0 1 $T0 $ebp = $eip $T0 4 + ^ = $ebp $T0 ^ = $esp $T0 8 + = $L $T0 .cbSavedRegs - = $P $T0 4 + .cbParams + =
STACK WIN 4 59b8a 1c5 3 0 0 4 4c 0 1 $T0 $ebp = $eip $T0 4 + ^ = $ebp $T0 ^ = $esp $T0 8 + = $L $T0 .cbSavedRegs - = $P $T0 4 + .cbParams + = $ebx $T0 84 - ^ =
STACK WIN 4 59b8d 1c1 0 0 0 8 4c 0 1 $T0 $ebp = $eip $T0 4 + ^ = $ebp $T0 ^ = $esp $T0 8 + = $L $T0 .cbSavedRegs - = $P $T0 4 + .cbParams + = $ebx $T0 84 - ^ =
STACK WIN 4 59c2c fa 0 0 0 c 4c 0 1 $T0 $ebp = $eip $T0 4 + ^ = $ebp $T0 ^ = $esp $T0 8 + = $L $T0 .cbSavedRegs - = $P $T0 4 + .cbParams + = $ebx $T0 84 - ^ =
STACK WIN 4 59d78 2ab 17 0 4 8 244 0 1 $T0 $ebp = $eip $T0 4 + ^ = $ebp $T0 ^ = $esp $T0 8 + = $L $T0 .cbSavedRegs - = $P $T0 4 + .cbParams + =
STACK WIN 4 59dd6 4 0 0 4 8 244 0 1 $T0 $ebp = $T2 $esp = $T1 .raSearchStart = $eip $T1 ^ = $ebp $ebp = $esp $T1 4 + = $L $T0 .cbSavedRegs - = $P $T0 4 + .cbParams + =
STACK WIN 4 59f9f 14 0 0 4 8 244 0 1 $T0 $ebp = $T2 $esp = $T1 .raSearchStart = $eip $T1 ^ = $ebp $ebp = $esp $T1 4 + = $L $T0 .cbSavedRegs - = $P $T0 4 + .cbParams + =
STACK WIN 4 5a0bd 61 8 0 4 0 20 0 1 $T0 $ebp = $eip $T0 4 + ^ = $ebp $T0 ^ = $esp $T0 8 + = $L $T0 .cbSavedRegs - = $P $T0 4 + .cbParams + =
STACK WIN 4 5a0d4 46 0 0 4 4 20 0 1 $T0 $ebp = $eip $T0 4 + ^ = $ebp $T0 ^ = $esp $T0 8 + = $L $T0 .cbSavedRegs - = $P $T0 4 + .cbParams + =
STACK WIN 4 5a123 4e 5 0 4 0 0 0 1 $T0 $ebp = $eip $T0 4 + ^ = $ebp $T0 ^ = $esp $T0 8 + = $L $T0 .cbSavedRegs - = $P $T0 4 + .cbParams + =
STACK WIN 4 5a13c 31 0 0 4 4 0 0 1 $T0 $ebp = $eip $T0 4 + ^ = $ebp $T0 ^ = $esp $T0 8 + = $L $T0 .cbSavedRegs - = $P $T0 4 + .cbParams + =
STACK WIN 4 5a14b 21 0 0 4 8 0 0 1 $T0 $ebp = $eip $T0 4 + ^ = $ebp $T0 ^ = $esp $T0 8 + = $L $T0 .cbSavedRegs - = $P $T0 4 + .cbParams + =
STACK WIN 4 5a176 22 5 0 4 0 0 0 1 $T0 $ebp = $eip $T0 4 + ^ = $ebp $T0 ^ = $esp $T0 8 + = $L $T0 .cbSavedRegs - = $P $T0 4 + .cbParams + =
STACK WIN 4 5a19d 46 6 0 4 0 4 0 1 $T0 $ebp = $eip $T0 4 + ^ = $ebp $T0 ^ = $esp $T0 8 + = $L $T0 .cbSavedRegs - = $P $T0 4 + .cbParams + =
STACK WIN 4 5a1e8 44 8 0 c 0 c 0 1 $T0 $ebp = $eip $T0 4 + ^ = $ebp $T0 ^ = $esp $T0 8 + = $L $T0 .cbSavedRegs - = $P $T0 4 + .cbParams + =
STACK WIN 4 5a231 59 5 0 c 0 0 0 1 $T0 $ebp = $eip $T0 4 + ^ = $ebp $T0 ^ = $esp $T0 8 + = $L $T0 .cbSavedRegs - = $P $T0 4 + .cbParams + =
STACK WIN 4 5a28f 57 5 0 8 0 0 0 1 $T0 $ebp = $eip $T0 4 + ^ = $ebp $T0 ^ = $esp $T0 8 + = $L $T0 .cbSavedRegs - = $P $T0 4 + .cbParams + =
STACK WIN 4 5a2eb 2b 5 0 4 0 0 0 1 $T0 $ebp = $eip $T0 4 + ^ = $ebp $T0 ^ = $esp $T0 8 + = $L $T0 .cbSavedRegs - = $P $T0 4 + .cbParams + =
STACK WIN 4 5a31b 31 5 0 4 0 0 0 1 $T0 $ebp = $eip $T0 4 + ^ = $ebp $T0 ^ = $esp $T0 8 + = $L $T0 .cbSavedRegs - = $P $T0 4 + .cbParams + =
STACK WIN 4 5a351 70 7 0 8 0 0 0 1 $T0 $ebp = $eip $T0 4 + ^ = $ebp $T0 ^ = $esp $T0 8 + = $L $T0 .cbSavedRegs - = $P $T0 4 + .cbParams + =
STACK WIN 4 5a357 66 1 0 8 4 0 0 1 $T0 $ebp = $eip $T0 4 + ^ = $ebp $T0 ^ = $esp $T0 8 + = $L $T0 .cbSavedRegs - = $P $T0 4 + .cbParams + =
STACK WIN 4 5a358 64 0 0 8 8 0 0 1 $T0 $ebp = $eip $T0 4 + ^ = $ebp $T0 ^ = $esp $T0 8 + = $L $T0 .cbSavedRegs - = $P $T0 4 + .cbParams + =
STACK WIN 4 5a3c6 62 7 0 4 0 0 0 1 $T0 $ebp = $eip $T0 4 + ^ = $ebp $T0 ^ = $esp $T0 8 + = $L $T0 .cbSavedRegs - = $P $T0 4 + .cbParams + =
STACK WIN 4 5a3cc 58 1 0 4 4 0 0 1 $T0 $ebp = $eip $T0 4 + ^ = $ebp $T0 ^ = $esp $T0 8 + = $L $T0 .cbSavedRegs - = $P $T0 4 + .cbParams + =
STACK WIN 4 5a3cd 56 0 0 4 8 0 0 1 $T0 $ebp = $eip $T0 4 + ^ = $ebp $T0 ^ = $esp $T0 8 + = $L $T0 .cbSavedRegs - = $P $T0 4 + .cbParams + =
STACK WIN 4 5a42d 4e 9 0 4 0 10 0 1 $T0 $ebp = $eip $T0 4 + ^ = $ebp $T0 ^ = $esp $T0 8 + = $L $T0 .cbSavedRegs - = $P $T0 4 + .cbParams + =
STACK WIN 4 5a436 35 0 0 4 4 10 0 1 $T0 $ebp = $eip $T0 4 + ^ = $ebp $T0 ^ = $esp $T0 8 + = $L $T0 .cbSavedRegs - = $P $T0 4 + .cbParams + =
STACK WIN 4 5a480 e0 9 0 8 0 68 0 1 $T0 $ebp = $eip $T0 4 + ^ = $ebp $T0 ^ = $esp $T0 8 + = $L $T0 .cbSavedRegs - = $P $T0 4 + .cbParams + =
STACK WIN 4 5a489 42 0 0 8 4 68 0 1 $T0 $ebp = $eip $T0 4 + ^ = $ebp $T0 ^ = $esp $T0 8 + = $L $T0 .cbSavedRegs - = $P $T0 4 + .cbParams + =
STACK WIN 4 5a565 3f c 0 c 0 8 0 1 $T0 $ebp = $eip $T0 4 + ^ = $ebp $T0 ^ = $esp $T0 8 + = $L $T0 .cbSavedRegs - = $P $T0 4 + .cbParams + =
STACK WIN 4 5a56d 33 4 0 c 4 8 0 1 $T0 $ebp = $eip $T0 4 + ^ = $ebp $T0 ^ = $esp $T0 8 + = $L $T0 .cbSavedRegs - = $P $T0 4 + .cbParams + =
STACK WIN 4 5a571 2e 0 0 c 8 8 0 1 $T0 $ebp = $eip $T0 4 + ^ = $ebp $T0 ^ = $esp $T0 8 + = $L $T0 .cbSavedRegs - = $P $T0 4 + .cbParams + =
STACK WIN 4 5a5a9 44 6 0 4 0 0 0 1 $T0 $ebp = $eip $T0 4 + ^ = $ebp $T0 ^ = $esp $T0 8 + = $L $T0 .cbSavedRegs - = $P $T0 4 + .cbParams + =
STACK WIN 4 5a5af 3a 0 0 4 4 0 0 1 $T0 $ebp = $eip $T0 4 + ^ = $ebp $T0 ^ = $esp $T0 8 + = $L $T0 .cbSavedRegs - = $P $T0 4 + .cbParams + =
STACK WIN 4 5a5be 1a 0 0 4 8 0 0 1 $T0 $ebp = $eip $T0 4 + ^ = $ebp $T0 ^ = $esp $T0 8 + = $L $T0 .cbSavedRegs - = $P $T0 4 + .cbParams + =
STACK WIN 4 36f5b 460 9 0 4 0 58 0 1 $T0 $ebp = $eip $T0 4 + ^ = $ebp $T0 ^ = $esp $T0 8 + = $L $T0 .cbSavedRegs - = $P $T0 4 + .cbParams + =
STACK WIN 4 36f64 e3 0 0 4 4 58 0 1 $T0 $ebp = $eip $T0 4 + ^ = $ebp $T0 ^ = $esp $T0 8 + = $L $T0 .cbSavedRegs - = $P $T0 4 + .cbParams + = $ebx $T0 96 - ^ =
STACK WIN 4 36f9d 98 0 0 4 8 58 0 1 $T0 $ebp = $eip $T0 4 + ^ = $ebp $T0 ^ = $esp $T0 8 + = $L $T0 .cbSavedRegs - = $P $T0 4 + .cbParams + = $ebx $T0 96 - ^ =
STACK WIN 4 36f9e 96 0 0 4 c 58 0 1 $T0 $ebp = $eip $T0 4 + ^ = $ebp $T0 ^ = $esp $T0 8 + = $L $T0 .cbSavedRegs - = $P $T0 4 + .cbParams + = $ebx $T0 96 - ^ =
STACK WIN 4 323d2 146 a 0 8 0 38 0 1 $T0 $ebp = $eip $T0 4 + ^ = $ebp $T0 ^ = $esp $T0 8 + = $L $T0 .cbSavedRegs - = $P $T0 4 + .cbParams + =
STACK WIN 4 323db 139 1 0 8 4 38 0 1 $T0 $ebp = $eip $T0 4 + ^ = $ebp $T0 ^ = $esp $T0 8 + = $L $T0 .cbSavedRegs - = $P $T0 4 + .cbParams + =
STACK WIN 4 323dc 137 0 0 8 8 38 0 1 $T0 $ebp = $eip $T0 4 + ^ = $ebp $T0 ^ = $esp $T0 8 + = $L $T0 .cbSavedRegs - = $P $T0 4 + .cbParams + =
STACK WIN 4 5a5f2 c22 1d 0 c 0 2c4 0 1 $T0 $ebp = $eip $T0 4 + ^ = $ebp $T0 ^ = $esp $T0 8 + = $L $T0 .cbSavedRegs - = $P $T0 4 + .cbParams + =
STACK WIN 4 5a60f bfc 0 0 c 4 2c4 0 1 $T0 $ebp = $eip $T0 4 + ^ = $ebp $T0 ^ = $esp $T0 8 + = $L $T0 .cbSavedRegs - = $P $T0 4 + .cbParams + = $ebx $T0 716 - ^ =
STACK WIN 4 5a689 b7e 0 0 c 8 2c4 0 1 $T0 $ebp = $eip $T0 4 + ^ = $ebp $T0 ^ = $esp $T0 8 + = $L $T0 .cbSavedRegs - = $P $T0 4 + .cbParams + = $ebx $T0 716 - ^ =
STACK WIN 4 5a690 b76 0 0 c c 2c4 0 1 $T0 $ebp = $eip $T0 4 + ^ = $ebp $T0 ^ = $esp $T0 8 + = $L $T0 .cbSavedRegs - = $P $T0 4 + .cbParams + = $ebx $T0 716 - ^ =
STACK WIN 4 5b219 1d 5 0 4 0 0 0 1 $T0 $ebp = $eip $T0 4 + ^ = $ebp $T0 ^ = $esp $T0 8 + = $L $T0 .cbSavedRegs - = $P $T0 4 + .cbParams + =
STACK WIN 4 217ac 20 5 0 8 0 0 0 1 $T0 $ebp = $eip $T0 4 + ^ = $ebp $T0 ^ = $esp $T0 8 + = $L $T0 .cbSavedRegs - = $P $T0 4 + .cbParams + =
STACK WIN 4 5b23b 4b 8 0 c 0 8 0 1 $T0 $ebp = $eip $T0 4 + ^ = $ebp $T0 ^ = $esp $T0 8 + = $L $T0 .cbSavedRegs - = $P $T0 4 + .cbParams + =
STACK WIN 4 5b243 3f 0 0 c 4 8 0 1 $T0 $ebp = $eip $T0 4 + ^ = $ebp $T0 ^ = $esp $T0 8 + = $L $T0 .cbSavedRegs - = $P $T0 4 + .cbParams + =
STACK WIN 4 2af8f 2c 5 0 4 0 0 0 1 $T0 $ebp = $eip $T0 4 + ^ = $ebp $T0 ^ = $esp $T0 8 + = $L $T0 .cbSavedRegs - = $P $T0 4 + .cbParams + =
STACK WIN 4 30cce 1c 0 0 0 0 0 0 1 $T2 $esp .cbLocals + .cbSavedRegs + = $T0 .raSearchStart = $eip $T0 ^ = $esp $T0 4 + =
STACK WIN 4 360a9 15 5 0 4 0 0 0 1 $T0 $ebp = $eip $T0 4 + ^ = $ebp $T0 ^ = $esp $T0 8 + = $L $T0 .cbSavedRegs - = $P $T0 4 + .cbParams + =
STACK WIN 4 360c3 15 5 0 4 0 0 0 1 $T0 $ebp = $eip $T0 4 + ^ = $ebp $T0 ^ = $esp $T0 8 + = $L $T0 .cbSavedRegs - = $P $T0 4 + .cbParams + =
STACK WIN 4 30bbb 13 5 0 4 0 0 0 1 $T0 $ebp = $eip $T0 4 + ^ = $ebp $T0 ^ = $esp $T0 8 + = $L $T0 .cbSavedRegs - = $P $T0 4 + .cbParams + =
STACK WIN 4 5b28b 1b 5 0 c 0 0 0 1 $T0 $ebp = $eip $T0 4 + ^ = $ebp $T0 ^ = $esp $T0 8 + = $L $T0 .cbSavedRegs - = $P $T0 4 + .cbParams + =
STACK WIN 4 1006c 15 5 0 4 0 0 0 1 $T0 $ebp = $eip $T0 4 + ^ = $ebp $T0 ^ = $esp $T0 8 + = $L $T0 .cbSavedRegs - = $P $T0 4 + .cbParams + =
STACK WIN 4 34e97 15 5 0 4 0 0 0 1 $T0 $ebp = $eip $T0 4 + ^ = $ebp $T0 ^ = $esp $T0 8 + = $L $T0 .cbSavedRegs - = $P $T0 4 + .cbParams + =
STACK WIN 4 2c3be 1b 5 0 c 0 0 0 1 $T0 $ebp = $eip $T0 4 + ^ = $ebp $T0 ^ = $esp $T0 8 + = $L $T0 .cbSavedRegs - = $P $T0 4 + .cbParams + =
STACK WIN 4 354ed 15 5 0 4 0 0 0 1 $T0 $ebp = $eip $T0 4 + ^ = $ebp $T0 ^ = $esp $T0 8 + = $L $T0 .cbSavedRegs - = $P $T0 4 + .cbParams + =
STACK WIN 4 30cfe 15 5 0 4 0 0 0 1 $T0 $ebp = $eip $T0 4 + ^ = $ebp $T0 ^ = $esp $T0 8 + = $L $T0 .cbSavedRegs - = $P $T0 4 + .cbParams + =
STACK WIN 4 32695 13 5 0 4 0 0 0 1 $T0 $ebp = $eip $T0 4 + ^ = $ebp $T0 ^ = $esp $T0 8 + = $L $T0 .cbSavedRegs - = $P $T0 4 + .cbParams + =
STACK WIN 4 5b2ab 1b 5 0 c 0 0 0 1 $T0 $ebp = $eip $T0 4 + ^ = $ebp $T0 ^ = $esp $T0 8 + = $L $T0 .cbSavedRegs - = $P $T0 4 + .cbParams + =
STACK WIN 4 2f827 15 5 0 4 0 0 0 1 $T0 $ebp = $eip $T0 4 + ^ = $ebp $T0 ^ = $esp $T0 8 + = $L $T0 .cbSavedRegs - = $P $T0 4 + .cbParams + =
STACK WIN 4 f726 59 7 0 c 0 0 0 1 $T0 $ebp = $eip $T0 4 + ^ = $ebp $T0 ^ = $esp $T0 8 + = $L $T0 .cbSavedRegs - = $P $T0 4 + .cbParams + =
STACK WIN 4 f72c 4f 1 0 c 4 0 0 1 $T0 $ebp = $eip $T0 4 + ^ = $ebp $T0 ^ = $esp $T0 8 + = $L $T0 .cbSavedRegs - = $P $T0 4 + .cbParams + =
STACK WIN 4 f72d 4d 0 0 c 8 0 0 1 $T0 $ebp = $eip $T0 4 + ^ = $ebp $T0 ^ = $esp $T0 8 + = $L $T0 .cbSavedRegs - = $P $T0 4 + .cbParams + =
STACK WIN 4 f763 59 7 0 c 0 0 0 1 $T0 $ebp = $eip $T0 4 + ^ = $ebp $T0 ^ = $esp $T0 8 + = $L $T0 .cbSavedRegs - = $P $T0 4 + .cbParams + =
STACK WIN 4 f769 4f 1 0 c 4 0 0 1 $T0 $ebp = $eip $T0 4 + ^ = $ebp $T0 ^ = $esp $T0 8 + = $L $T0 .cbSavedRegs - = $P $T0 4 + .cbParams + =
STACK WIN 4 f76a 4d 0 0 c 8 0 0 1 $T0 $ebp = $eip $T0 4 + ^ = $ebp $T0 ^ = $esp $T0 8 + = $L $T0 .cbSavedRegs - = $P $T0 4 + .cbParams + =
STACK WIN 4 1ee95 e2 7 0 10 0 0 0 1 $T0 $ebp = $eip $T0 4 + ^ = $ebp $T0 ^ = $esp $T0 8 + = $L $T0 .cbSavedRegs - = $P $T0 4 + .cbParams + =
STACK WIN 4 1ee9b d8 1 0 10 4 0 0 1 $T0 $ebp = $eip $T0 4 + ^ = $ebp $T0 ^ = $esp $T0 8 + = $L $T0 .cbSavedRegs - = $P $T0 4 + .cbParams + =
STACK WIN 4 1ee9c d6 0 0 10 8 0 0 1 $T0 $ebp = $eip $T0 4 + ^ = $ebp $T0 ^ = $esp $T0 8 + = $L $T0 .cbSavedRegs - = $P $T0 4 + .cbParams + =
STACK WIN 4 f88c 181 13 0 14 0 4 0 1 $T0 $ebp = $eip $T0 4 + ^ = $ebp $T0 ^ = $esp $T0 8 + = $L $T0 .cbSavedRegs - = $P $T0 4 + .cbParams + =
STACK WIN 4 f893 176 c 0 14 4 4 0 1 $T0 $ebp = $eip $T0 4 + ^ = $ebp $T0 ^ = $esp $T0 8 + = $L $T0 .cbSavedRegs - = $P $T0 4 + .cbParams + = $ebx $T0 12 - ^ =
STACK WIN 4 f897 171 8 0 14 8 4 0 1 $T0 $ebp = $eip $T0 4 + ^ = $ebp $T0 ^ = $esp $T0 8 + = $L $T0 .cbSavedRegs - = $P $T0 4 + .cbParams + = $ebx $T0 12 - ^ =
STACK WIN 4 f89f 168 0 0 14 c 4 0 1 $T0 $ebp = $eip $T0 4 + ^ = $ebp $T0 ^ = $esp $T0 8 + = $L $T0 .cbSavedRegs - = $P $T0 4 + .cbParams + = $ebx $T0 12 - ^ =
STACK WIN 4 f6da 63 b 0 8 0 0 0 1 $T0 $ebp = $eip $T0 4 + ^ = $ebp $T0 ^ = $esp $T0 8 + = $L $T0 .cbSavedRegs - = $P $T0 4 + .cbParams + =
STACK WIN 4 f6e5 54 0 0 8 4 0 0 1 $T0 $ebp = $eip $T0 4 + ^ = $ebp $T0 ^ = $esp $T0 8 + = $L $T0 .cbSavedRegs - = $P $T0 4 + .cbParams + = $ebx $T0 8 - ^ =
STACK WIN 4 f7a0 124 22 0 c 0 228 0 1 $T0 $ebp = $eip $T0 4 + ^ = $ebp $T0 ^ = $esp $T0 8 + = $L $T0 .cbSavedRegs - = $P $T0 4 + .cbParams + =
STACK WIN 4 f7b1 10a 11 0 c 4 228 0 1 $T0 $ebp = $eip $T0 4 + ^ = $ebp $T0 ^ = $esp $T0 8 + = $L $T0 .cbSavedRegs - = $P $T0 4 + .cbParams + = $ebx $T0 560 - ^ =
STACK WIN 4 f7b5 105 d 0 c 8 228 0 1 $T0 $ebp = $eip $T0 4 + ^ = $ebp $T0 ^ = $esp $T0 8 + = $L $T0 .cbSavedRegs - = $P $T0 4 + .cbParams + = $ebx $T0 560 - ^ =
STACK WIN 4 f7c2 f7 0 0 c c 228 0 1 $T0 $ebp = $eip $T0 4 + ^ = $ebp $T0 ^ = $esp $T0 8 + = $L $T0 .cbSavedRegs - = $P $T0 4 + .cbParams + = $ebx $T0 560 - ^ =
STACK WIN 4 1c858 6a 3 0 0 0 0 0 1 $T2 $esp .cbLocals + .cbSavedRegs + = $T0 .raSearchStart = $eip $T0 ^ = $esp $T0 4 + =
STACK WIN 4 1c85b 66 0 0 0 4 0 0 1 $T2 $esp .cbLocals + .cbSavedRegs + = $T0 .raSearchStart = $eip $T0 ^ = $esp $T0 4 + =
STACK WIN 4 331f9 23 0 0 0 8 0 0 1 $T2 $esp .cbLocals + .cbSavedRegs + = $T0 .raSearchStart = $eip $T0 ^ = $esp $T0 4 + =
STACK WIN 4 1c8a6 35 7 0 8 0 0 0 1 $T0 $ebp = $eip $T0 4 + ^ = $ebp $T0 ^ = $esp $T0 8 + = $L $T0 .cbSavedRegs - = $P $T0 4 + .cbParams + =
STACK WIN 4 1c8ac 27 1 0 8 4 0 0 1 $T0 $ebp = $eip $T0 4 + ^ = $ebp $T0 ^ = $esp $T0 8 + = $L $T0 .cbSavedRegs - = $P $T0 4 + .cbParams + =
STACK WIN 4 1c8ad 25 0 0 8 8 0 0 1 $T0 $ebp = $eip $T0 4 + ^ = $ebp $T0 ^ = $esp $T0 8 + = $L $T0 .cbSavedRegs - = $P $T0 4 + .cbParams + =
STACK WIN 4 5b2cb 85 1b 0 8 0 34 0 1 $T0 $ebp = $eip $T0 4 + ^ = $ebp $T0 ^ = $esp $T0 8 + = $L $T0 .cbSavedRegs - = $P $T0 4 + .cbParams + =
STACK WIN 4 5b315 2f 0 0 8 4 34 0 1 $T0 $ebp = $eip $T0 4 + ^ = $ebp $T0 ^ = $esp $T0 8 + = $L $T0 .cbSavedRegs - = $P $T0 4 + .cbParams + =
STACK WIN 4 1e361 460 b 0 4 0 44 0 1 $T0 $ebp = $eip $T0 4 + ^ = $ebp $T0 ^ = $esp $T0 8 + = $L $T0 .cbSavedRegs - = $P $T0 4 + .cbParams + =
STACK WIN 4 1e36a 453 2 0 4 4 44 0 1 $T0 $ebp = $eip $T0 4 + ^ = $ebp $T0 ^ = $esp $T0 8 + = $L $T0 .cbSavedRegs - = $P $T0 4 + .cbParams + = $ebx $T0 76 - ^ =
STACK WIN 4 1e36b 451 1 0 4 8 44 0 1 $T0 $ebp = $eip $T0 4 + ^ = $ebp $T0 ^ = $esp $T0 8 + = $L $T0 .cbSavedRegs - = $P $T0 4 + .cbParams + = $ebx $T0 76 - ^ =
STACK WIN 4 1e36c 44f 0 0 4 c 44 0 1 $T0 $ebp = $eip $T0 4 + ^ = $ebp $T0 ^ = $esp $T0 8 + = $L $T0 .cbSavedRegs - = $P $T0 4 + .cbParams + = $ebx $T0 76 - ^ =
STACK WIN 4 1e6e1 119 d 0 4 0 1c 0 1 $T0 $ebp = $eip $T0 4 + ^ = $ebp $T0 ^ = $esp $T0 8 + = $L $T0 .cbSavedRegs - = $P $T0 4 + .cbParams + =
STACK WIN 4 1e6ed 109 1 0 4 4 1c 0 1 $T0 $ebp = $eip $T0 4 + ^ = $ebp $T0 ^ = $esp $T0 8 + = $L $T0 .cbSavedRegs - = $P $T0 4 + .cbParams + = $ebx $T0 36 - ^ =
STACK WIN 4 1e6ee 107 0 0 4 8 1c 0 1 $T0 $ebp = $eip $T0 4 + ^ = $ebp $T0 ^ = $esp $T0 8 + = $L $T0 .cbSavedRegs - = $P $T0 4 + .cbParams + = $ebx $T0 36 - ^ =
STACK WIN 4 1e708 8c 0 0 4 c 1c 0 1 $T0 $ebp = $eip $T0 4 + ^ = $ebp $T0 ^ = $esp $T0 8 + = $L $T0 .cbSavedRegs - = $P $T0 4 + .cbParams + = $ebx $T0 36 - ^ =
STACK WIN 4 35889 29 5 0 4 0 0 0 1 $T0 $ebp = $eip $T0 4 + ^ = $ebp $T0 ^ = $esp $T0 8 + = $L $T0 .cbSavedRegs - = $P $T0 4 + .cbParams + =
STACK WIN 4 1e891 362 7 0 8 0 8 0 1 $T0 $ebp = $eip $T0 4 + ^ = $ebp $T0 ^ = $esp $T0 8 + = $L $T0 .cbSavedRegs - = $P $T0 4 + .cbParams + =
STACK WIN 4 1e8a8 100 0 0 8 4 8 0 1 $T0 $ebp = $eip $T0 4 + ^ = $ebp $T0 ^ = $esp $T0 8 + = $L $T0 .cbSavedRegs - = $P $T0 4 + .cbParams + =
STACK WIN 4 1e8b6 f1 0 0 8 8 8 0 1 $T0 $ebp = $eip $T0 4 + ^ = $ebp $T0 ^ = $esp $T0 8 + = $L $T0 .cbSavedRegs - = $P $T0 4 + .cbParams + =
STACK WIN 4 1f18a 112 10 0 14 0 0 0 1 $T0 $ebp = $eip $T0 4 + ^ = $ebp $T0 ^ = $esp $T0 8 + = $L $T0 .cbSavedRegs - = $P $T0 4 + .cbParams + =
STACK WIN 4 1f193 105 7 0 14 4 0 0 1 $T0 $ebp = $eip $T0 4 + ^ = $ebp $T0 ^ = $esp $T0 8 + = $L $T0 .cbSavedRegs - = $P $T0 4 + .cbParams + =
STACK WIN 4 1f19a fd 0 0 14 8 0 0 1 $T0 $ebp = $eip $T0 4 + ^ = $ebp $T0 ^ = $esp $T0 8 + = $L $T0 .cbSavedRegs - = $P $T0 4 + .cbParams + =
STACK WIN 4 5b355 db 5 0 1c 0 0 0 1 $T0 $ebp = $eip $T0 4 + ^ = $ebp $T0 ^ = $esp $T0 8 + = $L $T0 .cbSavedRegs - = $P $T0 4 + .cbParams + =
STACK WIN 4 5b36b c1 0 0 1c 4 0 0 1 $T0 $ebp = $eip $T0 4 + ^ = $ebp $T0 ^ = $esp $T0 8 + = $L $T0 .cbSavedRegs - = $P $T0 4 + .cbParams + =
STACK WIN 4 5b36c bf 0 0 1c 8 0 0 1 $T0 $ebp = $eip $T0 4 + ^ = $ebp $T0 ^ = $esp $T0 8 + = $L $T0 .cbSavedRegs - = $P $T0 4 + .cbParams + =
STACK WIN 4 3331f 98 a 0 0 0 1c 0 1 $T0 $ebp = $eip $T0 4 + ^ = $ebp $T0 ^ = $esp $T0 8 + = $L $T0 .cbSavedRegs - = $P $T0 4 + .cbParams + =
STACK WIN 4 33328 8d 1 0 0 4 1c 0 1 $T0 $ebp = $eip $T0 4 + ^ = $ebp $T0 ^ = $esp $T0 8 + = $L $T0 .cbSavedRegs - = $P $T0 4 + .cbParams + =
STACK WIN 4 33329 8b 0 0 0 8 1c 0 1 $T0 $ebp = $eip $T0 4 + ^ = $ebp $T0 ^ = $esp $T0 8 + = $L $T0 .cbSavedRegs - = $P $T0 4 + .cbParams + =
STACK WIN 4 f460 3a2 12 0 28 0 1c 0 1 $T0 $ebp = $eip $T0 4 + ^ = $ebp $T0 ^ = $esp $T0 8 + = $L $T0 .cbSavedRegs - = $P $T0 4 + .cbParams + =
STACK WIN 4 f46c 392 6 0 28 4 1c 0 1 $T0 $ebp = $eip $T0 4 + ^ = $ebp $T0 ^ = $esp $T0 8 + = $L $T0 .cbSavedRegs - = $P $T0 4 + .cbParams + = $ebx $T0 36 - ^ =
STACK WIN 4 f46d 390 5 0 28 8 1c 0 1 $T0 $ebp = $eip $T0 4 + ^ = $ebp $T0 ^ = $esp $T0 8 + = $L $T0 .cbSavedRegs - = $P $T0 4 + .cbParams + = $ebx $T0 36 - ^ =
STACK WIN 4 f472 38a 0 0 28 c 1c 0 1 $T0 $ebp = $eip $T0 4 + ^ = $ebp $T0 ^ = $esp $T0 8 + = $L $T0 .cbSavedRegs - = $P $T0 4 + .cbParams + = $ebx $T0 36 - ^ =
STACK WIN 4 f928 18 5 0 4 0 0 0 1 $T0 $ebp = $eip $T0 4 + ^ = $ebp $T0 ^ = $esp $T0 8 + = $L $T0 .cbSavedRegs - = $P $T0 4 + .cbParams + =
STACK WIN 4 f851 47 5 0 10 0 0 0 1 $T0 $ebp = $eip $T0 4 + ^ = $ebp $T0 ^ = $esp $T0 8 + = $L $T0 .cbSavedRegs - = $P $T0 4 + .cbParams + =
STACK WIN 4 1c8db 3b1 28 0 14 0 84 0 1 $T0 $ebp = $eip $T0 4 + ^ = $ebp $T0 ^ = $esp $T0 8 + = $L $T0 .cbSavedRegs - = $P $T0 4 + .cbParams + =
STACK WIN 4 1c8fb 388 8 0 14 4 84 0 1 $T0 $ebp = $eip $T0 4 + ^ = $ebp $T0 ^ = $esp $T0 8 + = $L $T0 .cbSavedRegs - = $P $T0 4 + .cbParams + = $ebx $T0 140 - ^ =
STACK WIN 4 1c8fc 386 7 0 14 8 84 0 1 $T0 $ebp = $eip $T0 4 + ^ = $ebp $T0 ^ = $esp $T0 8 + = $L $T0 .cbSavedRegs - = $P $T0 4 + .cbParams + = $ebx $T0 140 - ^ =
STACK WIN 4 1c903 37e 0 0 14 c 84 0 1 $T0 $ebp = $eip $T0 4 + ^ = $ebp $T0 ^ = $esp $T0 8 + = $L $T0 .cbSavedRegs - = $P $T0 4 + .cbParams + = $ebx $T0 140 - ^ =
STACK WIN 4 5b435 158 1f 0 4 0 21c 0 1 $T0 $ebp = $eip $T0 4 + ^ = $ebp $T0 ^ = $esp $T0 8 + = $L $T0 .cbSavedRegs - = $P $T0 4 + .cbParams + =
STACK WIN 4 5b446 44 e 0 4 4 21c 0 1 $T0 $ebp = $eip $T0 4 + ^ = $ebp $T0 ^ = $esp $T0 8 + = $L $T0 .cbSavedRegs - = $P $T0 4 + .cbParams + = $ebx $T0 548 - ^ =
STACK WIN 4 5b44a 3f a 0 4 8 21c 0 1 $T0 $ebp = $eip $T0 4 + ^ = $ebp $T0 ^ = $esp $T0 8 + = $L $T0 .cbSavedRegs - = $P $T0 4 + .cbParams + = $ebx $T0 548 - ^ =
STACK WIN 4 5b454 34 0 0 4 c 21c 0 1 $T0 $ebp = $eip $T0 4 + ^ = $ebp $T0 ^ = $esp $T0 8 + = $L $T0 .cbSavedRegs - = $P $T0 4 + .cbParams + = $ebx $T0 548 - ^ =
STACK WIN 4 1b42d 157 1f 0 8 0 21c 0 1 $T0 $ebp = $eip $T0 4 + ^ = $ebp $T0 ^ = $esp $T0 8 + = $L $T0 .cbSavedRegs - = $P $T0 4 + .cbParams + =
STACK WIN 4 1b43e 46 e 0 8 4 21c 0 1 $T0 $ebp = $eip $T0 4 + ^ = $ebp $T0 ^ = $esp $T0 8 + = $L $T0 .cbSavedRegs - = $P $T0 4 + .cbParams + = $ebx $T0 548 - ^ =
STACK WIN 4 1b442 41 a 0 8 8 21c 0 1 $T0 $ebp = $eip $T0 4 + ^ = $ebp $T0 ^ = $esp $T0 8 + = $L $T0 .cbSavedRegs - = $P $T0 4 + .cbParams + = $ebx $T0 548 - ^ =
STACK WIN 4 1b44c 36 0 0 8 c 21c 0 1 $T0 $ebp = $eip $T0 4 + ^ = $ebp $T0 ^ = $esp $T0 8 + = $L $T0 .cbSavedRegs - = $P $T0 4 + .cbParams + = $ebx $T0 548 - ^ =
STACK WIN 4 1cac2 217 1e 0 10 0 38 0 1 $T0 $ebp = $eip $T0 4 + ^ = $ebp $T0 ^ = $esp $T0 8 + = $L $T0 .cbSavedRegs - = $P $T0 4 + .cbParams + =
STACK WIN 4 1cad0 200 10 0 10 4 38 0 1 $T0 $ebp = $eip $T0 4 + ^ = $ebp $T0 ^ = $esp $T0 8 + = $L $T0 .cbSavedRegs - = $P $T0 4 + .cbParams + = $ebx $T0 64 - ^ =
STACK WIN 4 1cad4 1fb c 0 10 8 38 0 1 $T0 $ebp = $eip $T0 4 + ^ = $ebp $T0 ^ = $esp $T0 8 + = $L $T0 .cbSavedRegs - = $P $T0 4 + .cbParams + = $ebx $T0 64 - ^ =
STACK WIN 4 1cae0 1ee 0 0 10 c 38 0 1 $T0 $ebp = $eip $T0 4 + ^ = $ebp $T0 ^ = $esp $T0 8 + = $L $T0 .cbSavedRegs - = $P $T0 4 + .cbParams + = $ebx $T0 64 - ^ =
STACK WIN 4 5b592 185 1f 0 8 0 220 0 1 $T0 $ebp = $eip $T0 4 + ^ = $ebp $T0 ^ = $esp $T0 8 + = $L $T0 .cbSavedRegs - = $P $T0 4 + .cbParams + =
STACK WIN 4 5b5a3 5e e 0 8 4 220 0 1 $T0 $ebp = $eip $T0 4 + ^ = $ebp $T0 ^ = $esp $T0 8 + = $L $T0 .cbSavedRegs - = $P $T0 4 + .cbParams + = $ebx $T0 552 - ^ =
STACK WIN 4 5b5a7 59 a 0 8 8 220 0 1 $T0 $ebp = $eip $T0 4 + ^ = $ebp $T0 ^ = $esp $T0 8 + = $L $T0 .cbSavedRegs - = $P $T0 4 + .cbParams + = $ebx $T0 552 - ^ =
STACK WIN 4 5b5b1 4e 0 0 8 c 220 0 1 $T0 $ebp = $eip $T0 4 + ^ = $ebp $T0 ^ = $esp $T0 8 + = $L $T0 .cbSavedRegs - = $P $T0 4 + .cbParams + = $ebx $T0 552 - ^ =
STACK WIN 4 2bb93 14d 1e 0 10 0 28 0 1 $T0 $ebp = $eip $T0 4 + ^ = $ebp $T0 ^ = $esp $T0 8 + = $L $T0 .cbSavedRegs - = $P $T0 4 + .cbParams + =
STACK WIN 4 2bba1 136 10 0 10 4 28 0 1 $T0 $ebp = $eip $T0 4 + ^ = $ebp $T0 ^ = $esp $T0 8 + = $L $T0 .cbSavedRegs - = $P $T0 4 + .cbParams + = $ebx $T0 48 - ^ =
STACK WIN 4 2bba5 131 c 0 10 8 28 0 1 $T0 $ebp = $eip $T0 4 + ^ = $ebp $T0 ^ = $esp $T0 8 + = $L $T0 .cbSavedRegs - = $P $T0 4 + .cbParams + = $ebx $T0 48 - ^ =
STACK WIN 4 2bbb1 124 0 0 10 c 28 0 1 $T0 $ebp = $eip $T0 4 + ^ = $ebp $T0 ^ = $esp $T0 8 + = $L $T0 .cbSavedRegs - = $P $T0 4 + .cbParams + = $ebx $T0 48 - ^ =
STACK WIN 4 32dd3 40 6 0 4 0 0 0 1 $T0 $ebp = $eip $T0 4 + ^ = $ebp $T0 ^ = $esp $T0 8 + = $L $T0 .cbSavedRegs - = $P $T0 4 + .cbParams + =
STACK WIN 4 32dd9 36 0 0 4 4 0 0 1 $T0 $ebp = $eip $T0 4 + ^ = $ebp $T0 ^ = $esp $T0 8 + = $L $T0 .cbSavedRegs - = $P $T0 4 + .cbParams + =
STACK WIN 4 1e793 fa e 0 4 0 c 0 1 $T0 $ebp = $eip $T0 4 + ^ = $ebp $T0 ^ = $esp $T0 8 + = $L $T0 .cbSavedRegs - = $P $T0 4 + .cbParams + =
STACK WIN 4 1e79c ed 5 0 4 4 c 0 1 $T0 $ebp = $eip $T0 4 + ^ = $ebp $T0 ^ = $esp $T0 8 + = $L $T0 .cbSavedRegs - = $P $T0 4 + .cbParams + = $ebx $T0 20 - ^ =
STACK WIN 4 1e79d eb 4 0 4 8 c 0 1 $T0 $ebp = $eip $T0 4 + ^ = $ebp $T0 ^ = $esp $T0 8 + = $L $T0 .cbSavedRegs - = $P $T0 4 + .cbParams + = $ebx $T0 20 - ^ =
STACK WIN 4 1e7a1 e6 0 0 4 c c 0 1 $T0 $ebp = $eip $T0 4 + ^ = $ebp $T0 ^ = $esp $T0 8 + = $L $T0 .cbSavedRegs - = $P $T0 4 + .cbParams + = $ebx $T0 20 - ^ =
STACK WIN 4 1e9c5 fa e 0 4 0 c 0 1 $T0 $ebp = $eip $T0 4 + ^ = $ebp $T0 ^ = $esp $T0 8 + = $L $T0 .cbSavedRegs - = $P $T0 4 + .cbParams + =
STACK WIN 4 1e9ce ed 5 0 4 4 c 0 1 $T0 $ebp = $eip $T0 4 + ^ = $ebp $T0 ^ = $esp $T0 8 + = $L $T0 .cbSavedRegs - = $P $T0 4 + .cbParams + = $ebx $T0 20 - ^ =
STACK WIN 4 1e9cf eb 4 0 4 8 c 0 1 $T0 $ebp = $eip $T0 4 + ^ = $ebp $T0 ^ = $esp $T0 8 + = $L $T0 .cbSavedRegs - = $P $T0 4 + .cbParams + = $ebx $T0 20 - ^ =
STACK WIN 4 1e9d3 e6 0 0 4 c c 0 1 $T0 $ebp = $eip $T0 4 + ^ = $ebp $T0 ^ = $esp $T0 8 + = $L $T0 .cbSavedRegs - = $P $T0 4 + .cbParams + = $ebx $T0 20 - ^ =
STACK WIN 4 5b71c 107 10 0 10 0 c 0 1 $T0 $ebp = $eip $T0 4 + ^ = $ebp $T0 ^ = $esp $T0 8 + = $L $T0 .cbSavedRegs - = $P $T0 4 + .cbParams + =
STACK WIN 4 5b72b f4 1 0 10 4 c 0 1 $T0 $ebp = $eip $T0 4 + ^ = $ebp $T0 ^ = $esp $T0 8 + = $L $T0 .cbSavedRegs - = $P $T0 4 + .cbParams + =
STACK WIN 4 5b72c f1 0 0 10 8 c 0 1 $T0 $ebp = $eip $T0 4 + ^ = $ebp $T0 ^ = $esp $T0 8 + = $L $T0 .cbSavedRegs - = $P $T0 4 + .cbParams + =
STACK WIN 4 2dc81 13a 16 0 8 0 218 0 1 $T0 $ebp = $eip $T0 4 + ^ = $ebp $T0 ^ = $esp $T0 8 + = $L $T0 .cbSavedRegs - = $P $T0 4 + .cbParams + =
STACK WIN 4 2dc92 120 5 0 8 4 218 0 1 $T0 $ebp = $eip $T0 4 + ^ = $ebp $T0 ^ = $esp $T0 8 + = $L $T0 .cbSavedRegs - = $P $T0 4 + .cbParams + = $ebx $T0 544 - ^ =
STACK WIN 4 2dc96 11b 1 0 8 8 218 0 1 $T0 $ebp = $eip $T0 4 + ^ = $ebp $T0 ^ = $esp $T0 8 + = $L $T0 .cbSavedRegs - = $P $T0 4 + .cbParams + = $ebx $T0 544 - ^ =
STACK WIN 4 2dc97 119 0 0 8 c 218 0 1 $T0 $ebp = $eip $T0 4 + ^ = $ebp $T0 ^ = $esp $T0 8 + = $L $T0 .cbSavedRegs - = $P $T0 4 + .cbParams + = $ebx $T0 544 - ^ =
STACK WIN 4 2dc43 3de c 0 8 8 5c 0 1 $T0 $ebp = $eip $T0 4 + ^ = $ebp $T0 ^ = $esp $T0 8 + = $L $T0 .cbSavedRegs - = $P $T0 4 + .cbParams + =
STACK WIN 4 3bde2 e 0 0 8 8 5c 0 1 $T0 $ebp = $T2 $esp = $T1 .raSearchStart = $eip $T1 ^ = $ebp $ebp = $esp $T1 4 + = $L $T0 .cbSavedRegs - = $P $T0 4 + .cbParams + =
STACK WIN 4 358ed 48 6 0 4 0 0 0 1 $T0 $ebp = $eip $T0 4 + ^ = $ebp $T0 ^ = $esp $T0 8 + = $L $T0 .cbSavedRegs - = $P $T0 4 + .cbParams + =
STACK WIN 4 358f3 3e 0 0 4 4 0 0 1 $T0 $ebp = $eip $T0 4 + ^ = $ebp $T0 ^ = $esp $T0 8 + = $L $T0 .cbSavedRegs - = $P $T0 4 + .cbParams + =
STACK WIN 4 1ea7d 155 6 0 4 0 0 0 1 $T0 $ebp = $eip $T0 4 + ^ = $ebp $T0 ^ = $esp $T0 8 + = $L $T0 .cbSavedRegs - = $P $T0 4 + .cbParams + =
STACK WIN 4 1ea83 14b 0 0 4 4 0 0 1 $T0 $ebp = $eip $T0 4 + ^ = $ebp $T0 ^ = $esp $T0 8 + = $L $T0 .cbSavedRegs - = $P $T0 4 + .cbParams + =
STACK WIN 4 1ecd2 12f 6 0 4 0 0 0 1 $T0 $ebp = $eip $T0 4 + ^ = $ebp $T0 ^ = $esp $T0 8 + = $L $T0 .cbSavedRegs - = $P $T0 4 + .cbParams + =
STACK WIN 4 1ecd8 125 0 0 4 4 0 0 1 $T0 $ebp = $eip $T0 4 + ^ = $ebp $T0 ^ = $esp $T0 8 + = $L $T0 .cbSavedRegs - = $P $T0 4 + .cbParams + =
STACK WIN 4 1ecea 112 0 0 4 8 0 0 1 $T0 $ebp = $eip $T0 4 + ^ = $ebp $T0 ^ = $esp $T0 8 + = $L $T0 .cbSavedRegs - = $P $T0 4 + .cbParams + =
STACK WIN 4 5b828 24f b 0 4 0 1c 0 1 $T0 $ebp = $eip $T0 4 + ^ = $ebp $T0 ^ = $esp $T0 8 + = $L $T0 .cbSavedRegs - = $P $T0 4 + .cbParams + =
STACK WIN 4 5b831 242 2 0 4 4 1c 0 1 $T0 $ebp = $eip $T0 4 + ^ = $ebp $T0 ^ = $esp $T0 8 + = $L $T0 .cbSavedRegs - = $P $T0 4 + .cbParams + = $ebx $T0 36 - ^ =
STACK WIN 4 5b832 240 1 0 4 8 1c 0 1 $T0 $ebp = $eip $T0 4 + ^ = $ebp $T0 ^ = $esp $T0 8 + = $L $T0 .cbSavedRegs - = $P $T0 4 + .cbParams + = $ebx $T0 36 - ^ =
STACK WIN 4 5b833 23e 0 0 4 c 1c 0 1 $T0 $ebp = $eip $T0 4 + ^ = $ebp $T0 ^ = $esp $T0 8 + = $L $T0 .cbSavedRegs - = $P $T0 4 + .cbParams + = $ebx $T0 36 - ^ =
STACK WIN 4 1f021 325 e 0 8 0 20 0 1 $T0 $ebp = $eip $T0 4 + ^ = $ebp $T0 ^ = $esp $T0 8 + = $L $T0 .cbSavedRegs - = $P $T0 4 + .cbParams + =
STACK WIN 4 1f02a 318 5 0 8 4 20 0 1 $T0 $ebp = $eip $T0 4 + ^ = $ebp $T0 ^ = $esp $T0 8 + = $L $T0 .cbSavedRegs - = $P $T0 4 + .cbParams + = $ebx $T0 40 - ^ =
STACK WIN 4 1f02b 316 4 0 8 8 20 0 1 $T0 $ebp = $eip $T0 4 + ^ = $ebp $T0 ^ = $esp $T0 8 + = $L $T0 .cbSavedRegs - = $P $T0 4 + .cbParams + = $ebx $T0 40 - ^ =
STACK WIN 4 1f02f 311 0 0 8 c 20 0 1 $T0 $ebp = $eip $T0 4 + ^ = $ebp $T0 ^ = $esp $T0 8 + = $L $T0 .cbSavedRegs - = $P $T0 4 + .cbParams + = $ebx $T0 40 - ^ =
STACK WIN 4 1c7f4 af c 0 4 0 0 0 1 $T0 $ebp = $eip $T0 4 + ^ = $ebp $T0 ^ = $esp $T0 8 + = $L $T0 .cbSavedRegs - = $P $T0 4 + .cbParams + =
STACK WIN 4 1c7fa a5 6 0 4 4 0 0 1 $T0 $ebp = $eip $T0 4 + ^ = $ebp $T0 ^ = $esp $T0 8 + = $L $T0 .cbSavedRegs - = $P $T0 4 + .cbParams + =
STACK WIN 4 1c800 9e 0 0 4 8 0 0 1 $T0 $ebp = $eip $T0 4 + ^ = $ebp $T0 ^ = $esp $T0 8 + = $L $T0 .cbSavedRegs - = $P $T0 4 + .cbParams + =
STACK WIN 4 1e291 166 c 0 4 8 20 0 1 $T0 $ebp = $eip $T0 4 + ^ = $ebp $T0 ^ = $esp $T0 8 + = $L $T0 .cbSavedRegs - = $P $T0 4 + .cbParams + =
STACK WIN 4 3c06f 15 0 0 4 8 20 0 1 $T0 $ebp = $T2 $esp = $T1 .raSearchStart = $eip $T1 ^ = $ebp $ebp = $esp $T1 4 + = $L $T0 .cbSavedRegs - = $P $T0 4 + .cbParams + =
STACK WIN 4 f331 225 26 0 20 0 cc 0 1 $T0 $ebp = $eip $T0 4 + ^ = $ebp $T0 ^ = $esp $T0 8 + = $L $T0 .cbSavedRegs - = $P $T0 4 + .cbParams + =
STACK WIN 4 f34c 201 b 0 20 4 cc 0 1 $T0 $ebp = $eip $T0 4 + ^ = $ebp $T0 ^ = $esp $T0 8 + = $L $T0 .cbSavedRegs - = $P $T0 4 + .cbParams + = $ebx $T0 212 - ^ =
STACK WIN 4 f34d 1ff a 0 20 8 cc 0 1 $T0 $ebp = $eip $T0 4 + ^ = $ebp $T0 ^ = $esp $T0 8 + = $L $T0 .cbSavedRegs - = $P $T0 4 + .cbParams + = $ebx $T0 212 - ^ =
STACK WIN 4 f357 1f4 0 0 20 c cc 0 1 $T0 $ebp = $eip $T0 4 + ^ = $ebp $T0 ^ = $esp $T0 8 + = $L $T0 .cbSavedRegs - = $P $T0 4 + .cbParams + = $ebx $T0 212 - ^ =
STACK WIN 4 32b56 f5 f 0 18 0 0 0 1 $T0 $ebp = $eip $T0 4 + ^ = $ebp $T0 ^ = $esp $T0 8 + = $L $T0 .cbSavedRegs - = $P $T0 4 + .cbParams + =
STACK WIN 4 32b5c eb 9 0 18 4 0 0 1 $T0 $ebp = $eip $T0 4 + ^ = $ebp $T0 ^ = $esp $T0 8 + = $L $T0 .cbSavedRegs - = $P $T0 4 + .cbParams + = $ebx $T0 8 - ^ =
STACK WIN 4 32b60 e6 5 0 18 8 0 0 1 $T0 $ebp = $eip $T0 4 + ^ = $ebp $T0 ^ = $esp $T0 8 + = $L $T0 .cbSavedRegs - = $P $T0 4 + .cbParams + = $ebx $T0 8 - ^ =
STACK WIN 4 32b65 e0 0 0 18 c 0 0 1 $T0 $ebp = $eip $T0 4 + ^ = $ebp $T0 ^ = $esp $T0 8 + = $L $T0 .cbSavedRegs - = $P $T0 4 + .cbParams + = $ebx $T0 8 - ^ =
STACK WIN 4 35d54 4b 5 0 10 0 0 0 1 $T0 $ebp = $eip $T0 4 + ^ = $ebp $T0 ^ = $esp $T0 8 + = $L $T0 .cbSavedRegs - = $P $T0 4 + .cbParams + =
STACK WIN 4 35f21 7d b 0 10 0 0 0 1 $T0 $ebp = $eip $T0 4 + ^ = $ebp $T0 ^ = $esp $T0 8 + = $L $T0 .cbSavedRegs - = $P $T0 4 + .cbParams + =
STACK WIN 4 35f27 73 5 0 10 4 0 0 1 $T0 $ebp = $eip $T0 4 + ^ = $ebp $T0 ^ = $esp $T0 8 + = $L $T0 .cbSavedRegs - = $P $T0 4 + .cbParams + = $ebx $T0 8 - ^ =
STACK WIN 4 35f28 71 4 0 10 8 0 0 1 $T0 $ebp = $eip $T0 4 + ^ = $ebp $T0 ^ = $esp $T0 8 + = $L $T0 .cbSavedRegs - = $P $T0 4 + .cbParams + = $ebx $T0 8 - ^ =
STACK WIN 4 35f2c 6c 0 0 10 c 0 0 1 $T0 $ebp = $eip $T0 4 + ^ = $ebp $T0 ^ = $esp $T0 8 + = $L $T0 .cbSavedRegs - = $P $T0 4 + .cbParams + = $ebx $T0 8 - ^ =
STACK WIN 4 5ba7c 42 5 0 c 0 0 0 1 $T0 $ebp = $eip $T0 4 + ^ = $ebp $T0 ^ = $esp $T0 8 + = $L $T0 .cbSavedRegs - = $P $T0 4 + .cbParams + =
STACK WIN 4 f95d d2 d 0 18 0 0 0 1 $T0 $ebp = $eip $T0 4 + ^ = $ebp $T0 ^ = $esp $T0 8 + = $L $T0 .cbSavedRegs - = $P $T0 4 + .cbParams + =
STACK WIN 4 f963 c8 7 0 18 4 0 0 1 $T0 $ebp = $eip $T0 4 + ^ = $ebp $T0 ^ = $esp $T0 8 + = $L $T0 .cbSavedRegs - = $P $T0 4 + .cbParams + = $ebx $T0 8 - ^ =
STACK WIN 4 f969 c1 1 0 18 8 0 0 1 $T0 $ebp = $eip $T0 4 + ^ = $ebp $T0 ^ = $esp $T0 8 + = $L $T0 .cbSavedRegs - = $P $T0 4 + .cbParams + = $ebx $T0 8 - ^ =
STACK WIN 4 f96a bd 0 0 18 c 0 0 1 $T0 $ebp = $eip $T0 4 + ^ = $ebp $T0 ^ = $esp $T0 8 + = $L $T0 .cbSavedRegs - = $P $T0 4 + .cbParams + = $ebx $T0 8 - ^ =
STACK WIN 4 1ee4c 4b 5 0 10 0 0 0 1 $T0 $ebp = $eip $T0 4 + ^ = $ebp $T0 ^ = $esp $T0 8 + = $L $T0 .cbSavedRegs - = $P $T0 4 + .cbParams + =
STACK WIN 4 1edbd 81 b 0 10 0 0 0 1 $T0 $ebp = $eip $T0 4 + ^ = $ebp $T0 ^ = $esp $T0 8 + = $L $T0 .cbSavedRegs - = $P $T0 4 + .cbParams + =
STACK WIN 4 1edc3 77 5 0 10 4 0 0 1 $T0 $ebp = $eip $T0 4 + ^ = $ebp $T0 ^ = $esp $T0 8 + = $L $T0 .cbSavedRegs - = $P $T0 4 + .cbParams + = $ebx $T0 8 - ^ =
STACK WIN 4 1edc4 75 4 0 10 8 0 0 1 $T0 $ebp = $eip $T0 4 + ^ = $ebp $T0 ^ = $esp $T0 8 + = $L $T0 .cbSavedRegs - = $P $T0 4 + .cbParams + = $ebx $T0 8 - ^ =
STACK WIN 4 1edc8 70 0 0 10 c 0 0 1 $T0 $ebp = $eip $T0 4 + ^ = $ebp $T0 ^ = $esp $T0 8 + = $L $T0 .cbSavedRegs - = $P $T0 4 + .cbParams + = $ebx $T0 8 - ^ =
STACK WIN 4 5bac3 42 5 0 c 0 0 0 1 $T0 $ebp = $eip $T0 4 + ^ = $ebp $T0 ^ = $esp $T0 8 + = $L $T0 .cbSavedRegs - = $P $T0 4 + .cbParams + =
STACK WIN 4 32da7 1c 5 0 c 0 0 0 1 $T0 $ebp = $eip $T0 4 + ^ = $ebp $T0 ^ = $esp $T0 8 + = $L $T0 .cbSavedRegs - = $P $T0 4 + .cbParams + =
STACK WIN 4 5bb0a 1c 5 0 c 0 0 0 1 $T0 $ebp = $eip $T0 4 + ^ = $ebp $T0 ^ = $esp $T0 8 + = $L $T0 .cbSavedRegs - = $P $T0 4 + .cbParams + =
STACK WIN 4 5bb2b 164 37 0 14 0 11c 0 1 $T0 $ebp = $eip $T0 4 + ^ = $ebp $T0 ^ = $esp $T0 8 + = $L $T0 .cbSavedRegs - = $P $T0 4 + .cbParams + =
STACK WIN 4 5bb62 124 0 0 14 4 11c 0 1 $T0 $ebp = $eip $T0 4 + ^ = $ebp $T0 ^ = $esp $T0 8 + = $L $T0 .cbSavedRegs - = $P $T0 4 + .cbParams + = $ebx $T0 292 - ^ =
STACK WIN 4 5bb76 10c 0 0 14 8 11c 0 1 $T0 $ebp = $eip $T0 4 + ^ = $ebp $T0 ^ = $esp $T0 8 + = $L $T0 .cbSavedRegs - = $P $T0 4 + .cbParams + = $ebx $T0 292 - ^ =
STACK WIN 4 5bb77 10a 0 0 14 c 11c 0 1 $T0 $ebp = $eip $T0 4 + ^ = $ebp $T0 ^ = $esp $T0 8 + = $L $T0 .cbSavedRegs - = $P $T0 4 + .cbParams + = $ebx $T0 292 - ^ =
STACK WIN 4 5bc95 185 2d 0 14 0 220 0 1 $T0 $ebp = $eip $T0 4 + ^ = $ebp $T0 ^ = $esp $T0 8 + = $L $T0 .cbSavedRegs - = $P $T0 4 + .cbParams + =
STACK WIN 4 5bcb5 15c d 0 14 4 220 0 1 $T0 $ebp = $eip $T0 4 + ^ = $ebp $T0 ^ = $esp $T0 8 + = $L $T0 .cbSavedRegs - = $P $T0 4 + .cbParams + = $ebx $T0 552 - ^ =
STACK WIN 4 5bcc2 14e 0 0 14 8 220 0 1 $T0 $ebp = $eip $T0 4 + ^ = $ebp $T0 ^ = $esp $T0 8 + = $L $T0 .cbSavedRegs - = $P $T0 4 + .cbParams + = $ebx $T0 552 - ^ =
STACK WIN 4 5bcef 11d 0 0 14 c 220 0 1 $T0 $ebp = $eip $T0 4 + ^ = $ebp $T0 ^ = $esp $T0 8 + = $L $T0 .cbSavedRegs - = $P $T0 4 + .cbParams + = $ebx $T0 552 - ^ =
STACK WIN 4 5be23 13d 18 0 14 0 118 0 1 $T0 $ebp = $eip $T0 4 + ^ = $ebp $T0 ^ = $esp $T0 8 + = $L $T0 .cbSavedRegs - = $P $T0 4 + .cbParams + =
STACK WIN 4 5be3a 11d 1 0 14 4 118 0 1 $T0 $ebp = $eip $T0 4 + ^ = $ebp $T0 ^ = $esp $T0 8 + = $L $T0 .cbSavedRegs - = $P $T0 4 + .cbParams + =
STACK WIN 4 5be3b 11b 0 0 14 8 118 0 1 $T0 $ebp = $eip $T0 4 + ^ = $ebp $T0 ^ = $esp $T0 8 + = $L $T0 .cbSavedRegs - = $P $T0 4 + .cbParams + =
STACK WIN 4 5bf65 14f 18 0 14 0 218 0 1 $T0 $ebp = $eip $T0 4 + ^ = $ebp $T0 ^ = $esp $T0 8 + = $L $T0 .cbSavedRegs - = $P $T0 4 + .cbParams + =
STACK WIN 4 5bf7c 12f 1 0 14 4 218 0 1 $T0 $ebp = $eip $T0 4 + ^ = $ebp $T0 ^ = $esp $T0 8 + = $L $T0 .cbSavedRegs - = $P $T0 4 + .cbParams + =
STACK WIN 4 5bf7d 12d 0 0 14 8 218 0 1 $T0 $ebp = $eip $T0 4 + ^ = $ebp $T0 ^ = $esp $T0 8 + = $L $T0 .cbSavedRegs - = $P $T0 4 + .cbParams + =
STACK WIN 4 21495 1f 5 0 14 0 0 0 1 $T0 $ebp = $eip $T0 4 + ^ = $ebp $T0 ^ = $esp $T0 8 + = $L $T0 .cbSavedRegs - = $P $T0 4 + .cbParams + =
STACK WIN 4 5c0b9 19 5 0 c 0 0 0 1 $T0 $ebp = $eip $T0 4 + ^ = $ebp $T0 ^ = $esp $T0 8 + = $L $T0 .cbSavedRegs - = $P $T0 4 + .cbParams + =
STACK WIN 4 5c0d7 19 5 0 c 0 0 0 1 $T0 $ebp = $eip $T0 4 + ^ = $ebp $T0 ^ = $esp $T0 8 + = $L $T0 .cbSavedRegs - = $P $T0 4 + .cbParams + =
STACK WIN 4 5c0f5 16 5 0 8 0 0 0 1 $T0 $ebp = $eip $T0 4 + ^ = $ebp $T0 ^ = $esp $T0 8 + = $L $T0 .cbSavedRegs - = $P $T0 4 + .cbParams + =
STACK WIN 4 213f8 1f 5 0 14 0 0 0 1 $T0 $ebp = $eip $T0 4 + ^ = $ebp $T0 ^ = $esp $T0 8 + = $L $T0 .cbSavedRegs - = $P $T0 4 + .cbParams + =
STACK WIN 4 332b1 19 5 0 c 0 0 0 1 $T0 $ebp = $eip $T0 4 + ^ = $ebp $T0 ^ = $esp $T0 8 + = $L $T0 .cbSavedRegs - = $P $T0 4 + .cbParams + =
STACK WIN 4 5c110 19 5 0 c 0 0 0 1 $T0 $ebp = $eip $T0 4 + ^ = $ebp $T0 ^ = $esp $T0 8 + = $L $T0 .cbSavedRegs - = $P $T0 4 + .cbParams + =
STACK WIN 4 5c12e 16 5 0 8 0 0 0 1 $T0 $ebp = $eip $T0 4 + ^ = $ebp $T0 ^ = $esp $T0 8 + = $L $T0 .cbSavedRegs - = $P $T0 4 + .cbParams + =
STACK WIN 4 36434 83 2f 0 10 0 108 0 1 $T0 $ebp = $eip $T0 4 + ^ = $ebp $T0 ^ = $esp $T0 8 + = $L $T0 .cbSavedRegs - = $P $T0 4 + .cbParams + =
STACK WIN 4 32730 ce 2f 0 10 0 218 0 1 $T0 $ebp = $eip $T0 4 + ^ = $ebp $T0 ^ = $esp $T0 8 + = $L $T0 .cbSavedRegs - = $P $T0 4 + .cbParams + =
STACK WIN 4 3277e 67 0 0 10 4 218 0 1 $T0 $ebp = $eip $T0 4 + ^ = $ebp $T0 ^ = $esp $T0 8 + = $L $T0 .cbSavedRegs - = $P $T0 4 + .cbParams + =
STACK WIN 4 364a9 19 5 0 c 0 0 0 1 $T0 $ebp = $eip $T0 4 + ^ = $ebp $T0 ^ = $esp $T0 8 + = $L $T0 .cbSavedRegs - = $P $T0 4 + .cbParams + =
STACK WIN 4 2f89a 19 5 0 c 0 0 0 1 $T0 $ebp = $eip $T0 4 + ^ = $ebp $T0 ^ = $esp $T0 8 + = $L $T0 .cbSavedRegs - = $P $T0 4 + .cbParams + =
STACK WIN 4 21f1e 2b9 39 0 c 0 f4 0 1 $T0 $ebp = $eip $T0 4 + ^ = $ebp $T0 ^ = $esp $T0 8 + = $L $T0 .cbSavedRegs - = $P $T0 4 + .cbParams + =
STACK WIN 4 21f3c 292 1b 0 c 4 f4 0 1 $T0 $ebp = $eip $T0 4 + ^ = $ebp $T0 ^ = $esp $T0 8 + = $L $T0 .cbSavedRegs - = $P $T0 4 + .cbParams + = $ebx $T0 252 - ^ =
STACK WIN 4 21f50 27d 7 0 c 8 f4 0 1 $T0 $ebp = $eip $T0 4 + ^ = $ebp $T0 ^ = $esp $T0 8 + = $L $T0 .cbSavedRegs - = $P $T0 4 + .cbParams + = $ebx $T0 252 - ^ =
STACK WIN 4 21f57 275 0 0 c c f4 0 1 $T0 $ebp = $eip $T0 4 + ^ = $ebp $T0 ^ = $esp $T0 8 + = $L $T0 .cbSavedRegs - = $P $T0 4 + .cbParams + = $ebx $T0 252 - ^ =
STACK WIN 4 5c149 100 c 0 8 8 38 0 1 $T0 $ebp = $eip $T0 4 + ^ = $ebp $T0 ^ = $esp $T0 8 + = $L $T0 .cbSavedRegs - = $P $T0 4 + .cbParams + =
STACK WIN 4 5c223 1e 0 0 8 8 38 0 1 $T0 $ebp = $T2 $esp = $T1 .raSearchStart = $eip $T1 ^ = $ebp $ebp = $esp $T1 4 + = $L $T0 .cbSavedRegs - = $P $T0 4 + .cbParams + =
STACK WIN 4 5c269 57 d 0 10 0 0 0 1 $T0 $ebp = $eip $T0 4 + ^ = $ebp $T0 ^ = $esp $T0 8 + = $L $T0 .cbSavedRegs - = $P $T0 4 + .cbParams + =
STACK WIN 4 5c26f 4d 7 0 10 4 0 0 1 $T0 $ebp = $eip $T0 4 + ^ = $ebp $T0 ^ = $esp $T0 8 + = $L $T0 .cbSavedRegs - = $P $T0 4 + .cbParams + = $ebx $T0 8 - ^ =
STACK WIN 4 5c275 46 1 0 10 8 0 0 1 $T0 $ebp = $eip $T0 4 + ^ = $ebp $T0 ^ = $esp $T0 8 + = $L $T0 .cbSavedRegs - = $P $T0 4 + .cbParams + = $ebx $T0 8 - ^ =
STACK WIN 4 5c276 44 0 0 10 c 0 0 1 $T0 $ebp = $eip $T0 4 + ^ = $ebp $T0 ^ = $esp $T0 8 + = $L $T0 .cbSavedRegs - = $P $T0 4 + .cbParams + = $ebx $T0 8 - ^ =
STACK WIN 4 21d8d 5b9 f 0 c 8 98 0 1 $T0 $ebp = $eip $T0 4 + ^ = $ebp $T0 ^ = $esp $T0 8 + = $L $T0 .cbSavedRegs - = $P $T0 4 + .cbParams + =
STACK WIN 4 3c77a 2c 0 0 c 8 98 0 1 $T0 $ebp = $T2 $esp = $T1 .raSearchStart = $eip $T1 ^ = $ebp $ebp = $esp $T1 4 + = $L $T0 .cbSavedRegs - = $P $T0 4 + .cbParams + =
STACK WIN 4 5c2c5 a2 11 0 c 0 10 0 1 $T0 $ebp = $eip $T0 4 + ^ = $ebp $T0 ^ = $esp $T0 8 + = $L $T0 .cbSavedRegs - = $P $T0 4 + .cbParams + =
STACK WIN 4 5c2ce 95 8 0 c 4 10 0 1 $T0 $ebp = $eip $T0 4 + ^ = $ebp $T0 ^ = $esp $T0 8 + = $L $T0 .cbSavedRegs - = $P $T0 4 + .cbParams + = $ebx $T0 24 - ^ =
STACK WIN 4 5c2cf 93 7 0 c 8 10 0 1 $T0 $ebp = $eip $T0 4 + ^ = $ebp $T0 ^ = $esp $T0 8 + = $L $T0 .cbSavedRegs - = $P $T0 4 + .cbParams + = $ebx $T0 24 - ^ =
STACK WIN 4 5c2d6 8b 0 0 c c 10 0 1 $T0 $ebp = $eip $T0 4 + ^ = $ebp $T0 ^ = $esp $T0 8 + = $L $T0 .cbSavedRegs - = $P $T0 4 + .cbParams + = $ebx $T0 24 - ^ =
STACK WIN 4 5c36c fb d 0 c 0 10 0 1 $T0 $ebp = $eip $T0 4 + ^ = $ebp $T0 ^ = $esp $T0 8 + = $L $T0 .cbSavedRegs - = $P $T0 4 + .cbParams + =
STACK WIN 4 5c379 ea 0 0 c 4 10 0 1 $T0 $ebp = $eip $T0 4 + ^ = $ebp $T0 ^ = $esp $T0 8 + = $L $T0 .cbSavedRegs - = $P $T0 4 + .cbParams + =
STACK WIN 4 5c3ce 93 0 0 c 8 10 0 1 $T0 $ebp = $eip $T0 4 + ^ = $ebp $T0 ^ = $esp $T0 8 + = $L $T0 .cbSavedRegs - = $P $T0 4 + .cbParams + =
STACK WIN 4 31385 8e 9 0 10 0 10 0 1 $T0 $ebp = $eip $T0 4 + ^ = $ebp $T0 ^ = $esp $T0 8 + = $L $T0 .cbSavedRegs - = $P $T0 4 + .cbParams + =
STACK WIN 4 3138e 81 0 0 10 4 10 0 1 $T0 $ebp = $eip $T0 4 + ^ = $ebp $T0 ^ = $esp $T0 8 + = $L $T0 .cbSavedRegs - = $P $T0 4 + .cbParams + =
STACK WIN 4 126f2 30 6 0 10 0 0 0 1 $T0 $ebp = $eip $T0 4 + ^ = $ebp $T0 ^ = $esp $T0 8 + = $L $T0 .cbSavedRegs - = $P $T0 4 + .cbParams + =
STACK WIN 4 126f8 26 0 0 10 4 0 0 1 $T0 $ebp = $eip $T0 4 + ^ = $ebp $T0 ^ = $esp $T0 8 + = $L $T0 .cbSavedRegs - = $P $T0 4 + .cbParams + =
STACK WIN 4 a71d 74 8 0 14 0 10 0 1 $T0 $ebp = $eip $T0 4 + ^ = $ebp $T0 ^ = $esp $T0 8 + = $L $T0 .cbSavedRegs - = $P $T0 4 + .cbParams + =
STACK WIN 4 315c4 67 6 0 10 0 0 0 1 $T0 $ebp = $eip $T0 4 + ^ = $ebp $T0 ^ = $esp $T0 8 + = $L $T0 .cbSavedRegs - = $P $T0 4 + .cbParams + =
STACK WIN 4 315ca 5d 0 0 10 4 0 0 1 $T0 $ebp = $eip $T0 4 + ^ = $ebp $T0 ^ = $esp $T0 8 + = $L $T0 .cbSavedRegs - = $P $T0 4 + .cbParams + =
STACK WIN 4 ac4d 37 6 0 0 0 4 0 1 $T0 $ebp = $eip $T0 4 + ^ = $ebp $T0 ^ = $esp $T0 8 + = $L $T0 .cbSavedRegs - = $P $T0 4 + .cbParams + =
STACK WIN 4 ac0f 3e 7 0 4 0 4 0 1 $T0 $ebp = $eip $T0 4 + ^ = $ebp $T0 ^ = $esp $T0 8 + = $L $T0 .cbSavedRegs - = $P $T0 4 + .cbParams + =
STACK WIN 4 ac16 33 0 0 4 4 4 0 1 $T0 $ebp = $eip $T0 4 + ^ = $ebp $T0 ^ = $esp $T0 8 + = $L $T0 .cbSavedRegs - = $P $T0 4 + .cbParams + =
STACK WIN 4 ef3a 1bb c 0 8 8 3c 0 1 $T0 $ebp = $eip $T0 4 + ^ = $ebp $T0 ^ = $esp $T0 8 + = $L $T0 .cbSavedRegs - = $P $T0 4 + .cbParams + =
STACK WIN 4 f049 e 0 0 8 8 3c 0 1 $T0 $ebp = $T2 $esp = $T1 .raSearchStart = $eip $T1 ^ = $ebp $ebp = $esp $T1 4 + = $L $T0 .cbSavedRegs - = $P $T0 4 + .cbParams + =
STACK WIN 4 edd7 db c 0 4 8 34 0 1 $T0 $ebp = $eip $T0 4 + ^ = $ebp $T0 ^ = $esp $T0 8 + = $L $T0 .cbSavedRegs - = $P $T0 4 + .cbParams + =
STACK WIN 4 3c85e e 0 0 4 8 34 0 1 $T0 $ebp = $T2 $esp = $T1 .raSearchStart = $eip $T1 ^ = $ebp $ebp = $esp $T1 4 + = $L $T0 .cbSavedRegs - = $P $T0 4 + .cbParams + =
STACK WIN 4 5c46c 3a 9 0 8 0 0 0 1 $T0 $ebp = $eip $T0 4 + ^ = $ebp $T0 ^ = $esp $T0 8 + = $L $T0 .cbSavedRegs - = $P $T0 4 + .cbParams + =
STACK WIN 4 5c475 2d 0 0 8 4 0 0 1 $T0 $ebp = $eip $T0 4 + ^ = $ebp $T0 ^ = $esp $T0 8 + = $L $T0 .cbSavedRegs - = $P $T0 4 + .cbParams + =
STACK WIN 4 34bef ec 9 0 c 0 34 0 1 $T0 $ebp = $eip $T0 4 + ^ = $ebp $T0 ^ = $esp $T0 8 + = $L $T0 .cbSavedRegs - = $P $T0 4 + .cbParams + =
STACK WIN 4 34bf8 df 0 0 c 4 34 0 1 $T0 $ebp = $eip $T0 4 + ^ = $ebp $T0 ^ = $esp $T0 8 + = $L $T0 .cbSavedRegs - = $P $T0 4 + .cbParams + =
STACK WIN 4 34c1f ac 0 0 c 8 34 0 1 $T0 $ebp = $eip $T0 4 + ^ = $ebp $T0 ^ = $esp $T0 8 + = $L $T0 .cbSavedRegs - = $P $T0 4 + .cbParams + =
STACK WIN 4 32113 3a 6 0 4 0 0 0 1 $T0 $ebp = $eip $T0 4 + ^ = $ebp $T0 ^ = $esp $T0 8 + = $L $T0 .cbSavedRegs - = $P $T0 4 + .cbParams + =
STACK WIN 4 32119 30 0 0 4 4 0 0 1 $T0 $ebp = $eip $T0 4 + ^ = $ebp $T0 ^ = $esp $T0 8 + = $L $T0 .cbSavedRegs - = $P $T0 4 + .cbParams + =
STACK WIN 4 3162f 107 15 0 20 0 10 0 1 $T0 $ebp = $eip $T0 4 + ^ = $ebp $T0 ^ = $esp $T0 8 + = $L $T0 .cbSavedRegs - = $P $T0 4 + .cbParams + =
STACK WIN 4 31638 fa c 0 20 4 10 0 1 $T0 $ebp = $eip $T0 4 + ^ = $ebp $T0 ^ = $esp $T0 8 + = $L $T0 .cbSavedRegs - = $P $T0 4 + .cbParams + = $ebx $T0 24 - ^ =
STACK WIN 4 31639 f8 b 0 20 8 10 0 1 $T0 $ebp = $eip $T0 4 + ^ = $ebp $T0 ^ = $esp $T0 8 + = $L $T0 .cbSavedRegs - = $P $T0 4 + .cbParams + = $ebx $T0 24 - ^ =
STACK WIN 4 31644 ec 0 0 20 c 10 0 1 $T0 $ebp = $eip $T0 4 + ^ = $ebp $T0 ^ = $esp $T0 8 + = $L $T0 .cbSavedRegs - = $P $T0 4 + .cbParams + = $ebx $T0 24 - ^ =
STACK WIN 4 ee81 6d 7 0 4 0 0 0 1 $T0 $ebp = $eip $T0 4 + ^ = $ebp $T0 ^ = $esp $T0 8 + = $L $T0 .cbSavedRegs - = $P $T0 4 + .cbParams + =
STACK WIN 4 ee87 63 1 0 4 4 0 0 1 $T0 $ebp = $eip $T0 4 + ^ = $ebp $T0 ^ = $esp $T0 8 + = $L $T0 .cbSavedRegs - = $P $T0 4 + .cbParams + =
STACK WIN 4 ee88 5f 0 0 4 8 0 0 1 $T0 $ebp = $eip $T0 4 + ^ = $ebp $T0 ^ = $esp $T0 8 + = $L $T0 .cbSavedRegs - = $P $T0 4 + .cbParams + =
STACK WIN 4 34eb1 10a 12 0 8 0 268 0 1 $T0 $ebp = $eip $T0 4 + ^ = $ebp $T0 ^ = $esp $T0 8 + = $L $T0 .cbSavedRegs - = $P $T0 4 + .cbParams + =
STACK WIN 4 34ec2 f0 1 0 8 4 268 0 1 $T0 $ebp = $eip $T0 4 + ^ = $ebp $T0 ^ = $esp $T0 8 + = $L $T0 .cbSavedRegs - = $P $T0 4 + .cbParams + = $ebx $T0 624 - ^ =
STACK WIN 4 34ec3 ee 0 0 8 8 268 0 1 $T0 $ebp = $eip $T0 4 + ^ = $ebp $T0 ^ = $esp $T0 8 + = $L $T0 .cbSavedRegs - = $P $T0 4 + .cbParams + = $ebx $T0 624 - ^ =
STACK WIN 4 34eea c0 0 0 8 c 268 0 1 $T0 $ebp = $eip $T0 4 + ^ = $ebp $T0 ^ = $esp $T0 8 + = $L $T0 .cbSavedRegs - = $P $T0 4 + .cbParams + = $ebx $T0 624 - ^ =
STACK WIN 4 ea7d 4d7 1d 0 18 0 2cc 0 1 $T0 $ebp = $eip $T0 4 + ^ = $ebp $T0 ^ = $esp $T0 8 + = $L $T0 .cbSavedRegs - = $P $T0 4 + .cbParams + =
STACK WIN 4 ea92 4b9 8 0 18 4 2cc 0 1 $T0 $ebp = $eip $T0 4 + ^ = $ebp $T0 ^ = $esp $T0 8 + = $L $T0 .cbSavedRegs - = $P $T0 4 + .cbParams + = $ebx $T0 724 - ^ =
STACK WIN 4 ea99 4b1 1 0 18 8 2cc 0 1 $T0 $ebp = $eip $T0 4 + ^ = $ebp $T0 ^ = $esp $T0 8 + = $L $T0 .cbSavedRegs - = $P $T0 4 + .cbParams + = $ebx $T0 724 - ^ =
STACK WIN 4 ea9a 4af 0 0 18 c 2cc 0 1 $T0 $ebp = $eip $T0 4 + ^ = $ebp $T0 ^ = $esp $T0 8 + = $L $T0 .cbSavedRegs - = $P $T0 4 + .cbParams + = $ebx $T0 724 - ^ =
STACK WIN 4 5c4ab 62 8 0 c 0 8 0 1 $T0 $ebp = $eip $T0 4 + ^ = $ebp $T0 ^ = $esp $T0 8 + = $L $T0 .cbSavedRegs - = $P $T0 4 + .cbParams + =
STACK WIN 4 5c4b3 56 0 0 c 4 8 0 1 $T0 $ebp = $eip $T0 4 + ^ = $ebp $T0 ^ = $esp $T0 8 + = $L $T0 .cbSavedRegs - = $P $T0 4 + .cbParams + =
STACK WIN 4 137d9 139 18 0 8 0 26c 0 1 $T0 $ebp = $eip $T0 4 + ^ = $ebp $T0 ^ = $esp $T0 8 + = $L $T0 .cbSavedRegs - = $P $T0 4 + .cbParams + =
STACK WIN 4 137ea 11f 7 0 8 4 26c 0 1 $T0 $ebp = $eip $T0 4 + ^ = $ebp $T0 ^ = $esp $T0 8 + = $L $T0 .cbSavedRegs - = $P $T0 4 + .cbParams + =
STACK WIN 4 137f1 117 0 0 8 8 26c 0 1 $T0 $ebp = $eip $T0 4 + ^ = $ebp $T0 ^ = $esp $T0 8 + = $L $T0 .cbSavedRegs - = $P $T0 4 + .cbParams + =
STACK WIN 4 eee1 1a 5 0 8 0 0 0 1 $T0 $ebp = $eip $T0 4 + ^ = $ebp $T0 ^ = $esp $T0 8 + = $L $T0 .cbSavedRegs - = $P $T0 4 + .cbParams + =
STACK WIN 4 5c512 137 1c 0 18 0 268 0 1 $T0 $ebp = $eip $T0 4 + ^ = $ebp $T0 ^ = $esp $T0 8 + = $L $T0 .cbSavedRegs - = $P $T0 4 + .cbParams + =
STACK WIN 4 5c523 11d b 0 18 4 268 0 1 $T0 $ebp = $eip $T0 4 + ^ = $ebp $T0 ^ = $esp $T0 8 + = $L $T0 .cbSavedRegs - = $P $T0 4 + .cbParams + = $ebx $T0 624 - ^ =
STACK WIN 4 5c524 11b a 0 18 8 268 0 1 $T0 $ebp = $eip $T0 4 + ^ = $ebp $T0 ^ = $esp $T0 8 + = $L $T0 .cbSavedRegs - = $P $T0 4 + .cbParams + = $ebx $T0 624 - ^ =
STACK WIN 4 5c52e 110 0 0 18 c 268 0 1 $T0 $ebp = $eip $T0 4 + ^ = $ebp $T0 ^ = $esp $T0 8 + = $L $T0 .cbSavedRegs - = $P $T0 4 + .cbParams + = $ebx $T0 624 - ^ =
STACK WIN 4 180e 1cd c 0 14 8 30 0 1 $T0 $ebp = $eip $T0 4 + ^ = $ebp $T0 ^ = $esp $T0 8 + = $L $T0 .cbSavedRegs - = $P $T0 4 + .cbParams + =
STACK WIN 4 18ef e 0 0 14 8 30 0 1 $T0 $ebp = $T2 $esp = $T1 .raSearchStart = $eip $T1 ^ = $ebp $ebp = $esp $T1 4 + = $L $T0 .cbSavedRegs - = $P $T0 4 + .cbParams + =
STACK WIN 4 1921 4 0 0 14 8 30 0 1 $T0 $ebp = $T2 $esp = $T1 .raSearchStart = $eip $T1 ^ = $ebp $ebp = $esp $T1 4 + = $L $T0 .cbSavedRegs - = $P $T0 4 + .cbParams + =
STACK WIN 4 10d87 140 c 0 14 8 28 0 1 $T0 $ebp = $eip $T0 4 + ^ = $ebp $T0 ^ = $esp $T0 8 + = $L $T0 .cbSavedRegs - = $P $T0 4 + .cbParams + =
STACK WIN 4 3cac5 4 0 0 14 8 28 0 1 $T0 $ebp = $T2 $esp = $T1 .raSearchStart = $eip $T1 ^ = $ebp $ebp = $esp $T1 4 + = $L $T0 .cbSavedRegs - = $P $T0 4 + .cbParams + =
STACK WIN 4 32044 98 9 0 4 0 20 0 1 $T0 $ebp = $eip $T0 4 + ^ = $ebp $T0 ^ = $esp $T0 8 + = $L $T0 .cbSavedRegs - = $P $T0 4 + .cbParams + =
STACK WIN 4 3204d 8b 0 0 4 4 20 0 1 $T0 $ebp = $eip $T0 4 + ^ = $ebp $T0 ^ = $esp $T0 8 + = $L $T0 .cbSavedRegs - = $P $T0 4 + .cbParams + =
STACK WIN 4 3207f 4f 0 0 4 8 20 0 1 $T0 $ebp = $eip $T0 4 + ^ = $ebp $T0 ^ = $esp $T0 8 + = $L $T0 .cbSavedRegs - = $P $T0 4 + .cbParams + =
STACK WIN 4 10b8e 122 8 0 10 0 28 0 1 $T0 $ebp = $eip $T0 4 + ^ = $ebp $T0 ^ = $esp $T0 8 + = $L $T0 .cbSavedRegs - = $P $T0 4 + .cbParams + =
STACK WIN 4 10bae ef 0 0 10 4 28 0 1 $T0 $ebp = $eip $T0 4 + ^ = $ebp $T0 ^ = $esp $T0 8 + = $L $T0 .cbSavedRegs - = $P $T0 4 + .cbParams + =
STACK WIN 4 10baf ed 0 0 10 8 28 0 1 $T0 $ebp = $eip $T0 4 + ^ = $ebp $T0 ^ = $esp $T0 8 + = $L $T0 .cbSavedRegs - = $P $T0 4 + .cbParams + =
STACK WIN 4 21057 e3 9 0 14 0 28 0 1 $T0 $ebp = $eip $T0 4 + ^ = $ebp $T0 ^ = $esp $T0 8 + = $L $T0 .cbSavedRegs - = $P $T0 4 + .cbParams + =
STACK WIN 4 21060 d6 0 0 14 4 28 0 1 $T0 $ebp = $eip $T0 4 + ^ = $ebp $T0 ^ = $esp $T0 8 + = $L $T0 .cbSavedRegs - = $P $T0 4 + .cbParams + =
STACK WIN 4 10c6d 11d 22 0 8 0 c0 0 1 $T0 $ebp = $eip $T0 4 + ^ = $ebp $T0 ^ = $esp $T0 8 + = $L $T0 .cbSavedRegs - = $P $T0 4 + .cbParams + =
STACK WIN 4 10c7e 103 11 0 8 4 c0 0 1 $T0 $ebp = $eip $T0 4 + ^ = $ebp $T0 ^ = $esp $T0 8 + = $L $T0 .cbSavedRegs - = $P $T0 4 + .cbParams + = $ebx $T0 200 - ^ =
STACK WIN 4 10c8f f1 0 0 8 8 c0 0 1 $T0 $ebp = $eip $T0 4 + ^ = $ebp $T0 ^ = $esp $T0 8 + = $L $T0 .cbSavedRegs - = $P $T0 4 + .cbParams + = $ebx $T0 200 - ^ =
STACK WIN 4 10c99 d6 0 0 8 c c0 0 1 $T0 $ebp = $eip $T0 4 + ^ = $ebp $T0 ^ = $esp $T0 8 + = $L $T0 .cbSavedRegs - = $P $T0 4 + .cbParams + = $ebx $T0 200 - ^ =
STACK WIN 4 31c45 7c 8 0 10 0 30 0 1 $T0 $ebp = $eip $T0 4 + ^ = $ebp $T0 ^ = $esp $T0 8 + = $L $T0 .cbSavedRegs - = $P $T0 4 + .cbParams + =
STACK WIN 4 31cb8 88 8 0 10 0 30 0 1 $T0 $ebp = $eip $T0 4 + ^ = $ebp $T0 ^ = $esp $T0 8 + = $L $T0 .cbSavedRegs - = $P $T0 4 + .cbParams + =
STACK WIN 4 31cd2 10 0 0 10 4 30 0 1 $T0 $ebp = $eip $T0 4 + ^ = $ebp $T0 ^ = $esp $T0 8 + = $L $T0 .cbSavedRegs - = $P $T0 4 + .cbParams + =
STACK WIN 4 12641 6d 7 0 4 0 8 0 1 $T0 $ebp = $eip $T0 4 + ^ = $ebp $T0 ^ = $esp $T0 8 + = $L $T0 .cbSavedRegs - = $P $T0 4 + .cbParams + =
STACK WIN 4 32361 8a 8 0 14 0 18 0 1 $T0 $ebp = $eip $T0 4 + ^ = $ebp $T0 ^ = $esp $T0 8 + = $L $T0 .cbSavedRegs - = $P $T0 4 + .cbParams + =
STACK WIN 4 3237e 5f 0 0 14 4 18 0 1 $T0 $ebp = $eip $T0 4 + ^ = $ebp $T0 ^ = $esp $T0 8 + = $L $T0 .cbSavedRegs - = $P $T0 4 + .cbParams + =
STACK WIN 4 2f569 aa 8 0 18 0 10 0 1 $T0 $ebp = $eip $T0 4 + ^ = $ebp $T0 ^ = $esp $T0 8 + = $L $T0 .cbSavedRegs - = $P $T0 4 + .cbParams + =
STACK WIN 4 2f5ad 41 0 0 18 4 10 0 1 $T0 $ebp = $eip $T0 4 + ^ = $ebp $T0 ^ = $esp $T0 8 + = $L $T0 .cbSavedRegs - = $P $T0 4 + .cbParams + =
STACK WIN 4 322fb 6f 8 0 14 0 10 0 1 $T0 $ebp = $eip $T0 4 + ^ = $ebp $T0 ^ = $esp $T0 8 + = $L $T0 .cbSavedRegs - = $P $T0 4 + .cbParams + =
STACK WIN 4 10a09 40 8 0 8 0 20 0 1 $T0 $ebp = $eip $T0 4 + ^ = $ebp $T0 ^ = $esp $T0 8 + = $L $T0 .cbSavedRegs - = $P $T0 4 + .cbParams + =
STACK WIN 4 5c64e 96 c 0 c 8 34 0 1 $T0 $ebp = $eip $T0 4 + ^ = $ebp $T0 ^ = $esp $T0 8 + = $L $T0 .cbSavedRegs - = $P $T0 4 + .cbParams + =
STACK WIN 4 5c6de b 0 0 c 8 34 0 1 $T0 $ebp = $T2 $esp = $T1 .raSearchStart = $eip $T1 ^ = $ebp $ebp = $esp $T1 4 + = $L $T0 .cbSavedRegs - = $P $T0 4 + .cbParams + =
STACK WIN 4 2bd84 33 6 0 c 0 0 0 1 $T0 $ebp = $eip $T0 4 + ^ = $ebp $T0 ^ = $esp $T0 8 + = $L $T0 .cbSavedRegs - = $P $T0 4 + .cbParams + =
STACK WIN 4 2bd8a 29 0 0 c 4 0 0 1 $T0 $ebp = $eip $T0 4 + ^ = $ebp $T0 ^ = $esp $T0 8 + = $L $T0 .cbSavedRegs - = $P $T0 4 + .cbParams + =
STACK WIN 4 2bcfb 9b 13 0 14 0 c 0 1 $T0 $ebp = $eip $T0 4 + ^ = $ebp $T0 ^ = $esp $T0 8 + = $L $T0 .cbSavedRegs - = $P $T0 4 + .cbParams + =
STACK WIN 4 2bd0d 85 1 0 14 4 c 0 1 $T0 $ebp = $eip $T0 4 + ^ = $ebp $T0 ^ = $esp $T0 8 + = $L $T0 .cbSavedRegs - = $P $T0 4 + .cbParams + = $ebx $T0 20 - ^ =
STACK WIN 4 2bd0e 83 0 0 14 8 c 0 1 $T0 $ebp = $eip $T0 4 + ^ = $ebp $T0 ^ = $esp $T0 8 + = $L $T0 .cbSavedRegs - = $P $T0 4 + .cbParams + = $ebx $T0 20 - ^ =
STACK WIN 4 5c701 9b 13 0 14 0 c 0 1 $T0 $ebp = $eip $T0 4 + ^ = $ebp $T0 ^ = $esp $T0 8 + = $L $T0 .cbSavedRegs - = $P $T0 4 + .cbParams + =
STACK WIN 4 5c713 85 1 0 14 4 c 0 1 $T0 $ebp = $eip $T0 4 + ^ = $ebp $T0 ^ = $esp $T0 8 + = $L $T0 .cbSavedRegs - = $P $T0 4 + .cbParams + = $ebx $T0 20 - ^ =
STACK WIN 4 5c714 83 0 0 14 8 c 0 1 $T0 $ebp = $eip $T0 4 + ^ = $ebp $T0 ^ = $esp $T0 8 + = $L $T0 .cbSavedRegs - = $P $T0 4 + .cbParams + = $ebx $T0 20 - ^ =
STACK WIN 4 300da 29 7 0 4 0 8 0 1 $T0 $ebp = $eip $T0 4 + ^ = $ebp $T0 ^ = $esp $T0 8 + = $L $T0 .cbSavedRegs - = $P $T0 4 + .cbParams + =
STACK WIN 4 2de51 9c c 0 14 8 20 0 1 $T0 $ebp = $eip $T0 4 + ^ = $ebp $T0 ^ = $esp $T0 8 + = $L $T0 .cbSavedRegs - = $P $T0 4 + .cbParams + =
STACK WIN 4 2dda5 99 c 0 14 8 20 0 1 $T0 $ebp = $eip $T0 4 + ^ = $ebp $T0 ^ = $esp $T0 8 + = $L $T0 .cbSavedRegs - = $P $T0 4 + .cbParams + =
STACK WIN 4 5c7a1 51 7 0 c 0 8 0 1 $T0 $ebp = $eip $T0 4 + ^ = $ebp $T0 ^ = $esp $T0 8 + = $L $T0 .cbSavedRegs - = $P $T0 4 + .cbParams + =
STACK WIN 4 5c7f7 c8 7 0 8 0 8 0 1 $T0 $ebp = $eip $T0 4 + ^ = $ebp $T0 ^ = $esp $T0 8 + = $L $T0 .cbSavedRegs - = $P $T0 4 + .cbParams + =
STACK WIN 4 5c82d 8d 0 0 8 4 8 0 1 $T0 $ebp = $eip $T0 4 + ^ = $ebp $T0 ^ = $esp $T0 8 + = $L $T0 .cbSavedRegs - = $P $T0 4 + .cbParams + =
STACK WIN 4 5c82e 8b 0 0 8 8 8 0 1 $T0 $ebp = $eip $T0 4 + ^ = $ebp $T0 ^ = $esp $T0 8 + = $L $T0 .cbSavedRegs - = $P $T0 4 + .cbParams + =
STACK WIN 4 5c8c4 20 5 0 8 0 0 0 1 $T0 $ebp = $eip $T0 4 + ^ = $ebp $T0 ^ = $esp $T0 8 + = $L $T0 .cbSavedRegs - = $P $T0 4 + .cbParams + =
STACK WIN 4 10e51 de 9 0 4 0 10 0 1 $T0 $ebp = $eip $T0 4 + ^ = $ebp $T0 ^ = $esp $T0 8 + = $L $T0 .cbSavedRegs - = $P $T0 4 + .cbParams + =
STACK WIN 4 10e5a d1 0 0 4 4 10 0 1 $T0 $ebp = $eip $T0 4 + ^ = $ebp $T0 ^ = $esp $T0 8 + = $L $T0 .cbSavedRegs - = $P $T0 4 + .cbParams + = $ebx $T0 24 - ^ =
STACK WIN 4 322bc 67 12 0 14 0 14 0 1 $T0 $ebp = $eip $T0 4 + ^ = $ebp $T0 ^ = $esp $T0 8 + = $L $T0 .cbSavedRegs - = $P $T0 4 + .cbParams + =
STACK WIN 4 322ce 51 0 0 14 4 14 0 1 $T0 $ebp = $eip $T0 4 + ^ = $ebp $T0 ^ = $esp $T0 8 + = $L $T0 .cbSavedRegs - = $P $T0 4 + .cbParams + =
STACK WIN 4 10a77 3d 7 0 8 0 8 0 1 $T0 $ebp = $eip $T0 4 + ^ = $ebp $T0 ^ = $esp $T0 8 + = $L $T0 .cbSavedRegs - = $P $T0 4 + .cbParams + =
STACK WIN 4 bada c8 9 0 c 0 24 0 1 $T0 $ebp = $eip $T0 4 + ^ = $ebp $T0 ^ = $esp $T0 8 + = $L $T0 .cbSavedRegs - = $P $T0 4 + .cbParams + =
STACK WIN 4 bae3 bb 0 0 c 4 24 0 1 $T0 $ebp = $eip $T0 4 + ^ = $ebp $T0 ^ = $esp $T0 8 + = $L $T0 .cbSavedRegs - = $P $T0 4 + .cbParams + =
STACK WIN 4 bb47 3c 0 0 c 8 24 0 1 $T0 $ebp = $eip $T0 4 + ^ = $ebp $T0 ^ = $esp $T0 8 + = $L $T0 .cbSavedRegs - = $P $T0 4 + .cbParams + =
STACK WIN 4 b896 86 7 0 18 0 8 0 1 $T0 $ebp = $eip $T0 4 + ^ = $ebp $T0 ^ = $esp $T0 8 + = $L $T0 .cbSavedRegs - = $P $T0 4 + .cbParams + =
STACK WIN 4 35971 44 8 0 8 0 c 0 1 $T0 $ebp = $eip $T0 4 + ^ = $ebp $T0 ^ = $esp $T0 8 + = $L $T0 .cbSavedRegs - = $P $T0 4 + .cbParams + =
STACK WIN 4 b974 50 d 0 4 0 0 0 1 $T0 $ebp = $eip $T0 4 + ^ = $ebp $T0 ^ = $esp $T0 8 + = $L $T0 .cbSavedRegs - = $P $T0 4 + .cbParams + =
STACK WIN 4 b97a 46 7 0 4 4 0 0 1 $T0 $ebp = $eip $T0 4 + ^ = $ebp $T0 ^ = $esp $T0 8 + = $L $T0 .cbSavedRegs - = $P $T0 4 + .cbParams + =
STACK WIN 4 b981 3e 0 0 4 8 0 0 1 $T0 $ebp = $eip $T0 4 + ^ = $ebp $T0 ^ = $esp $T0 8 + = $L $T0 .cbSavedRegs - = $P $T0 4 + .cbParams + =
STACK WIN 4 938e 153 d 0 18 0 30 0 1 $T0 $ebp = $eip $T0 4 + ^ = $ebp $T0 ^ = $esp $T0 8 + = $L $T0 .cbSavedRegs - = $P $T0 4 + .cbParams + =
STACK WIN 4 939a 143 1 0 18 4 30 0 1 $T0 $ebp = $eip $T0 4 + ^ = $ebp $T0 ^ = $esp $T0 8 + = $L $T0 .cbSavedRegs - = $P $T0 4 + .cbParams + = $ebx $T0 56 - ^ =
STACK WIN 4 939b 141 0 0 18 8 30 0 1 $T0 $ebp = $eip $T0 4 + ^ = $ebp $T0 ^ = $esp $T0 8 + = $L $T0 .cbSavedRegs - = $P $T0 4 + .cbParams + = $ebx $T0 56 - ^ =
STACK WIN 4 9402 1d 0 0 18 c 30 0 1 $T0 $ebp = $eip $T0 4 + ^ = $ebp $T0 ^ = $esp $T0 8 + = $L $T0 .cbSavedRegs - = $P $T0 4 + .cbParams + = $ebx $T0 56 - ^ =
STACK WIN 4 bb76 6f c 0 c 0 8 0 1 $T0 $ebp = $eip $T0 4 + ^ = $ebp $T0 ^ = $esp $T0 8 + = $L $T0 .cbSavedRegs - = $P $T0 4 + .cbParams + =
STACK WIN 4 bb82 5f 0 0 c 4 8 0 1 $T0 $ebp = $eip $T0 4 + ^ = $ebp $T0 ^ = $esp $T0 8 + = $L $T0 .cbSavedRegs - = $P $T0 4 + .cbParams + =
STACK WIN 4 b905 1f 5 0 14 0 0 0 1 $T0 $ebp = $eip $T0 4 + ^ = $ebp $T0 ^ = $esp $T0 8 + = $L $T0 .cbSavedRegs - = $P $T0 4 + .cbParams + =
STACK WIN 4 945c 73 8 0 18 0 8 0 1 $T0 $ebp = $eip $T0 4 + ^ = $ebp $T0 ^ = $esp $T0 8 + = $L $T0 .cbSavedRegs - = $P $T0 4 + .cbParams + =
STACK WIN 4 9464 67 0 0 18 4 8 0 1 $T0 $ebp = $eip $T0 4 + ^ = $ebp $T0 ^ = $esp $T0 8 + = $L $T0 .cbSavedRegs - = $P $T0 4 + .cbParams + =
STACK WIN 4 110f5 f3 e 0 c 0 64 0 1 $T0 $ebp = $eip $T0 4 + ^ = $ebp $T0 ^ = $esp $T0 8 + = $L $T0 .cbSavedRegs - = $P $T0 4 + .cbParams + =
STACK WIN 4 11102 e2 1 0 c 4 64 0 1 $T0 $ebp = $eip $T0 4 + ^ = $ebp $T0 ^ = $esp $T0 8 + = $L $T0 .cbSavedRegs - = $P $T0 4 + .cbParams + =
STACK WIN 4 11103 e0 0 0 c 8 64 0 1 $T0 $ebp = $eip $T0 4 + ^ = $ebp $T0 ^ = $esp $T0 8 + = $L $T0 .cbSavedRegs - = $P $T0 4 + .cbParams + =
STACK WIN 4 31f31 25a 9 0 4 0 4c 0 1 $T0 $ebp = $eip $T0 4 + ^ = $ebp $T0 ^ = $esp $T0 8 + = $L $T0 .cbSavedRegs - = $P $T0 4 + .cbParams + =
STACK WIN 4 31f3a 11e 0 0 4 4 4c 0 1 $T0 $ebp = $eip $T0 4 + ^ = $ebp $T0 ^ = $esp $T0 8 + = $L $T0 .cbSavedRegs - = $P $T0 4 + .cbParams + = $ebx $T0 84 - ^ =
STACK WIN 4 31f73 d3 0 0 4 8 4c 0 1 $T0 $ebp = $eip $T0 4 + ^ = $ebp $T0 ^ = $esp $T0 8 + = $L $T0 .cbSavedRegs - = $P $T0 4 + .cbParams + = $ebx $T0 84 - ^ =
STACK WIN 4 31f7a cb 0 0 4 c 4c 0 1 $T0 $ebp = $eip $T0 4 + ^ = $ebp $T0 ^ = $esp $T0 8 + = $L $T0 .cbSavedRegs - = $P $T0 4 + .cbParams + = $ebx $T0 84 - ^ =
STACK WIN 4 5c8e9 61 11 0 34 0 0 0 1 $T0 $ebp = $eip $T0 4 + ^ = $ebp $T0 ^ = $esp $T0 8 + = $L $T0 .cbSavedRegs - = $P $T0 4 + .cbParams + =
STACK WIN 4 5c8ef 57 b 0 34 4 0 0 1 $T0 $ebp = $eip $T0 4 + ^ = $ebp $T0 ^ = $esp $T0 8 + = $L $T0 .cbSavedRegs - = $P $T0 4 + .cbParams + = $ebx $T0 8 - ^ =
STACK WIN 4 5c8f3 52 7 0 34 8 0 0 1 $T0 $ebp = $eip $T0 4 + ^ = $ebp $T0 ^ = $esp $T0 8 + = $L $T0 .cbSavedRegs - = $P $T0 4 + .cbParams + = $ebx $T0 8 - ^ =
STACK WIN 4 5c8fa 4a 0 0 34 c 0 0 1 $T0 $ebp = $eip $T0 4 + ^ = $ebp $T0 ^ = $esp $T0 8 + = $L $T0 .cbSavedRegs - = $P $T0 4 + .cbParams + = $ebx $T0 8 - ^ =
STACK WIN 4 5c94f 258 17 0 10 8 1b8 0 1 $T0 $ebp = $eip $T0 4 + ^ = $ebp $T0 ^ = $esp $T0 8 + = $L $T0 .cbSavedRegs - = $P $T0 4 + .cbParams + =
STACK WIN 4 5cbad 1 0 0 10 8 1b8 0 1 $T0 $ebp = $T2 $esp = $T1 .raSearchStart = $eip $T1 ^ = $ebp $ebp = $esp $T1 4 + = $L $T0 .cbSavedRegs - = $P $T0 4 + .cbParams + =
STACK WIN 4 5cbc1 2a4 22 0 10 0 c0 0 1 $T0 $ebp = $eip $T0 4 + ^ = $ebp $T0 ^ = $esp $T0 8 + = $L $T0 .cbSavedRegs - = $P $T0 4 + .cbParams + =
STACK WIN 4 5cbd2 28a 11 0 10 4 c0 0 1 $T0 $ebp = $eip $T0 4 + ^ = $ebp $T0 ^ = $esp $T0 8 + = $L $T0 .cbSavedRegs - = $P $T0 4 + .cbParams + = $ebx $T0 200 - ^ =
STACK WIN 4 5cbd6 285 d 0 10 8 c0 0 1 $T0 $ebp = $eip $T0 4 + ^ = $ebp $T0 ^ = $esp $T0 8 + = $L $T0 .cbSavedRegs - = $P $T0 4 + .cbParams + = $ebx $T0 200 - ^ =
STACK WIN 4 5cbe3 277 0 0 10 c c0 0 1 $T0 $ebp = $eip $T0 4 + ^ = $ebp $T0 ^ = $esp $T0 8 + = $L $T0 .cbSavedRegs - = $P $T0 4 + .cbParams + = $ebx $T0 200 - ^ =
STACK WIN 4 5cf6b 163 c 0 20 8 40 0 1 $T0 $ebp = $eip $T0 4 + ^ = $ebp $T0 ^ = $esp $T0 8 + = $L $T0 .cbSavedRegs - = $P $T0 4 + .cbParams + =
STACK WIN 4 5d0d4 1 0 0 20 8 40 0 1 $T0 $ebp = $T2 $esp = $T1 .raSearchStart = $eip $T1 ^ = $ebp $ebp = $esp $T1 4 + = $L $T0 .cbSavedRegs - = $P $T0 4 + .cbParams + =
STACK WIN 4 5d0e9 267 f 0 c 8 d8 0 1 $T0 $ebp = $eip $T0 4 + ^ = $ebp $T0 ^ = $esp $T0 8 + = $L $T0 .cbSavedRegs - = $P $T0 4 + .cbParams + =
STACK WIN 4 5d2ff 39 0 0 c 8 d8 0 1 $T0 $ebp = $T2 $esp = $T1 .raSearchStart = $eip $T1 ^ = $ebp $ebp = $esp $T1 4 + = $L $T0 .cbSavedRegs - = $P $T0 4 + .cbParams + =
STACK WIN 4 5d371 123 11 0 8 0 50 0 1 $T0 $ebp = $eip $T0 4 + ^ = $ebp $T0 ^ = $esp $T0 8 + = $L $T0 .cbSavedRegs - = $P $T0 4 + .cbParams + =
STACK WIN 4 5d382 109 0 0 8 4 50 0 1 $T0 $ebp = $eip $T0 4 + ^ = $ebp $T0 ^ = $esp $T0 8 + = $L $T0 .cbSavedRegs - = $P $T0 4 + .cbParams + =
STACK WIN 4 5d3bb cb 0 0 8 8 50 0 1 $T0 $ebp = $eip $T0 4 + ^ = $ebp $T0 ^ = $esp $T0 8 + = $L $T0 .cbSavedRegs - = $P $T0 4 + .cbParams + =
STACK WIN 4 314d5 151 9 0 8 0 64 0 1 $T0 $ebp = $eip $T0 4 + ^ = $ebp $T0 ^ = $esp $T0 8 + = $L $T0 .cbSavedRegs - = $P $T0 4 + .cbParams + =
STACK WIN 4 314de d0 0 0 8 4 64 0 1 $T0 $ebp = $eip $T0 4 + ^ = $ebp $T0 ^ = $esp $T0 8 + = $L $T0 .cbSavedRegs - = $P $T0 4 + .cbParams + = $ebx $T0 108 - ^ =
STACK WIN 4 31513 89 0 0 8 8 64 0 1 $T0 $ebp = $eip $T0 4 + ^ = $ebp $T0 ^ = $esp $T0 8 + = $L $T0 .cbSavedRegs - = $P $T0 4 + .cbParams + = $ebx $T0 108 - ^ =
STACK WIN 4 3151a 81 0 0 8 c 64 0 1 $T0 $ebp = $eip $T0 4 + ^ = $ebp $T0 ^ = $esp $T0 8 + = $L $T0 .cbSavedRegs - = $P $T0 4 + .cbParams + = $ebx $T0 108 - ^ =
STACK WIN 4 b74c ba 9 0 4 0 54 0 1 $T0 $ebp = $eip $T0 4 + ^ = $ebp $T0 ^ = $esp $T0 8 + = $L $T0 .cbSavedRegs - = $P $T0 4 + .cbParams + =
STACK WIN 4 b755 ad 0 0 4 4 54 0 1 $T0 $ebp = $eip $T0 4 + ^ = $ebp $T0 ^ = $esp $T0 8 + = $L $T0 .cbSavedRegs - = $P $T0 4 + .cbParams + =
STACK WIN 4 b77c 79 0 0 4 8 54 0 1 $T0 $ebp = $eip $T0 4 + ^ = $ebp $T0 ^ = $esp $T0 8 + = $L $T0 .cbSavedRegs - = $P $T0 4 + .cbParams + =
STACK WIN 4 137b1 23 5 0 c 0 0 0 1 $T0 $ebp = $eip $T0 4 + ^ = $ebp $T0 ^ = $esp $T0 8 + = $L $T0 .cbSavedRegs - = $P $T0 4 + .cbParams + =
STACK WIN 4 31eab 1d 5 0 4 0 0 0 1 $T0 $ebp = $eip $T0 4 + ^ = $ebp $T0 ^ = $esp $T0 8 + = $L $T0 .cbSavedRegs - = $P $T0 4 + .cbParams + =
STACK WIN 4 1f72e 537 f 0 14 8 ac 0 1 $T0 $ebp = $eip $T0 4 + ^ = $ebp $T0 ^ = $esp $T0 8 + = $L $T0 .cbSavedRegs - = $P $T0 4 + .cbParams + =
STACK WIN 4 1f951 3c 0 0 14 8 ac 0 1 $T0 $ebp = $T2 $esp = $T1 .raSearchStart = $eip $T1 ^ = $ebp $ebp = $esp $T1 4 + = $L $T0 .cbSavedRegs - = $P $T0 4 + .cbParams + =
STACK WIN 4 5d499 25 5 0 8 0 0 0 1 $T0 $ebp = $eip $T0 4 + ^ = $ebp $T0 ^ = $esp $T0 8 + = $L $T0 .cbSavedRegs - = $P $T0 4 + .cbParams + =
STACK WIN 4 12782 20 5 0 8 0 0 0 1 $T0 $ebp = $eip $T0 4 + ^ = $ebp $T0 ^ = $esp $T0 8 + = $L $T0 .cbSavedRegs - = $P $T0 4 + .cbParams + =
STACK WIN 4 1153c 22 5 0 4 0 0 0 1 $T0 $ebp = $eip $T0 4 + ^ = $ebp $T0 ^ = $esp $T0 8 + = $L $T0 .cbSavedRegs - = $P $T0 4 + .cbParams + =
STACK WIN 4 35eae 72 8 0 14 0 10 0 1 $T0 $ebp = $eip $T0 4 + ^ = $ebp $T0 ^ = $esp $T0 8 + = $L $T0 .cbSavedRegs - = $P $T0 4 + .cbParams + =
STACK WIN 4 35ee1 2d 0 0 14 4 10 0 1 $T0 $ebp = $eip $T0 4 + ^ = $ebp $T0 ^ = $esp $T0 8 + = $L $T0 .cbSavedRegs - = $P $T0 4 + .cbParams + =
STACK WIN 4 35ee2 2b 0 0 14 8 10 0 1 $T0 $ebp = $eip $T0 4 + ^ = $ebp $T0 ^ = $esp $T0 8 + = $L $T0 .cbSavedRegs - = $P $T0 4 + .cbParams + =
STACK WIN 4 21261 1a 5 0 8 0 0 0 1 $T0 $ebp = $eip $T0 4 + ^ = $ebp $T0 ^ = $esp $T0 8 + = $L $T0 .cbSavedRegs - = $P $T0 4 + .cbParams + =
STACK WIN 4 3565b 1b 5 0 c 0 0 0 1 $T0 $ebp = $eip $T0 4 + ^ = $ebp $T0 ^ = $esp $T0 8 + = $L $T0 .cbSavedRegs - = $P $T0 4 + .cbParams + =
STACK WIN 4 35e8f 1a 5 0 8 0 0 0 1 $T0 $ebp = $eip $T0 4 + ^ = $ebp $T0 ^ = $esp $T0 8 + = $L $T0 .cbSavedRegs - = $P $T0 4 + .cbParams + =
STACK WIN 4 5d4c3 1b 5 0 c 0 0 0 1 $T0 $ebp = $eip $T0 4 + ^ = $ebp $T0 ^ = $esp $T0 8 + = $L $T0 .cbSavedRegs - = $P $T0 4 + .cbParams + =
STACK WIN 4 21950 36 5 0 4 0 0 0 1 $T0 $ebp = $eip $T0 4 + ^ = $ebp $T0 ^ = $esp $T0 8 + = $L $T0 .cbSavedRegs - = $P $T0 4 + .cbParams + =
STACK WIN 4 5d4e3 33 5 0 14 0 0 0 1 $T0 $ebp = $eip $T0 4 + ^ = $ebp $T0 ^ = $esp $T0 8 + = $L $T0 .cbSavedRegs - = $P $T0 4 + .cbParams + =
STACK WIN 4 10978 109 c 0 8 8 24 0 1 $T0 $ebp = $eip $T0 4 + ^ = $ebp $T0 ^ = $esp $T0 8 + = $L $T0 .cbSavedRegs - = $P $T0 4 + .cbParams + =
STACK WIN 4 3d377 4 0 0 8 8 24 0 1 $T0 $ebp = $T2 $esp = $T1 .raSearchStart = $eip $T1 ^ = $ebp $ebp = $esp $T1 4 + = $L $T0 .cbSavedRegs - = $P $T0 4 + .cbParams + =
STACK WIN 4 5d539 44d f 0 20 8 b0 0 1 $T0 $ebp = $eip $T0 4 + ^ = $ebp $T0 ^ = $esp $T0 8 + = $L $T0 .cbSavedRegs - = $P $T0 4 + .cbParams + =
STACK WIN 4 5d93e 4d 0 0 20 8 b0 0 1 $T0 $ebp = $T2 $esp = $T1 .raSearchStart = $eip $T1 ^ = $ebp $ebp = $esp $T1 4 + = $L $T0 .cbSavedRegs - = $P $T0 4 + .cbParams + =
STACK WIN 4 284bd 53 8 0 14 0 8 0 1 $T0 $ebp = $eip $T0 4 + ^ = $ebp $T0 ^ = $esp $T0 8 + = $L $T0 .cbSavedRegs - = $P $T0 4 + .cbParams + =
STACK WIN 4 284c5 33 0 0 14 4 8 0 1 $T0 $ebp = $eip $T0 4 + ^ = $ebp $T0 ^ = $esp $T0 8 + = $L $T0 .cbSavedRegs - = $P $T0 4 + .cbParams + =
STACK WIN 4 5d9a1 3a 6 0 8 0 0 0 1 $T0 $ebp = $eip $T0 4 + ^ = $ebp $T0 ^ = $esp $T0 8 + = $L $T0 .cbSavedRegs - = $P $T0 4 + .cbParams + =
STACK WIN 4 5d9a7 30 0 0 8 4 0 0 1 $T0 $ebp = $eip $T0 4 + ^ = $ebp $T0 ^ = $esp $T0 8 + = $L $T0 .cbSavedRegs - = $P $T0 4 + .cbParams + =
STACK WIN 4 5d9b9 14 0 0 8 8 0 0 1 $T0 $ebp = $eip $T0 4 + ^ = $ebp $T0 ^ = $esp $T0 8 + = $L $T0 .cbSavedRegs - = $P $T0 4 + .cbParams + =
STACK WIN 4 2879d 55 d 0 8 0 10 0 1 $T0 $ebp = $eip $T0 4 + ^ = $ebp $T0 ^ = $esp $T0 8 + = $L $T0 .cbSavedRegs - = $P $T0 4 + .cbParams + =
STACK WIN 4 287aa 44 0 0 8 4 10 0 1 $T0 $ebp = $eip $T0 4 + ^ = $ebp $T0 ^ = $esp $T0 8 + = $L $T0 .cbSavedRegs - = $P $T0 4 + .cbParams + =
STACK WIN 4 5d9e0 4b 5 0 8 0 0 0 1 $T0 $ebp = $eip $T0 4 + ^ = $ebp $T0 ^ = $esp $T0 8 + = $L $T0 .cbSavedRegs - = $P $T0 4 + .cbParams + =
STACK WIN 4 5da30 85 17 0 0 0 20 0 1 $T0 $ebp = $eip $T0 4 + ^ = $ebp $T0 ^ = $esp $T0 8 + = $L $T0 .cbSavedRegs - = $P $T0 4 + .cbParams + =
STACK WIN 4 5da4a 5c 0 0 0 4 20 0 1 $T0 $ebp = $eip $T0 4 + ^ = $ebp $T0 ^ = $esp $T0 8 + = $L $T0 .cbSavedRegs - = $P $T0 4 + .cbParams + =
STACK WIN 4 10760 424 8 0 1c 0 58 0 1 $T0 $ebp = $eip $T0 4 + ^ = $ebp $T0 ^ = $esp $T0 8 + = $L $T0 .cbSavedRegs - = $P $T0 4 + .cbParams + =
STACK WIN 4 10788 3c2 0 0 1c 4 58 0 1 $T0 $ebp = $eip $T0 4 + ^ = $ebp $T0 ^ = $esp $T0 8 + = $L $T0 .cbSavedRegs - = $P $T0 4 + .cbParams + =
STACK WIN 4 1078c 3bd 0 0 1c 8 58 0 1 $T0 $ebp = $eip $T0 4 + ^ = $ebp $T0 ^ = $esp $T0 8 + = $L $T0 .cbSavedRegs - = $P $T0 4 + .cbParams + =
STACK WIN 4 3719a 9f 10 0 20 0 8 0 1 $T0 $ebp = $eip $T0 4 + ^ = $ebp $T0 ^ = $esp $T0 8 + = $L $T0 .cbSavedRegs - = $P $T0 4 + .cbParams + =
STACK WIN 4 371a5 7a 5 0 20 4 8 0 1 $T0 $ebp = $eip $T0 4 + ^ = $ebp $T0 ^ = $esp $T0 8 + = $L $T0 .cbSavedRegs - = $P $T0 4 + .cbParams + = $ebx $T0 16 - ^ =
STACK WIN 4 371a6 78 4 0 20 8 8 0 1 $T0 $ebp = $eip $T0 4 + ^ = $ebp $T0 ^ = $esp $T0 8 + = $L $T0 .cbSavedRegs - = $P $T0 4 + .cbParams + = $ebx $T0 16 - ^ =
STACK WIN 4 371aa 73 0 0 20 c 8 0 1 $T0 $ebp = $eip $T0 4 + ^ = $ebp $T0 ^ = $esp $T0 8 + = $L $T0 .cbSavedRegs - = $P $T0 4 + .cbParams + = $ebx $T0 16 - ^ =
STACK WIN 4 5dadd 73 8 0 8 0 30 0 1 $T0 $ebp = $eip $T0 4 + ^ = $ebp $T0 ^ = $esp $T0 8 + = $L $T0 .cbSavedRegs - = $P $T0 4 + .cbParams + =
STACK WIN 4 5db0a 42 0 0 8 4 30 0 1 $T0 $ebp = $eip $T0 4 + ^ = $ebp $T0 ^ = $esp $T0 8 + = $L $T0 .cbSavedRegs - = $P $T0 4 + .cbParams + =
STACK WIN 4 5db13 23 0 0 8 8 30 0 1 $T0 $ebp = $eip $T0 4 + ^ = $ebp $T0 ^ = $esp $T0 8 + = $L $T0 .cbSavedRegs - = $P $T0 4 + .cbParams + =
STACK WIN 4 5db55 bc a 0 8 0 8 0 1 $T0 $ebp = $eip $T0 4 + ^ = $ebp $T0 ^ = $esp $T0 8 + = $L $T0 .cbSavedRegs - = $P $T0 4 + .cbParams + =
STACK WIN 4 5db5d b0 2 0 8 4 8 0 1 $T0 $ebp = $eip $T0 4 + ^ = $ebp $T0 ^ = $esp $T0 8 + = $L $T0 .cbSavedRegs - = $P $T0 4 + .cbParams + = $ebx $T0 16 - ^ =
STACK WIN 4 5db5e ae 1 0 8 8 8 0 1 $T0 $ebp = $eip $T0 4 + ^ = $ebp $T0 ^ = $esp $T0 8 + = $L $T0 .cbSavedRegs - = $P $T0 4 + .cbParams + = $ebx $T0 16 - ^ =
STACK WIN 4 5db5f ac 0 0 8 c 8 0 1 $T0 $ebp = $eip $T0 4 + ^ = $ebp $T0 ^ = $esp $T0 8 + = $L $T0 .cbSavedRegs - = $P $T0 4 + .cbParams + = $ebx $T0 16 - ^ =
STACK WIN 4 5dc16 23e c 0 24 8 60 0 1 $T0 $ebp = $eip $T0 4 + ^ = $ebp $T0 ^ = $esp $T0 8 + = $L $T0 .cbSavedRegs - = $P $T0 4 + .cbParams + =
STACK WIN 4 5de3f 1a 0 0 24 8 60 0 1 $T0 $ebp = $T2 $esp = $T1 .raSearchStart = $eip $T1 ^ = $ebp $ebp = $esp $T1 4 + = $L $T0 .cbSavedRegs - = $P $T0 4 + .cbParams + =
STACK WIN 4 5de71 198 c 0 1c 8 3c 0 1 $T0 $ebp = $eip $T0 4 + ^ = $ebp $T0 ^ = $esp $T0 8 + = $L $T0 .cbSavedRegs - = $P $T0 4 + .cbParams + =
STACK WIN 4 5e00f 1 0 0 1c 8 3c 0 1 $T0 $ebp = $T2 $esp = $T1 .raSearchStart = $eip $T1 ^ = $ebp $ebp = $esp $T1 4 + = $L $T0 .cbSavedRegs - = $P $T0 4 + .cbParams + =
STACK WIN 4 285c6 2c4 c 0 38 8 8c 0 1 $T0 $ebp = $eip $T0 4 + ^ = $ebp $T0 ^ = $esp $T0 8 + = $L $T0 .cbSavedRegs - = $P $T0 4 + .cbParams + =
STACK WIN 4 3d7a4 10 0 0 38 8 8c 0 1 $T0 $ebp = $T2 $esp = $T1 .raSearchStart = $eip $T1 ^ = $ebp $ebp = $esp $T1 4 + = $L $T0 .cbSavedRegs - = $P $T0 4 + .cbParams + =
STACK WIN 4 1a24 34 5 0 1c 0 0 0 1 $T0 $ebp = $eip $T0 4 + ^ = $ebp $T0 ^ = $esp $T0 8 + = $L $T0 .cbSavedRegs - = $P $T0 4 + .cbParams + =
STACK WIN 4 21982 446 17 0 c 8 114 0 1 $T0 $ebp = $eip $T0 4 + ^ = $ebp $T0 ^ = $esp $T0 8 + = $L $T0 .cbSavedRegs - = $P $T0 4 + .cbParams + =
STACK WIN 4 3d9cf 10 0 0 c 8 114 0 1 $T0 $ebp = $T2 $esp = $T1 .raSearchStart = $eip $T1 ^ = $ebp $ebp = $esp $T1 4 + = $L $T0 .cbSavedRegs - = $P $T0 4 + .cbParams + =
STACK WIN 4 5e021 292 9 0 28 0 24 0 1 $T0 $ebp = $eip $T0 4 + ^ = $ebp $T0 ^ = $esp $T0 8 + = $L $T0 .cbSavedRegs - = $P $T0 4 + .cbParams + =
STACK WIN 4 5e02a 266 0 0 28 4 24 0 1 $T0 $ebp = $eip $T0 4 + ^ = $ebp $T0 ^ = $esp $T0 8 + = $L $T0 .cbSavedRegs - = $P $T0 4 + .cbParams + =
STACK WIN 4 5e089 1f5 0 0 28 8 24 0 1 $T0 $ebp = $eip $T0 4 + ^ = $ebp $T0 ^ = $esp $T0 8 + = $L $T0 .cbSavedRegs - = $P $T0 4 + .cbParams + =
STACK WIN 4 27bdb 1c8d 17 0 38 8 6bc 0 1 $T0 $ebp = $eip $T0 4 + ^ = $ebp $T0 ^ = $esp $T0 8 + = $L $T0 .cbSavedRegs - = $P $T0 4 + .cbParams + =
STACK WIN 4 3e895 11 0 0 38 8 6bc 0 1 $T0 $ebp = $T2 $esp = $T1 .raSearchStart = $eip $T1 ^ = $ebp $ebp = $esp $T1 4 + = $L $T0 .cbSavedRegs - = $P $T0 4 + .cbParams + =
STACK WIN 4 3eadf ab 0 0 38 8 6bc 0 1 $T0 $ebp = $T2 $esp = $T1 .raSearchStart = $eip $T1 ^ = $ebp $ebp = $esp $T1 4 + = $L $T0 .cbSavedRegs - = $P $T0 4 + .cbParams + =
STACK WIN 4 36c3c f7e 17 0 18 8 3fc 0 1 $T0 $ebp = $eip $T0 4 + ^ = $ebp $T0 ^ = $esp $T0 8 + = $L $T0 .cbSavedRegs - = $P $T0 4 + .cbParams + =
STACK WIN 4 3f743 134 0 0 18 8 3fc 0 1 $T0 $ebp = $T2 $esp = $T1 .raSearchStart = $eip $T1 ^ = $ebp $ebp = $esp $T1 4 + = $L $T0 .cbSavedRegs - = $P $T0 4 + .cbParams + =
STACK WIN 4 27613 d49 17 0 24 8 3c4 0 1 $T0 $ebp = $eip $T0 4 + ^ = $ebp $T0 ^ = $esp $T0 8 + = $L $T0 .cbSavedRegs - = $P $T0 4 + .cbParams + =
STACK WIN 4 3ffbd 3e 0 0 24 8 3c4 0 1 $T0 $ebp = $T2 $esp = $T1 .raSearchStart = $eip $T1 ^ = $ebp $ebp = $esp $T1 4 + = $L $T0 .cbSavedRegs - = $P $T0 4 + .cbParams + =
STACK WIN 4 27b32 6d c 0 18 8 24 0 1 $T0 $ebp = $eip $T0 4 + ^ = $ebp $T0 ^ = $esp $T0 8 + = $L $T0 .cbSavedRegs - = $P $T0 4 + .cbParams + =
STACK WIN 4 27b99 1d 0 0 18 8 24 0 1 $T0 $ebp = $T2 $esp = $T1 .raSearchStart = $eip $T1 ^ = $ebp $ebp = $esp $T1 4 + = $L $T0 .cbSavedRegs - = $P $T0 4 + .cbParams + =
STACK WIN 4 2005f 89 c 0 18 8 24 0 1 $T0 $ebp = $eip $T0 4 + ^ = $ebp $T0 ^ = $esp $T0 8 + = $L $T0 .cbSavedRegs - = $P $T0 4 + .cbParams + =
STACK WIN 4 200d1 1d 0 0 18 8 24 0 1 $T0 $ebp = $T2 $esp = $T1 .raSearchStart = $eip $T1 ^ = $ebp $ebp = $esp $T1 4 + = $L $T0 .cbSavedRegs - = $P $T0 4 + .cbParams + =
STACK WIN 4 5e307 b8 a 0 18 0 18 0 1 $T0 $ebp = $eip $T0 4 + ^ = $ebp $T0 ^ = $esp $T0 8 + = $L $T0 .cbSavedRegs - = $P $T0 4 + .cbParams + =
STACK WIN 4 5e310 ab 1 0 18 4 18 0 1 $T0 $ebp = $eip $T0 4 + ^ = $ebp $T0 ^ = $esp $T0 8 + = $L $T0 .cbSavedRegs - = $P $T0 4 + .cbParams + = $ebx $T0 32 - ^ =
STACK WIN 4 5e311 a9 0 0 18 8 18 0 1 $T0 $ebp = $eip $T0 4 + ^ = $ebp $T0 ^ = $esp $T0 8 + = $L $T0 .cbSavedRegs - = $P $T0 4 + .cbParams + = $ebx $T0 32 - ^ =
STACK WIN 4 5e34f 5f 0 0 18 c 18 0 1 $T0 $ebp = $eip $T0 4 + ^ = $ebp $T0 ^ = $esp $T0 8 + = $L $T0 .cbSavedRegs - = $P $T0 4 + .cbParams + = $ebx $T0 32 - ^ =
STACK WIN 4 286ee 57 8 0 c 0 8 0 1 $T0 $ebp = $eip $T0 4 + ^ = $ebp $T0 ^ = $esp $T0 8 + = $L $T0 .cbSavedRegs - = $P $T0 4 + .cbParams + =
STACK WIN 4 286f6 4b 0 0 c 4 8 0 1 $T0 $ebp = $eip $T0 4 + ^ = $ebp $T0 ^ = $esp $T0 8 + = $L $T0 .cbSavedRegs - = $P $T0 4 + .cbParams + =
STACK WIN 4 2f873 22 5 0 c 0 0 0 1 $T0 $ebp = $eip $T0 4 + ^ = $ebp $T0 ^ = $esp $T0 8 + = $L $T0 .cbSavedRegs - = $P $T0 4 + .cbParams + =
STACK WIN 4 5e3c4 54 8 0 18 0 8 0 1 $T0 $ebp = $eip $T0 4 + ^ = $ebp $T0 ^ = $esp $T0 8 + = $L $T0 .cbSavedRegs - = $P $T0 4 + .cbParams + =
STACK WIN 4 5e3cc 48 0 0 18 4 8 0 1 $T0 $ebp = $eip $T0 4 + ^ = $ebp $T0 ^ = $esp $T0 8 + = $L $T0 .cbSavedRegs - = $P $T0 4 + .cbParams + =
STACK WIN 4 5e41d 8a 1a 0 10 0 28 0 1 $T0 $ebp = $eip $T0 4 + ^ = $ebp $T0 ^ = $esp $T0 8 + = $L $T0 .cbSavedRegs - = $P $T0 4 + .cbParams + =
STACK WIN 4 5e433 6b 4 0 10 4 28 0 1 $T0 $ebp = $eip $T0 4 + ^ = $ebp $T0 ^ = $esp $T0 8 + = $L $T0 .cbSavedRegs - = $P $T0 4 + .cbParams + = $ebx $T0 48 - ^ =
STACK WIN 4 5e437 66 0 0 10 8 28 0 1 $T0 $ebp = $eip $T0 4 + ^ = $ebp $T0 ^ = $esp $T0 8 + = $L $T0 .cbSavedRegs - = $P $T0 4 + .cbParams + = $ebx $T0 48 - ^ =
STACK WIN 4 5e446 25 0 0 10 c 28 0 1 $T0 $ebp = $eip $T0 4 + ^ = $ebp $T0 ^ = $esp $T0 8 + = $L $T0 .cbSavedRegs - = $P $T0 4 + .cbParams + = $ebx $T0 48 - ^ =
STACK WIN 4 5e4ac 83 1a 0 10 0 24 0 1 $T0 $ebp = $eip $T0 4 + ^ = $ebp $T0 ^ = $esp $T0 8 + = $L $T0 .cbSavedRegs - = $P $T0 4 + .cbParams + =
STACK WIN 4 5e4c2 64 4 0 10 4 24 0 1 $T0 $ebp = $eip $T0 4 + ^ = $ebp $T0 ^ = $esp $T0 8 + = $L $T0 .cbSavedRegs - = $P $T0 4 + .cbParams + = $ebx $T0 44 - ^ =
STACK WIN 4 5e4c6 5f 0 0 10 8 24 0 1 $T0 $ebp = $eip $T0 4 + ^ = $ebp $T0 ^ = $esp $T0 8 + = $L $T0 .cbSavedRegs - = $P $T0 4 + .cbParams + = $ebx $T0 44 - ^ =
STACK WIN 4 5e4d5 25 0 0 10 c 24 0 1 $T0 $ebp = $eip $T0 4 + ^ = $ebp $T0 ^ = $esp $T0 8 + = $L $T0 .cbSavedRegs - = $P $T0 4 + .cbParams + = $ebx $T0 44 - ^ =
STACK WIN 4 5e534 8e 10 0 10 0 20 0 1 $T0 $ebp = $eip $T0 4 + ^ = $ebp $T0 ^ = $esp $T0 8 + = $L $T0 .cbSavedRegs - = $P $T0 4 + .cbParams + =
STACK WIN 4 5e53d 81 7 0 10 4 20 0 1 $T0 $ebp = $eip $T0 4 + ^ = $ebp $T0 ^ = $esp $T0 8 + = $L $T0 .cbSavedRegs - = $P $T0 4 + .cbParams + =
STACK WIN 4 5e544 79 0 0 10 8 20 0 1 $T0 $ebp = $eip $T0 4 + ^ = $ebp $T0 ^ = $esp $T0 8 + = $L $T0 .cbSavedRegs - = $P $T0 4 + .cbParams + =
STACK WIN 4 5e5c7 8e 10 0 10 0 20 0 1 $T0 $ebp = $eip $T0 4 + ^ = $ebp $T0 ^ = $esp $T0 8 + = $L $T0 .cbSavedRegs - = $P $T0 4 + .cbParams + =
STACK WIN 4 5e5d0 81 7 0 10 4 20 0 1 $T0 $ebp = $eip $T0 4 + ^ = $ebp $T0 ^ = $esp $T0 8 + = $L $T0 .cbSavedRegs - = $P $T0 4 + .cbParams + =
STACK WIN 4 5e5d7 79 0 0 10 8 20 0 1 $T0 $ebp = $eip $T0 4 + ^ = $ebp $T0 ^ = $esp $T0 8 + = $L $T0 .cbSavedRegs - = $P $T0 4 + .cbParams + =
STACK WIN 4 5e65a 11 5 0 4 0 0 0 1 $T0 $ebp = $eip $T0 4 + ^ = $ebp $T0 ^ = $esp $T0 8 + = $L $T0 .cbSavedRegs - = $P $T0 4 + .cbParams + =
STACK WIN 4 fd2d 17d c 0 8 8 2c 0 1 $T0 $ebp = $eip $T0 4 + ^ = $ebp $T0 ^ = $esp $T0 8 + = $L $T0 .cbSavedRegs - = $P $T0 4 + .cbParams + =
STACK WIN 4 40019 e 0 0 8 8 2c 0 1 $T0 $ebp = $T2 $esp = $T1 .raSearchStart = $eip $T1 ^ = $ebp $ebp = $esp $T1 4 + = $L $T0 .cbSavedRegs - = $P $T0 4 + .cbParams + =
STACK WIN 4 123b9 319 c 0 c 8 34 0 1 $T0 $ebp = $eip $T0 4 + ^ = $ebp $T0 ^ = $esp $T0 8 + = $L $T0 .cbSavedRegs - = $P $T0 4 + .cbParams + =
STACK WIN 4 401f7 e 0 0 c 8 34 0 1 $T0 $ebp = $T2 $esp = $T1 .raSearchStart = $eip $T1 ^ = $ebp $ebp = $esp $T1 4 + = $L $T0 .cbSavedRegs - = $P $T0 4 + .cbParams + =
STACK WIN 4 ff19 d2 c 0 4 8 24 0 1 $T0 $ebp = $eip $T0 4 + ^ = $ebp $T0 ^ = $esp $T0 8 + = $L $T0 .cbSavedRegs - = $P $T0 4 + .cbParams + =
STACK WIN 4 40258 e 0 0 4 8 24 0 1 $T0 $ebp = $T2 $esp = $T1 .raSearchStart = $eip $T1 ^ = $ebp $ebp = $esp $T1 4 + = $L $T0 .cbSavedRegs - = $P $T0 4 + .cbParams + =
STACK WIN 4 34cb9 8b c 0 4 8 24 0 1 $T0 $ebp = $eip $T0 4 + ^ = $ebp $T0 ^ = $esp $T0 8 + = $L $T0 .cbSavedRegs - = $P $T0 4 + .cbParams + =
STACK WIN 4 4029c e 0 0 4 8 24 0 1 $T0 $ebp = $T2 $esp = $T1 .raSearchStart = $eip $T1 ^ = $ebp $ebp = $esp $T1 4 + = $L $T0 .cbSavedRegs - = $P $T0 4 + .cbParams + =
STACK WIN 4 fe82 b1 c 0 4 8 24 0 1 $T0 $ebp = $eip $T0 4 + ^ = $ebp $T0 ^ = $esp $T0 8 + = $L $T0 .cbSavedRegs - = $P $T0 4 + .cbParams + =
STACK WIN 4 402de e 0 0 4 8 24 0 1 $T0 $ebp = $T2 $esp = $T1 .raSearchStart = $eip $T1 ^ = $ebp $ebp = $esp $T1 4 + = $L $T0 .cbSavedRegs - = $P $T0 4 + .cbParams + =
STACK WIN 4 34da1 f6 c 0 4 8 2c 0 1 $T0 $ebp = $eip $T0 4 + ^ = $ebp $T0 ^ = $esp $T0 8 + = $L $T0 .cbSavedRegs - = $P $T0 4 + .cbParams + =
STACK WIN 4 40327 e 0 0 4 8 2c 0 1 $T0 $ebp = $T2 $esp = $T1 .raSearchStart = $eip $T1 ^ = $ebp $ebp = $esp $T1 4 + = $L $T0 .cbSavedRegs - = $P $T0 4 + .cbParams + =
STACK WIN 4 36772 e9 c 0 4 8 2c 0 1 $T0 $ebp = $eip $T0 4 + ^ = $ebp $T0 ^ = $esp $T0 8 + = $L $T0 .cbSavedRegs - = $P $T0 4 + .cbParams + =
STACK WIN 4 403bd e 0 0 4 8 2c 0 1 $T0 $ebp = $T2 $esp = $T1 .raSearchStart = $eip $T1 ^ = $ebp $ebp = $esp $T1 4 + = $L $T0 .cbSavedRegs - = $P $T0 4 + .cbParams + =
STACK WIN 4 fc2f 11b c 0 4 8 28 0 1 $T0 $ebp = $eip $T0 4 + ^ = $ebp $T0 ^ = $esp $T0 8 + = $L $T0 .cbSavedRegs - = $P $T0 4 + .cbParams + =
STACK WIN 4 40414 e 0 0 4 8 28 0 1 $T0 $ebp = $T2 $esp = $T1 .raSearchStart = $eip $T1 ^ = $ebp $ebp = $esp $T1 4 + = $L $T0 .cbSavedRegs - = $P $T0 4 + .cbParams + =
STACK WIN 4 4043c e 0 0 4 8 28 0 1 $T0 $ebp = $T2 $esp = $T1 .raSearchStart = $eip $T1 ^ = $ebp $ebp = $esp $T1 4 + = $L $T0 .cbSavedRegs - = $P $T0 4 + .cbParams + =
STACK WIN 4 5e670 11 0 0 4 0 0 0 1 $T2 $esp .cbLocals + .cbSavedRegs + = $T0 .raSearchStart = $eip $T0 ^ = $esp $T0 4 + =
STACK WIN 4 5e686 15 5 0 4 0 0 0 1 $T0 $ebp = $eip $T0 4 + ^ = $ebp $T0 ^ = $esp $T0 8 + = $L $T0 .cbSavedRegs - = $P $T0 4 + .cbParams + =
STACK WIN 4 5e6a0 15 5 0 4 0 0 0 1 $T0 $ebp = $eip $T0 4 + ^ = $ebp $T0 ^ = $esp $T0 8 + = $L $T0 .cbSavedRegs - = $P $T0 4 + .cbParams + =
STACK WIN 4 5e6ba b 5 0 4 0 0 0 1 $T0 $ebp = $eip $T0 4 + ^ = $ebp $T0 ^ = $esp $T0 8 + = $L $T0 .cbSavedRegs - = $P $T0 4 + .cbParams + =
STACK WIN 4 5e6ca b 5 0 4 0 0 0 1 $T0 $ebp = $eip $T0 4 + ^ = $ebp $T0 ^ = $esp $T0 8 + = $L $T0 .cbSavedRegs - = $P $T0 4 + .cbParams + =
STACK WIN 4 310f2 1c6 e 0 4 0 18c 0 1 $T0 $ebp = $eip $T0 4 + ^ = $ebp $T0 ^ = $esp $T0 8 + = $L $T0 .cbSavedRegs - = $P $T0 4 + .cbParams + =
STACK WIN 4 310fe 1b6 2 0 4 4 18c 0 1 $T0 $ebp = $eip $T0 4 + ^ = $ebp $T0 ^ = $esp $T0 8 + = $L $T0 .cbSavedRegs - = $P $T0 4 + .cbParams + = $ebx $T0 404 - ^ =
STACK WIN 4 310ff 1b4 1 0 4 8 18c 0 1 $T0 $ebp = $eip $T0 4 + ^ = $ebp $T0 ^ = $esp $T0 8 + = $L $T0 .cbSavedRegs - = $P $T0 4 + .cbParams + = $ebx $T0 404 - ^ =
STACK WIN 4 31100 1b2 0 0 4 c 18c 0 1 $T0 $ebp = $eip $T0 4 + ^ = $ebp $T0 ^ = $esp $T0 8 + = $L $T0 .cbSavedRegs - = $P $T0 4 + .cbParams + = $ebx $T0 404 - ^ =
STACK WIN 4 9a72 7d c 0 14 8 20 0 1 $T0 $ebp = $eip $T0 4 + ^ = $ebp $T0 ^ = $esp $T0 8 + = $L $T0 .cbSavedRegs - = $P $T0 4 + .cbParams + =
STACK WIN 4 404b7 e 0 0 14 8 20 0 1 $T0 $ebp = $T2 $esp = $T1 .raSearchStart = $eip $T1 ^ = $ebp $ebp = $esp $T1 4 + = $L $T0 .cbSavedRegs - = $P $T0 4 + .cbParams + =
STACK WIN 4 9b02 82 5 0 10 0 0 0 1 $T0 $ebp = $eip $T0 4 + ^ = $ebp $T0 ^ = $esp $T0 8 + = $L $T0 .cbSavedRegs - = $P $T0 4 + .cbParams + =
STACK WIN 4 9b18 5e 0 0 10 4 0 0 1 $T0 $ebp = $eip $T0 4 + ^ = $ebp $T0 ^ = $esp $T0 8 + = $L $T0 .cbSavedRegs - = $P $T0 4 + .cbParams + =
STACK WIN 4 9b1f 56 0 0 10 8 0 0 1 $T0 $ebp = $eip $T0 4 + ^ = $ebp $T0 ^ = $esp $T0 8 + = $L $T0 .cbSavedRegs - = $P $T0 4 + .cbParams + =
STACK WIN 4 1a5d 6e d 0 14 0 0 0 1 $T0 $ebp = $eip $T0 4 + ^ = $ebp $T0 ^ = $esp $T0 8 + = $L $T0 .cbSavedRegs - = $P $T0 4 + .cbParams + =
STACK WIN 4 1a63 64 7 0 14 4 0 0 1 $T0 $ebp = $eip $T0 4 + ^ = $ebp $T0 ^ = $esp $T0 8 + = $L $T0 .cbSavedRegs - = $P $T0 4 + .cbParams + =
STACK WIN 4 1a6a 5c 0 0 14 8 0 0 1 $T0 $ebp = $eip $T0 4 + ^ = $ebp $T0 ^ = $esp $T0 8 + = $L $T0 .cbSavedRegs - = $P $T0 4 + .cbParams + =
STACK WIN 4 b9a0 32 5 0 10 0 0 0 1 $T0 $ebp = $eip $T0 4 + ^ = $ebp $T0 ^ = $esp $T0 8 + = $L $T0 .cbSavedRegs - = $P $T0 4 + .cbParams + =
STACK WIN 4 2b13f 33 9 0 8 0 0 0 1 $T0 $ebp = $eip $T0 4 + ^ = $ebp $T0 ^ = $esp $T0 8 + = $L $T0 .cbSavedRegs - = $P $T0 4 + .cbParams + =
STACK WIN 4 2b148 26 0 0 8 4 0 0 1 $T0 $ebp = $eip $T0 4 + ^ = $ebp $T0 ^ = $esp $T0 8 + = $L $T0 .cbSavedRegs - = $P $T0 4 + .cbParams + =
STACK WIN 4 5e6da 33 9 0 8 0 0 0 1 $T0 $ebp = $eip $T0 4 + ^ = $ebp $T0 ^ = $esp $T0 8 + = $L $T0 .cbSavedRegs - = $P $T0 4 + .cbParams + =
STACK WIN 4 5e6e3 26 0 0 8 4 0 0 1 $T0 $ebp = $eip $T0 4 + ^ = $ebp $T0 ^ = $esp $T0 8 + = $L $T0 .cbSavedRegs - = $P $T0 4 + .cbParams + =
STACK WIN 4 355bc 2b 6 0 c 0 0 0 1 $T0 $ebp = $eip $T0 4 + ^ = $ebp $T0 ^ = $esp $T0 8 + = $L $T0 .cbSavedRegs - = $P $T0 4 + .cbParams + =
STACK WIN 4 355c2 21 0 0 c 4 0 0 1 $T0 $ebp = $eip $T0 4 + ^ = $ebp $T0 ^ = $esp $T0 8 + = $L $T0 .cbSavedRegs - = $P $T0 4 + .cbParams + =
STACK WIN 4 5e712 29 5 0 c 0 0 0 1 $T0 $ebp = $eip $T0 4 + ^ = $ebp $T0 ^ = $esp $T0 8 + = $L $T0 .cbSavedRegs - = $P $T0 4 + .cbParams + =
STACK WIN 4 5e740 29 5 0 c 0 0 0 1 $T0 $ebp = $eip $T0 4 + ^ = $ebp $T0 ^ = $esp $T0 8 + = $L $T0 .cbSavedRegs - = $P $T0 4 + .cbParams + =
STACK WIN 4 5e76e 29 5 0 c 0 0 0 1 $T0 $ebp = $eip $T0 4 + ^ = $ebp $T0 ^ = $esp $T0 8 + = $L $T0 .cbSavedRegs - = $P $T0 4 + .cbParams + =
STACK WIN 4 5e79c 29 5 0 c 0 0 0 1 $T0 $ebp = $eip $T0 4 + ^ = $ebp $T0 ^ = $esp $T0 8 + = $L $T0 .cbSavedRegs - = $P $T0 4 + .cbParams + =
STACK WIN 4 1f992 16f c 0 4 0 184 0 1 $T0 $ebp = $eip $T0 4 + ^ = $ebp $T0 ^ = $esp $T0 8 + = $L $T0 .cbSavedRegs - = $P $T0 4 + .cbParams + =
STACK WIN 4 1f99e 15f 0 0 4 4 184 0 1 $T0 $ebp = $eip $T0 4 + ^ = $ebp $T0 ^ = $esp $T0 8 + = $L $T0 .cbSavedRegs - = $P $T0 4 + .cbParams + =
STACK WIN 4 1f9ac 141 0 0 4 8 184 0 1 $T0 $ebp = $eip $T0 4 + ^ = $ebp $T0 ^ = $esp $T0 8 + = $L $T0 .cbSavedRegs - = $P $T0 4 + .cbParams + =
STACK WIN 4 5e7ca 34 5 0 18 0 0 0 1 $T0 $ebp = $eip $T0 4 + ^ = $ebp $T0 ^ = $esp $T0 8 + = $L $T0 .cbSavedRegs - = $P $T0 4 + .cbParams + =
STACK WIN 4 5e803 28 5 0 8 0 0 0 1 $T0 $ebp = $eip $T0 4 + ^ = $ebp $T0 ^ = $esp $T0 8 + = $L $T0 .cbSavedRegs - = $P $T0 4 + .cbParams + =
STACK WIN 4 9a51 1c 5 0 10 0 0 0 1 $T0 $ebp = $eip $T0 4 + ^ = $ebp $T0 ^ = $esp $T0 8 + = $L $T0 .cbSavedRegs - = $P $T0 4 + .cbParams + =
STACK WIN 4 9ae4 19 5 0 c 0 0 0 1 $T0 $ebp = $eip $T0 4 + ^ = $ebp $T0 ^ = $esp $T0 8 + = $L $T0 .cbSavedRegs - = $P $T0 4 + .cbParams + =
STACK WIN 4 1ad0 1c 5 0 10 0 0 0 1 $T0 $ebp = $eip $T0 4 + ^ = $ebp $T0 ^ = $esp $T0 8 + = $L $T0 .cbSavedRegs - = $P $T0 4 + .cbParams + =
STACK WIN 4 b9d1 19 5 0 c 0 0 0 1 $T0 $ebp = $eip $T0 4 + ^ = $ebp $T0 ^ = $esp $T0 8 + = $L $T0 .cbSavedRegs - = $P $T0 4 + .cbParams + =
STACK WIN 4 2e18c aa 7 0 c 0 4 0 1 $T0 $ebp = $eip $T0 4 + ^ = $ebp $T0 ^ = $esp $T0 8 + = $L $T0 .cbSavedRegs - = $P $T0 4 + .cbParams + =
STACK WIN 4 2e193 9f 0 0 c 4 4 0 1 $T0 $ebp = $eip $T0 4 + ^ = $ebp $T0 ^ = $esp $T0 8 + = $L $T0 .cbSavedRegs - = $P $T0 4 + .cbParams + =
STACK WIN 4 2bdb5 8b 6 0 8 0 4 0 1 $T0 $ebp = $eip $T0 4 + ^ = $ebp $T0 ^ = $esp $T0 8 + = $L $T0 .cbSavedRegs - = $P $T0 4 + .cbParams + =
STACK WIN 4 1d07e 8 0 0 0 0 0 0 1 $T2 $esp .cbLocals + .cbSavedRegs + = $T0 .raSearchStart = $eip $T0 ^ = $esp $T0 4 + =
STACK WIN 4 365f6 b 0 0 0 0 0 0 1 $T2 $esp .cbLocals + .cbSavedRegs + = $T0 .raSearchStart = $eip $T0 ^ = $esp $T0 4 + =
STACK WIN 4 3594f 6 0 0 0 0 0 0 1 $T2 $esp .cbLocals + .cbSavedRegs + = $T0 .raSearchStart = $eip $T0 ^ = $esp $T0 4 + =
STACK WIN 4 17443 11 0 0 0 0 0 0 1 $T2 $esp .cbLocals + .cbSavedRegs + = $T0 .raSearchStart = $eip $T0 ^ = $esp $T0 4 + =
STACK WIN 4 934b d6 e 0 0 0 28 0 1 $T0 $ebp = $eip $T0 4 + ^ = $ebp $T0 ^ = $esp $T0 8 + = $L $T0 .cbSavedRegs - = $P $T0 4 + .cbParams + =
STACK WIN 4 9359 c6 0 0 0 4 28 0 1 $T0 $ebp = $eip $T0 4 + ^ = $ebp $T0 ^ = $esp $T0 8 + = $L $T0 .cbSavedRegs - = $P $T0 4 + .cbParams + =
STACK WIN 4 177c7 96 0 0 0 8 28 0 1 $T0 $ebp = $eip $T0 4 + ^ = $ebp $T0 ^ = $esp $T0 8 + = $L $T0 .cbSavedRegs - = $P $T0 4 + .cbParams + =
STACK WIN 4 b5c3 409 19 0 c 0 420 0 1 $T0 $ebp = $eip $T0 4 + ^ = $ebp $T0 ^ = $esp $T0 8 + = $L $T0 .cbSavedRegs - = $P $T0 4 + .cbParams + =
STACK WIN 4 b5d7 3ec 5 0 c 4 420 0 1 $T0 $ebp = $eip $T0 4 + ^ = $ebp $T0 ^ = $esp $T0 8 + = $L $T0 .cbSavedRegs - = $P $T0 4 + .cbParams + = $ebx $T0 1064 - ^ =
STACK WIN 4 b5d8 3ea 4 0 c 8 420 0 1 $T0 $ebp = $eip $T0 4 + ^ = $ebp $T0 ^ = $esp $T0 8 + = $L $T0 .cbSavedRegs - = $P $T0 4 + .cbParams + = $ebx $T0 1064 - ^ =
STACK WIN 4 b5dc 3e5 0 0 c c 420 0 1 $T0 $ebp = $eip $T0 4 + ^ = $ebp $T0 ^ = $esp $T0 8 + = $L $T0 .cbSavedRegs - = $P $T0 4 + .cbParams + = $ebx $T0 1064 - ^ =
STACK WIN 4 5e830 4d 6 0 8 0 0 0 1 $T0 $ebp = $eip $T0 4 + ^ = $ebp $T0 ^ = $esp $T0 8 + = $L $T0 .cbSavedRegs - = $P $T0 4 + .cbParams + =
STACK WIN 4 5e836 43 0 0 8 4 0 0 1 $T0 $ebp = $eip $T0 4 + ^ = $ebp $T0 ^ = $esp $T0 8 + = $L $T0 .cbSavedRegs - = $P $T0 4 + .cbParams + =
STACK WIN 4 365a5 2e 5 0 8 0 0 0 1 $T0 $ebp = $eip $T0 4 + ^ = $ebp $T0 ^ = $esp $T0 8 + = $L $T0 .cbSavedRegs - = $P $T0 4 + .cbParams + =
STACK WIN 4 353ce 29 5 0 c 0 0 0 1 $T0 $ebp = $eip $T0 4 + ^ = $ebp $T0 ^ = $esp $T0 8 + = $L $T0 .cbSavedRegs - = $P $T0 4 + .cbParams + =
STACK WIN 4 38ae7 3d 5 0 c 0 0 0 1 $T0 $ebp = $eip $T0 4 + ^ = $ebp $T0 ^ = $esp $T0 8 + = $L $T0 .cbSavedRegs - = $P $T0 4 + .cbParams + =
STACK WIN 4 34e64 18 5 0 4 0 0 0 1 $T0 $ebp = $eip $T0 4 + ^ = $ebp $T0 ^ = $esp $T0 8 + = $L $T0 .cbSavedRegs - = $P $T0 4 + .cbParams + =
STACK WIN 4 35406 36 5 0 c 0 0 0 1 $T0 $ebp = $eip $T0 4 + ^ = $ebp $T0 ^ = $esp $T0 8 + = $L $T0 .cbSavedRegs - = $P $T0 4 + .cbParams + =
STACK WIN 4 30d74 8b b 0 8 0 0 0 1 $T0 $ebp = $eip $T0 4 + ^ = $ebp $T0 ^ = $esp $T0 8 + = $L $T0 .cbSavedRegs - = $P $T0 4 + .cbParams + =
STACK WIN 4 30d7a 81 5 0 8 4 0 0 1 $T0 $ebp = $eip $T0 4 + ^ = $ebp $T0 ^ = $esp $T0 8 + = $L $T0 .cbSavedRegs - = $P $T0 4 + .cbParams + = $ebx $T0 8 - ^ =
STACK WIN 4 30d7e 7c 1 0 8 8 0 0 1 $T0 $ebp = $eip $T0 4 + ^ = $ebp $T0 ^ = $esp $T0 8 + = $L $T0 .cbSavedRegs - = $P $T0 4 + .cbParams + = $ebx $T0 8 - ^ =
STACK WIN 4 30d7f 7a 0 0 8 c 0 0 1 $T0 $ebp = $eip $T0 4 + ^ = $ebp $T0 ^ = $esp $T0 8 + = $L $T0 .cbSavedRegs - = $P $T0 4 + .cbParams + = $ebx $T0 8 - ^ =
STACK WIN 4 baa1 6c a 0 8 0 0 0 1 $T0 $ebp = $eip $T0 4 + ^ = $ebp $T0 ^ = $esp $T0 8 + = $L $T0 .cbSavedRegs - = $P $T0 4 + .cbParams + =
STACK WIN 4 baa7 62 4 0 8 4 0 0 1 $T0 $ebp = $eip $T0 4 + ^ = $ebp $T0 ^ = $esp $T0 8 + = $L $T0 .cbSavedRegs - = $P $T0 4 + .cbParams + = $ebx $T0 8 - ^ =
STACK WIN 4 baab 5d 0 0 8 8 0 0 1 $T0 $ebp = $eip $T0 4 + ^ = $ebp $T0 ^ = $esp $T0 8 + = $L $T0 .cbSavedRegs - = $P $T0 4 + .cbParams + = $ebx $T0 8 - ^ =
STACK WIN 4 be01 3e c 0 8 8 18 0 1 $T0 $ebp = $eip $T0 4 + ^ = $ebp $T0 ^ = $esp $T0 8 + = $L $T0 .cbSavedRegs - = $P $T0 4 + .cbParams + =
STACK WIN 4 407a9 4 0 0 8 8 18 0 1 $T0 $ebp = $T2 $esp = $T1 .raSearchStart = $eip $T1 ^ = $ebp $ebp = $esp $T1 4 + = $L $T0 .cbSavedRegs - = $P $T0 4 + .cbParams + =
STACK WIN 4 10111 65 c 0 c 8 20 0 1 $T0 $ebp = $eip $T0 4 + ^ = $ebp $T0 ^ = $esp $T0 8 + = $L $T0 .cbSavedRegs - = $P $T0 4 + .cbParams + =
STACK WIN 4 407c5 4 0 0 c 8 20 0 1 $T0 $ebp = $T2 $esp = $T1 .raSearchStart = $eip $T1 ^ = $ebp $ebp = $esp $T1 4 + = $L $T0 .cbSavedRegs - = $P $T0 4 + .cbParams + =
STACK WIN 4 34d41 5a c 0 8 8 18 0 1 $T0 $ebp = $eip $T0 4 + ^ = $ebp $T0 ^ = $esp $T0 8 + = $L $T0 .cbSavedRegs - = $P $T0 4 + .cbParams + =
STACK WIN 4 407e1 4 0 0 8 8 18 0 1 $T0 $ebp = $T2 $esp = $T1 .raSearchStart = $eip $T1 ^ = $ebp $ebp = $esp $T1 4 + = $L $T0 .cbSavedRegs - = $P $T0 4 + .cbParams + =
STACK WIN 4 bdb6 3e c 0 4 8 18 0 1 $T0 $ebp = $eip $T0 4 + ^ = $ebp $T0 ^ = $esp $T0 8 + = $L $T0 .cbSavedRegs - = $P $T0 4 + .cbParams + =
STACK WIN 4 407fd 4 0 0 4 8 18 0 1 $T0 $ebp = $T2 $esp = $T1 .raSearchStart = $eip $T1 ^ = $ebp $ebp = $esp $T1 4 + = $L $T0 .cbSavedRegs - = $P $T0 4 + .cbParams + =
STACK WIN 4 b9ef 6c c 0 c 8 20 0 1 $T0 $ebp = $eip $T0 4 + ^ = $ebp $T0 ^ = $esp $T0 8 + = $L $T0 .cbSavedRegs - = $P $T0 4 + .cbParams + =
STACK WIN 4 40817 4 0 0 c 8 20 0 1 $T0 $ebp = $T2 $esp = $T1 .raSearchStart = $eip $T1 ^ = $ebp $ebp = $esp $T1 4 + = $L $T0 .cbSavedRegs - = $P $T0 4 + .cbParams + =
STACK WIN 4 10f32 39 c 0 8 8 18 0 1 $T0 $ebp = $eip $T0 4 + ^ = $ebp $T0 ^ = $esp $T0 8 + = $L $T0 .cbSavedRegs - = $P $T0 4 + .cbParams + =
STACK WIN 4 40833 4 0 0 8 8 18 0 1 $T0 $ebp = $T2 $esp = $T1 .raSearchStart = $eip $T1 ^ = $ebp $ebp = $esp $T1 4 + = $L $T0 .cbSavedRegs - = $P $T0 4 + .cbParams + =
STACK WIN 4 9a09 3b c 0 4 8 18 0 1 $T0 $ebp = $eip $T0 4 + ^ = $ebp $T0 ^ = $esp $T0 8 + = $L $T0 .cbSavedRegs - = $P $T0 4 + .cbParams + =
STACK WIN 4 4084f 4 0 0 4 8 18 0 1 $T0 $ebp = $T2 $esp = $T1 .raSearchStart = $eip $T1 ^ = $ebp $ebp = $esp $T1 4 + = $L $T0 .cbSavedRegs - = $P $T0 4 + .cbParams + =
STACK WIN 4 325bc f6 c 0 4 8 2c 0 1 $T0 $ebp = $eip $T0 4 + ^ = $ebp $T0 ^ = $esp $T0 8 + = $L $T0 .cbSavedRegs - = $P $T0 4 + .cbParams + =
STACK WIN 4 40892 e 0 0 4 8 2c 0 1 $T0 $ebp = $T2 $esp = $T1 .raSearchStart = $eip $T1 ^ = $ebp $ebp = $esp $T1 4 + = $L $T0 .cbSavedRegs - = $P $T0 4 + .cbParams + =
STACK WIN 4 5e882 11 0 0 8 0 0 0 1 $T2 $esp .cbLocals + .cbSavedRegs + = $T0 .raSearchStart = $eip $T0 ^ = $esp $T0 4 + =
STACK WIN 4 12bb6 69 1d 0 c 0 0 0 1 $T0 $ebp = $eip $T0 4 + ^ = $ebp $T0 ^ = $esp $T0 8 + = $L $T0 .cbSavedRegs - = $P $T0 4 + .cbParams + =
STACK WIN 4 12bd3 48 0 0 c 4 0 0 1 $T0 $ebp = $eip $T0 4 + ^ = $ebp $T0 ^ = $esp $T0 8 + = $L $T0 .cbSavedRegs - = $P $T0 4 + .cbParams + =
STACK WIN 4 10ef8 22 5 0 4 0 0 0 1 $T0 $ebp = $eip $T0 4 + ^ = $ebp $T0 ^ = $esp $T0 8 + = $L $T0 .cbSavedRegs - = $P $T0 4 + .cbParams + =
STACK WIN 4 5e898 2c 5 0 10 0 0 0 1 $T0 $ebp = $eip $T0 4 + ^ = $ebp $T0 ^ = $esp $T0 8 + = $L $T0 .cbSavedRegs - = $P $T0 4 + .cbParams + =
STACK WIN 4 5e8c9 c 5 0 10 0 0 0 1 $T0 $ebp = $eip $T0 4 + ^ = $ebp $T0 ^ = $esp $T0 8 + = $L $T0 .cbSavedRegs - = $P $T0 4 + .cbParams + =
STACK WIN 4 5e8da c 5 0 14 0 0 0 1 $T0 $ebp = $eip $T0 4 + ^ = $ebp $T0 ^ = $esp $T0 8 + = $L $T0 .cbSavedRegs - = $P $T0 4 + .cbParams + =
STACK WIN 4 5e8eb 57 9 0 c 0 40 0 1 $T0 $ebp = $eip $T0 4 + ^ = $ebp $T0 ^ = $esp $T0 8 + = $L $T0 .cbSavedRegs - = $P $T0 4 + .cbParams + =
STACK WIN 4 5e8f4 4a 0 0 c 4 40 0 1 $T0 $ebp = $eip $T0 4 + ^ = $ebp $T0 ^ = $esp $T0 8 + = $L $T0 .cbSavedRegs - = $P $T0 4 + .cbParams + =
STACK WIN 4 5e947 6f 6 0 14 0 0 0 1 $T0 $ebp = $eip $T0 4 + ^ = $ebp $T0 ^ = $esp $T0 8 + = $L $T0 .cbSavedRegs - = $P $T0 4 + .cbParams + =
STACK WIN 4 5e94d 65 0 0 14 4 0 0 1 $T0 $ebp = $eip $T0 4 + ^ = $ebp $T0 ^ = $esp $T0 8 + = $L $T0 .cbSavedRegs - = $P $T0 4 + .cbParams + =
STACK WIN 4 5e976 b 0 0 14 8 0 0 1 $T0 $ebp = $eip $T0 4 + ^ = $ebp $T0 ^ = $esp $T0 8 + = $L $T0 .cbSavedRegs - = $P $T0 4 + .cbParams + =
STACK WIN 4 5e9bb 1b 5 0 c 0 0 0 1 $T0 $ebp = $eip $T0 4 + ^ = $ebp $T0 ^ = $esp $T0 8 + = $L $T0 .cbSavedRegs - = $P $T0 4 + .cbParams + =
STACK WIN 4 abc1 d 0 0 0 0 0 0 1 $T2 $esp .cbLocals + .cbSavedRegs + = $T0 .raSearchStart = $eip $T0 ^ = $esp $T0 4 + =
STACK WIN 4 5e9db c 5 0 8 0 0 0 1 $T0 $ebp = $eip $T0 4 + ^ = $ebp $T0 ^ = $esp $T0 8 + = $L $T0 .cbSavedRegs - = $P $T0 4 + .cbParams + =
STACK WIN 4 3611e c 5 0 8 0 0 0 1 $T0 $ebp = $eip $T0 4 + ^ = $ebp $T0 ^ = $esp $T0 8 + = $L $T0 .cbSavedRegs - = $P $T0 4 + .cbParams + =
STACK WIN 4 5e9ec 15 5 0 4 0 0 0 1 $T0 $ebp = $eip $T0 4 + ^ = $ebp $T0 ^ = $esp $T0 8 + = $L $T0 .cbSavedRegs - = $P $T0 4 + .cbParams + =
STACK WIN 4 5ea06 15 5 0 4 0 0 0 1 $T0 $ebp = $eip $T0 4 + ^ = $ebp $T0 ^ = $esp $T0 8 + = $L $T0 .cbSavedRegs - = $P $T0 4 + .cbParams + =
STACK WIN 4 5ea20 100 9 0 8 0 1c 0 1 $T0 $ebp = $eip $T0 4 + ^ = $ebp $T0 ^ = $esp $T0 8 + = $L $T0 .cbSavedRegs - = $P $T0 4 + .cbParams + =
STACK WIN 4 5ea29 f3 0 0 8 4 1c 0 1 $T0 $ebp = $eip $T0 4 + ^ = $ebp $T0 ^ = $esp $T0 8 + = $L $T0 .cbSavedRegs - = $P $T0 4 + .cbParams + =
STACK WIN 4 5ea9d 74 0 0 8 8 1c 0 1 $T0 $ebp = $eip $T0 4 + ^ = $ebp $T0 ^ = $esp $T0 8 + = $L $T0 .cbSavedRegs - = $P $T0 4 + .cbParams + =
STACK WIN 4 39469 2b 5 0 10 0 0 0 1 $T0 $ebp = $eip $T0 4 + ^ = $ebp $T0 ^ = $esp $T0 8 + = $L $T0 .cbSavedRegs - = $P $T0 4 + .cbParams + =
STACK WIN 4 5eb25 2e 5 0 14 0 0 0 1 $T0 $ebp = $eip $T0 4 + ^ = $ebp $T0 ^ = $esp $T0 8 + = $L $T0 .cbSavedRegs - = $P $T0 4 + .cbParams + =
STACK WIN 4 5eb58 97 8 0 14 0 20 0 1 $T0 $ebp = $eip $T0 4 + ^ = $ebp $T0 ^ = $esp $T0 8 + = $L $T0 .cbSavedRegs - = $P $T0 4 + .cbParams + =
STACK WIN 4 5eba8 43 0 0 14 4 20 0 1 $T0 $ebp = $eip $T0 4 + ^ = $ebp $T0 ^ = $esp $T0 8 + = $L $T0 .cbSavedRegs - = $P $T0 4 + .cbParams + =
STACK WIN 4 2cdd8 5b 8 0 8 0 10 0 1 $T0 $ebp = $eip $T0 4 + ^ = $ebp $T0 ^ = $esp $T0 8 + = $L $T0 .cbSavedRegs - = $P $T0 4 + .cbParams + =
STACK WIN 4 2ccdc 122 8 0 10 0 44 0 1 $T0 $ebp = $eip $T0 4 + ^ = $ebp $T0 ^ = $esp $T0 8 + = $L $T0 .cbSavedRegs - = $P $T0 4 + .cbParams + =
STACK WIN 4 2cd12 dd 0 0 10 4 44 0 1 $T0 $ebp = $eip $T0 4 + ^ = $ebp $T0 ^ = $esp $T0 8 + = $L $T0 .cbSavedRegs - = $P $T0 4 + .cbParams + =
STACK WIN 4 2cd13 db 0 0 10 8 44 0 1 $T0 $ebp = $eip $T0 4 + ^ = $ebp $T0 ^ = $esp $T0 8 + = $L $T0 .cbSavedRegs - = $P $T0 4 + .cbParams + =
STACK WIN 4 2cc8b 66 8 0 10 0 8 0 1 $T0 $ebp = $eip $T0 4 + ^ = $ebp $T0 ^ = $esp $T0 8 + = $L $T0 .cbSavedRegs - = $P $T0 4 + .cbParams + =
STACK WIN 4 2cc93 5a 0 0 10 4 8 0 1 $T0 $ebp = $eip $T0 4 + ^ = $ebp $T0 ^ = $esp $T0 8 + = $L $T0 .cbSavedRegs - = $P $T0 4 + .cbParams + =
STACK WIN 4 34932 a4 f 0 c 0 1c 0 1 $T0 $ebp = $eip $T0 4 + ^ = $ebp $T0 ^ = $esp $T0 8 + = $L $T0 .cbSavedRegs - = $P $T0 4 + .cbParams + =
STACK WIN 4 3493b 97 6 0 c 4 1c 0 1 $T0 $ebp = $eip $T0 4 + ^ = $ebp $T0 ^ = $esp $T0 8 + = $L $T0 .cbSavedRegs - = $P $T0 4 + .cbParams + = $ebx $T0 36 - ^ =
STACK WIN 4 34941 90 0 0 c 8 1c 0 1 $T0 $ebp = $eip $T0 4 + ^ = $ebp $T0 ^ = $esp $T0 8 + = $L $T0 .cbSavedRegs - = $P $T0 4 + .cbParams + = $ebx $T0 36 - ^ =
STACK WIN 4 34976 5d 0 0 c c 1c 0 1 $T0 $ebp = $eip $T0 4 + ^ = $ebp $T0 ^ = $esp $T0 8 + = $L $T0 .cbSavedRegs - = $P $T0 4 + .cbParams + = $ebx $T0 36 - ^ =
STACK WIN 4 5ebf4 55 a 0 8 0 0 0 1 $T0 $ebp = $eip $T0 4 + ^ = $ebp $T0 ^ = $esp $T0 8 + = $L $T0 .cbSavedRegs - = $P $T0 4 + .cbParams + =
STACK WIN 4 5ebfd 48 1 0 8 4 0 0 1 $T0 $ebp = $eip $T0 4 + ^ = $ebp $T0 ^ = $esp $T0 8 + = $L $T0 .cbSavedRegs - = $P $T0 4 + .cbParams + =
STACK WIN 4 5ebfe 46 0 0 8 8 0 0 1 $T0 $ebp = $eip $T0 4 + ^ = $ebp $T0 ^ = $esp $T0 8 + = $L $T0 .cbSavedRegs - = $P $T0 4 + .cbParams + =
STACK WIN 4 5ec4e 1e 5 0 4 0 0 0 1 $T0 $ebp = $eip $T0 4 + ^ = $ebp $T0 ^ = $esp $T0 8 + = $L $T0 .cbSavedRegs - = $P $T0 4 + .cbParams + =
STACK WIN 4 34b69 1a 5 0 4 0 0 0 1 $T0 $ebp = $eip $T0 4 + ^ = $ebp $T0 ^ = $esp $T0 8 + = $L $T0 .cbSavedRegs - = $P $T0 4 + .cbParams + =
STACK WIN 4 5ec71 3a 5 0 c 0 0 0 1 $T0 $ebp = $eip $T0 4 + ^ = $ebp $T0 ^ = $esp $T0 8 + = $L $T0 .cbSavedRegs - = $P $T0 4 + .cbParams + =
STACK WIN 4 349d8 29d c 0 20 8 64 0 1 $T0 $ebp = $eip $T0 4 + ^ = $ebp $T0 ^ = $esp $T0 8 + = $L $T0 .cbSavedRegs - = $P $T0 4 + .cbParams + =
STACK WIN 4 40a26 16 0 0 20 8 64 0 1 $T0 $ebp = $T2 $esp = $T1 .raSearchStart = $eip $T1 ^ = $ebp $ebp = $esp $T1 4 + = $L $T0 .cbSavedRegs - = $P $T0 4 + .cbParams + =
STACK WIN 4 2f7a0 191 c 0 1c 0 14 0 1 $T0 $ebp = $eip $T0 4 + ^ = $ebp $T0 ^ = $esp $T0 8 + = $L $T0 .cbSavedRegs - = $P $T0 4 + .cbParams + =
STACK WIN 4 2f7ac 181 0 0 1c 4 14 0 1 $T0 $ebp = $eip $T0 4 + ^ = $ebp $T0 ^ = $esp $T0 8 + = $L $T0 .cbSavedRegs - = $P $T0 4 + .cbParams + = $ebx $T0 28 - ^ =
STACK WIN 4 2f7b9 12c 0 0 1c 8 14 0 1 $T0 $ebp = $eip $T0 4 + ^ = $ebp $T0 ^ = $esp $T0 8 + = $L $T0 .cbSavedRegs - = $P $T0 4 + .cbParams + = $ebx $T0 28 - ^ =
STACK WIN 4 2f7ca 118 0 0 1c c 14 0 1 $T0 $ebp = $eip $T0 4 + ^ = $ebp $T0 ^ = $esp $T0 8 + = $L $T0 .cbSavedRegs - = $P $T0 4 + .cbParams + = $ebx $T0 28 - ^ =
STACK WIN 4 34b8f 25 5 0 1c 0 0 0 1 $T0 $ebp = $eip $T0 4 + ^ = $ebp $T0 ^ = $esp $T0 8 + = $L $T0 .cbSavedRegs - = $P $T0 4 + .cbParams + =
STACK WIN 4 abde 58 d 0 4 0 0 0 1 $T0 $ebp = $eip $T0 4 + ^ = $ebp $T0 ^ = $esp $T0 8 + = $L $T0 .cbSavedRegs - = $P $T0 4 + .cbParams + =
STACK WIN 4 abe4 4e 7 0 4 4 0 0 1 $T0 $ebp = $eip $T0 4 + ^ = $ebp $T0 ^ = $esp $T0 8 + = $L $T0 .cbSavedRegs - = $P $T0 4 + .cbParams + = $ebx $T0 8 - ^ =
STACK WIN 4 abeb 46 0 0 4 8 0 0 1 $T0 $ebp = $eip $T0 4 + ^ = $ebp $T0 ^ = $esp $T0 8 + = $L $T0 .cbSavedRegs - = $P $T0 4 + .cbParams + = $ebx $T0 8 - ^ =
STACK WIN 4 c170 29 5 0 8 0 0 0 1 $T0 $ebp = $eip $T0 4 + ^ = $ebp $T0 ^ = $esp $T0 8 + = $L $T0 .cbSavedRegs - = $P $T0 4 + .cbParams + =
STACK WIN 4 11296 24 6 0 4 0 0 0 1 $T0 $ebp = $eip $T0 4 + ^ = $ebp $T0 ^ = $esp $T0 8 + = $L $T0 .cbSavedRegs - = $P $T0 4 + .cbParams + =
STACK WIN 4 1129c 1a 0 0 4 4 0 0 1 $T0 $ebp = $eip $T0 4 + ^ = $ebp $T0 ^ = $esp $T0 8 + = $L $T0 .cbSavedRegs - = $P $T0 4 + .cbParams + =
STACK WIN 4 5ecb0 91 8 0 4 0 10 0 1 $T0 $ebp = $eip $T0 4 + ^ = $ebp $T0 ^ = $esp $T0 8 + = $L $T0 .cbSavedRegs - = $P $T0 4 + .cbParams + =
STACK WIN 4 5ecfc 41 0 0 4 4 10 0 1 $T0 $ebp = $eip $T0 4 + ^ = $ebp $T0 ^ = $esp $T0 8 + = $L $T0 .cbSavedRegs - = $P $T0 4 + .cbParams + =
STACK WIN 4 5ed46 8c 8 0 4 0 10 0 1 $T0 $ebp = $eip $T0 4 + ^ = $ebp $T0 ^ = $esp $T0 8 + = $L $T0 .cbSavedRegs - = $P $T0 4 + .cbParams + =
STACK WIN 4 5ed8d 41 0 0 4 4 10 0 1 $T0 $ebp = $eip $T0 4 + ^ = $ebp $T0 ^ = $esp $T0 8 + = $L $T0 .cbSavedRegs - = $P $T0 4 + .cbParams + =
STACK WIN 4 5edd7 6a 7 0 8 0 0 0 1 $T0 $ebp = $eip $T0 4 + ^ = $ebp $T0 ^ = $esp $T0 8 + = $L $T0 .cbSavedRegs - = $P $T0 4 + .cbParams + =
STACK WIN 4 5eddd 60 1 0 8 4 0 0 1 $T0 $ebp = $eip $T0 4 + ^ = $ebp $T0 ^ = $esp $T0 8 + = $L $T0 .cbSavedRegs - = $P $T0 4 + .cbParams + = $ebx $T0 8 - ^ =
STACK WIN 4 5edde 5e 0 0 8 8 0 0 1 $T0 $ebp = $eip $T0 4 + ^ = $ebp $T0 ^ = $esp $T0 8 + = $L $T0 .cbSavedRegs - = $P $T0 4 + .cbParams + = $ebx $T0 8 - ^ =
STACK WIN 4 5ee15 1d 0 0 8 c 0 0 1 $T0 $ebp = $eip $T0 4 + ^ = $ebp $T0 ^ = $esp $T0 8 + = $L $T0 .cbSavedRegs - = $P $T0 4 + .cbParams + = $ebx $T0 8 - ^ =
STACK WIN 4 e477 a3 c 0 4 8 2c 0 1 $T0 $ebp = $eip $T0 4 + ^ = $ebp $T0 ^ = $esp $T0 8 + = $L $T0 .cbSavedRegs - = $P $T0 4 + .cbParams + =
STACK WIN 4 40b63 e 0 0 4 8 2c 0 1 $T0 $ebp = $T2 $esp = $T1 .raSearchStart = $eip $T1 ^ = $ebp $ebp = $esp $T1 4 + = $L $T0 .cbSavedRegs - = $P $T0 4 + .cbParams + =
STACK WIN 4 1fcff 64 5 0 c 0 0 0 1 $T0 $ebp = $eip $T0 4 + ^ = $ebp $T0 ^ = $esp $T0 8 + = $L $T0 .cbSavedRegs - = $P $T0 4 + .cbParams + =
STACK WIN 4 e4b9 26a 17 0 10 8 46c 0 1 $T0 $ebp = $eip $T0 4 + ^ = $ebp $T0 ^ = $esp $T0 8 + = $L $T0 .cbSavedRegs - = $P $T0 4 + .cbParams + =
STACK WIN 4 40c62 17 0 0 10 8 46c 0 1 $T0 $ebp = $T2 $esp = $T1 .raSearchStart = $eip $T1 ^ = $ebp $ebp = $esp $T1 4 + = $L $T0 .cbSavedRegs - = $P $T0 4 + .cbParams + =
STACK WIN 4 111da 31 0 0 0 0 0 0 1 $T2 $esp .cbLocals + .cbSavedRegs + = $T0 .raSearchStart = $eip $T0 ^ = $esp $T0 4 + =
STACK WIN 4 ae65 4a c 0 4 0 0 0 1 $T0 $ebp = $eip $T0 4 + ^ = $ebp $T0 ^ = $esp $T0 8 + = $L $T0 .cbSavedRegs - = $P $T0 4 + .cbParams + =
STACK WIN 4 ae6b 21 6 0 4 4 0 0 1 $T0 $ebp = $eip $T0 4 + ^ = $ebp $T0 ^ = $esp $T0 8 + = $L $T0 .cbSavedRegs - = $P $T0 4 + .cbParams + =
STACK WIN 4 ae71 1a 0 0 4 8 0 0 1 $T0 $ebp = $eip $T0 4 + ^ = $ebp $T0 ^ = $esp $T0 8 + = $L $T0 .cbSavedRegs - = $P $T0 4 + .cbParams + =
STACK WIN 4 1fb26 52 14 0 10 0 4 0 1 $T0 $ebp = $eip $T0 4 + ^ = $ebp $T0 ^ = $esp $T0 8 + = $L $T0 .cbSavedRegs - = $P $T0 4 + .cbParams + =
STACK WIN 4 5ee46 98 16 0 10 0 120 0 1 $T0 $ebp = $eip $T0 4 + ^ = $ebp $T0 ^ = $esp $T0 8 + = $L $T0 .cbSavedRegs - = $P $T0 4 + .cbParams + =
STACK WIN 4 9f81 31 7 0 4 0 8 0 1 $T0 $ebp = $eip $T0 4 + ^ = $ebp $T0 ^ = $esp $T0 8 + = $L $T0 .cbSavedRegs - = $P $T0 4 + .cbParams + =
STACK WIN 4 5eee3 8 0 0 c 0 0 0 1 $T2 $esp .cbLocals + .cbSavedRegs + = $T0 .raSearchStart = $eip $T0 ^ = $esp $T0 4 + =
STACK WIN 4 5eef0 3b 5 0 1c 0 0 0 1 $T0 $ebp = $eip $T0 4 + ^ = $ebp $T0 ^ = $esp $T0 8 + = $L $T0 .cbSavedRegs - = $P $T0 4 + .cbParams + =
STACK WIN 4 14c3c 1d2 1f 0 c 0 238 0 1 $T0 $ebp = $eip $T0 4 + ^ = $ebp $T0 ^ = $esp $T0 8 + = $L $T0 .cbSavedRegs - = $P $T0 4 + .cbParams + =
STACK WIN 4 14c50 1b5 b 0 c 4 238 0 1 $T0 $ebp = $eip $T0 4 + ^ = $ebp $T0 ^ = $esp $T0 8 + = $L $T0 .cbSavedRegs - = $P $T0 4 + .cbParams + = $ebx $T0 576 - ^ =
STACK WIN 4 14c5a 1aa 1 0 c 8 238 0 1 $T0 $ebp = $eip $T0 4 + ^ = $ebp $T0 ^ = $esp $T0 8 + = $L $T0 .cbSavedRegs - = $P $T0 4 + .cbParams + = $ebx $T0 576 - ^ =
STACK WIN 4 14c5b 1a8 0 0 c c 238 0 1 $T0 $ebp = $eip $T0 4 + ^ = $ebp $T0 ^ = $esp $T0 8 + = $L $T0 .cbSavedRegs - = $P $T0 4 + .cbParams + = $ebx $T0 576 - ^ =
STACK WIN 4 1af1 1fe c 0 c 8 44 0 1 $T0 $ebp = $eip $T0 4 + ^ = $ebp $T0 ^ = $esp $T0 8 + = $L $T0 .cbSavedRegs - = $P $T0 4 + .cbParams + =
STACK WIN 4 1c8c e 0 0 c 8 44 0 1 $T0 $ebp = $T2 $esp = $T1 .raSearchStart = $eip $T1 ^ = $ebp $ebp = $esp $T1 4 + = $L $T0 .cbSavedRegs - = $P $T0 4 + .cbParams + =
STACK WIN 4 5ef47 9a e 0 8 0 8 0 1 $T0 $ebp = $eip $T0 4 + ^ = $ebp $T0 ^ = $esp $T0 8 + = $L $T0 .cbSavedRegs - = $P $T0 4 + .cbParams + =
STACK WIN 4 5ef53 8a 2 0 8 4 8 0 1 $T0 $ebp = $eip $T0 4 + ^ = $ebp $T0 ^ = $esp $T0 8 + = $L $T0 .cbSavedRegs - = $P $T0 4 + .cbParams + = $ebx $T0 16 - ^ =
STACK WIN 4 5ef54 88 1 0 8 8 8 0 1 $T0 $ebp = $eip $T0 4 + ^ = $ebp $T0 ^ = $esp $T0 8 + = $L $T0 .cbSavedRegs - = $P $T0 4 + .cbParams + = $ebx $T0 16 - ^ =
STACK WIN 4 5ef55 86 0 0 8 c 8 0 1 $T0 $ebp = $eip $T0 4 + ^ = $ebp $T0 ^ = $esp $T0 8 + = $L $T0 .cbSavedRegs - = $P $T0 4 + .cbParams + = $ebx $T0 16 - ^ =
STACK WIN 4 b3d5 146 c 0 c 8 38 0 1 $T0 $ebp = $eip $T0 4 + ^ = $ebp $T0 ^ = $esp $T0 8 + = $L $T0 .cbSavedRegs - = $P $T0 4 + .cbParams + =
STACK WIN 4 40cf3 e 0 0 c 8 38 0 1 $T0 $ebp = $T2 $esp = $T1 .raSearchStart = $eip $T1 ^ = $ebp $ebp = $esp $T1 4 + = $L $T0 .cbSavedRegs - = $P $T0 4 + .cbParams + =
STACK WIN 4 40d2a e 0 0 c 8 38 0 1 $T0 $ebp = $T2 $esp = $T1 .raSearchStart = $eip $T1 ^ = $ebp $ebp = $esp $T1 4 + = $L $T0 .cbSavedRegs - = $P $T0 4 + .cbParams + =
STACK WIN 4 b4cf cc 9 0 c 0 10 0 1 $T0 $ebp = $eip $T0 4 + ^ = $ebp $T0 ^ = $esp $T0 8 + = $L $T0 .cbSavedRegs - = $P $T0 4 + .cbParams + =
STACK WIN 4 b4d8 bf 0 0 c 4 10 0 1 $T0 $ebp = $eip $T0 4 + ^ = $ebp $T0 ^ = $esp $T0 8 + = $L $T0 .cbSavedRegs - = $P $T0 4 + .cbParams + =
STACK WIN 4 b503 86 0 0 c 8 10 0 1 $T0 $ebp = $eip $T0 4 + ^ = $ebp $T0 ^ = $esp $T0 8 + = $L $T0 .cbSavedRegs - = $P $T0 4 + .cbParams + =
STACK WIN 4 e43d 34 5 0 4 0 0 0 1 $T0 $ebp = $eip $T0 4 + ^ = $ebp $T0 ^ = $esp $T0 8 + = $L $T0 .cbSavedRegs - = $P $T0 4 + .cbParams + =
STACK WIN 4 5efe6 51 6 0 c 0 0 0 1 $T0 $ebp = $eip $T0 4 + ^ = $ebp $T0 ^ = $esp $T0 8 + = $L $T0 .cbSavedRegs - = $P $T0 4 + .cbParams + =
STACK WIN 4 5efec 47 0 0 c 4 0 0 1 $T0 $ebp = $eip $T0 4 + ^ = $ebp $T0 ^ = $esp $T0 8 + = $L $T0 .cbSavedRegs - = $P $T0 4 + .cbParams + =
STACK WIN 4 1fcc1 39 6 0 c 0 0 0 1 $T0 $ebp = $eip $T0 4 + ^ = $ebp $T0 ^ = $esp $T0 8 + = $L $T0 .cbSavedRegs - = $P $T0 4 + .cbParams + =
STACK WIN 4 1fcc7 2f 0 0 c 4 0 0 1 $T0 $ebp = $eip $T0 4 + ^ = $ebp $T0 ^ = $esp $T0 8 + = $L $T0 .cbSavedRegs - = $P $T0 4 + .cbParams + =
STACK WIN 4 ada0 76 9 0 8 0 8 0 1 $T0 $ebp = $eip $T0 4 + ^ = $ebp $T0 ^ = $esp $T0 8 + = $L $T0 .cbSavedRegs - = $P $T0 4 + .cbParams + =
STACK WIN 4 ada8 6a 1 0 8 4 8 0 1 $T0 $ebp = $eip $T0 4 + ^ = $ebp $T0 ^ = $esp $T0 8 + = $L $T0 .cbSavedRegs - = $P $T0 4 + .cbParams + = $ebx $T0 16 - ^ =
STACK WIN 4 ada9 68 0 0 8 8 8 0 1 $T0 $ebp = $eip $T0 4 + ^ = $ebp $T0 ^ = $esp $T0 8 + = $L $T0 .cbSavedRegs - = $P $T0 4 + .cbParams + = $ebx $T0 16 - ^ =
STACK WIN 4 12ade 106 1a 0 4 0 130 0 1 $T0 $ebp = $eip $T0 4 + ^ = $ebp $T0 ^ = $esp $T0 8 + = $L $T0 .cbSavedRegs - = $P $T0 4 + .cbParams + =
STACK WIN 4 12aef 27 9 0 4 4 130 0 1 $T0 $ebp = $eip $T0 4 + ^ = $ebp $T0 ^ = $esp $T0 8 + = $L $T0 .cbSavedRegs - = $P $T0 4 + .cbParams + =
STACK WIN 4 12af8 1d 0 0 4 8 130 0 1 $T0 $ebp = $eip $T0 4 + ^ = $ebp $T0 ^ = $esp $T0 8 + = $L $T0 .cbSavedRegs - = $P $T0 4 + .cbParams + =
STACK WIN 4 be89 b2 c 0 c 8 30 0 1 $T0 $ebp = $eip $T0 4 + ^ = $ebp $T0 ^ = $esp $T0 8 + = $L $T0 .cbSavedRegs - = $P $T0 4 + .cbParams + =
STACK WIN 4 40d78 e 0 0 c 8 30 0 1 $T0 $ebp = $T2 $esp = $T1 .raSearchStart = $eip $T1 ^ = $ebp $ebp = $esp $T1 4 + = $L $T0 .cbSavedRegs - = $P $T0 4 + .cbParams + =
STACK WIN 4 35f78 b6 c 0 10 8 30 0 1 $T0 $ebp = $eip $T0 4 + ^ = $ebp $T0 ^ = $esp $T0 8 + = $L $T0 .cbSavedRegs - = $P $T0 4 + .cbParams + =
STACK WIN 4 40da4 e 0 0 10 8 30 0 1 $T0 $ebp = $T2 $esp = $T1 .raSearchStart = $eip $T1 ^ = $ebp $ebp = $esp $T1 4 + = $L $T0 .cbSavedRegs - = $P $T0 4 + .cbParams + =
STACK WIN 4 9fb5 5f c 0 8 8 24 0 1 $T0 $ebp = $eip $T0 4 + ^ = $ebp $T0 ^ = $esp $T0 8 + = $L $T0 .cbSavedRegs - = $P $T0 4 + .cbParams + =
STACK WIN 4 40dd0 e 0 0 8 8 24 0 1 $T0 $ebp = $T2 $esp = $T1 .raSearchStart = $eip $T1 ^ = $ebp $ebp = $esp $T1 4 + = $L $T0 .cbSavedRegs - = $P $T0 4 + .cbParams + =
STACK WIN 4 bc69 5f c 0 8 8 24 0 1 $T0 $ebp = $eip $T0 4 + ^ = $ebp $T0 ^ = $esp $T0 8 + = $L $T0 .cbSavedRegs - = $P $T0 4 + .cbParams + =
STACK WIN 4 40e00 e 0 0 8 8 24 0 1 $T0 $ebp = $T2 $esp = $T1 .raSearchStart = $eip $T1 ^ = $ebp $ebp = $esp $T1 4 + = $L $T0 .cbSavedRegs - = $P $T0 4 + .cbParams + =
STACK WIN 4 5f03c 1ce c 0 c 8 50 0 1 $T0 $ebp = $eip $T0 4 + ^ = $ebp $T0 ^ = $esp $T0 8 + = $L $T0 .cbSavedRegs - = $P $T0 4 + .cbParams + =
STACK WIN 4 5f1bf e 0 0 c 8 50 0 1 $T0 $ebp = $T2 $esp = $T1 .raSearchStart = $eip $T1 ^ = $ebp $ebp = $esp $T1 4 + = $L $T0 .cbSavedRegs - = $P $T0 4 + .cbParams + =
STACK WIN 4 5f229 203 c 0 10 8 54 0 1 $T0 $ebp = $eip $T0 4 + ^ = $ebp $T0 ^ = $esp $T0 8 + = $L $T0 .cbSavedRegs - = $P $T0 4 + .cbParams + =
STACK WIN 4 5f3e0 e 0 0 10 8 54 0 1 $T0 $ebp = $T2 $esp = $T1 .raSearchStart = $eip $T1 ^ = $ebp $ebp = $esp $T1 4 + = $L $T0 .cbSavedRegs - = $P $T0 4 + .cbParams + =
STACK WIN 4 2e000 136 c 0 14 8 38 0 1 $T0 $ebp = $eip $T0 4 + ^ = $ebp $T0 ^ = $esp $T0 8 + = $L $T0 .cbSavedRegs - = $P $T0 4 + .cbParams + =
STACK WIN 4 40e66 e 0 0 14 8 38 0 1 $T0 $ebp = $T2 $esp = $T1 .raSearchStart = $eip $T1 ^ = $ebp $ebp = $esp $T1 4 + = $L $T0 .cbSavedRegs - = $P $T0 4 + .cbParams + =
STACK WIN 4 ac88 b6 c 0 10 8 30 0 1 $T0 $ebp = $eip $T0 4 + ^ = $ebp $T0 ^ = $esp $T0 8 + = $L $T0 .cbSavedRegs - = $P $T0 4 + .cbParams + =
STACK WIN 4 40e92 e 0 0 10 8 30 0 1 $T0 $ebp = $T2 $esp = $T1 .raSearchStart = $eip $T1 ^ = $ebp $ebp = $esp $T1 4 + = $L $T0 .cbSavedRegs - = $P $T0 4 + .cbParams + =
STACK WIN 4 5f449 1cb c 0 c 8 4c 0 1 $T0 $ebp = $eip $T0 4 + ^ = $ebp $T0 ^ = $esp $T0 8 + = $L $T0 .cbSavedRegs - = $P $T0 4 + .cbParams + =
STACK WIN 4 5f5c9 e 0 0 c 8 4c 0 1 $T0 $ebp = $T2 $esp = $T1 .raSearchStart = $eip $T1 ^ = $ebp $ebp = $esp $T1 4 + = $L $T0 .cbSavedRegs - = $P $T0 4 + .cbParams + =
STACK WIN 4 5f631 130 c 0 14 8 38 0 1 $T0 $ebp = $eip $T0 4 + ^ = $ebp $T0 ^ = $esp $T0 8 + = $L $T0 .cbSavedRegs - = $P $T0 4 + .cbParams + =
STACK WIN 4 5f72a e 0 0 14 8 38 0 1 $T0 $ebp = $T2 $esp = $T1 .raSearchStart = $eip $T1 ^ = $ebp $ebp = $esp $T1 4 + = $L $T0 .cbSavedRegs - = $P $T0 4 + .cbParams + =
STACK WIN 4 ae4b 15 5 0 4 0 0 0 1 $T0 $ebp = $eip $T0 4 + ^ = $ebp $T0 ^ = $esp $T0 8 + = $L $T0 .cbSavedRegs - = $P $T0 4 + .cbParams + =
STACK WIN 4 1d4f 23 5 0 c 0 0 0 1 $T0 $ebp = $eip $T0 4 + ^ = $ebp $T0 ^ = $esp $T0 8 + = $L $T0 .cbSavedRegs - = $P $T0 4 + .cbParams + =
STACK WIN 4 b6a1 31 5 0 4 0 0 0 1 $T0 $ebp = $eip $T0 4 + ^ = $ebp $T0 ^ = $esp $T0 8 + = $L $T0 .cbSavedRegs - = $P $T0 4 + .cbParams + =
STACK WIN 4 1d77 9a b 0 4 0 0 0 1 $T0 $ebp = $eip $T0 4 + ^ = $ebp $T0 ^ = $esp $T0 8 + = $L $T0 .cbSavedRegs - = $P $T0 4 + .cbParams + =
STACK WIN 4 1d81 8c 1 0 4 4 0 0 1 $T0 $ebp = $eip $T0 4 + ^ = $ebp $T0 ^ = $esp $T0 8 + = $L $T0 .cbSavedRegs - = $P $T0 4 + .cbParams + = $ebx $T0 8 - ^ =
STACK WIN 4 1d82 8a 0 0 4 8 0 0 1 $T0 $ebp = $eip $T0 4 + ^ = $ebp $T0 ^ = $esp $T0 8 + = $L $T0 .cbSavedRegs - = $P $T0 4 + .cbParams + = $ebx $T0 8 - ^ =
STACK WIN 4 1dcf 3c 0 0 4 c 0 0 1 $T0 $ebp = $eip $T0 4 + ^ = $ebp $T0 ^ = $esp $T0 8 + = $L $T0 .cbSavedRegs - = $P $T0 4 + .cbParams + = $ebx $T0 8 - ^ =
STACK WIN 4 3145b 88 d 0 8 0 8 0 1 $T0 $ebp = $eip $T0 4 + ^ = $ebp $T0 ^ = $esp $T0 8 + = $L $T0 .cbSavedRegs - = $P $T0 4 + .cbParams + =
STACK WIN 4 31463 7c 5 0 8 4 8 0 1 $T0 $ebp = $eip $T0 4 + ^ = $ebp $T0 ^ = $esp $T0 8 + = $L $T0 .cbSavedRegs - = $P $T0 4 + .cbParams + = $ebx $T0 16 - ^ =
STACK WIN 4 31464 7a 4 0 8 8 8 0 1 $T0 $ebp = $eip $T0 4 + ^ = $ebp $T0 ^ = $esp $T0 8 + = $L $T0 .cbSavedRegs - = $P $T0 4 + .cbParams + = $ebx $T0 16 - ^ =
STACK WIN 4 31468 75 0 0 8 c 8 0 1 $T0 $ebp = $eip $T0 4 + ^ = $ebp $T0 ^ = $esp $T0 8 + = $L $T0 .cbSavedRegs - = $P $T0 4 + .cbParams + = $ebx $T0 16 - ^ =
STACK WIN 4 1269f 52 8 0 4 0 8 0 1 $T0 $ebp = $eip $T0 4 + ^ = $ebp $T0 ^ = $esp $T0 8 + = $L $T0 .cbSavedRegs - = $P $T0 4 + .cbParams + =
STACK WIN 4 126a7 46 0 0 4 4 8 0 1 $T0 $ebp = $eip $T0 4 + ^ = $ebp $T0 ^ = $esp $T0 8 + = $L $T0 .cbSavedRegs - = $P $T0 4 + .cbParams + =
STACK WIN 4 5f781 db c 0 c 0 c 0 1 $T0 $ebp = $eip $T0 4 + ^ = $ebp $T0 ^ = $esp $T0 8 + = $L $T0 .cbSavedRegs - = $P $T0 4 + .cbParams + =
STACK WIN 4 5f78d cb 0 0 c 4 c 0 1 $T0 $ebp = $eip $T0 4 + ^ = $ebp $T0 ^ = $esp $T0 8 + = $L $T0 .cbSavedRegs - = $P $T0 4 + .cbParams + =
STACK WIN 4 5f7e8 64 0 0 c 8 c 0 1 $T0 $ebp = $eip $T0 4 + ^ = $ebp $T0 ^ = $esp $T0 8 + = $L $T0 .cbSavedRegs - = $P $T0 4 + .cbParams + =
STACK WIN 4 313ec d5 e 0 10 0 18 0 1 $T0 $ebp = $eip $T0 4 + ^ = $ebp $T0 ^ = $esp $T0 8 + = $L $T0 .cbSavedRegs - = $P $T0 4 + .cbParams + =
STACK WIN 4 313fa c3 0 0 10 4 18 0 1 $T0 $ebp = $eip $T0 4 + ^ = $ebp $T0 ^ = $esp $T0 8 + = $L $T0 .cbSavedRegs - = $P $T0 4 + .cbParams + =
STACK WIN 4 31439 78 0 0 10 8 18 0 1 $T0 $ebp = $eip $T0 4 + ^ = $ebp $T0 ^ = $esp $T0 8 + = $L $T0 .cbSavedRegs - = $P $T0 4 + .cbParams + =
STACK WIN 4 5f88a 80 8 0 14 0 30 0 1 $T0 $ebp = $eip $T0 4 + ^ = $ebp $T0 ^ = $esp $T0 8 + = $L $T0 .cbSavedRegs - = $P $T0 4 + .cbParams + =
STACK WIN 4 5f90f 13f c 0 18 8 28 0 1 $T0 $ebp = $eip $T0 4 + ^ = $ebp $T0 ^ = $esp $T0 8 + = $L $T0 .cbSavedRegs - = $P $T0 4 + .cbParams + =
STACK WIN 4 5f9fa 4 0 0 18 8 28 0 1 $T0 $ebp = $T2 $esp = $T1 .raSearchStart = $eip $T1 ^ = $ebp $ebp = $esp $T1 4 + = $L $T0 .cbSavedRegs - = $P $T0 4 + .cbParams + =
STACK WIN 4 5fa2d 1e 0 0 18 8 28 0 1 $T0 $ebp = $T2 $esp = $T1 .raSearchStart = $eip $T1 ^ = $ebp $ebp = $esp $T1 4 + = $L $T0 .cbSavedRegs - = $P $T0 4 + .cbParams + =
STACK WIN 4 312e5 119 c 0 1c 8 24 0 1 $T0 $ebp = $eip $T0 4 + ^ = $ebp $T0 ^ = $esp $T0 8 + = $L $T0 .cbSavedRegs - = $P $T0 4 + .cbParams + =
STACK WIN 4 40faa 4 0 0 1c 8 24 0 1 $T0 $ebp = $T2 $esp = $T1 .raSearchStart = $eip $T1 ^ = $ebp $ebp = $esp $T1 4 + = $L $T0 .cbSavedRegs - = $P $T0 4 + .cbParams + =
STACK WIN 4 40fe6 4 0 0 1c 8 24 0 1 $T0 $ebp = $T2 $esp = $T1 .raSearchStart = $eip $T1 ^ = $ebp $ebp = $esp $T1 4 + = $L $T0 .cbSavedRegs - = $P $T0 4 + .cbParams + =
STACK WIN 4 2c664 30b 8 0 8 0 50 0 1 $T0 $ebp = $eip $T0 4 + ^ = $ebp $T0 ^ = $esp $T0 8 + = $L $T0 .cbSavedRegs - = $P $T0 4 + .cbParams + =
STACK WIN 4 2c686 2db 0 0 8 4 50 0 1 $T0 $ebp = $eip $T0 4 + ^ = $ebp $T0 ^ = $esp $T0 8 + = $L $T0 .cbSavedRegs - = $P $T0 4 + .cbParams + =
STACK WIN 4 2c6b1 2ad 0 0 8 8 50 0 1 $T0 $ebp = $eip $T0 4 + ^ = $ebp $T0 ^ = $esp $T0 8 + = $L $T0 .cbSavedRegs - = $P $T0 4 + .cbParams + =
STACK WIN 4 2f0d4 295 12 0 20 0 5c 0 1 $T0 $ebp = $eip $T0 4 + ^ = $ebp $T0 ^ = $esp $T0 8 + = $L $T0 .cbSavedRegs - = $P $T0 4 + .cbParams + =
STACK WIN 4 2f0e0 285 6 0 20 4 5c 0 1 $T0 $ebp = $eip $T0 4 + ^ = $ebp $T0 ^ = $esp $T0 8 + = $L $T0 .cbSavedRegs - = $P $T0 4 + .cbParams + = $ebx $T0 100 - ^ =
STACK WIN 4 2f0e5 27f 1 0 20 8 5c 0 1 $T0 $ebp = $eip $T0 4 + ^ = $ebp $T0 ^ = $esp $T0 8 + = $L $T0 .cbSavedRegs - = $P $T0 4 + .cbParams + = $ebx $T0 100 - ^ =
STACK WIN 4 2f0e6 27d 0 0 20 c 5c 0 1 $T0 $ebp = $eip $T0 4 + ^ = $ebp $T0 ^ = $esp $T0 8 + = $L $T0 .cbSavedRegs - = $P $T0 4 + .cbParams + = $ebx $T0 100 - ^ =
STACK WIN 4 5fa85 f5 11 0 1c 0 40 0 1 $T0 $ebp = $eip $T0 4 + ^ = $ebp $T0 ^ = $esp $T0 8 + = $L $T0 .cbSavedRegs - = $P $T0 4 + .cbParams + =
STACK WIN 4 5fa8e e8 8 0 1c 4 40 0 1 $T0 $ebp = $eip $T0 4 + ^ = $ebp $T0 ^ = $esp $T0 8 + = $L $T0 .cbSavedRegs - = $P $T0 4 + .cbParams + = $ebx $T0 72 - ^ =
STACK WIN 4 5fa8f e6 7 0 1c 8 40 0 1 $T0 $ebp = $eip $T0 4 + ^ = $ebp $T0 ^ = $esp $T0 8 + = $L $T0 .cbSavedRegs - = $P $T0 4 + .cbParams + = $ebx $T0 72 - ^ =
STACK WIN 4 5fa96 de 0 0 1c c 40 0 1 $T0 $ebp = $eip $T0 4 + ^ = $ebp $T0 ^ = $esp $T0 8 + = $L $T0 .cbSavedRegs - = $P $T0 4 + .cbParams + = $ebx $T0 72 - ^ =
STACK WIN 4 5fb7f a1 c 0 1c 8 24 0 1 $T0 $ebp = $eip $T0 4 + ^ = $ebp $T0 ^ = $esp $T0 8 + = $L $T0 .cbSavedRegs - = $P $T0 4 + .cbParams + =
STACK WIN 4 5fc02 9 0 0 1c 8 24 0 1 $T0 $ebp = $T2 $esp = $T1 .raSearchStart = $eip $T1 ^ = $ebp $ebp = $esp $T1 4 + = $L $T0 .cbSavedRegs - = $P $T0 4 + .cbParams + =
STACK WIN 4 5fc39 36 7 0 8 0 8 0 1 $T0 $ebp = $eip $T0 4 + ^ = $ebp $T0 ^ = $esp $T0 8 + = $L $T0 .cbSavedRegs - = $P $T0 4 + .cbParams + =
STACK WIN 4 5fc51 1a 0 0 8 4 8 0 1 $T0 $ebp = $eip $T0 4 + ^ = $ebp $T0 ^ = $esp $T0 8 + = $L $T0 .cbSavedRegs - = $P $T0 4 + .cbParams + =
STACK WIN 4 5fc74 72 8 0 20 0 8 0 1 $T0 $ebp = $eip $T0 4 + ^ = $ebp $T0 ^ = $esp $T0 8 + = $L $T0 .cbSavedRegs - = $P $T0 4 + .cbParams + =
STACK WIN 4 5fc7c 66 0 0 20 4 8 0 1 $T0 $ebp = $eip $T0 4 + ^ = $ebp $T0 ^ = $esp $T0 8 + = $L $T0 .cbSavedRegs - = $P $T0 4 + .cbParams + =
STACK WIN 4 5fceb de b 0 1c 0 10 0 1 $T0 $ebp = $eip $T0 4 + ^ = $ebp $T0 ^ = $esp $T0 8 + = $L $T0 .cbSavedRegs - = $P $T0 4 + .cbParams + =
STACK WIN 4 5fcf4 d1 2 0 1c 4 10 0 1 $T0 $ebp = $eip $T0 4 + ^ = $ebp $T0 ^ = $esp $T0 8 + = $L $T0 .cbSavedRegs - = $P $T0 4 + .cbParams + = $ebx $T0 24 - ^ =
STACK WIN 4 5fcf5 cf 1 0 1c 8 10 0 1 $T0 $ebp = $eip $T0 4 + ^ = $ebp $T0 ^ = $esp $T0 8 + = $L $T0 .cbSavedRegs - = $P $T0 4 + .cbParams + = $ebx $T0 24 - ^ =
STACK WIN 4 5fcf6 cd 0 0 1c c 10 0 1 $T0 $ebp = $eip $T0 4 + ^ = $ebp $T0 ^ = $esp $T0 8 + = $L $T0 .cbSavedRegs - = $P $T0 4 + .cbParams + = $ebx $T0 24 - ^ =
STACK WIN 4 5fdce 6e 8 0 1c 0 8 0 1 $T0 $ebp = $eip $T0 4 + ^ = $ebp $T0 ^ = $esp $T0 8 + = $L $T0 .cbSavedRegs - = $P $T0 4 + .cbParams + =
STACK WIN 4 5fdd6 62 0 0 1c 4 8 0 1 $T0 $ebp = $eip $T0 4 + ^ = $ebp $T0 ^ = $esp $T0 8 + = $L $T0 .cbSavedRegs - = $P $T0 4 + .cbParams + =
STACK WIN 4 5fe41 46 8 0 4 0 c 0 1 $T0 $ebp = $eip $T0 4 + ^ = $ebp $T0 ^ = $esp $T0 8 + = $L $T0 .cbSavedRegs - = $P $T0 4 + .cbParams + =
STACK WIN 4 5fe8c 88 b 0 8 0 8c 0 1 $T0 $ebp = $eip $T0 4 + ^ = $ebp $T0 ^ = $esp $T0 8 + = $L $T0 .cbSavedRegs - = $P $T0 4 + .cbParams + =
STACK WIN 4 5fed6 2f 0 0 8 4 8c 0 1 $T0 $ebp = $eip $T0 4 + ^ = $ebp $T0 ^ = $esp $T0 8 + = $L $T0 .cbSavedRegs - = $P $T0 4 + .cbParams + =
STACK WIN 4 5ff19 60 b 0 8 0 8c 0 1 $T0 $ebp = $eip $T0 4 + ^ = $ebp $T0 ^ = $esp $T0 8 + = $L $T0 .cbSavedRegs - = $P $T0 4 + .cbParams + =
STACK WIN 4 5ff7e 41 9 0 c 0 0 0 1 $T0 $ebp = $eip $T0 4 + ^ = $ebp $T0 ^ = $esp $T0 8 + = $L $T0 .cbSavedRegs - = $P $T0 4 + .cbParams + =
STACK WIN 4 5ff87 25 0 0 c 4 0 0 1 $T0 $ebp = $eip $T0 4 + ^ = $ebp $T0 ^ = $esp $T0 8 + = $L $T0 .cbSavedRegs - = $P $T0 4 + .cbParams + =
STACK WIN 4 5ffc4 41 9 0 c 0 0 0 1 $T0 $ebp = $eip $T0 4 + ^ = $ebp $T0 ^ = $esp $T0 8 + = $L $T0 .cbSavedRegs - = $P $T0 4 + .cbParams + =
STACK WIN 4 5ffcd 25 0 0 c 4 0 0 1 $T0 $ebp = $eip $T0 4 + ^ = $ebp $T0 ^ = $esp $T0 8 + = $L $T0 .cbSavedRegs - = $P $T0 4 + .cbParams + =
STACK WIN 4 6000a 60 b 0 8 0 8c 0 1 $T0 $ebp = $eip $T0 4 + ^ = $ebp $T0 ^ = $esp $T0 8 + = $L $T0 .cbSavedRegs - = $P $T0 4 + .cbParams + =
STACK WIN 4 6006f 5e 9 0 4 0 4 0 1 $T0 $ebp = $eip $T0 4 + ^ = $ebp $T0 ^ = $esp $T0 8 + = $L $T0 .cbSavedRegs - = $P $T0 4 + .cbParams + =
STACK WIN 4 6007b 4e 0 0 4 4 4 0 1 $T0 $ebp = $eip $T0 4 + ^ = $ebp $T0 ^ = $esp $T0 8 + = $L $T0 .cbSavedRegs - = $P $T0 4 + .cbParams + =
STACK WIN 4 6008a 3d 0 0 4 8 4 0 1 $T0 $ebp = $eip $T0 4 + ^ = $ebp $T0 ^ = $esp $T0 8 + = $L $T0 .cbSavedRegs - = $P $T0 4 + .cbParams + =
STACK WIN 4 600d2 2f8 c 0 10 0 34 0 1 $T0 $ebp = $eip $T0 4 + ^ = $ebp $T0 ^ = $esp $T0 8 + = $L $T0 .cbSavedRegs - = $P $T0 4 + .cbParams + =
STACK WIN 4 600db 2eb 3 0 10 4 34 0 1 $T0 $ebp = $eip $T0 4 + ^ = $ebp $T0 ^ = $esp $T0 8 + = $L $T0 .cbSavedRegs - = $P $T0 4 + .cbParams + = $ebx $T0 60 - ^ =
STACK WIN 4 600de 2e7 0 0 10 8 34 0 1 $T0 $ebp = $eip $T0 4 + ^ = $ebp $T0 ^ = $esp $T0 8 + = $L $T0 .cbSavedRegs - = $P $T0 4 + .cbParams + = $ebx $T0 60 - ^ =
STACK WIN 4 6013a 28a 0 0 10 c 34 0 1 $T0 $ebp = $eip $T0 4 + ^ = $ebp $T0 ^ = $esp $T0 8 + = $L $T0 .cbSavedRegs - = $P $T0 4 + .cbParams + = $ebx $T0 60 - ^ =
STACK WIN 4 f182 110 1b 0 8 0 654 0 1 $T0 $ebp = $eip $T0 4 + ^ = $ebp $T0 ^ = $esp $T0 8 + = $L $T0 .cbSavedRegs - = $P $T0 4 + .cbParams + =
STACK WIN 4 f193 f6 a 0 8 4 654 0 1 $T0 $ebp = $eip $T0 4 + ^ = $ebp $T0 ^ = $esp $T0 8 + = $L $T0 .cbSavedRegs - = $P $T0 4 + .cbParams + =
STACK WIN 4 f19d eb 0 0 8 8 654 0 1 $T0 $ebp = $eip $T0 4 + ^ = $ebp $T0 ^ = $esp $T0 8 + = $L $T0 .cbSavedRegs - = $P $T0 4 + .cbParams + =
STACK WIN 4 31db9 55 5 0 8 0 0 0 1 $T0 $ebp = $eip $T0 4 + ^ = $ebp $T0 ^ = $esp $T0 8 + = $L $T0 .cbSavedRegs - = $P $T0 4 + .cbParams + =
STACK WIN 4 31ddd 2a 0 0 8 4 0 0 1 $T0 $ebp = $eip $T0 4 + ^ = $ebp $T0 ^ = $esp $T0 8 + = $L $T0 .cbSavedRegs - = $P $T0 4 + .cbParams + =
STACK WIN 4 ad29 4d 5 0 8 0 0 0 1 $T0 $ebp = $eip $T0 4 + ^ = $ebp $T0 ^ = $esp $T0 8 + = $L $T0 .cbSavedRegs - = $P $T0 4 + .cbParams + =
STACK WIN 4 ad46 2a 0 0 8 4 0 0 1 $T0 $ebp = $eip $T0 4 + ^ = $ebp $T0 ^ = $esp $T0 8 + = $L $T0 .cbSavedRegs - = $P $T0 4 + .cbParams + =
STACK WIN 4 ad7b 24 5 0 8 0 0 0 1 $T0 $ebp = $eip $T0 4 + ^ = $ebp $T0 ^ = $esp $T0 8 + = $L $T0 .cbSavedRegs - = $P $T0 4 + .cbParams + =
STACK WIN 4 b2d0 3aa 18 0 4 0 480 0 1 $T0 $ebp = $eip $T0 4 + ^ = $ebp $T0 ^ = $esp $T0 8 + = $L $T0 .cbSavedRegs - = $P $T0 4 + .cbParams + =
STACK WIN 4 b2e1 37f 7 0 4 4 480 0 1 $T0 $ebp = $eip $T0 4 + ^ = $ebp $T0 ^ = $esp $T0 8 + = $L $T0 .cbSavedRegs - = $P $T0 4 + .cbParams + = $ebx $T0 1160 - ^ =
STACK WIN 4 b2e7 378 1 0 4 8 480 0 1 $T0 $ebp = $eip $T0 4 + ^ = $ebp $T0 ^ = $esp $T0 8 + = $L $T0 .cbSavedRegs - = $P $T0 4 + .cbParams + = $ebx $T0 1160 - ^ =
STACK WIN 4 b2e8 376 0 0 4 c 480 0 1 $T0 $ebp = $eip $T0 4 + ^ = $ebp $T0 ^ = $esp $T0 8 + = $L $T0 .cbSavedRegs - = $P $T0 4 + .cbParams + = $ebx $T0 1160 - ^ =
STACK WIN 4 112d5 1d5 c 0 c 8 38 0 1 $T0 $ebp = $eip $T0 4 + ^ = $ebp $T0 ^ = $esp $T0 8 + = $L $T0 .cbSavedRegs - = $P $T0 4 + .cbParams + =
STACK WIN 4 11419 21 0 0 c 8 38 0 1 $T0 $ebp = $T2 $esp = $T1 .raSearchStart = $eip $T1 ^ = $ebp $ebp = $esp $T1 4 + = $L $T0 .cbSavedRegs - = $P $T0 4 + .cbParams + =
STACK WIN 4 359b7 29d 26 0 10 0 ec 0 1 $T0 $ebp = $eip $T0 4 + ^ = $ebp $T0 ^ = $esp $T0 8 + = $L $T0 .cbSavedRegs - = $P $T0 4 + .cbParams + =
STACK WIN 4 359cf 27c e 0 10 4 ec 0 1 $T0 $ebp = $eip $T0 4 + ^ = $ebp $T0 ^ = $esp $T0 8 + = $L $T0 .cbSavedRegs - = $P $T0 4 + .cbParams + = $ebx $T0 244 - ^ =
STACK WIN 4 359dc 26e 1 0 10 8 ec 0 1 $T0 $ebp = $eip $T0 4 + ^ = $ebp $T0 ^ = $esp $T0 8 + = $L $T0 .cbSavedRegs - = $P $T0 4 + .cbParams + = $ebx $T0 244 - ^ =
STACK WIN 4 359dd 26c 0 0 10 c ec 0 1 $T0 $ebp = $eip $T0 4 + ^ = $ebp $T0 ^ = $esp $T0 8 + = $L $T0 .cbSavedRegs - = $P $T0 4 + .cbParams + = $ebx $T0 244 - ^ =
STACK WIN 4 301af 196 c 0 14 0 44 0 1 $T0 $ebp = $eip $T0 4 + ^ = $ebp $T0 ^ = $esp $T0 8 + = $L $T0 .cbSavedRegs - = $P $T0 4 + .cbParams + =
STACK WIN 4 301bb 186 0 0 14 4 44 0 1 $T0 $ebp = $eip $T0 4 + ^ = $ebp $T0 ^ = $esp $T0 8 + = $L $T0 .cbSavedRegs - = $P $T0 4 + .cbParams + = $ebx $T0 76 - ^ =
STACK WIN 4 301e5 152 0 0 14 8 44 0 1 $T0 $ebp = $eip $T0 4 + ^ = $ebp $T0 ^ = $esp $T0 8 + = $L $T0 .cbSavedRegs - = $P $T0 4 + .cbParams + = $ebx $T0 76 - ^ =
STACK WIN 4 12803 1c9 c 0 10 0 4c 0 1 $T0 $ebp = $eip $T0 4 + ^ = $ebp $T0 ^ = $esp $T0 8 + = $L $T0 .cbSavedRegs - = $P $T0 4 + .cbParams + =
STACK WIN 4 1280f 1b9 0 0 10 4 4c 0 1 $T0 $ebp = $eip $T0 4 + ^ = $ebp $T0 ^ = $esp $T0 8 + = $L $T0 .cbSavedRegs - = $P $T0 4 + .cbParams + = $ebx $T0 84 - ^ =
STACK WIN 4 12839 185 0 0 10 8 4c 0 1 $T0 $ebp = $eip $T0 4 + ^ = $ebp $T0 ^ = $esp $T0 8 + = $L $T0 .cbSavedRegs - = $P $T0 4 + .cbParams + = $ebx $T0 84 - ^ =
STACK WIN 4 1283d 180 0 0 10 c 4c 0 1 $T0 $ebp = $eip $T0 4 + ^ = $ebp $T0 ^ = $esp $T0 8 + = $L $T0 .cbSavedRegs - = $P $T0 4 + .cbParams + = $ebx $T0 84 - ^ =
STACK WIN 4 f9e5 37d c 0 20 8 6c 0 1 $T0 $ebp = $eip $T0 4 + ^ = $ebp $T0 ^ = $esp $T0 8 + = $L $T0 .cbSavedRegs - = $P $T0 4 + .cbParams + =
STACK WIN 4 4171b 4 0 0 20 8 6c 0 1 $T0 $ebp = $T2 $esp = $T1 .raSearchStart = $eip $T1 ^ = $ebp $ebp = $esp $T1 4 + = $L $T0 .cbSavedRegs - = $P $T0 4 + .cbParams + =
STACK WIN 4 41748 48 0 0 20 8 6c 0 1 $T0 $ebp = $T2 $esp = $T1 .raSearchStart = $eip $T1 ^ = $ebp $ebp = $esp $T1 4 + = $L $T0 .cbSavedRegs - = $P $T0 4 + .cbParams + =
STACK WIN 4 2c2d3 8f e 0 8 0 10 0 1 $T0 $ebp = $eip $T0 4 + ^ = $ebp $T0 ^ = $esp $T0 8 + = $L $T0 .cbSavedRegs - = $P $T0 4 + .cbParams + =
STACK WIN 4 2c2dc 7a 5 0 8 4 10 0 1 $T0 $ebp = $eip $T0 4 + ^ = $ebp $T0 ^ = $esp $T0 8 + = $L $T0 .cbSavedRegs - = $P $T0 4 + .cbParams + = $ebx $T0 24 - ^ =
STACK WIN 4 2c2dd 78 4 0 8 8 10 0 1 $T0 $ebp = $eip $T0 4 + ^ = $ebp $T0 ^ = $esp $T0 8 + = $L $T0 .cbSavedRegs - = $P $T0 4 + .cbParams + = $ebx $T0 24 - ^ =
STACK WIN 4 2c2e1 73 0 0 8 c 10 0 1 $T0 $ebp = $eip $T0 4 + ^ = $ebp $T0 ^ = $esp $T0 8 + = $L $T0 .cbSavedRegs - = $P $T0 4 + .cbParams + = $ebx $T0 24 - ^ =
STACK WIN 4 603cf bc 1c 0 8 0 20 0 1 $T0 $ebp = $eip $T0 4 + ^ = $ebp $T0 ^ = $esp $T0 8 + = $L $T0 .cbSavedRegs - = $P $T0 4 + .cbParams + =
STACK WIN 4 603e3 91 8 0 8 4 20 0 1 $T0 $ebp = $eip $T0 4 + ^ = $ebp $T0 ^ = $esp $T0 8 + = $L $T0 .cbSavedRegs - = $P $T0 4 + .cbParams + = $ebx $T0 40 - ^ =
STACK WIN 4 603ea 89 1 0 8 8 20 0 1 $T0 $ebp = $eip $T0 4 + ^ = $ebp $T0 ^ = $esp $T0 8 + = $L $T0 .cbSavedRegs - = $P $T0 4 + .cbParams + = $ebx $T0 40 - ^ =
STACK WIN 4 603eb 87 0 0 8 c 20 0 1 $T0 $ebp = $eip $T0 4 + ^ = $ebp $T0 ^ = $esp $T0 8 + = $L $T0 .cbSavedRegs - = $P $T0 4 + .cbParams + = $ebx $T0 40 - ^ =
STACK WIN 4 60499 35e 17 0 8 8 274 0 1 $T0 $ebp = $eip $T0 4 + ^ = $ebp $T0 ^ = $esp $T0 8 + = $L $T0 .cbSavedRegs - = $P $T0 4 + .cbParams + =
STACK WIN 4 607cb 30 0 0 8 8 274 0 1 $T0 $ebp = $T2 $esp = $T1 .raSearchStart = $eip $T1 ^ = $ebp $ebp = $esp $T1 4 + = $L $T0 .cbSavedRegs - = $P $T0 4 + .cbParams + =
STACK WIN 4 60811 e9 1c 0 14 0 2c 0 1 $T0 $ebp = $eip $T0 4 + ^ = $ebp $T0 ^ = $esp $T0 8 + = $L $T0 .cbSavedRegs - = $P $T0 4 + .cbParams + =
STACK WIN 4 60822 cf b 0 14 4 2c 0 1 $T0 $ebp = $eip $T0 4 + ^ = $ebp $T0 ^ = $esp $T0 8 + = $L $T0 .cbSavedRegs - = $P $T0 4 + .cbParams + = $ebx $T0 52 - ^ =
STACK WIN 4 60826 ca 7 0 14 8 2c 0 1 $T0 $ebp = $eip $T0 4 + ^ = $ebp $T0 ^ = $esp $T0 8 + = $L $T0 .cbSavedRegs - = $P $T0 4 + .cbParams + = $ebx $T0 52 - ^ =
STACK WIN 4 6082d c2 0 0 14 c 2c 0 1 $T0 $ebp = $eip $T0 4 + ^ = $ebp $T0 ^ = $esp $T0 8 + = $L $T0 .cbSavedRegs - = $P $T0 4 + .cbParams + = $ebx $T0 52 - ^ =
STACK WIN 4 14eea 6e 8 0 8 0 c 0 1 $T0 $ebp = $eip $T0 4 + ^ = $ebp $T0 ^ = $esp $T0 8 + = $L $T0 .cbSavedRegs - = $P $T0 4 + .cbParams + =
STACK WIN 4 212f1 6e 8 0 8 0 c 0 1 $T0 $ebp = $eip $T0 4 + ^ = $ebp $T0 ^ = $esp $T0 8 + = $L $T0 .cbSavedRegs - = $P $T0 4 + .cbParams + =
STACK WIN 4 21363 24 5 0 8 0 0 0 1 $T0 $ebp = $eip $T0 4 + ^ = $ebp $T0 ^ = $esp $T0 8 + = $L $T0 .cbSavedRegs - = $P $T0 4 + .cbParams + =
STACK WIN 4 214e3 2b 5 0 4 0 0 0 1 $T0 $ebp = $eip $T0 4 + ^ = $ebp $T0 ^ = $esp $T0 8 + = $L $T0 .cbSavedRegs - = $P $T0 4 + .cbParams + =
STACK WIN 4 217ea 213 a 0 18 0 18 0 1 $T0 $ebp = $eip $T0 4 + ^ = $ebp $T0 ^ = $esp $T0 8 + = $L $T0 .cbSavedRegs - = $P $T0 4 + .cbParams + =
STACK WIN 4 217f3 206 1 0 18 4 18 0 1 $T0 $ebp = $eip $T0 4 + ^ = $ebp $T0 ^ = $esp $T0 8 + = $L $T0 .cbSavedRegs - = $P $T0 4 + .cbParams + =
STACK WIN 4 217f4 204 0 0 18 8 18 0 1 $T0 $ebp = $eip $T0 4 + ^ = $ebp $T0 ^ = $esp $T0 8 + = $L $T0 .cbSavedRegs - = $P $T0 4 + .cbParams + =
STACK WIN 4 30789 16 5 0 8 0 0 0 1 $T0 $ebp = $eip $T0 4 + ^ = $ebp $T0 ^ = $esp $T0 8 + = $L $T0 .cbSavedRegs - = $P $T0 4 + .cbParams + =
STACK WIN 4 608ff e9 9 0 10 0 18 0 1 $T0 $ebp = $eip $T0 4 + ^ = $ebp $T0 ^ = $esp $T0 8 + = $L $T0 .cbSavedRegs - = $P $T0 4 + .cbParams + =
STACK WIN 4 60908 dc 0 0 10 4 18 0 1 $T0 $ebp = $eip $T0 4 + ^ = $ebp $T0 ^ = $esp $T0 8 + = $L $T0 .cbSavedRegs - = $P $T0 4 + .cbParams + =
STACK WIN 4 302ed 36 5 0 14 0 0 0 1 $T0 $ebp = $eip $T0 4 + ^ = $ebp $T0 ^ = $esp $T0 8 + = $L $T0 .cbSavedRegs - = $P $T0 4 + .cbParams + =
STACK WIN 4 3039b 33 5 0 10 0 0 0 1 $T0 $ebp = $eip $T0 4 + ^ = $ebp $T0 ^ = $esp $T0 8 + = $L $T0 .cbSavedRegs - = $P $T0 4 + .cbParams + =
STACK WIN 4 21ba5 1d5 c 0 20 8 54 0 1 $T0 $ebp = $eip $T0 4 + ^ = $ebp $T0 ^ = $esp $T0 8 + = $L $T0 .cbSavedRegs - = $P $T0 4 + .cbParams + =
STACK WIN 4 418d1 3f 0 0 20 8 54 0 1 $T0 $ebp = $T2 $esp = $T1 .raSearchStart = $eip $T1 ^ = $ebp $ebp = $esp $T1 4 + = $L $T0 .cbSavedRegs - = $P $T0 4 + .cbParams + =
STACK WIN 4 609ed 5f 7 0 8 0 8 0 1 $T0 $ebp = $eip $T0 4 + ^ = $ebp $T0 ^ = $esp $T0 8 + = $L $T0 .cbSavedRegs - = $P $T0 4 + .cbParams + =
STACK WIN 4 60a02 46 0 0 8 4 8 0 1 $T0 $ebp = $eip $T0 4 + ^ = $ebp $T0 ^ = $esp $T0 8 + = $L $T0 .cbSavedRegs - = $P $T0 4 + .cbParams + =
STACK WIN 4 60a51 55 5 0 14 0 0 0 1 $T0 $ebp = $eip $T0 4 + ^ = $ebp $T0 ^ = $esp $T0 8 + = $L $T0 .cbSavedRegs - = $P $T0 4 + .cbParams + =
STACK WIN 4 35dca 172 11 0 8 0 14 0 1 $T0 $ebp = $eip $T0 4 + ^ = $ebp $T0 ^ = $esp $T0 8 + = $L $T0 .cbSavedRegs - = $P $T0 4 + .cbParams + =
STACK WIN 4 35dd6 162 5 0 8 4 14 0 1 $T0 $ebp = $eip $T0 4 + ^ = $ebp $T0 ^ = $esp $T0 8 + = $L $T0 .cbSavedRegs - = $P $T0 4 + .cbParams + = $ebx $T0 28 - ^ =
STACK WIN 4 35ddb 15c 0 0 8 8 14 0 1 $T0 $ebp = $eip $T0 4 + ^ = $ebp $T0 ^ = $esp $T0 8 + = $L $T0 .cbSavedRegs - = $P $T0 4 + .cbParams + = $ebx $T0 28 - ^ =
STACK WIN 4 35e0c 11d 0 0 8 c 14 0 1 $T0 $ebp = $eip $T0 4 + ^ = $ebp $T0 ^ = $esp $T0 8 + = $L $T0 .cbSavedRegs - = $P $T0 4 + .cbParams + = $ebx $T0 28 - ^ =
STACK WIN 4 a427 40 7 0 4 0 8 0 1 $T0 $ebp = $eip $T0 4 + ^ = $ebp $T0 ^ = $esp $T0 8 + = $L $T0 .cbSavedRegs - = $P $T0 4 + .cbParams + =
STACK WIN 4 2fa46 42 8 0 4 0 8 0 1 $T0 $ebp = $eip $T0 4 + ^ = $ebp $T0 ^ = $esp $T0 8 + = $L $T0 .cbSavedRegs - = $P $T0 4 + .cbParams + =
STACK WIN 4 2fa4e 36 0 0 4 4 8 0 1 $T0 $ebp = $eip $T0 4 + ^ = $ebp $T0 ^ = $esp $T0 8 + = $L $T0 .cbSavedRegs - = $P $T0 4 + .cbParams + =
STACK WIN 4 1e0c7 19e 31 0 10 0 148 0 1 $T0 $ebp = $eip $T0 4 + ^ = $ebp $T0 ^ = $esp $T0 8 + = $L $T0 .cbSavedRegs - = $P $T0 4 + .cbParams + =
STACK WIN 4 1e0df 17d 19 0 10 4 148 0 1 $T0 $ebp = $eip $T0 4 + ^ = $ebp $T0 ^ = $esp $T0 8 + = $L $T0 .cbSavedRegs - = $P $T0 4 + .cbParams + = $ebx $T0 336 - ^ =
STACK WIN 4 1e0e9 172 f 0 10 8 148 0 1 $T0 $ebp = $eip $T0 4 + ^ = $ebp $T0 ^ = $esp $T0 8 + = $L $T0 .cbSavedRegs - = $P $T0 4 + .cbParams + = $ebx $T0 336 - ^ =
STACK WIN 4 1e0f8 162 0 0 10 c 148 0 1 $T0 $ebp = $eip $T0 4 + ^ = $ebp $T0 ^ = $esp $T0 8 + = $L $T0 .cbSavedRegs - = $P $T0 4 + .cbParams + = $ebx $T0 336 - ^ =
STACK WIN 4 35340 bd f 0 4 0 24 0 1 $T0 $ebp = $eip $T0 4 + ^ = $ebp $T0 ^ = $esp $T0 8 + = $L $T0 .cbSavedRegs - = $P $T0 4 + .cbParams + =
STACK WIN 4 3534e a6 1 0 4 4 24 0 1 $T0 $ebp = $eip $T0 4 + ^ = $ebp $T0 ^ = $esp $T0 8 + = $L $T0 .cbSavedRegs - = $P $T0 4 + .cbParams + = $ebx $T0 44 - ^ =
STACK WIN 4 3534f a4 0 0 4 8 24 0 1 $T0 $ebp = $eip $T0 4 + ^ = $ebp $T0 ^ = $esp $T0 8 + = $L $T0 .cbSavedRegs - = $P $T0 4 + .cbParams + = $ebx $T0 44 - ^ =
STACK WIN 4 35370 e 0 0 4 c 24 0 1 $T0 $ebp = $eip $T0 4 + ^ = $ebp $T0 ^ = $esp $T0 8 + = $L $T0 .cbSavedRegs - = $P $T0 4 + .cbParams + = $ebx $T0 44 - ^ =
STACK WIN 4 60aab 44 5 0 8 0 0 0 1 $T0 $ebp = $eip $T0 4 + ^ = $ebp $T0 ^ = $esp $T0 8 + = $L $T0 .cbSavedRegs - = $P $T0 4 + .cbParams + =
STACK WIN 4 392b5 27 5 0 4 0 0 0 1 $T0 $ebp = $eip $T0 4 + ^ = $ebp $T0 ^ = $esp $T0 8 + = $L $T0 .cbSavedRegs - = $P $T0 4 + .cbParams + =
STACK WIN 4 60af4 23 5 0 4 0 0 0 1 $T0 $ebp = $eip $T0 4 + ^ = $ebp $T0 ^ = $esp $T0 8 + = $L $T0 .cbSavedRegs - = $P $T0 4 + .cbParams + =
STACK WIN 4 60b1c 3f 5 0 8 0 0 0 1 $T0 $ebp = $eip $T0 4 + ^ = $ebp $T0 ^ = $esp $T0 8 + = $L $T0 .cbSavedRegs - = $P $T0 4 + .cbParams + =
STACK WIN 4 60b60 a 0 0 0 0 0 0 1 $T2 $esp .cbLocals + .cbSavedRegs + = $T0 .raSearchStart = $eip $T0 ^ = $esp $T0 4 + =
STACK WIN 4 60b6f 23 5 0 4 0 0 0 1 $T0 $ebp = $eip $T0 4 + ^ = $ebp $T0 ^ = $esp $T0 8 + = $L $T0 .cbSavedRegs - = $P $T0 4 + .cbParams + =
STACK WIN 4 60b97 23 5 0 4 0 0 0 1 $T0 $ebp = $eip $T0 4 + ^ = $ebp $T0 ^ = $esp $T0 8 + = $L $T0 .cbSavedRegs - = $P $T0 4 + .cbParams + =
STACK WIN 4 60bbf f 0 0 8 0 0 0 1 $T2 $esp .cbLocals + .cbSavedRegs + = $T0 .raSearchStart = $eip $T0 ^ = $esp $T0 4 + =
STACK WIN 4 2f3a4 86 8 0 4 0 0 0 1 $T0 $ebp = $eip $T0 4 + ^ = $ebp $T0 ^ = $esp $T0 8 + = $L $T0 .cbSavedRegs - = $P $T0 4 + .cbParams + =
STACK WIN 4 2f3aa 7c 2 0 4 4 0 0 1 $T0 $ebp = $eip $T0 4 + ^ = $ebp $T0 ^ = $esp $T0 8 + = $L $T0 .cbSavedRegs - = $P $T0 4 + .cbParams + = $ebx $T0 8 - ^ =
STACK WIN 4 2f3ab 7a 1 0 4 8 0 0 1 $T0 $ebp = $eip $T0 4 + ^ = $ebp $T0 ^ = $esp $T0 8 + = $L $T0 .cbSavedRegs - = $P $T0 4 + .cbParams + = $ebx $T0 8 - ^ =
STACK WIN 4 2f3ac 78 0 0 4 c 0 0 1 $T0 $ebp = $eip $T0 4 + ^ = $ebp $T0 ^ = $esp $T0 8 + = $L $T0 .cbSavedRegs - = $P $T0 4 + .cbParams + = $ebx $T0 8 - ^ =
STACK WIN 4 1a1cf 35 5 0 8 0 0 0 1 $T0 $ebp = $eip $T0 4 + ^ = $ebp $T0 ^ = $esp $T0 8 + = $L $T0 .cbSavedRegs - = $P $T0 4 + .cbParams + =
STACK WIN 4 1500c 90 e 0 0 0 20 0 1 $T0 $ebp = $eip $T0 4 + ^ = $ebp $T0 ^ = $esp $T0 8 + = $L $T0 .cbSavedRegs - = $P $T0 4 + .cbParams + =
STACK WIN 4 1501a 7b 0 0 0 4 20 0 1 $T0 $ebp = $eip $T0 4 + ^ = $ebp $T0 ^ = $esp $T0 8 + = $L $T0 .cbSavedRegs - = $P $T0 4 + .cbParams + =
STACK WIN 4 1ac85 28 0 0 0 8 20 0 1 $T0 $ebp = $eip $T0 4 + ^ = $ebp $T0 ^ = $esp $T0 8 + = $L $T0 .cbSavedRegs - = $P $T0 4 + .cbParams + =
STACK WIN 4 1930f 29e 1a 0 1c 0 248 0 1 $T0 $ebp = $eip $T0 4 + ^ = $ebp $T0 ^ = $esp $T0 8 + = $L $T0 .cbSavedRegs - = $P $T0 4 + .cbParams + =
STACK WIN 4 19376 228 0 0 1c 4 248 0 1 $T0 $ebp = $eip $T0 4 + ^ = $ebp $T0 ^ = $esp $T0 8 + = $L $T0 .cbSavedRegs - = $P $T0 4 + .cbParams + =
STACK WIN 4 19377 226 0 0 1c 8 248 0 1 $T0 $ebp = $eip $T0 4 + ^ = $ebp $T0 ^ = $esp $T0 8 + = $L $T0 .cbSavedRegs - = $P $T0 4 + .cbParams + =
STACK WIN 4 16f8e 11 5 0 4 0 0 0 1 $T0 $ebp = $eip $T0 4 + ^ = $ebp $T0 ^ = $esp $T0 8 + = $L $T0 .cbSavedRegs - = $P $T0 4 + .cbParams + =
STACK WIN 4 2dfa0 41 6 0 c 0 4 0 1 $T0 $ebp = $eip $T0 4 + ^ = $ebp $T0 ^ = $esp $T0 8 + = $L $T0 .cbSavedRegs - = $P $T0 4 + .cbParams + =
STACK WIN 4 60bd3 95 7 0 c 0 0 0 1 $T0 $ebp = $eip $T0 4 + ^ = $ebp $T0 ^ = $esp $T0 8 + = $L $T0 .cbSavedRegs - = $P $T0 4 + .cbParams + =
STACK WIN 4 60bd9 8b 1 0 c 4 0 0 1 $T0 $ebp = $eip $T0 4 + ^ = $ebp $T0 ^ = $esp $T0 8 + = $L $T0 .cbSavedRegs - = $P $T0 4 + .cbParams + =
STACK WIN 4 60bda 87 0 0 c 8 0 0 1 $T0 $ebp = $eip $T0 4 + ^ = $ebp $T0 ^ = $esp $T0 8 + = $L $T0 .cbSavedRegs - = $P $T0 4 + .cbParams + =
STACK WIN 4 309e1 5f 12 0 c 0 20 0 1 $T0 $ebp = $eip $T0 4 + ^ = $ebp $T0 ^ = $esp $T0 8 + = $L $T0 .cbSavedRegs - = $P $T0 4 + .cbParams + =
STACK WIN 4 309f3 3a 0 0 c 4 20 0 1 $T0 $ebp = $eip $T0 4 + ^ = $ebp $T0 ^ = $esp $T0 8 + = $L $T0 .cbSavedRegs - = $P $T0 4 + .cbParams + =
STACK WIN 4 1cd34 82 17 0 4 8 e0 0 1 $T0 $ebp = $eip $T0 4 + ^ = $ebp $T0 ^ = $esp $T0 8 + = $L $T0 .cbSavedRegs - = $P $T0 4 + .cbParams + =
STACK WIN 4 41b32 7 0 0 4 8 e0 0 1 $T0 $ebp = $T2 $esp = $T1 .raSearchStart = $eip $T1 ^ = $ebp $ebp = $esp $T1 4 + = $L $T0 .cbSavedRegs - = $P $T0 4 + .cbParams + =
STACK WIN 4 1e16 35 5 0 8 0 0 0 1 $T0 $ebp = $eip $T0 4 + ^ = $ebp $T0 ^ = $esp $T0 8 + = $L $T0 .cbSavedRegs - = $P $T0 4 + .cbParams + =
STACK WIN 4 1ae17 4a 9 0 8 0 18 0 1 $T0 $ebp = $eip $T0 4 + ^ = $ebp $T0 ^ = $esp $T0 8 + = $L $T0 .cbSavedRegs - = $P $T0 4 + .cbParams + =
STACK WIN 4 1ae20 3d 0 0 8 4 18 0 1 $T0 $ebp = $eip $T0 4 + ^ = $ebp $T0 ^ = $esp $T0 8 + = $L $T0 .cbSavedRegs - = $P $T0 4 + .cbParams + =
STACK WIN 4 1e50 97 5 0 4 0 0 0 1 $T0 $ebp = $eip $T0 4 + ^ = $ebp $T0 ^ = $esp $T0 8 + = $L $T0 .cbSavedRegs - = $P $T0 4 + .cbParams + =
STACK WIN 4 1eee 2bc c 0 4 8 28 0 1 $T0 $ebp = $eip $T0 4 + ^ = $ebp $T0 ^ = $esp $T0 8 + = $L $T0 .cbSavedRegs - = $P $T0 4 + .cbParams + =
STACK WIN 4 21af 7 0 0 4 8 28 0 1 $T0 $ebp = $T2 $esp = $T1 .raSearchStart = $eip $T1 ^ = $ebp $ebp = $esp $T1 4 + = $L $T0 .cbSavedRegs - = $P $T0 4 + .cbParams + =
STACK WIN 4 12f1d 6 0 0 0 0 0 0 1 $T2 $esp .cbLocals + .cbSavedRegs + = $T0 .raSearchStart = $eip $T0 ^ = $esp $T0 4 + =
STACK WIN 4 16f83 6 0 0 0 0 0 0 1 $T2 $esp .cbLocals + .cbSavedRegs + = $T0 .raSearchStart = $eip $T0 ^ = $esp $T0 4 + =
STACK WIN 4 1df77 23 5 0 4 0 0 0 1 $T0 $ebp = $eip $T0 4 + ^ = $ebp $T0 ^ = $esp $T0 8 + = $L $T0 .cbSavedRegs - = $P $T0 4 + .cbParams + =
STACK WIN 4 12f08 10 0 0 0 0 0 0 1 $T2 $esp .cbLocals + .cbSavedRegs + = $T0 .raSearchStart = $eip $T0 ^ = $esp $T0 4 + =
STACK WIN 4 1cf5b b6 9 0 0 0 10 0 1 $T0 $ebp = $eip $T0 4 + ^ = $ebp $T0 ^ = $esp $T0 8 + = $L $T0 .cbSavedRegs - = $P $T0 4 + .cbParams + =
STACK WIN 4 1cf64 ab 0 0 0 4 10 0 1 $T0 $ebp = $eip $T0 4 + ^ = $ebp $T0 ^ = $esp $T0 8 + = $L $T0 .cbSavedRegs - = $P $T0 4 + .cbParams + =
STACK WIN 4 14af2 1d1 9 0 c 0 20 0 1 $T0 $ebp = $eip $T0 4 + ^ = $ebp $T0 ^ = $esp $T0 8 + = $L $T0 .cbSavedRegs - = $P $T0 4 + .cbParams + =
STACK WIN 4 14afb 1c4 0 0 c 4 20 0 1 $T0 $ebp = $eip $T0 4 + ^ = $ebp $T0 ^ = $esp $T0 8 + = $L $T0 .cbSavedRegs - = $P $T0 4 + .cbParams + = $ebx $T0 40 - ^ =
STACK WIN 4 14b23 192 0 0 c 8 20 0 1 $T0 $ebp = $eip $T0 4 + ^ = $ebp $T0 ^ = $esp $T0 8 + = $L $T0 .cbSavedRegs - = $P $T0 4 + .cbParams + = $ebx $T0 40 - ^ =
STACK WIN 4 14b42 177 0 0 c c 20 0 1 $T0 $ebp = $eip $T0 4 + ^ = $ebp $T0 ^ = $esp $T0 8 + = $L $T0 .cbSavedRegs - = $P $T0 4 + .cbParams + = $ebx $T0 40 - ^ =
STACK WIN 4 33478 b4 10 0 8 0 20 0 1 $T0 $ebp = $eip $T0 4 + ^ = $ebp $T0 ^ = $esp $T0 8 + = $L $T0 .cbSavedRegs - = $P $T0 4 + .cbParams + =
STACK WIN 4 33481 a7 7 0 8 4 20 0 1 $T0 $ebp = $eip $T0 4 + ^ = $ebp $T0 ^ = $esp $T0 8 + = $L $T0 .cbSavedRegs - = $P $T0 4 + .cbParams + =
STACK WIN 4 33488 9f 0 0 8 8 20 0 1 $T0 $ebp = $eip $T0 4 + ^ = $ebp $T0 ^ = $esp $T0 8 + = $L $T0 .cbSavedRegs - = $P $T0 4 + .cbParams + =
STACK WIN 4 f0f4 a5 11 0 c 0 10 0 1 $T0 $ebp = $eip $T0 4 + ^ = $ebp $T0 ^ = $esp $T0 8 + = $L $T0 .cbSavedRegs - = $P $T0 4 + .cbParams + =
STACK WIN 4 f105 90 0 0 c 4 10 0 1 $T0 $ebp = $eip $T0 4 + ^ = $ebp $T0 ^ = $esp $T0 8 + = $L $T0 .cbSavedRegs - = $P $T0 4 + .cbParams + =
STACK WIN 4 f132 59 0 0 c 8 10 0 1 $T0 $ebp = $eip $T0 4 + ^ = $ebp $T0 ^ = $esp $T0 8 + = $L $T0 .cbSavedRegs - = $P $T0 4 + .cbParams + =
STACK WIN 4 101be 59 9 0 8 0 10 0 1 $T0 $ebp = $eip $T0 4 + ^ = $ebp $T0 ^ = $esp $T0 8 + = $L $T0 .cbSavedRegs - = $P $T0 4 + .cbParams + =
STACK WIN 4 101c7 4c 0 0 8 4 10 0 1 $T0 $ebp = $eip $T0 4 + ^ = $ebp $T0 ^ = $esp $T0 8 + = $L $T0 .cbSavedRegs - = $P $T0 4 + .cbParams + =
STACK WIN 4 329d9 159 15 0 c 0 20 0 1 $T0 $ebp = $eip $T0 4 + ^ = $ebp $T0 ^ = $esp $T0 8 + = $L $T0 .cbSavedRegs - = $P $T0 4 + .cbParams + =
STACK WIN 4 329e2 14c c 0 c 4 20 0 1 $T0 $ebp = $eip $T0 4 + ^ = $ebp $T0 ^ = $esp $T0 8 + = $L $T0 .cbSavedRegs - = $P $T0 4 + .cbParams + = $ebx $T0 40 - ^ =
STACK WIN 4 329e3 14a b 0 c 8 20 0 1 $T0 $ebp = $eip $T0 4 + ^ = $ebp $T0 ^ = $esp $T0 8 + = $L $T0 .cbSavedRegs - = $P $T0 4 + .cbParams + = $ebx $T0 40 - ^ =
STACK WIN 4 329ee 13e 0 0 c c 20 0 1 $T0 $ebp = $eip $T0 4 + ^ = $ebp $T0 ^ = $esp $T0 8 + = $L $T0 .cbSavedRegs - = $P $T0 4 + .cbParams + = $ebx $T0 40 - ^ =
STACK WIN 4 305f6 6d 9 0 c 0 10 0 1 $T0 $ebp = $eip $T0 4 + ^ = $ebp $T0 ^ = $esp $T0 8 + = $L $T0 .cbSavedRegs - = $P $T0 4 + .cbParams + =
STACK WIN 4 305ff 48 0 0 c 4 10 0 1 $T0 $ebp = $eip $T0 4 + ^ = $ebp $T0 ^ = $esp $T0 8 + = $L $T0 .cbSavedRegs - = $P $T0 4 + .cbParams + =
STACK WIN 4 9920 a 0 0 0 0 0 0 1 $T2 $esp .cbLocals + .cbSavedRegs + = $T0 .raSearchStart = $eip $T0 ^ = $esp $T0 4 + =
STACK WIN 4 60c75 30 8 0 4 0 18 0 1 $T0 $ebp = $eip $T0 4 + ^ = $ebp $T0 ^ = $esp $T0 8 + = $L $T0 .cbSavedRegs - = $P $T0 4 + .cbParams + =
STACK WIN 4 21cc 3c 5 0 14 0 0 0 1 $T0 $ebp = $eip $T0 4 + ^ = $ebp $T0 ^ = $esp $T0 8 + = $L $T0 .cbSavedRegs - = $P $T0 4 + .cbParams + =
STACK WIN 4 220f 10c 16 0 14 0 8 0 1 $T0 $ebp = $eip $T0 4 + ^ = $ebp $T0 ^ = $esp $T0 8 + = $L $T0 .cbSavedRegs - = $P $T0 4 + .cbParams + =
STACK WIN 4 221a fd b 0 14 4 8 0 1 $T0 $ebp = $eip $T0 4 + ^ = $ebp $T0 ^ = $esp $T0 8 + = $L $T0 .cbSavedRegs - = $P $T0 4 + .cbParams + = $ebx $T0 16 - ^ =
STACK WIN 4 221e f8 7 0 14 8 8 0 1 $T0 $ebp = $eip $T0 4 + ^ = $ebp $T0 ^ = $esp $T0 8 + = $L $T0 .cbSavedRegs - = $P $T0 4 + .cbParams + = $ebx $T0 16 - ^ =
STACK WIN 4 2225 f0 0 0 14 c 8 0 1 $T0 $ebp = $eip $T0 4 + ^ = $ebp $T0 ^ = $esp $T0 8 + = $L $T0 .cbSavedRegs - = $P $T0 4 + .cbParams + = $ebx $T0 16 - ^ =
STACK WIN 4 60caa 49 8 0 8 0 c 0 1 $T0 $ebp = $eip $T0 4 + ^ = $ebp $T0 ^ = $esp $T0 8 + = $L $T0 .cbSavedRegs - = $P $T0 4 + .cbParams + =
STACK WIN 4 60cf8 49 8 0 8 0 8 0 1 $T0 $ebp = $eip $T0 4 + ^ = $ebp $T0 ^ = $esp $T0 8 + = $L $T0 .cbSavedRegs - = $P $T0 4 + .cbParams + =
STACK WIN 4 60d00 3d 0 0 8 4 8 0 1 $T0 $ebp = $eip $T0 4 + ^ = $ebp $T0 ^ = $esp $T0 8 + = $L $T0 .cbSavedRegs - = $P $T0 4 + .cbParams + =
STACK WIN 4 60d46 e 5 0 4 0 0 0 1 $T0 $ebp = $eip $T0 4 + ^ = $ebp $T0 ^ = $esp $T0 8 + = $L $T0 .cbSavedRegs - = $P $T0 4 + .cbParams + =
STACK WIN 4 ae2a 1c 5 0 4 0 0 0 1 $T0 $ebp = $eip $T0 4 + ^ = $ebp $T0 ^ = $esp $T0 8 + = $L $T0 .cbSavedRegs - = $P $T0 4 + .cbParams + =
STACK WIN 4 60d58 aa 9 0 10 0 14 0 1 $T0 $ebp = $eip $T0 4 + ^ = $ebp $T0 ^ = $esp $T0 8 + = $L $T0 .cbSavedRegs - = $P $T0 4 + .cbParams + =
STACK WIN 4 60d61 9d 0 0 10 4 14 0 1 $T0 $ebp = $eip $T0 4 + ^ = $ebp $T0 ^ = $esp $T0 8 + = $L $T0 .cbSavedRegs - = $P $T0 4 + .cbParams + =
STACK WIN 4 60dbf 29 0 0 10 8 14 0 1 $T0 $ebp = $eip $T0 4 + ^ = $ebp $T0 ^ = $esp $T0 8 + = $L $T0 .cbSavedRegs - = $P $T0 4 + .cbParams + =
STACK WIN 4 60e13 61 5 0 4 0 0 0 1 $T0 $ebp = $eip $T0 4 + ^ = $ebp $T0 ^ = $esp $T0 8 + = $L $T0 .cbSavedRegs - = $P $T0 4 + .cbParams + =
STACK WIN 4 9e01 6f c 0 8 8 20 0 1 $T0 $ebp = $eip $T0 4 + ^ = $ebp $T0 ^ = $esp $T0 8 + = $L $T0 .cbSavedRegs - = $P $T0 4 + .cbParams + =
STACK WIN 4 41c56 4 0 0 8 8 20 0 1 $T0 $ebp = $T2 $esp = $T1 .raSearchStart = $eip $T1 ^ = $ebp $ebp = $esp $T1 4 + = $L $T0 .cbSavedRegs - = $P $T0 4 + .cbParams + =
STACK WIN 4 3593f b 5 0 8 0 0 0 1 $T0 $ebp = $eip $T0 4 + ^ = $ebp $T0 ^ = $esp $T0 8 + = $L $T0 .cbSavedRegs - = $P $T0 4 + .cbParams + =
STACK WIN 4 9e79 73 c 0 8 8 20 0 1 $T0 $ebp = $eip $T0 4 + ^ = $ebp $T0 ^ = $esp $T0 8 + = $L $T0 .cbSavedRegs - = $P $T0 4 + .cbParams + =
STACK WIN 4 41c70 4 0 0 8 8 20 0 1 $T0 $ebp = $T2 $esp = $T1 .raSearchStart = $eip $T1 ^ = $ebp $ebp = $esp $T1 4 + = $L $T0 .cbSavedRegs - = $P $T0 4 + .cbParams + =
STACK WIN 4 bf9d b 5 0 8 0 0 0 1 $T0 $ebp = $eip $T0 4 + ^ = $ebp $T0 ^ = $esp $T0 8 + = $L $T0 .cbSavedRegs - = $P $T0 4 + .cbParams + =
STACK WIN 4 bccf 13 5 0 4 0 0 0 1 $T0 $ebp = $eip $T0 4 + ^ = $ebp $T0 ^ = $esp $T0 8 + = $L $T0 .cbSavedRegs - = $P $T0 4 + .cbParams + =
STACK WIN 4 32259 57 c 0 8 8 20 0 1 $T0 $ebp = $eip $T0 4 + ^ = $ebp $T0 ^ = $esp $T0 8 + = $L $T0 .cbSavedRegs - = $P $T0 4 + .cbParams + =
STACK WIN 4 41c8a 4 0 0 8 8 20 0 1 $T0 $ebp = $T2 $esp = $T1 .raSearchStart = $eip $T1 ^ = $ebp $ebp = $esp $T1 4 + = $L $T0 .cbSavedRegs - = $P $T0 4 + .cbParams + =
STACK WIN 4 a5dc 5d c 0 8 8 20 0 1 $T0 $ebp = $eip $T0 4 + ^ = $ebp $T0 ^ = $esp $T0 8 + = $L $T0 .cbSavedRegs - = $P $T0 4 + .cbParams + =
STACK WIN 4 41ca4 4 0 0 8 8 20 0 1 $T0 $ebp = $T2 $esp = $T1 .raSearchStart = $eip $T1 ^ = $ebp $ebp = $esp $T1 4 + = $L $T0 .cbSavedRegs - = $P $T0 4 + .cbParams + =
STACK WIN 4 2c8ed 62 13 0 8 0 c4 0 1 $T0 $ebp = $eip $T0 4 + ^ = $ebp $T0 ^ = $esp $T0 8 + = $L $T0 .cbSavedRegs - = $P $T0 4 + .cbParams + =
STACK WIN 4 60e79 6a 15 0 8 0 c4 0 1 $T0 $ebp = $eip $T0 4 + ^ = $ebp $T0 ^ = $esp $T0 8 + = $L $T0 .cbSavedRegs - = $P $T0 4 + .cbParams + =
STACK WIN 4 60e8a 50 4 0 8 4 c4 0 1 $T0 $ebp = $eip $T0 4 + ^ = $ebp $T0 ^ = $esp $T0 8 + = $L $T0 .cbSavedRegs - = $P $T0 4 + .cbParams + =
STACK WIN 4 60e8e 4b 0 0 8 8 c4 0 1 $T0 $ebp = $eip $T0 4 + ^ = $ebp $T0 ^ = $esp $T0 8 + = $L $T0 .cbSavedRegs - = $P $T0 4 + .cbParams + =
STACK WIN 4 60ee8 35 6 0 4 0 4 0 1 $T0 $ebp = $eip $T0 4 + ^ = $ebp $T0 ^ = $esp $T0 8 + = $L $T0 .cbSavedRegs - = $P $T0 4 + .cbParams + =
STACK WIN 4 60f22 141 19 0 c 0 8 0 1 $T0 $ebp = $eip $T0 4 + ^ = $ebp $T0 ^ = $esp $T0 8 + = $L $T0 .cbSavedRegs - = $P $T0 4 + .cbParams + =
STACK WIN 4 60f36 129 5 0 c 4 8 0 1 $T0 $ebp = $eip $T0 4 + ^ = $ebp $T0 ^ = $esp $T0 8 + = $L $T0 .cbSavedRegs - = $P $T0 4 + .cbParams + = $ebx $T0 16 - ^ =
STACK WIN 4 60f37 127 4 0 c 8 8 0 1 $T0 $ebp = $eip $T0 4 + ^ = $ebp $T0 ^ = $esp $T0 8 + = $L $T0 .cbSavedRegs - = $P $T0 4 + .cbParams + = $ebx $T0 16 - ^ =
STACK WIN 4 60f3b 122 0 0 c c 8 0 1 $T0 $ebp = $eip $T0 4 + ^ = $ebp $T0 ^ = $esp $T0 8 + = $L $T0 .cbSavedRegs - = $P $T0 4 + .cbParams + = $ebx $T0 16 - ^ =
STACK WIN 4 352d9 68 8 0 14 0 20 0 1 $T0 $ebp = $eip $T0 4 + ^ = $ebp $T0 ^ = $esp $T0 8 + = $L $T0 .cbSavedRegs - = $P $T0 4 + .cbParams + =
STACK WIN 4 21765 48 8 0 c 0 18 0 1 $T0 $ebp = $eip $T0 4 + ^ = $ebp $T0 ^ = $esp $T0 8 + = $L $T0 .cbSavedRegs - = $P $T0 4 + .cbParams + =
STACK WIN 4 61068 43 9 0 c 0 20 0 1 $T0 $ebp = $eip $T0 4 + ^ = $ebp $T0 ^ = $esp $T0 8 + = $L $T0 .cbSavedRegs - = $P $T0 4 + .cbParams + =
STACK WIN 4 61071 36 0 0 c 4 20 0 1 $T0 $ebp = $eip $T0 4 + ^ = $ebp $T0 ^ = $esp $T0 8 + = $L $T0 .cbSavedRegs - = $P $T0 4 + .cbParams + =
STACK WIN 4 303d0 72 f 0 c 0 20 0 1 $T0 $ebp = $eip $T0 4 + ^ = $ebp $T0 ^ = $esp $T0 8 + = $L $T0 .cbSavedRegs - = $P $T0 4 + .cbParams + =
STACK WIN 4 303de 60 1 0 c 4 20 0 1 $T0 $ebp = $eip $T0 4 + ^ = $ebp $T0 ^ = $esp $T0 8 + = $L $T0 .cbSavedRegs - = $P $T0 4 + .cbParams + = $ebx $T0 40 - ^ =
STACK WIN 4 303df 5c 0 0 c 8 20 0 1 $T0 $ebp = $eip $T0 4 + ^ = $ebp $T0 ^ = $esp $T0 8 + = $L $T0 .cbSavedRegs - = $P $T0 4 + .cbParams + = $ebx $T0 40 - ^ =
STACK WIN 4 303e9 30 0 0 c c 20 0 1 $T0 $ebp = $eip $T0 4 + ^ = $ebp $T0 ^ = $esp $T0 8 + = $L $T0 .cbSavedRegs - = $P $T0 4 + .cbParams + = $ebx $T0 40 - ^ =
STACK WIN 4 12c23 13f c 0 4 8 60 0 1 $T0 $ebp = $eip $T0 4 + ^ = $ebp $T0 ^ = $esp $T0 8 + = $L $T0 .cbSavedRegs - = $P $T0 4 + .cbParams + =
STACK WIN 4 41dcc 10 0 0 4 8 60 0 1 $T0 $ebp = $T2 $esp = $T1 .raSearchStart = $eip $T1 ^ = $ebp $ebp = $esp $T1 4 + = $L $T0 .cbSavedRegs - = $P $T0 4 + .cbParams + =
STACK WIN 4 610b0 2b 5 0 8 0 0 0 1 $T0 $ebp = $eip $T0 4 + ^ = $ebp $T0 ^ = $esp $T0 8 + = $L $T0 .cbSavedRegs - = $P $T0 4 + .cbParams + =
STACK WIN 4 610e0 36 5 0 8 0 0 0 1 $T0 $ebp = $eip $T0 4 + ^ = $ebp $T0 ^ = $esp $T0 8 + = $L $T0 .cbSavedRegs - = $P $T0 4 + .cbParams + =
STACK WIN 4 6111b 35 5 0 8 0 0 0 1 $T0 $ebp = $eip $T0 4 + ^ = $ebp $T0 ^ = $esp $T0 8 + = $L $T0 .cbSavedRegs - = $P $T0 4 + .cbParams + =
STACK WIN 4 61155 2c 5 0 8 0 0 0 1 $T0 $ebp = $eip $T0 4 + ^ = $ebp $T0 ^ = $esp $T0 8 + = $L $T0 .cbSavedRegs - = $P $T0 4 + .cbParams + =
STACK WIN 4 61186 35 5 0 8 0 0 0 1 $T0 $ebp = $eip $T0 4 + ^ = $ebp $T0 ^ = $esp $T0 8 + = $L $T0 .cbSavedRegs - = $P $T0 4 + .cbParams + =
STACK WIN 4 611c0 45 8 0 8 0 c 0 1 $T0 $ebp = $eip $T0 4 + ^ = $ebp $T0 ^ = $esp $T0 8 + = $L $T0 .cbSavedRegs - = $P $T0 4 + .cbParams + =
STACK WIN 4 6120a 12b 9 0 c 0 8 0 1 $T0 $ebp = $eip $T0 4 + ^ = $ebp $T0 ^ = $esp $T0 8 + = $L $T0 .cbSavedRegs - = $P $T0 4 + .cbParams + =
STACK WIN 4 61212 11f 1 0 c 4 8 0 1 $T0 $ebp = $eip $T0 4 + ^ = $ebp $T0 ^ = $esp $T0 8 + = $L $T0 .cbSavedRegs - = $P $T0 4 + .cbParams + =
STACK WIN 4 61213 11d 0 0 c 8 8 0 1 $T0 $ebp = $eip $T0 4 + ^ = $ebp $T0 ^ = $esp $T0 8 + = $L $T0 .cbSavedRegs - = $P $T0 4 + .cbParams + =
STACK WIN 4 15199 40 6 0 8 0 0 0 1 $T0 $ebp = $eip $T0 4 + ^ = $ebp $T0 ^ = $esp $T0 8 + = $L $T0 .cbSavedRegs - = $P $T0 4 + .cbParams + =
STACK WIN 4 1519f 36 0 0 8 4 0 0 1 $T0 $ebp = $eip $T0 4 + ^ = $ebp $T0 ^ = $esp $T0 8 + = $L $T0 .cbSavedRegs - = $P $T0 4 + .cbParams + =
STACK WIN 4 194dd 314 b 0 4 0 14 0 1 $T0 $ebp = $eip $T0 4 + ^ = $ebp $T0 ^ = $esp $T0 8 + = $L $T0 .cbSavedRegs - = $P $T0 4 + .cbParams + =
STACK WIN 4 194e6 307 2 0 4 4 14 0 1 $T0 $ebp = $eip $T0 4 + ^ = $ebp $T0 ^ = $esp $T0 8 + = $L $T0 .cbSavedRegs - = $P $T0 4 + .cbParams + = $ebx $T0 28 - ^ =
STACK WIN 4 194e7 305 1 0 4 8 14 0 1 $T0 $ebp = $eip $T0 4 + ^ = $ebp $T0 ^ = $esp $T0 8 + = $L $T0 .cbSavedRegs - = $P $T0 4 + .cbParams + = $ebx $T0 28 - ^ =
STACK WIN 4 194e8 303 0 0 4 c 14 0 1 $T0 $ebp = $eip $T0 4 + ^ = $ebp $T0 ^ = $esp $T0 8 + = $L $T0 .cbSavedRegs - = $P $T0 4 + .cbParams + = $ebx $T0 28 - ^ =
STACK WIN 4 19805 8b9 26 0 18 0 1d8 0 1 $T0 $ebp = $eip $T0 4 + ^ = $ebp $T0 ^ = $esp $T0 8 + = $L $T0 .cbSavedRegs - = $P $T0 4 + .cbParams + =
STACK WIN 4 1981c 899 f 0 18 4 1d8 0 1 $T0 $ebp = $eip $T0 4 + ^ = $ebp $T0 ^ = $esp $T0 8 + = $L $T0 .cbSavedRegs - = $P $T0 4 + .cbParams + = $ebx $T0 480 - ^ =
STACK WIN 4 1981d 897 e 0 18 8 1d8 0 1 $T0 $ebp = $eip $T0 4 + ^ = $ebp $T0 ^ = $esp $T0 8 + = $L $T0 .cbSavedRegs - = $P $T0 4 + .cbParams + = $ebx $T0 480 - ^ =
STACK WIN 4 1982b 888 0 0 18 c 1d8 0 1 $T0 $ebp = $eip $T0 4 + ^ = $ebp $T0 ^ = $esp $T0 8 + = $L $T0 .cbSavedRegs - = $P $T0 4 + .cbParams + = $ebx $T0 480 - ^ =
STACK WIN 4 19513 218e 17 0 30 8 a18 0 1 $T0 $ebp = $eip $T0 4 + ^ = $ebp $T0 ^ = $esp $T0 8 + = $L $T0 .cbSavedRegs - = $P $T0 4 + .cbParams + =
STACK WIN 4 43025 4 0 0 30 8 a18 0 1 $T0 $ebp = $T2 $esp = $T1 .raSearchStart = $eip $T1 ^ = $ebp $ebp = $esp $T1 4 + = $L $T0 .cbSavedRegs - = $P $T0 4 + .cbParams + =
STACK WIN 4 1e017 2eb 0 0 30 8 a18 0 1 $T0 $ebp = $T2 $esp = $T1 .raSearchStart = $eip $T1 ^ = $ebp $ebp = $esp $T1 4 + = $L $T0 .cbSavedRegs - = $P $T0 4 + .cbParams + =
STACK WIN 4 2332 30 5 0 28 0 0 0 1 $T0 $ebp = $eip $T0 4 + ^ = $ebp $T0 ^ = $esp $T0 8 + = $L $T0 .cbSavedRegs - = $P $T0 4 + .cbParams + =
STACK WIN 4 12cb0 e7 a 0 c 0 0 0 1 $T0 $ebp = $eip $T0 4 + ^ = $ebp $T0 ^ = $esp $T0 8 + = $L $T0 .cbSavedRegs - = $P $T0 4 + .cbParams + =
STACK WIN 4 12cb6 dd 4 0 c 4 0 0 1 $T0 $ebp = $eip $T0 4 + ^ = $ebp $T0 ^ = $esp $T0 8 + = $L $T0 .cbSavedRegs - = $P $T0 4 + .cbParams + =
STACK WIN 4 12cba d8 0 0 c 8 0 0 1 $T0 $ebp = $eip $T0 4 + ^ = $ebp $T0 ^ = $esp $T0 8 + = $L $T0 .cbSavedRegs - = $P $T0 4 + .cbParams + =
STACK WIN 4 12d56 44 9 0 4 0 38 0 1 $T0 $ebp = $eip $T0 4 + ^ = $ebp $T0 ^ = $esp $T0 8 + = $L $T0 .cbSavedRegs - = $P $T0 4 + .cbParams + =
STACK WIN 4 12d5f 37 0 0 4 4 38 0 1 $T0 $ebp = $eip $T0 4 + ^ = $ebp $T0 ^ = $esp $T0 8 + = $L $T0 .cbSavedRegs - = $P $T0 4 + .cbParams + =
STACK WIN 4 37945 44 9 0 4 0 38 0 1 $T0 $ebp = $eip $T0 4 + ^ = $ebp $T0 ^ = $esp $T0 8 + = $L $T0 .cbSavedRegs - = $P $T0 4 + .cbParams + =
STACK WIN 4 3794e 37 0 0 4 4 38 0 1 $T0 $ebp = $eip $T0 4 + ^ = $ebp $T0 ^ = $esp $T0 8 + = $L $T0 .cbSavedRegs - = $P $T0 4 + .cbParams + =
STACK WIN 4 2c338 91 c 0 8 0 0 0 1 $T0 $ebp = $eip $T0 4 + ^ = $ebp $T0 ^ = $esp $T0 8 + = $L $T0 .cbSavedRegs - = $P $T0 4 + .cbParams + =
STACK WIN 4 2c341 84 3 0 8 4 0 0 1 $T0 $ebp = $eip $T0 4 + ^ = $ebp $T0 ^ = $esp $T0 8 + = $L $T0 .cbSavedRegs - = $P $T0 4 + .cbParams + = $ebx $T0 8 - ^ =
STACK WIN 4 2c344 80 0 0 8 8 0 0 1 $T0 $ebp = $eip $T0 4 + ^ = $ebp $T0 ^ = $esp $T0 8 + = $L $T0 .cbSavedRegs - = $P $T0 4 + .cbParams + = $ebx $T0 8 - ^ =
STACK WIN 4 2c373 33 0 0 8 c 0 0 1 $T0 $ebp = $eip $T0 4 + ^ = $ebp $T0 ^ = $esp $T0 8 + = $L $T0 .cbSavedRegs - = $P $T0 4 + .cbParams + = $ebx $T0 8 - ^ =
STACK WIN 4 61351 17 5 0 18 0 0 0 1 $T0 $ebp = $eip $T0 4 + ^ = $ebp $T0 ^ = $esp $T0 8 + = $L $T0 .cbSavedRegs - = $P $T0 4 + .cbParams + =
STACK WIN 4 1ddd6 33f f 0 30 8 a8 0 1 $T0 $ebp = $eip $T0 4 + ^ = $ebp $T0 ^ = $esp $T0 8 + = $L $T0 .cbSavedRegs - = $P $T0 4 + .cbParams + =
STACK WIN 4 43374 14 0 0 30 8 a8 0 1 $T0 $ebp = $T2 $esp = $T1 .raSearchStart = $eip $T1 ^ = $ebp $ebp = $esp $T1 4 + = $L $T0 .cbSavedRegs - = $P $T0 4 + .cbParams + =
STACK WIN 4 434b2 17 0 0 30 8 a8 0 1 $T0 $ebp = $T2 $esp = $T1 .raSearchStart = $eip $T1 ^ = $ebp $ebp = $esp $T1 4 + = $L $T0 .cbSavedRegs - = $P $T0 4 + .cbParams + =
STACK WIN 4 434e5 60 0 0 30 8 a8 0 1 $T0 $ebp = $T2 $esp = $T1 .raSearchStart = $eip $T1 ^ = $ebp $ebp = $esp $T1 4 + = $L $T0 .cbSavedRegs - = $P $T0 4 + .cbParams + =
STACK WIN 4 2367 30 5 0 28 0 0 0 1 $T0 $ebp = $eip $T0 4 + ^ = $ebp $T0 ^ = $esp $T0 8 + = $L $T0 .cbSavedRegs - = $P $T0 4 + .cbParams + =
STACK WIN 4 6136d ec b 0 8 0 54 0 1 $T0 $ebp = $eip $T0 4 + ^ = $ebp $T0 ^ = $esp $T0 8 + = $L $T0 .cbSavedRegs - = $P $T0 4 + .cbParams + =
STACK WIN 4 61376 df 2 0 8 4 54 0 1 $T0 $ebp = $eip $T0 4 + ^ = $ebp $T0 ^ = $esp $T0 8 + = $L $T0 .cbSavedRegs - = $P $T0 4 + .cbParams + = $ebx $T0 92 - ^ =
STACK WIN 4 61377 dd 1 0 8 8 54 0 1 $T0 $ebp = $eip $T0 4 + ^ = $ebp $T0 ^ = $esp $T0 8 + = $L $T0 .cbSavedRegs - = $P $T0 4 + .cbParams + = $ebx $T0 92 - ^ =
STACK WIN 4 61378 db 0 0 8 c 54 0 1 $T0 $ebp = $eip $T0 4 + ^ = $ebp $T0 ^ = $esp $T0 8 + = $L $T0 .cbSavedRegs - = $P $T0 4 + .cbParams + = $ebx $T0 92 - ^ =
STACK WIN 4 6147e 2fa f 0 8 8 b4 0 1 $T0 $ebp = $eip $T0 4 + ^ = $ebp $T0 ^ = $esp $T0 8 + = $L $T0 .cbSavedRegs - = $P $T0 4 + .cbParams + =
STACK WIN 4 61723 e 0 0 8 8 b4 0 1 $T0 $ebp = $T2 $esp = $T1 .raSearchStart = $eip $T1 ^ = $ebp $ebp = $esp $T1 4 + = $L $T0 .cbSavedRegs - = $P $T0 4 + .cbParams + =
STACK WIN 4 3965a 77 c 0 4 0 20 0 1 $T0 $ebp = $eip $T0 4 + ^ = $ebp $T0 ^ = $esp $T0 8 + = $L $T0 .cbSavedRegs - = $P $T0 4 + .cbParams + =
STACK WIN 4 39666 67 0 0 4 4 20 0 1 $T0 $ebp = $eip $T0 4 + ^ = $ebp $T0 ^ = $esp $T0 8 + = $L $T0 .cbSavedRegs - = $P $T0 4 + .cbParams + =
STACK WIN 4 395d8 57 c 0 8 0 8 0 1 $T0 $ebp = $eip $T0 4 + ^ = $ebp $T0 ^ = $esp $T0 8 + = $L $T0 .cbSavedRegs - = $P $T0 4 + .cbParams + =
STACK WIN 4 395e4 47 0 0 8 4 8 0 1 $T0 $ebp = $eip $T0 4 + ^ = $ebp $T0 ^ = $esp $T0 8 + = $L $T0 .cbSavedRegs - = $P $T0 4 + .cbParams + =
STACK WIN 4 2c1e7 127 c 0 c 8 1c 0 1 $T0 $ebp = $eip $T0 4 + ^ = $ebp $T0 ^ = $esp $T0 8 + = $L $T0 .cbSavedRegs - = $P $T0 4 + .cbParams + =
STACK WIN 4 435d2 e 0 0 c 8 1c 0 1 $T0 $ebp = $T2 $esp = $T1 .raSearchStart = $eip $T1 ^ = $ebp $ebp = $esp $T1 4 + = $L $T0 .cbSavedRegs - = $P $T0 4 + .cbParams + =
STACK WIN 4 12f89 ac 9 0 8 0 24 0 1 $T0 $ebp = $eip $T0 4 + ^ = $ebp $T0 ^ = $esp $T0 8 + = $L $T0 .cbSavedRegs - = $P $T0 4 + .cbParams + =
STACK WIN 4 12f92 9f 0 0 8 4 24 0 1 $T0 $ebp = $eip $T0 4 + ^ = $ebp $T0 ^ = $esp $T0 8 + = $L $T0 .cbSavedRegs - = $P $T0 4 + .cbParams + = $ebx $T0 44 - ^ =
STACK WIN 4 12fa9 7d 0 0 8 8 24 0 1 $T0 $ebp = $eip $T0 4 + ^ = $ebp $T0 ^ = $esp $T0 8 + = $L $T0 .cbSavedRegs - = $P $T0 4 + .cbParams + = $ebx $T0 44 - ^ =
STACK WIN 4 12faa 7b 0 0 8 c 24 0 1 $T0 $ebp = $eip $T0 4 + ^ = $ebp $T0 ^ = $esp $T0 8 + = $L $T0 .cbSavedRegs - = $P $T0 4 + .cbParams + = $ebx $T0 44 - ^ =
STACK WIN 4 132ee 6 0 0 0 0 0 0 1 $T2 $esp .cbLocals + .cbSavedRegs + = $T0 .raSearchStart = $eip $T0 ^ = $esp $T0 4 + =
STACK WIN 4 61799 148 c 0 c 8 34 0 1 $T0 $ebp = $eip $T0 4 + ^ = $ebp $T0 ^ = $esp $T0 8 + = $L $T0 .cbSavedRegs - = $P $T0 4 + .cbParams + =
STACK WIN 4 617fd e 0 0 c 8 34 0 1 $T0 $ebp = $T2 $esp = $T1 .raSearchStart = $eip $T1 ^ = $ebp $ebp = $esp $T1 4 + = $L $T0 .cbSavedRegs - = $P $T0 4 + .cbParams + =
STACK WIN 4 92ea 6d c 0 c 0 0 0 1 $T0 $ebp = $eip $T0 4 + ^ = $ebp $T0 ^ = $esp $T0 8 + = $L $T0 .cbSavedRegs - = $P $T0 4 + .cbParams + =
STACK WIN 4 92f0 63 6 0 c 4 0 0 1 $T0 $ebp = $eip $T0 4 + ^ = $ebp $T0 ^ = $esp $T0 8 + = $L $T0 .cbSavedRegs - = $P $T0 4 + .cbParams + =
STACK WIN 4 92f6 5c 0 0 c 8 0 0 1 $T0 $ebp = $eip $T0 4 + ^ = $ebp $T0 ^ = $esp $T0 8 + = $L $T0 .cbSavedRegs - = $P $T0 4 + .cbParams + =
STACK WIN 4 2470 32 5 0 8 0 0 0 1 $T0 $ebp = $eip $T0 4 + ^ = $ebp $T0 ^ = $esp $T0 8 + = $L $T0 .cbSavedRegs - = $P $T0 4 + .cbParams + =
STACK WIN 4 16fb4 4f c 0 4 8 1c 0 1 $T0 $ebp = $eip $T0 4 + ^ = $ebp $T0 ^ = $esp $T0 8 + = $L $T0 .cbSavedRegs - = $P $T0 4 + .cbParams + =
STACK WIN 4 436ca 11 0 0 4 8 1c 0 1 $T0 $ebp = $T2 $esp = $T1 .raSearchStart = $eip $T1 ^ = $ebp $ebp = $esp $T1 4 + = $L $T0 .cbSavedRegs - = $P $T0 4 + .cbParams + =
STACK WIN 4 61901 2d 6 0 c 0 4 0 1 $T0 $ebp = $eip $T0 4 + ^ = $ebp $T0 ^ = $esp $T0 8 + = $L $T0 .cbSavedRegs - = $P $T0 4 + .cbParams + =
STACK WIN 4 e0df 33 6 0 4 0 0 0 1 $T0 $ebp = $eip $T0 4 + ^ = $ebp $T0 ^ = $esp $T0 8 + = $L $T0 .cbSavedRegs - = $P $T0 4 + .cbParams + =
STACK WIN 4 e0e5 29 0 0 4 4 0 0 1 $T0 $ebp = $eip $T0 4 + ^ = $ebp $T0 ^ = $esp $T0 8 + = $L $T0 .cbSavedRegs - = $P $T0 4 + .cbParams + =
STACK WIN 4 176db 28 5 0 c 0 0 0 1 $T0 $ebp = $eip $T0 4 + ^ = $ebp $T0 ^ = $esp $T0 8 + = $L $T0 .cbSavedRegs - = $P $T0 4 + .cbParams + =
STACK WIN 4 61933 24 5 0 4 0 0 0 1 $T0 $ebp = $eip $T0 4 + ^ = $ebp $T0 ^ = $esp $T0 8 + = $L $T0 .cbSavedRegs - = $P $T0 4 + .cbParams + =
STACK WIN 4 6195c 24 5 0 4 0 0 0 1 $T0 $ebp = $eip $T0 4 + ^ = $ebp $T0 ^ = $esp $T0 8 + = $L $T0 .cbSavedRegs - = $P $T0 4 + .cbParams + =
STACK WIN 4 30445 1c1 e 0 8 0 8 0 1 $T0 $ebp = $eip $T0 4 + ^ = $ebp $T0 ^ = $esp $T0 8 + = $L $T0 .cbSavedRegs - = $P $T0 4 + .cbParams + =
STACK WIN 4 30450 1b2 3 0 8 4 8 0 1 $T0 $ebp = $eip $T0 4 + ^ = $ebp $T0 ^ = $esp $T0 8 + = $L $T0 .cbSavedRegs - = $P $T0 4 + .cbParams + = $ebx $T0 16 - ^ =
STACK WIN 4 30453 1ae 0 0 8 8 8 0 1 $T0 $ebp = $eip $T0 4 + ^ = $ebp $T0 ^ = $esp $T0 8 + = $L $T0 .cbSavedRegs - = $P $T0 4 + .cbParams + = $ebx $T0 16 - ^ =
STACK WIN 4 3047d 17d 0 0 8 c 8 0 1 $T0 $ebp = $eip $T0 4 + ^ = $ebp $T0 ^ = $esp $T0 8 + = $L $T0 .cbSavedRegs - = $P $T0 4 + .cbParams + = $ebx $T0 16 - ^ =
STACK WIN 4 3053e 73 10 0 4 0 0 0 1 $T0 $ebp = $eip $T0 4 + ^ = $ebp $T0 ^ = $esp $T0 8 + = $L $T0 .cbSavedRegs - = $P $T0 4 + .cbParams + =
STACK WIN 4 30544 69 a 0 4 4 0 0 1 $T0 $ebp = $eip $T0 4 + ^ = $ebp $T0 ^ = $esp $T0 8 + = $L $T0 .cbSavedRegs - = $P $T0 4 + .cbParams + = $ebx $T0 8 - ^ =
STACK WIN 4 30545 67 9 0 4 8 0 0 1 $T0 $ebp = $eip $T0 4 + ^ = $ebp $T0 ^ = $esp $T0 8 + = $L $T0 .cbSavedRegs - = $P $T0 4 + .cbParams + = $ebx $T0 8 - ^ =
STACK WIN 4 3054e 5d 0 0 4 c 0 0 1 $T0 $ebp = $eip $T0 4 + ^ = $ebp $T0 ^ = $esp $T0 8 + = $L $T0 .cbSavedRegs - = $P $T0 4 + .cbParams + = $ebx $T0 8 - ^ =
STACK WIN 4 e275 3c7 c 0 c 8 54 0 1 $T0 $ebp = $eip $T0 4 + ^ = $ebp $T0 ^ = $esp $T0 8 + = $L $T0 .cbSavedRegs - = $P $T0 4 + .cbParams + =
STACK WIN 4 437f5 10 0 0 c 8 54 0 1 $T0 $ebp = $T2 $esp = $T1 .raSearchStart = $eip $T1 ^ = $ebp $ebp = $esp $T1 4 + = $L $T0 .cbSavedRegs - = $P $T0 4 + .cbParams + =
STACK WIN 4 438be 4a 0 0 c 8 54 0 1 $T0 $ebp = $T2 $esp = $T1 .raSearchStart = $eip $T1 ^ = $ebp $ebp = $esp $T1 4 + = $L $T0 .cbSavedRegs - = $P $T0 4 + .cbParams + =
STACK WIN 4 df9e f2 13 0 8 0 20 0 1 $T0 $ebp = $eip $T0 4 + ^ = $ebp $T0 ^ = $esp $T0 8 + = $L $T0 .cbSavedRegs - = $P $T0 4 + .cbParams + =
STACK WIN 4 dfac db 5 0 8 4 20 0 1 $T0 $ebp = $eip $T0 4 + ^ = $ebp $T0 ^ = $esp $T0 8 + = $L $T0 .cbSavedRegs - = $P $T0 4 + .cbParams + = $ebx $T0 40 - ^ =
STACK WIN 4 dfb0 d6 1 0 8 8 20 0 1 $T0 $ebp = $eip $T0 4 + ^ = $ebp $T0 ^ = $esp $T0 8 + = $L $T0 .cbSavedRegs - = $P $T0 4 + .cbParams + = $ebx $T0 40 - ^ =
STACK WIN 4 dfb1 d4 0 0 8 c 20 0 1 $T0 $ebp = $eip $T0 4 + ^ = $ebp $T0 ^ = $esp $T0 8 + = $L $T0 .cbSavedRegs - = $P $T0 4 + .cbParams + = $ebx $T0 40 - ^ =
STACK WIN 4 31d8e f 0 0 0 0 0 0 1 $T2 $esp .cbLocals + .cbSavedRegs + = $T0 .raSearchStart = $eip $T0 ^ = $esp $T0 4 + =
STACK WIN 4 e074 67 8 0 4 0 8 0 1 $T0 $ebp = $eip $T0 4 + ^ = $ebp $T0 ^ = $esp $T0 8 + = $L $T0 .cbSavedRegs - = $P $T0 4 + .cbParams + =
STACK WIN 4 e07c 5b 0 0 4 4 8 0 1 $T0 $ebp = $eip $T0 4 + ^ = $ebp $T0 ^ = $esp $T0 8 + = $L $T0 .cbSavedRegs - = $P $T0 4 + .cbParams + =
STACK WIN 4 114f8 5c 7 0 8 0 8 0 1 $T0 $ebp = $eip $T0 4 + ^ = $ebp $T0 ^ = $esp $T0 8 + = $L $T0 .cbSavedRegs - = $P $T0 4 + .cbParams + =
STACK WIN 4 1a2ce 6aa 17 0 34 8 2d0 0 1 $T0 $ebp = $eip $T0 4 + ^ = $ebp $T0 ^ = $esp $T0 8 + = $L $T0 .cbSavedRegs - = $P $T0 4 + .cbParams + =
STACK WIN 4 1a834 36 0 0 34 8 2d0 0 1 $T0 $ebp = $T2 $esp = $T1 .raSearchStart = $eip $T1 ^ = $ebp $ebp = $esp $T1 4 + = $L $T0 .cbSavedRegs - = $P $T0 4 + .cbParams + =
STACK WIN 4 9ef1 1d 5 0 4 0 0 0 1 $T0 $ebp = $eip $T0 4 + ^ = $ebp $T0 ^ = $esp $T0 8 + = $L $T0 .cbSavedRegs - = $P $T0 4 + .cbParams + =
STACK WIN 4 b829 28 6 0 8 0 0 0 1 $T0 $ebp = $eip $T0 4 + ^ = $ebp $T0 ^ = $esp $T0 8 + = $L $T0 .cbSavedRegs - = $P $T0 4 + .cbParams + =
STACK WIN 4 b82f 1e 0 0 8 4 0 0 1 $T0 $ebp = $eip $T0 4 + ^ = $ebp $T0 ^ = $esp $T0 8 + = $L $T0 .cbSavedRegs - = $P $T0 4 + .cbParams + =
STACK WIN 4 13140 b3 9 0 c 0 24 0 1 $T0 $ebp = $eip $T0 4 + ^ = $ebp $T0 ^ = $esp $T0 8 + = $L $T0 .cbSavedRegs - = $P $T0 4 + .cbParams + =
STACK WIN 4 13149 a6 0 0 c 4 24 0 1 $T0 $ebp = $eip $T0 4 + ^ = $ebp $T0 ^ = $esp $T0 8 + = $L $T0 .cbSavedRegs - = $P $T0 4 + .cbParams + =
STACK WIN 4 2c05e 25 5 0 4 0 0 0 1 $T0 $ebp = $eip $T0 4 + ^ = $ebp $T0 ^ = $esp $T0 8 + = $L $T0 .cbSavedRegs - = $P $T0 4 + .cbParams + =
STACK WIN 4 10086 a7 f 0 10 0 24 0 1 $T0 $ebp = $eip $T0 4 + ^ = $ebp $T0 ^ = $esp $T0 8 + = $L $T0 .cbSavedRegs - = $P $T0 4 + .cbParams + =
STACK WIN 4 1008f 9a 6 0 10 4 24 0 1 $T0 $ebp = $eip $T0 4 + ^ = $ebp $T0 ^ = $esp $T0 8 + = $L $T0 .cbSavedRegs - = $P $T0 4 + .cbParams + =
STACK WIN 4 10095 93 0 0 10 8 24 0 1 $T0 $ebp = $eip $T0 4 + ^ = $ebp $T0 ^ = $esp $T0 8 + = $L $T0 .cbSavedRegs - = $P $T0 4 + .cbParams + =
STACK WIN 4 2e30f b3 9 0 c 0 24 0 1 $T0 $ebp = $eip $T0 4 + ^ = $ebp $T0 ^ = $esp $T0 8 + = $L $T0 .cbSavedRegs - = $P $T0 4 + .cbParams + =
STACK WIN 4 2e318 a6 0 0 c 4 24 0 1 $T0 $ebp = $eip $T0 4 + ^ = $ebp $T0 ^ = $esp $T0 8 + = $L $T0 .cbSavedRegs - = $P $T0 4 + .cbParams + =
STACK WIN 4 bfad 29 5 0 c 0 0 0 1 $T0 $ebp = $eip $T0 4 + ^ = $ebp $T0 ^ = $esp $T0 8 + = $L $T0 .cbSavedRegs - = $P $T0 4 + .cbParams + =
STACK WIN 4 e8b7 a4 f 0 c 0 24 0 1 $T0 $ebp = $eip $T0 4 + ^ = $ebp $T0 ^ = $esp $T0 8 + = $L $T0 .cbSavedRegs - = $P $T0 4 + .cbParams + =
STACK WIN 4 e8c0 97 6 0 c 4 24 0 1 $T0 $ebp = $eip $T0 4 + ^ = $ebp $T0 ^ = $esp $T0 8 + = $L $T0 .cbSavedRegs - = $P $T0 4 + .cbParams + =
STACK WIN 4 e8c6 90 0 0 c 8 24 0 1 $T0 $ebp = $eip $T0 4 + ^ = $ebp $T0 ^ = $esp $T0 8 + = $L $T0 .cbSavedRegs - = $P $T0 4 + .cbParams + =
STACK WIN 4 e995 b3 9 0 c 0 24 0 1 $T0 $ebp = $eip $T0 4 + ^ = $ebp $T0 ^ = $esp $T0 8 + = $L $T0 .cbSavedRegs - = $P $T0 4 + .cbParams + =
STACK WIN 4 e99e a6 0 0 c 4 24 0 1 $T0 $ebp = $eip $T0 4 + ^ = $ebp $T0 ^ = $esp $T0 8 + = $L $T0 .cbSavedRegs - = $P $T0 4 + .cbParams + =
STACK WIN 4 24a7 25 5 0 4 0 0 0 1 $T0 $ebp = $eip $T0 4 + ^ = $ebp $T0 ^ = $esp $T0 8 + = $L $T0 .cbSavedRegs - = $P $T0 4 + .cbParams + =
STACK WIN 4 2540 e6 c 0 c 8 44 0 1 $T0 $ebp = $eip $T0 4 + ^ = $ebp $T0 ^ = $esp $T0 8 + = $L $T0 .cbSavedRegs - = $P $T0 4 + .cbParams + =
STACK WIN 4 2610 b 0 0 c 8 44 0 1 $T0 $ebp = $T2 $esp = $T1 .raSearchStart = $eip $T1 ^ = $ebp $ebp = $esp $T1 4 + = $L $T0 .cbSavedRegs - = $P $T0 4 + .cbParams + =
STACK WIN 4 36696 e9 c 0 10 8 44 0 1 $T0 $ebp = $eip $T0 4 + ^ = $ebp $T0 ^ = $esp $T0 8 + = $L $T0 .cbSavedRegs - = $P $T0 4 + .cbParams + =
STACK WIN 4 36759 b 0 0 10 8 44 0 1 $T0 $ebp = $T2 $esp = $T1 .raSearchStart = $eip $T1 ^ = $ebp $ebp = $esp $T1 4 + = $L $T0 .cbSavedRegs - = $P $T0 4 + .cbParams + =
STACK WIN 4 952a 188 c 0 14 8 74 0 1 $T0 $ebp = $eip $T0 4 + ^ = $ebp $T0 ^ = $esp $T0 8 + = $L $T0 .cbSavedRegs - = $P $T0 4 + .cbParams + =
STACK WIN 4 951a b 0 0 14 8 74 0 1 $T0 $ebp = $T2 $esp = $T1 .raSearchStart = $eip $T1 ^ = $ebp $ebp = $esp $T1 4 + = $L $T0 .cbSavedRegs - = $P $T0 4 + .cbParams + =
STACK WIN 4 239c 98 c 0 8 8 3c 0 1 $T0 $ebp = $eip $T0 4 + ^ = $ebp $T0 ^ = $esp $T0 8 + = $L $T0 .cbSavedRegs - = $P $T0 4 + .cbParams + =
STACK WIN 4 2432 b 0 0 8 8 3c 0 1 $T0 $ebp = $T2 $esp = $T1 .raSearchStart = $eip $T1 ^ = $ebp $ebp = $esp $T1 4 + = $L $T0 .cbSavedRegs - = $P $T0 4 + .cbParams + =
STACK WIN 4 2fb52 72 8 0 c 0 20 0 1 $T0 $ebp = $eip $T0 4 + ^ = $ebp $T0 ^ = $esp $T0 8 + = $L $T0 .cbSavedRegs - = $P $T0 4 + .cbParams + =
STACK WIN 4 61985 72 8 0 c 0 20 0 1 $T0 $ebp = $eip $T0 4 + ^ = $ebp $T0 ^ = $esp $T0 8 + = $L $T0 .cbSavedRegs - = $P $T0 4 + .cbParams + =
STACK WIN 4 619fc 6b c 0 c 8 2c 0 1 $T0 $ebp = $eip $T0 4 + ^ = $ebp $T0 ^ = $esp $T0 8 + = $L $T0 .cbSavedRegs - = $P $T0 4 + .cbParams + =
STACK WIN 4 61a61 b 0 0 c 8 2c 0 1 $T0 $ebp = $T2 $esp = $T1 .raSearchStart = $eip $T1 ^ = $ebp $ebp = $esp $T1 4 + = $L $T0 .cbSavedRegs - = $P $T0 4 + .cbParams + =
STACK WIN 4 95f9 93 f 0 18 0 4 0 1 $T0 $ebp = $eip $T0 4 + ^ = $ebp $T0 ^ = $esp $T0 8 + = $L $T0 .cbSavedRegs - = $P $T0 4 + .cbParams + =
STACK WIN 4 9600 88 8 0 18 4 4 0 1 $T0 $ebp = $eip $T0 4 + ^ = $ebp $T0 ^ = $esp $T0 8 + = $L $T0 .cbSavedRegs - = $P $T0 4 + .cbParams + = $ebx $T0 12 - ^ =
STACK WIN 4 9604 83 4 0 18 8 4 0 1 $T0 $ebp = $eip $T0 4 + ^ = $ebp $T0 ^ = $esp $T0 8 + = $L $T0 .cbSavedRegs - = $P $T0 4 + .cbParams + = $ebx $T0 12 - ^ =
STACK WIN 4 9608 7e 0 0 18 c 4 0 1 $T0 $ebp = $eip $T0 4 + ^ = $ebp $T0 ^ = $esp $T0 8 + = $L $T0 .cbSavedRegs - = $P $T0 4 + .cbParams + = $ebx $T0 12 - ^ =
STACK WIN 4 2cc09 25 5 0 4 0 0 0 1 $T0 $ebp = $eip $T0 4 + ^ = $ebp $T0 ^ = $esp $T0 8 + = $L $T0 .cbSavedRegs - = $P $T0 4 + .cbParams + =
STACK WIN 4 a6a9 ae b 0 10 0 24 0 1 $T0 $ebp = $eip $T0 4 + ^ = $ebp $T0 ^ = $esp $T0 8 + = $L $T0 .cbSavedRegs - = $P $T0 4 + .cbParams + =
STACK WIN 4 a6b2 a1 2 0 10 4 24 0 1 $T0 $ebp = $eip $T0 4 + ^ = $ebp $T0 ^ = $esp $T0 8 + = $L $T0 .cbSavedRegs - = $P $T0 4 + .cbParams + = $ebx $T0 44 - ^ =
STACK WIN 4 a6b3 9f 1 0 10 8 24 0 1 $T0 $ebp = $eip $T0 4 + ^ = $ebp $T0 ^ = $esp $T0 8 + = $L $T0 .cbSavedRegs - = $P $T0 4 + .cbParams + = $ebx $T0 44 - ^ =
STACK WIN 4 a6b4 9d 0 0 10 c 24 0 1 $T0 $ebp = $eip $T0 4 + ^ = $ebp $T0 ^ = $esp $T0 8 + = $L $T0 .cbSavedRegs - = $P $T0 4 + .cbParams + = $ebx $T0 44 - ^ =
STACK WIN 4 1320c 6f c 0 c 0 8 0 1 $T0 $ebp = $eip $T0 4 + ^ = $ebp $T0 ^ = $esp $T0 8 + = $L $T0 .cbSavedRegs - = $P $T0 4 + .cbParams + =
STACK WIN 4 13218 5f 0 0 c 4 8 0 1 $T0 $ebp = $eip $T0 4 + ^ = $ebp $T0 ^ = $esp $T0 8 + = $L $T0 .cbSavedRegs - = $P $T0 4 + .cbParams + =
STACK WIN 4 12e1d 6d 8 0 10 0 8 0 1 $T0 $ebp = $eip $T0 4 + ^ = $ebp $T0 ^ = $esp $T0 8 + = $L $T0 .cbSavedRegs - = $P $T0 4 + .cbParams + =
STACK WIN 4 12e25 61 0 0 10 4 8 0 1 $T0 $ebp = $eip $T0 4 + ^ = $ebp $T0 ^ = $esp $T0 8 + = $L $T0 .cbSavedRegs - = $P $T0 4 + .cbParams + =
STACK WIN 4 2ca47 6f c 0 c 0 8 0 1 $T0 $ebp = $eip $T0 4 + ^ = $ebp $T0 ^ = $esp $T0 8 + = $L $T0 .cbSavedRegs - = $P $T0 4 + .cbParams + =
STACK WIN 4 2ca53 5f 0 0 c 4 8 0 1 $T0 $ebp = $eip $T0 4 + ^ = $ebp $T0 ^ = $esp $T0 8 + = $L $T0 .cbSavedRegs - = $P $T0 4 + .cbParams + =
STACK WIN 4 e93f 6a 8 0 c 0 8 0 1 $T0 $ebp = $eip $T0 4 + ^ = $ebp $T0 ^ = $esp $T0 8 + = $L $T0 .cbSavedRegs - = $P $T0 4 + .cbParams + =
STACK WIN 4 e947 5e 0 0 c 4 8 0 1 $T0 $ebp = $eip $T0 4 + ^ = $ebp $T0 ^ = $esp $T0 8 + = $L $T0 .cbSavedRegs - = $P $T0 4 + .cbParams + =
STACK WIN 4 ea1b 6f c 0 c 0 8 0 1 $T0 $ebp = $eip $T0 4 + ^ = $ebp $T0 ^ = $esp $T0 8 + = $L $T0 .cbSavedRegs - = $P $T0 4 + .cbParams + =
STACK WIN 4 ea27 5f 0 0 c 4 8 0 1 $T0 $ebp = $eip $T0 4 + ^ = $ebp $T0 ^ = $esp $T0 8 + = $L $T0 .cbSavedRegs - = $P $T0 4 + .cbParams + =
STACK WIN 4 a05d 1c 5 0 10 0 0 0 1 $T0 $ebp = $eip $T0 4 + ^ = $ebp $T0 ^ = $esp $T0 8 + = $L $T0 .cbSavedRegs - = $P $T0 4 + .cbParams + =
STACK WIN 4 2442 13 5 0 4 0 0 0 1 $T0 $ebp = $eip $T0 4 + ^ = $ebp $T0 ^ = $esp $T0 8 + = $L $T0 .cbSavedRegs - = $P $T0 4 + .cbParams + =
STACK WIN 4 61a81 6a 8 0 c 0 8 0 1 $T0 $ebp = $eip $T0 4 + ^ = $ebp $T0 ^ = $esp $T0 8 + = $L $T0 .cbSavedRegs - = $P $T0 4 + .cbParams + =
STACK WIN 4 61a89 5e 0 0 c 4 8 0 1 $T0 $ebp = $eip $T0 4 + ^ = $ebp $T0 ^ = $esp $T0 8 + = $L $T0 .cbSavedRegs - = $P $T0 4 + .cbParams + =
STACK WIN 4 61af0 6f c 0 c 0 8 0 1 $T0 $ebp = $eip $T0 4 + ^ = $ebp $T0 ^ = $esp $T0 8 + = $L $T0 .cbSavedRegs - = $P $T0 4 + .cbParams + =
STACK WIN 4 61afc 5f 0 0 c 4 8 0 1 $T0 $ebp = $eip $T0 4 + ^ = $ebp $T0 ^ = $esp $T0 8 + = $L $T0 .cbSavedRegs - = $P $T0 4 + .cbParams + =
STACK WIN 4 308ad 6d 8 0 10 0 8 0 1 $T0 $ebp = $eip $T0 4 + ^ = $ebp $T0 ^ = $esp $T0 8 + = $L $T0 .cbSavedRegs - = $P $T0 4 + .cbParams + =
STACK WIN 4 308b5 61 0 0 10 4 8 0 1 $T0 $ebp = $eip $T0 4 + ^ = $ebp $T0 ^ = $esp $T0 8 + = $L $T0 .cbSavedRegs - = $P $T0 4 + .cbParams + =
STACK WIN 4 33609 19f 16 0 1c 0 8 0 1 $T0 $ebp = $eip $T0 4 + ^ = $ebp $T0 ^ = $esp $T0 8 + = $L $T0 .cbSavedRegs - = $P $T0 4 + .cbParams + =
STACK WIN 4 33614 190 b 0 1c 4 8 0 1 $T0 $ebp = $eip $T0 4 + ^ = $ebp $T0 ^ = $esp $T0 8 + = $L $T0 .cbSavedRegs - = $P $T0 4 + .cbParams + = $ebx $T0 16 - ^ =
STACK WIN 4 33615 18e a 0 1c 8 8 0 1 $T0 $ebp = $eip $T0 4 + ^ = $ebp $T0 ^ = $esp $T0 8 + = $L $T0 .cbSavedRegs - = $P $T0 4 + .cbParams + = $ebx $T0 16 - ^ =
STACK WIN 4 3361f 183 0 0 1c c 8 0 1 $T0 $ebp = $eip $T0 4 + ^ = $ebp $T0 ^ = $esp $T0 8 + = $L $T0 .cbSavedRegs - = $P $T0 4 + .cbParams + = $ebx $T0 16 - ^ =
STACK WIN 4 61b64 39 6 0 c 0 0 0 1 $T0 $ebp = $eip $T0 4 + ^ = $ebp $T0 ^ = $esp $T0 8 + = $L $T0 .cbSavedRegs - = $P $T0 4 + .cbParams + =
STACK WIN 4 61b6a 2f 0 0 c 4 0 0 1 $T0 $ebp = $eip $T0 4 + ^ = $ebp $T0 ^ = $esp $T0 8 + = $L $T0 .cbSavedRegs - = $P $T0 4 + .cbParams + =
STACK WIN 4 1746c 23 0 0 0 0 0 0 1 $T2 $esp .cbLocals + .cbSavedRegs + = $T0 .raSearchStart = $eip $T0 ^ = $esp $T0 4 + =
STACK WIN 4 17499 ef 15 0 0 0 2c 0 1 $T0 $ebp = $eip $T0 4 + ^ = $ebp $T0 ^ = $esp $T0 8 + = $L $T0 .cbSavedRegs - = $P $T0 4 + .cbParams + =
STACK WIN 4 174a6 e0 8 0 0 4 2c 0 1 $T0 $ebp = $eip $T0 4 + ^ = $ebp $T0 ^ = $esp $T0 8 + = $L $T0 .cbSavedRegs - = $P $T0 4 + .cbParams + = $ebx $T0 52 - ^ =
STACK WIN 4 174a7 de 7 0 0 8 2c 0 1 $T0 $ebp = $eip $T0 4 + ^ = $ebp $T0 ^ = $esp $T0 8 + = $L $T0 .cbSavedRegs - = $P $T0 4 + .cbParams + = $ebx $T0 52 - ^ =
STACK WIN 4 174ae d6 0 0 0 c 2c 0 1 $T0 $ebp = $eip $T0 4 + ^ = $ebp $T0 ^ = $esp $T0 8 + = $L $T0 .cbSavedRegs - = $P $T0 4 + .cbParams + = $ebx $T0 52 - ^ =
STACK WIN 4 f1fa 76 18 0 0 0 4c 0 1 $T0 $ebp = $eip $T0 4 + ^ = $ebp $T0 ^ = $esp $T0 8 + = $L $T0 .cbSavedRegs - = $P $T0 4 + .cbParams + =
STACK WIN 4 17459 10e 0 0 0 0 0 0 1 $T2 $esp .cbLocals + .cbSavedRegs + = $T0 .raSearchStart = $eip $T0 ^ = $esp $T0 4 + =
STACK WIN 4 43ee5 e5 0 0 0 4 0 0 1 $T2 $esp .cbLocals + .cbSavedRegs + = $T0 .raSearchStart = $eip $T0 ^ = $esp $T0 4 + =
STACK WIN 4 1efce 12 0 0 0 0 0 0 1 $T2 $esp .cbLocals + .cbSavedRegs + = $T0 .raSearchStart = $eip $T0 ^ = $esp $T0 4 + =
STACK WIN 4 61ba2 162 11 0 4 0 d4 0 1 $T0 $ebp = $eip $T0 4 + ^ = $ebp $T0 ^ = $esp $T0 8 + = $L $T0 .cbSavedRegs - = $P $T0 4 + .cbParams + =
STACK WIN 4 61bb3 148 0 0 4 4 d4 0 1 $T0 $ebp = $eip $T0 4 + ^ = $ebp $T0 ^ = $esp $T0 8 + = $L $T0 .cbSavedRegs - = $P $T0 4 + .cbParams + = $ebx $T0 220 - ^ =
STACK WIN 4 61bec 107 0 0 4 8 d4 0 1 $T0 $ebp = $eip $T0 4 + ^ = $ebp $T0 ^ = $esp $T0 8 + = $L $T0 .cbSavedRegs - = $P $T0 4 + .cbParams + = $ebx $T0 220 - ^ =
STACK WIN 4 61bed 103 0 0 4 c d4 0 1 $T0 $ebp = $eip $T0 4 + ^ = $ebp $T0 ^ = $esp $T0 8 + = $L $T0 .cbSavedRegs - = $P $T0 4 + .cbParams + = $ebx $T0 220 - ^ =
STACK WIN 4 61d3f 2b9 1f 0 c 0 26c 0 1 $T0 $ebp = $eip $T0 4 + ^ = $ebp $T0 ^ = $esp $T0 8 + = $L $T0 .cbSavedRegs - = $P $T0 4 + .cbParams + =
STACK WIN 4 61d53 29c b 0 c 4 26c 0 1 $T0 $ebp = $eip $T0 4 + ^ = $ebp $T0 ^ = $esp $T0 8 + = $L $T0 .cbSavedRegs - = $P $T0 4 + .cbParams + = $ebx $T0 628 - ^ =
STACK WIN 4 61d5e 290 0 0 c 8 26c 0 1 $T0 $ebp = $eip $T0 4 + ^ = $ebp $T0 ^ = $esp $T0 8 + = $L $T0 .cbSavedRegs - = $P $T0 4 + .cbParams + = $ebx $T0 628 - ^ =
STACK WIN 4 61dee 1c7 0 0 c c 26c 0 1 $T0 $ebp = $eip $T0 4 + ^ = $ebp $T0 ^ = $esp $T0 8 + = $L $T0 .cbSavedRegs - = $P $T0 4 + .cbParams + = $ebx $T0 628 - ^ =
STACK WIN 4 61ffd 408 1a 0 c 0 280 0 1 $T0 $ebp = $eip $T0 4 + ^ = $ebp $T0 ^ = $esp $T0 8 + = $L $T0 .cbSavedRegs - = $P $T0 4 + .cbParams + =
STACK WIN 4 62017 3e5 0 0 c 4 280 0 1 $T0 $ebp = $eip $T0 4 + ^ = $ebp $T0 ^ = $esp $T0 8 + = $L $T0 .cbSavedRegs - = $P $T0 4 + .cbParams + =
STACK WIN 4 620a4 353 0 0 c 8 280 0 1 $T0 $ebp = $eip $T0 4 + ^ = $ebp $T0 ^ = $esp $T0 8 + = $L $T0 .cbSavedRegs - = $P $T0 4 + .cbParams + =
STACK WIN 4 6240a 64 9 0 8 0 58 0 1 $T0 $ebp = $eip $T0 4 + ^ = $ebp $T0 ^ = $esp $T0 8 + = $L $T0 .cbSavedRegs - = $P $T0 4 + .cbParams + =
STACK WIN 4 62413 3d 0 0 8 4 58 0 1 $T0 $ebp = $eip $T0 4 + ^ = $ebp $T0 ^ = $esp $T0 8 + = $L $T0 .cbSavedRegs - = $P $T0 4 + .cbParams + =
STACK WIN 4 62473 42 8 0 4 0 40 0 1 $T0 $ebp = $eip $T0 4 + ^ = $ebp $T0 ^ = $esp $T0 8 + = $L $T0 .cbSavedRegs - = $P $T0 4 + .cbParams + =
STACK WIN 4 624ba 2be 27 0 c 0 22c 0 1 $T0 $ebp = $eip $T0 4 + ^ = $ebp $T0 ^ = $esp $T0 8 + = $L $T0 .cbSavedRegs - = $P $T0 4 + .cbParams + =
STACK WIN 4 624d1 29e 10 0 c 4 22c 0 1 $T0 $ebp = $eip $T0 4 + ^ = $ebp $T0 ^ = $esp $T0 8 + = $L $T0 .cbSavedRegs - = $P $T0 4 + .cbParams + = $ebx $T0 564 - ^ =
STACK WIN 4 624d4 29a d 0 c 8 22c 0 1 $T0 $ebp = $eip $T0 4 + ^ = $ebp $T0 ^ = $esp $T0 8 + = $L $T0 .cbSavedRegs - = $P $T0 4 + .cbParams + = $ebx $T0 564 - ^ =
STACK WIN 4 624e1 28c 0 0 c c 22c 0 1 $T0 $ebp = $eip $T0 4 + ^ = $ebp $T0 ^ = $esp $T0 8 + = $L $T0 .cbSavedRegs - = $P $T0 4 + .cbParams + = $ebx $T0 564 - ^ =
STACK WIN 4 17f41 141 13 0 8 0 228 0 1 $T0 $ebp = $eip $T0 4 + ^ = $ebp $T0 ^ = $esp $T0 8 + = $L $T0 .cbSavedRegs - = $P $T0 4 + .cbParams + =
STACK WIN 4 17f52 127 2 0 8 4 228 0 1 $T0 $ebp = $eip $T0 4 + ^ = $ebp $T0 ^ = $esp $T0 8 + = $L $T0 .cbSavedRegs - = $P $T0 4 + .cbParams + = $ebx $T0 560 - ^ =
STACK WIN 4 17f53 125 1 0 8 8 228 0 1 $T0 $ebp = $eip $T0 4 + ^ = $ebp $T0 ^ = $esp $T0 8 + = $L $T0 .cbSavedRegs - = $P $T0 4 + .cbParams + = $ebx $T0 560 - ^ =
STACK WIN 4 17f54 123 0 0 8 c 228 0 1 $T0 $ebp = $eip $T0 4 + ^ = $ebp $T0 ^ = $esp $T0 8 + = $L $T0 .cbSavedRegs - = $P $T0 4 + .cbParams + = $ebx $T0 560 - ^ =
STACK WIN 4 6277d 59 b 0 18 0 4 0 1 $T0 $ebp = $eip $T0 4 + ^ = $ebp $T0 ^ = $esp $T0 8 + = $L $T0 .cbSavedRegs - = $P $T0 4 + .cbParams + =
STACK WIN 4 62788 4a 0 0 18 4 4 0 1 $T0 $ebp = $eip $T0 4 + ^ = $ebp $T0 ^ = $esp $T0 8 + = $L $T0 .cbSavedRegs - = $P $T0 4 + .cbParams + =
STACK WIN 4 627db 19f b 0 1c 0 10 0 1 $T0 $ebp = $eip $T0 4 + ^ = $ebp $T0 ^ = $esp $T0 8 + = $L $T0 .cbSavedRegs - = $P $T0 4 + .cbParams + =
STACK WIN 4 627e4 192 2 0 1c 4 10 0 1 $T0 $ebp = $eip $T0 4 + ^ = $ebp $T0 ^ = $esp $T0 8 + = $L $T0 .cbSavedRegs - = $P $T0 4 + .cbParams + = $ebx $T0 24 - ^ =
STACK WIN 4 627e5 190 1 0 1c 8 10 0 1 $T0 $ebp = $eip $T0 4 + ^ = $ebp $T0 ^ = $esp $T0 8 + = $L $T0 .cbSavedRegs - = $P $T0 4 + .cbParams + = $ebx $T0 24 - ^ =
STACK WIN 4 627e6 18e 0 0 1c c 10 0 1 $T0 $ebp = $eip $T0 4 + ^ = $ebp $T0 ^ = $esp $T0 8 + = $L $T0 .cbSavedRegs - = $P $T0 4 + .cbParams + = $ebx $T0 24 - ^ =
STACK WIN 4 6297f 59 b 0 18 0 4 0 1 $T0 $ebp = $eip $T0 4 + ^ = $ebp $T0 ^ = $esp $T0 8 + = $L $T0 .cbSavedRegs - = $P $T0 4 + .cbParams + =
STACK WIN 4 6298a 4a 0 0 18 4 4 0 1 $T0 $ebp = $eip $T0 4 + ^ = $ebp $T0 ^ = $esp $T0 8 + = $L $T0 .cbSavedRegs - = $P $T0 4 + .cbParams + =
STACK WIN 4 1ebb1 4ac 21 0 4 0 2c8 0 1 $T0 $ebp = $eip $T0 4 + ^ = $ebp $T0 ^ = $esp $T0 8 + = $L $T0 .cbSavedRegs - = $P $T0 4 + .cbParams + =
STACK WIN 4 1ebc2 492 10 0 4 4 2c8 0 1 $T0 $ebp = $eip $T0 4 + ^ = $ebp $T0 ^ = $esp $T0 8 + = $L $T0 .cbSavedRegs - = $P $T0 4 + .cbParams + = $ebx $T0 720 - ^ =
STACK WIN 4 1ebc3 490 f 0 4 8 2c8 0 1 $T0 $ebp = $eip $T0 4 + ^ = $ebp $T0 ^ = $esp $T0 8 + = $L $T0 .cbSavedRegs - = $P $T0 4 + .cbParams + = $ebx $T0 720 - ^ =
STACK WIN 4 1ebd2 480 0 0 4 c 2c8 0 1 $T0 $ebp = $eip $T0 4 + ^ = $ebp $T0 ^ = $esp $T0 8 + = $L $T0 .cbSavedRegs - = $P $T0 4 + .cbParams + = $ebx $T0 720 - ^ =
STACK WIN 4 629dd 4e 9 0 10 0 0 0 1 $T0 $ebp = $eip $T0 4 + ^ = $ebp $T0 ^ = $esp $T0 8 + = $L $T0 .cbSavedRegs - = $P $T0 4 + .cbParams + =
STACK WIN 4 629e6 41 0 0 10 4 0 0 1 $T0 $ebp = $eip $T0 4 + ^ = $ebp $T0 ^ = $esp $T0 8 + = $L $T0 .cbSavedRegs - = $P $T0 4 + .cbParams + = $ebx $T0 8 - ^ =
STACK WIN 4 629f4 30 0 0 10 8 0 0 1 $T0 $ebp = $eip $T0 4 + ^ = $ebp $T0 ^ = $esp $T0 8 + = $L $T0 .cbSavedRegs - = $P $T0 4 + .cbParams + = $ebx $T0 8 - ^ =
STACK WIN 4 629f5 2e 0 0 10 c 0 0 1 $T0 $ebp = $eip $T0 4 + ^ = $ebp $T0 ^ = $esp $T0 8 + = $L $T0 .cbSavedRegs - = $P $T0 4 + .cbParams + = $ebx $T0 8 - ^ =
STACK WIN 4 12980 8e c 0 c 8 34 0 1 $T0 $ebp = $eip $T0 4 + ^ = $ebp $T0 ^ = $esp $T0 8 + = $L $T0 .cbSavedRegs - = $P $T0 4 + .cbParams + =
STACK WIN 4 129f9 b 0 0 c 8 34 0 1 $T0 $ebp = $T2 $esp = $T1 .raSearchStart = $eip $T1 ^ = $ebp $ebp = $esp $T1 4 + = $L $T0 .cbSavedRegs - = $P $T0 4 + .cbParams + =
STACK WIN 4 2fc00 5f 12 0 c 0 20 0 1 $T0 $ebp = $eip $T0 4 + ^ = $ebp $T0 ^ = $esp $T0 8 + = $L $T0 .cbSavedRegs - = $P $T0 4 + .cbParams + =
STACK WIN 4 2fc12 3a 0 0 c 4 20 0 1 $T0 $ebp = $eip $T0 4 + ^ = $ebp $T0 ^ = $esp $T0 8 + = $L $T0 .cbSavedRegs - = $P $T0 4 + .cbParams + =
STACK WIN 4 c108 4b 5 0 8 0 0 0 1 $T0 $ebp = $eip $T0 4 + ^ = $ebp $T0 ^ = $esp $T0 8 + = $L $T0 .cbSavedRegs - = $P $T0 4 + .cbParams + =
STACK WIN 4 a793 44 8 0 4 0 1c 0 1 $T0 $ebp = $eip $T0 4 + ^ = $ebp $T0 ^ = $esp $T0 8 + = $L $T0 .cbSavedRegs - = $P $T0 4 + .cbParams + =
STACK WIN 4 62a30 36 5 0 8 0 0 0 1 $T0 $ebp = $eip $T0 4 + ^ = $ebp $T0 ^ = $esp $T0 8 + = $L $T0 .cbSavedRegs - = $P $T0 4 + .cbParams + =
STACK WIN 4 62a6b 35 5 0 8 0 0 0 1 $T0 $ebp = $eip $T0 4 + ^ = $ebp $T0 ^ = $esp $T0 8 + = $L $T0 .cbSavedRegs - = $P $T0 4 + .cbParams + =
STACK WIN 4 c058 9f c 0 4 8 24 0 1 $T0 $ebp = $eip $T0 4 + ^ = $ebp $T0 ^ = $esp $T0 8 + = $L $T0 .cbSavedRegs - = $P $T0 4 + .cbParams + =
STACK WIN 4 44733 c 0 0 4 8 24 0 1 $T0 $ebp = $T2 $esp = $T1 .raSearchStart = $eip $T1 ^ = $ebp $ebp = $esp $T1 4 + = $L $T0 .cbSavedRegs - = $P $T0 4 + .cbParams + =
STACK WIN 4 1ce03 35 5 0 8 0 0 0 1 $T0 $ebp = $eip $T0 4 + ^ = $ebp $T0 ^ = $esp $T0 8 + = $L $T0 .cbSavedRegs - = $P $T0 4 + .cbParams + =
STACK WIN 4 21435 38 8 0 8 0 1c 0 1 $T0 $ebp = $eip $T0 4 + ^ = $ebp $T0 ^ = $esp $T0 8 + = $L $T0 .cbSavedRegs - = $P $T0 4 + .cbParams + =
STACK WIN 4 9728 a 0 0 0 0 0 0 1 $T2 $esp .cbLocals + .cbSavedRegs + = $T0 .raSearchStart = $eip $T0 ^ = $esp $T0 4 + =
STACK WIN 4 3970d 26 5 0 8 0 0 0 1 $T0 $ebp = $eip $T0 4 + ^ = $ebp $T0 ^ = $esp $T0 8 + = $L $T0 .cbSavedRegs - = $P $T0 4 + .cbParams + =
STACK WIN 4 62aa5 26 5 0 8 0 0 0 1 $T0 $ebp = $eip $T0 4 + ^ = $ebp $T0 ^ = $esp $T0 8 + = $L $T0 .cbSavedRegs - = $P $T0 4 + .cbParams + =
STACK WIN 4 39732 28 5 0 4 0 0 0 1 $T0 $ebp = $eip $T0 4 + ^ = $ebp $T0 ^ = $esp $T0 8 + = $L $T0 .cbSavedRegs - = $P $T0 4 + .cbParams + =
STACK WIN 4 328f7 28 5 0 4 0 0 0 1 $T0 $ebp = $eip $T0 4 + ^ = $ebp $T0 ^ = $esp $T0 8 + = $L $T0 .cbSavedRegs - = $P $T0 4 + .cbParams + =
STACK WIN 4 12a09 58 16 0 10 0 50 0 1 $T0 $ebp = $eip $T0 4 + ^ = $ebp $T0 ^ = $esp $T0 8 + = $L $T0 .cbSavedRegs - = $P $T0 4 + .cbParams + =
STACK WIN 4 12a1f 3e 0 0 10 4 50 0 1 $T0 $ebp = $eip $T0 4 + ^ = $ebp $T0 ^ = $esp $T0 8 + = $L $T0 .cbSavedRegs - = $P $T0 4 + .cbParams + =
STACK WIN 4 12a4b 6 0 0 10 8 50 0 1 $T0 $ebp = $eip $T0 4 + ^ = $ebp $T0 ^ = $esp $T0 8 + = $L $T0 .cbSavedRegs - = $P $T0 4 + .cbParams + =
STACK WIN 4 62ad0 7a 9 0 8 0 1c 0 1 $T0 $ebp = $eip $T0 4 + ^ = $ebp $T0 ^ = $esp $T0 8 + = $L $T0 .cbSavedRegs - = $P $T0 4 + .cbParams + =
STACK WIN 4 62ad9 6d 0 0 8 4 1c 0 1 $T0 $ebp = $eip $T0 4 + ^ = $ebp $T0 ^ = $esp $T0 8 + = $L $T0 .cbSavedRegs - = $P $T0 4 + .cbParams + =
STACK WIN 4 62af6 4b 0 0 8 8 1c 0 1 $T0 $ebp = $eip $T0 4 + ^ = $ebp $T0 ^ = $esp $T0 8 + = $L $T0 .cbSavedRegs - = $P $T0 4 + .cbParams + =
STACK WIN 4 4479d a2 15 0 4 0 21c 0 1 $T0 $ebp = $eip $T0 4 + ^ = $ebp $T0 ^ = $esp $T0 8 + = $L $T0 .cbSavedRegs - = $P $T0 4 + .cbParams + =
STACK WIN 4 447ae 88 4 0 4 4 21c 0 1 $T0 $ebp = $eip $T0 4 + ^ = $ebp $T0 ^ = $esp $T0 8 + = $L $T0 .cbSavedRegs - = $P $T0 4 + .cbParams + =
STACK WIN 4 447b2 81 0 0 4 8 21c 0 1 $T0 $ebp = $eip $T0 4 + ^ = $ebp $T0 ^ = $esp $T0 8 + = $L $T0 .cbSavedRegs - = $P $T0 4 + .cbParams + =
STACK WIN 4 62b4f a8 c 0 4 8 54 0 1 $T0 $ebp = $eip $T0 4 + ^ = $ebp $T0 ^ = $esp $T0 8 + = $L $T0 .cbSavedRegs - = $P $T0 4 + .cbParams + =
STACK WIN 4 62be6 4 0 0 4 8 54 0 1 $T0 $ebp = $T2 $esp = $T1 .raSearchStart = $eip $T1 ^ = $ebp $ebp = $esp $T1 4 + = $L $T0 .cbSavedRegs - = $P $T0 4 + .cbParams + =
STACK WIN 4 62c19 7e e 0 4 0 8 0 1 $T0 $ebp = $eip $T0 4 + ^ = $ebp $T0 ^ = $esp $T0 8 + = $L $T0 .cbSavedRegs - = $P $T0 4 + .cbParams + =
STACK WIN 4 62c25 69 2 0 4 4 8 0 1 $T0 $ebp = $eip $T0 4 + ^ = $ebp $T0 ^ = $esp $T0 8 + = $L $T0 .cbSavedRegs - = $P $T0 4 + .cbParams + = $ebx $T0 16 - ^ =
STACK WIN 4 62c26 67 1 0 4 8 8 0 1 $T0 $ebp = $eip $T0 4 + ^ = $ebp $T0 ^ = $esp $T0 8 + = $L $T0 .cbSavedRegs - = $P $T0 4 + .cbParams + = $ebx $T0 16 - ^ =
STACK WIN 4 62c27 65 0 0 4 c 8 0 1 $T0 $ebp = $eip $T0 4 + ^ = $ebp $T0 ^ = $esp $T0 8 + = $L $T0 .cbSavedRegs - = $P $T0 4 + .cbParams + = $ebx $T0 16 - ^ =
STACK WIN 4 12d9f 10b c 0 0 8 24 0 1 $T0 $ebp = $eip $T0 4 + ^ = $ebp $T0 ^ = $esp $T0 8 + = $L $T0 .cbSavedRegs - = $P $T0 4 + .cbParams + =
STACK WIN 4 448d9 a 0 0 0 8 24 0 1 $T0 $ebp = $T2 $esp = $T1 .raSearchStart = $eip $T1 ^ = $ebp $ebp = $esp $T1 4 + = $L $T0 .cbSavedRegs - = $P $T0 4 + .cbParams + =
STACK WIN 4 9740 4f 5 0 4 0 0 0 1 $T0 $ebp = $eip $T0 4 + ^ = $ebp $T0 ^ = $esp $T0 8 + = $L $T0 .cbSavedRegs - = $P $T0 4 + .cbParams + =
STACK WIN 4 9bc5 a7 7 0 8 0 0 0 1 $T0 $ebp = $eip $T0 4 + ^ = $ebp $T0 ^ = $esp $T0 8 + = $L $T0 .cbSavedRegs - = $P $T0 4 + .cbParams + =
STACK WIN 4 9bcb 9d 1 0 8 4 0 0 1 $T0 $ebp = $eip $T0 4 + ^ = $ebp $T0 ^ = $esp $T0 8 + = $L $T0 .cbSavedRegs - = $P $T0 4 + .cbParams + =
STACK WIN 4 9bcc 9b 0 0 8 8 0 0 1 $T0 $ebp = $eip $T0 4 + ^ = $ebp $T0 ^ = $esp $T0 8 + = $L $T0 .cbSavedRegs - = $P $T0 4 + .cbParams + =
STACK WIN 4 136d7 cc c 0 4 8 28 0 1 $T0 $ebp = $eip $T0 4 + ^ = $ebp $T0 ^ = $esp $T0 8 + = $L $T0 .cbSavedRegs - = $P $T0 4 + .cbParams + =
STACK WIN 4 13771 7 0 0 4 8 28 0 1 $T0 $ebp = $T2 $esp = $T1 .raSearchStart = $eip $T1 ^ = $ebp $ebp = $esp $T1 4 + = $L $T0 .cbSavedRegs - = $P $T0 4 + .cbParams + =
STACK WIN 4 62c9c 68 8 0 14 0 20 0 1 $T0 $ebp = $eip $T0 4 + ^ = $ebp $T0 ^ = $esp $T0 8 + = $L $T0 .cbSavedRegs - = $P $T0 4 + .cbParams + =
STACK WIN 4 62d09 3a 5 0 8 0 0 0 1 $T0 $ebp = $eip $T0 4 + ^ = $ebp $T0 ^ = $esp $T0 8 + = $L $T0 .cbSavedRegs - = $P $T0 4 + .cbParams + =
STACK WIN 4 2fa7a 53 9 0 8 0 20 0 1 $T0 $ebp = $eip $T0 4 + ^ = $ebp $T0 ^ = $esp $T0 8 + = $L $T0 .cbSavedRegs - = $P $T0 4 + .cbParams + =
STACK WIN 4 2fa83 46 0 0 8 4 20 0 1 $T0 $ebp = $eip $T0 4 + ^ = $ebp $T0 ^ = $esp $T0 8 + = $L $T0 .cbSavedRegs - = $P $T0 4 + .cbParams + =
STACK WIN 4 2c0e6 6f c 0 c 8 30 0 1 $T0 $ebp = $eip $T0 4 + ^ = $ebp $T0 ^ = $esp $T0 8 + = $L $T0 .cbSavedRegs - = $P $T0 4 + .cbParams + =
STACK WIN 4 2c151 14 0 0 c 8 30 0 1 $T0 $ebp = $T2 $esp = $T1 .raSearchStart = $eip $T1 ^ = $ebp $ebp = $esp $T1 4 + = $L $T0 .cbSavedRegs - = $P $T0 4 + .cbParams + =
STACK WIN 4 2c082 71 c 0 c 0 8 0 1 $T0 $ebp = $eip $T0 4 + ^ = $ebp $T0 ^ = $esp $T0 8 + = $L $T0 .cbSavedRegs - = $P $T0 4 + .cbParams + =
STACK WIN 4 2c08e 1e 0 0 c 4 8 0 1 $T0 $ebp = $eip $T0 4 + ^ = $ebp $T0 ^ = $esp $T0 8 + = $L $T0 .cbSavedRegs - = $P $T0 4 + .cbParams + =
STACK WIN 4 62d48 2f 6 0 8 0 0 0 1 $T0 $ebp = $eip $T0 4 + ^ = $ebp $T0 ^ = $esp $T0 8 + = $L $T0 .cbSavedRegs - = $P $T0 4 + .cbParams + =
STACK WIN 4 62d4e 25 0 0 8 4 0 0 1 $T0 $ebp = $eip $T0 4 + ^ = $ebp $T0 ^ = $esp $T0 8 + = $L $T0 .cbSavedRegs - = $P $T0 4 + .cbParams + =
STACK WIN 4 2ffcf b8 8 0 14 0 14 0 1 $T0 $ebp = $eip $T0 4 + ^ = $ebp $T0 ^ = $esp $T0 8 + = $L $T0 .cbSavedRegs - = $P $T0 4 + .cbParams + =
STACK WIN 4 2ffe2 97 0 0 14 4 14 0 1 $T0 $ebp = $eip $T0 4 + ^ = $ebp $T0 ^ = $esp $T0 8 + = $L $T0 .cbSavedRegs - = $P $T0 4 + .cbParams + =
STACK WIN 4 2fe84 73 7 0 4 0 4 0 1 $T0 $ebp = $eip $T0 4 + ^ = $ebp $T0 ^ = $esp $T0 8 + = $L $T0 .cbSavedRegs - = $P $T0 4 + .cbParams + =
STACK WIN 4 2fe8b 68 0 0 4 4 4 0 1 $T0 $ebp = $eip $T0 4 + ^ = $ebp $T0 ^ = $esp $T0 8 + = $L $T0 .cbSavedRegs - = $P $T0 4 + .cbParams + =
STACK WIN 4 2ff16 6f 5 0 4 0 0 0 1 $T0 $ebp = $eip $T0 4 + ^ = $ebp $T0 ^ = $esp $T0 8 + = $L $T0 .cbSavedRegs - = $P $T0 4 + .cbParams + =
STACK WIN 4 2fed7 40 0 0 0 0 0 0 1 $T2 $esp .cbLocals + .cbSavedRegs + = $T0 .raSearchStart = $eip $T0 ^ = $esp $T0 4 + =
STACK WIN 4 32992 13 0 0 0 0 0 0 1 $T2 $esp .cbLocals + .cbSavedRegs + = $T0 .raSearchStart = $eip $T0 ^ = $esp $T0 4 + =
STACK WIN 4 211cd 86 7 0 18 0 0 0 1 $T0 $ebp = $eip $T0 4 + ^ = $ebp $T0 ^ = $esp $T0 8 + = $L $T0 .cbSavedRegs - = $P $T0 4 + .cbParams + =
STACK WIN 4 211d3 6d 1 0 18 4 0 0 1 $T0 $ebp = $eip $T0 4 + ^ = $ebp $T0 ^ = $esp $T0 8 + = $L $T0 .cbSavedRegs - = $P $T0 4 + .cbParams + =
STACK WIN 4 211d4 6b 0 0 18 8 0 0 1 $T0 $ebp = $eip $T0 4 + ^ = $ebp $T0 ^ = $esp $T0 8 + = $L $T0 .cbSavedRegs - = $P $T0 4 + .cbParams + =
STACK WIN 4 2b086 82 7 0 14 0 4 0 1 $T0 $ebp = $eip $T0 4 + ^ = $ebp $T0 ^ = $esp $T0 8 + = $L $T0 .cbSavedRegs - = $P $T0 4 + .cbParams + =
STACK WIN 4 2b08d 68 0 0 14 4 4 0 1 $T0 $ebp = $eip $T0 4 + ^ = $ebp $T0 ^ = $esp $T0 8 + = $L $T0 .cbSavedRegs - = $P $T0 4 + .cbParams + =
STACK WIN 4 2bff8 39 5 0 4 0 0 0 1 $T0 $ebp = $eip $T0 4 + ^ = $ebp $T0 ^ = $esp $T0 8 + = $L $T0 .cbSavedRegs - = $P $T0 4 + .cbParams + =
STACK WIN 4 30062 42 5 0 8 0 0 0 1 $T0 $ebp = $eip $T0 4 + ^ = $ebp $T0 ^ = $esp $T0 8 + = $L $T0 .cbSavedRegs - = $P $T0 4 + .cbParams + =
STACK WIN 4 30a62 29 5 0 c 0 0 0 1 $T0 $ebp = $eip $T0 4 + ^ = $ebp $T0 ^ = $esp $T0 8 + = $L $T0 .cbSavedRegs - = $P $T0 4 + .cbParams + =
STACK WIN 4 2c02c 28 5 0 c 0 0 0 1 $T0 $ebp = $eip $T0 4 + ^ = $ebp $T0 ^ = $esp $T0 8 + = $L $T0 .cbSavedRegs - = $P $T0 4 + .cbParams + =
STACK WIN 4 2cba2 8e a 0 0 0 8 0 1 $T0 $ebp = $eip $T0 4 + ^ = $ebp $T0 ^ = $esp $T0 8 + = $L $T0 .cbSavedRegs - = $P $T0 4 + .cbParams + =
STACK WIN 4 2cbaa 6e 2 0 0 4 8 0 1 $T0 $ebp = $eip $T0 4 + ^ = $ebp $T0 ^ = $esp $T0 8 + = $L $T0 .cbSavedRegs - = $P $T0 4 + .cbParams + = $ebx $T0 16 - ^ =
STACK WIN 4 2cbab 6c 1 0 0 8 8 0 1 $T0 $ebp = $eip $T0 4 + ^ = $ebp $T0 ^ = $esp $T0 8 + = $L $T0 .cbSavedRegs - = $P $T0 4 + .cbParams + = $ebx $T0 16 - ^ =
STACK WIN 4 2cbac 6a 0 0 0 c 8 0 1 $T0 $ebp = $eip $T0 4 + ^ = $ebp $T0 ^ = $esp $T0 8 + = $L $T0 .cbSavedRegs - = $P $T0 4 + .cbParams + = $ebx $T0 16 - ^ =
STACK WIN 4 2bfd6 23 6 0 0 0 4 0 1 $T0 $ebp = $eip $T0 4 + ^ = $ebp $T0 ^ = $esp $T0 8 + = $L $T0 .cbSavedRegs - = $P $T0 4 + .cbParams + =
STACK WIN 4 2117d 56 9 0 1c 0 0 0 1 $T0 $ebp = $eip $T0 4 + ^ = $ebp $T0 ^ = $esp $T0 8 + = $L $T0 .cbSavedRegs - = $P $T0 4 + .cbParams + =
STACK WIN 4 21186 49 0 0 1c 4 0 0 1 $T0 $ebp = $eip $T0 4 + ^ = $ebp $T0 ^ = $esp $T0 8 + = $L $T0 .cbSavedRegs - = $P $T0 4 + .cbParams + =
STACK WIN 4 12723 43 5 0 10 0 0 0 1 $T0 $ebp = $eip $T0 4 + ^ = $ebp $T0 ^ = $esp $T0 8 + = $L $T0 .cbSavedRegs - = $P $T0 4 + .cbParams + =
STACK WIN 4 21130 4d 5 0 c 0 0 0 1 $T0 $ebp = $eip $T0 4 + ^ = $ebp $T0 ^ = $esp $T0 8 + = $L $T0 .cbSavedRegs - = $P $T0 4 + .cbParams + =
STACK WIN 4 62d7c 42 5 0 8 0 0 0 1 $T0 $ebp = $eip $T0 4 + ^ = $ebp $T0 ^ = $esp $T0 8 + = $L $T0 .cbSavedRegs - = $P $T0 4 + .cbParams + =
STACK WIN 4 2b26e 57 5 0 18 0 0 0 1 $T0 $ebp = $eip $T0 4 + ^ = $ebp $T0 ^ = $esp $T0 8 + = $L $T0 .cbSavedRegs - = $P $T0 4 + .cbParams + =
STACK WIN 4 62dc3 28 5 0 4 0 0 0 1 $T0 $ebp = $eip $T0 4 + ^ = $ebp $T0 ^ = $esp $T0 8 + = $L $T0 .cbSavedRegs - = $P $T0 4 + .cbParams + =
STACK WIN 4 62df0 3f 5 0 8 0 0 0 1 $T0 $ebp = $eip $T0 4 + ^ = $ebp $T0 ^ = $esp $T0 8 + = $L $T0 .cbSavedRegs - = $P $T0 4 + .cbParams + =
STACK WIN 4 62e34 29 5 0 c 0 0 0 1 $T0 $ebp = $eip $T0 4 + ^ = $ebp $T0 ^ = $esp $T0 8 + = $L $T0 .cbSavedRegs - = $P $T0 4 + .cbParams + =
STACK WIN 4 10637 22 5 0 18 0 0 0 1 $T0 $ebp = $eip $T0 4 + ^ = $ebp $T0 ^ = $esp $T0 8 + = $L $T0 .cbSavedRegs - = $P $T0 4 + .cbParams + =
STACK WIN 4 c1e0 e 5 0 4 0 0 0 1 $T0 $ebp = $eip $T0 4 + ^ = $ebp $T0 ^ = $esp $T0 8 + = $L $T0 .cbSavedRegs - = $P $T0 4 + .cbParams + =
STACK WIN 4 62e62 97d 17 0 4 8 684 0 1 $T0 $ebp = $eip $T0 4 + ^ = $ebp $T0 ^ = $esp $T0 8 + = $L $T0 .cbSavedRegs - = $P $T0 4 + .cbParams + =
STACK WIN 4 63421 4 0 0 4 8 684 0 1 $T0 $ebp = $T2 $esp = $T1 .raSearchStart = $eip $T1 ^ = $ebp $ebp = $esp $T1 4 + = $L $T0 .cbSavedRegs - = $P $T0 4 + .cbParams + =
STACK WIN 4 6362b 4 0 0 4 8 684 0 1 $T0 $ebp = $T2 $esp = $T1 .raSearchStart = $eip $T1 ^ = $ebp $ebp = $esp $T1 4 + = $L $T0 .cbSavedRegs - = $P $T0 4 + .cbParams + =
STACK WIN 4 636d3 4 0 0 4 8 684 0 1 $T0 $ebp = $T2 $esp = $T1 .raSearchStart = $eip $T1 ^ = $ebp $ebp = $esp $T1 4 + = $L $T0 .cbSavedRegs - = $P $T0 4 + .cbParams + =
STACK WIN 4 2ffaf 1b 5 0 c 0 0 0 1 $T0 $ebp = $eip $T0 4 + ^ = $ebp $T0 ^ = $esp $T0 8 + = $L $T0 .cbSavedRegs - = $P $T0 4 + .cbParams + =
STACK WIN 4 63999 a9 b 0 8 0 10 0 1 $T0 $ebp = $eip $T0 4 + ^ = $ebp $T0 ^ = $esp $T0 8 + = $L $T0 .cbSavedRegs - = $P $T0 4 + .cbParams + =
STACK WIN 4 639a2 9c 2 0 8 4 10 0 1 $T0 $ebp = $eip $T0 4 + ^ = $ebp $T0 ^ = $esp $T0 8 + = $L $T0 .cbSavedRegs - = $P $T0 4 + .cbParams + = $ebx $T0 24 - ^ =
STACK WIN 4 639a3 9a 1 0 8 8 10 0 1 $T0 $ebp = $eip $T0 4 + ^ = $ebp $T0 ^ = $esp $T0 8 + = $L $T0 .cbSavedRegs - = $P $T0 4 + .cbParams + = $ebx $T0 24 - ^ =
STACK WIN 4 639a4 98 0 0 8 c 10 0 1 $T0 $ebp = $eip $T0 4 + ^ = $ebp $T0 ^ = $esp $T0 8 + = $L $T0 .cbSavedRegs - = $P $T0 4 + .cbParams + = $ebx $T0 24 - ^ =
STACK WIN 4 63a47 92 a 0 8 0 c 0 1 $T0 $ebp = $eip $T0 4 + ^ = $ebp $T0 ^ = $esp $T0 8 + = $L $T0 .cbSavedRegs - = $P $T0 4 + .cbParams + =
STACK WIN 4 63a50 85 1 0 8 4 c 0 1 $T0 $ebp = $eip $T0 4 + ^ = $ebp $T0 ^ = $esp $T0 8 + = $L $T0 .cbSavedRegs - = $P $T0 4 + .cbParams + =
STACK WIN 4 63a51 83 0 0 8 8 c 0 1 $T0 $ebp = $eip $T0 4 + ^ = $ebp $T0 ^ = $esp $T0 8 + = $L $T0 .cbSavedRegs - = $P $T0 4 + .cbParams + =
STACK WIN 4 63ade 115 c 0 c 0 4 0 1 $T0 $ebp = $eip $T0 4 + ^ = $ebp $T0 ^ = $esp $T0 8 + = $L $T0 .cbSavedRegs - = $P $T0 4 + .cbParams + =
STACK WIN 4 63ae5 10a 5 0 c 4 4 0 1 $T0 $ebp = $eip $T0 4 + ^ = $ebp $T0 ^ = $esp $T0 8 + = $L $T0 .cbSavedRegs - = $P $T0 4 + .cbParams + = $ebx $T0 12 - ^ =
STACK WIN 4 63ae6 108 4 0 c 8 4 0 1 $T0 $ebp = $eip $T0 4 + ^ = $ebp $T0 ^ = $esp $T0 8 + = $L $T0 .cbSavedRegs - = $P $T0 4 + .cbParams + = $ebx $T0 12 - ^ =
STACK WIN 4 63aea 103 0 0 c c 4 0 1 $T0 $ebp = $eip $T0 4 + ^ = $ebp $T0 ^ = $esp $T0 8 + = $L $T0 .cbSavedRegs - = $P $T0 4 + .cbParams + = $ebx $T0 12 - ^ =
STACK WIN 4 63bf8 127 d 0 4 0 0 0 1 $T0 $ebp = $eip $T0 4 + ^ = $ebp $T0 ^ = $esp $T0 8 + = $L $T0 .cbSavedRegs - = $P $T0 4 + .cbParams + =
STACK WIN 4 63bfe 11d 7 0 4 4 0 0 1 $T0 $ebp = $eip $T0 4 + ^ = $ebp $T0 ^ = $esp $T0 8 + = $L $T0 .cbSavedRegs - = $P $T0 4 + .cbParams + = $ebx $T0 8 - ^ =
STACK WIN 4 63bff 11b 6 0 4 8 0 0 1 $T0 $ebp = $eip $T0 4 + ^ = $ebp $T0 ^ = $esp $T0 8 + = $L $T0 .cbSavedRegs - = $P $T0 4 + .cbParams + = $ebx $T0 8 - ^ =
STACK WIN 4 63c05 114 0 0 4 c 0 0 1 $T0 $ebp = $eip $T0 4 + ^ = $ebp $T0 ^ = $esp $T0 8 + = $L $T0 .cbSavedRegs - = $P $T0 4 + .cbParams + = $ebx $T0 8 - ^ =
STACK WIN 4 63d24 3b 6 0 14 0 0 0 1 $T0 $ebp = $eip $T0 4 + ^ = $ebp $T0 ^ = $esp $T0 8 + = $L $T0 .cbSavedRegs - = $P $T0 4 + .cbParams + =
STACK WIN 4 63d2a 31 0 0 14 4 0 0 1 $T0 $ebp = $eip $T0 4 + ^ = $ebp $T0 ^ = $esp $T0 8 + = $L $T0 .cbSavedRegs - = $P $T0 4 + .cbParams + =
STACK WIN 4 63d3d 1d 0 0 14 8 0 0 1 $T0 $ebp = $eip $T0 4 + ^ = $ebp $T0 ^ = $esp $T0 8 + = $L $T0 .cbSavedRegs - = $P $T0 4 + .cbParams + =
STACK WIN 4 63d64 b4 b 0 8 0 10 0 1 $T0 $ebp = $eip $T0 4 + ^ = $ebp $T0 ^ = $esp $T0 8 + = $L $T0 .cbSavedRegs - = $P $T0 4 + .cbParams + =
STACK WIN 4 63d6d a7 2 0 8 4 10 0 1 $T0 $ebp = $eip $T0 4 + ^ = $ebp $T0 ^ = $esp $T0 8 + = $L $T0 .cbSavedRegs - = $P $T0 4 + .cbParams + = $ebx $T0 24 - ^ =
STACK WIN 4 63d6e a5 1 0 8 8 10 0 1 $T0 $ebp = $eip $T0 4 + ^ = $ebp $T0 ^ = $esp $T0 8 + = $L $T0 .cbSavedRegs - = $P $T0 4 + .cbParams + = $ebx $T0 24 - ^ =
STACK WIN 4 63d6f a3 0 0 8 c 10 0 1 $T0 $ebp = $eip $T0 4 + ^ = $ebp $T0 ^ = $esp $T0 8 + = $L $T0 .cbSavedRegs - = $P $T0 4 + .cbParams + = $ebx $T0 24 - ^ =
STACK WIN 4 63e1d cd 11 0 8 0 230 0 1 $T0 $ebp = $eip $T0 4 + ^ = $ebp $T0 ^ = $esp $T0 8 + = $L $T0 .cbSavedRegs - = $P $T0 4 + .cbParams + =
STACK WIN 4 63e2e b3 0 0 8 4 230 0 1 $T0 $ebp = $eip $T0 4 + ^ = $ebp $T0 ^ = $esp $T0 8 + = $L $T0 .cbSavedRegs - = $P $T0 4 + .cbParams + =
STACK WIN 4 63eef 9c a 0 8 0 c 0 1 $T0 $ebp = $eip $T0 4 + ^ = $ebp $T0 ^ = $esp $T0 8 + = $L $T0 .cbSavedRegs - = $P $T0 4 + .cbParams + =
STACK WIN 4 63ef8 8f 1 0 8 4 c 0 1 $T0 $ebp = $eip $T0 4 + ^ = $ebp $T0 ^ = $esp $T0 8 + = $L $T0 .cbSavedRegs - = $P $T0 4 + .cbParams + =
STACK WIN 4 63ef9 8d 0 0 8 8 c 0 1 $T0 $ebp = $eip $T0 4 + ^ = $ebp $T0 ^ = $esp $T0 8 + = $L $T0 .cbSavedRegs - = $P $T0 4 + .cbParams + =
STACK WIN 4 63f90 cd 11 0 8 0 230 0 1 $T0 $ebp = $eip $T0 4 + ^ = $ebp $T0 ^ = $esp $T0 8 + = $L $T0 .cbSavedRegs - = $P $T0 4 + .cbParams + =
STACK WIN 4 63fa1 b3 0 0 8 4 230 0 1 $T0 $ebp = $eip $T0 4 + ^ = $ebp $T0 ^ = $esp $T0 8 + = $L $T0 .cbSavedRegs - = $P $T0 4 + .cbParams + =
STACK WIN 4 64062 af b 0 8 0 10 0 1 $T0 $ebp = $eip $T0 4 + ^ = $ebp $T0 ^ = $esp $T0 8 + = $L $T0 .cbSavedRegs - = $P $T0 4 + .cbParams + =
STACK WIN 4 6406b a2 2 0 8 4 10 0 1 $T0 $ebp = $eip $T0 4 + ^ = $ebp $T0 ^ = $esp $T0 8 + = $L $T0 .cbSavedRegs - = $P $T0 4 + .cbParams + = $ebx $T0 24 - ^ =
STACK WIN 4 6406c a0 1 0 8 8 10 0 1 $T0 $ebp = $eip $T0 4 + ^ = $ebp $T0 ^ = $esp $T0 8 + = $L $T0 .cbSavedRegs - = $P $T0 4 + .cbParams + = $ebx $T0 24 - ^ =
STACK WIN 4 6406d 9e 0 0 8 c 10 0 1 $T0 $ebp = $eip $T0 4 + ^ = $ebp $T0 ^ = $esp $T0 8 + = $L $T0 .cbSavedRegs - = $P $T0 4 + .cbParams + = $ebx $T0 24 - ^ =
STACK WIN 4 64116 94 a 0 8 0 c 0 1 $T0 $ebp = $eip $T0 4 + ^ = $ebp $T0 ^ = $esp $T0 8 + = $L $T0 .cbSavedRegs - = $P $T0 4 + .cbParams + =
STACK WIN 4 6411f 87 1 0 8 4 c 0 1 $T0 $ebp = $eip $T0 4 + ^ = $ebp $T0 ^ = $esp $T0 8 + = $L $T0 .cbSavedRegs - = $P $T0 4 + .cbParams + =
STACK WIN 4 64120 85 0 0 8 8 c 0 1 $T0 $ebp = $eip $T0 4 + ^ = $ebp $T0 ^ = $esp $T0 8 + = $L $T0 .cbSavedRegs - = $P $T0 4 + .cbParams + =
STACK WIN 4 641af b4 b 0 8 0 10 0 1 $T0 $ebp = $eip $T0 4 + ^ = $ebp $T0 ^ = $esp $T0 8 + = $L $T0 .cbSavedRegs - = $P $T0 4 + .cbParams + =
STACK WIN 4 641b8 a7 2 0 8 4 10 0 1 $T0 $ebp = $eip $T0 4 + ^ = $ebp $T0 ^ = $esp $T0 8 + = $L $T0 .cbSavedRegs - = $P $T0 4 + .cbParams + = $ebx $T0 24 - ^ =
STACK WIN 4 641b9 a5 1 0 8 8 10 0 1 $T0 $ebp = $eip $T0 4 + ^ = $ebp $T0 ^ = $esp $T0 8 + = $L $T0 .cbSavedRegs - = $P $T0 4 + .cbParams + = $ebx $T0 24 - ^ =
STACK WIN 4 641ba a3 0 0 8 c 10 0 1 $T0 $ebp = $eip $T0 4 + ^ = $ebp $T0 ^ = $esp $T0 8 + = $L $T0 .cbSavedRegs - = $P $T0 4 + .cbParams + = $ebx $T0 24 - ^ =
STACK WIN 4 64268 df 15 0 8 0 42c 0 1 $T0 $ebp = $eip $T0 4 + ^ = $ebp $T0 ^ = $esp $T0 8 + = $L $T0 .cbSavedRegs - = $P $T0 4 + .cbParams + =
STACK WIN 4 64279 c5 4 0 8 4 42c 0 1 $T0 $ebp = $eip $T0 4 + ^ = $ebp $T0 ^ = $esp $T0 8 + = $L $T0 .cbSavedRegs - = $P $T0 4 + .cbParams + =
STACK WIN 4 6427d c0 0 0 8 8 42c 0 1 $T0 $ebp = $eip $T0 4 + ^ = $ebp $T0 ^ = $esp $T0 8 + = $L $T0 .cbSavedRegs - = $P $T0 4 + .cbParams + =
STACK WIN 4 6434c 9c a 0 8 0 c 0 1 $T0 $ebp = $eip $T0 4 + ^ = $ebp $T0 ^ = $esp $T0 8 + = $L $T0 .cbSavedRegs - = $P $T0 4 + .cbParams + =
STACK WIN 4 64355 8f 1 0 8 4 c 0 1 $T0 $ebp = $eip $T0 4 + ^ = $ebp $T0 ^ = $esp $T0 8 + = $L $T0 .cbSavedRegs - = $P $T0 4 + .cbParams + =
STACK WIN 4 64356 8d 0 0 8 8 c 0 1 $T0 $ebp = $eip $T0 4 + ^ = $ebp $T0 ^ = $esp $T0 8 + = $L $T0 .cbSavedRegs - = $P $T0 4 + .cbParams + =
STACK WIN 4 643ed d6 15 0 8 0 42c 0 1 $T0 $ebp = $eip $T0 4 + ^ = $ebp $T0 ^ = $esp $T0 8 + = $L $T0 .cbSavedRegs - = $P $T0 4 + .cbParams + =
STACK WIN 4 643fe bc 4 0 8 4 42c 0 1 $T0 $ebp = $eip $T0 4 + ^ = $ebp $T0 ^ = $esp $T0 8 + = $L $T0 .cbSavedRegs - = $P $T0 4 + .cbParams + =
STACK WIN 4 64402 b7 0 0 8 8 42c 0 1 $T0 $ebp = $eip $T0 4 + ^ = $ebp $T0 ^ = $esp $T0 8 + = $L $T0 .cbSavedRegs - = $P $T0 4 + .cbParams + =
STACK WIN 4 644c8 195 c 0 14 8 2c 0 1 $T0 $ebp = $eip $T0 4 + ^ = $ebp $T0 ^ = $esp $T0 8 + = $L $T0 .cbSavedRegs - = $P $T0 4 + .cbParams + =
STACK WIN 4 6452a e 0 0 14 8 2c 0 1 $T0 $ebp = $T2 $esp = $T1 .raSearchStart = $eip $T1 ^ = $ebp $ebp = $esp $T1 4 + = $L $T0 .cbSavedRegs - = $P $T0 4 + .cbParams + =
STACK WIN 4 64679 19e e 0 18 0 54 0 1 $T0 $ebp = $eip $T0 4 + ^ = $ebp $T0 ^ = $esp $T0 8 + = $L $T0 .cbSavedRegs - = $P $T0 4 + .cbParams + =
STACK WIN 4 64685 18e 2 0 18 4 54 0 1 $T0 $ebp = $eip $T0 4 + ^ = $ebp $T0 ^ = $esp $T0 8 + = $L $T0 .cbSavedRegs - = $P $T0 4 + .cbParams + = $ebx $T0 92 - ^ =
STACK WIN 4 64686 18c 1 0 18 8 54 0 1 $T0 $ebp = $eip $T0 4 + ^ = $ebp $T0 ^ = $esp $T0 8 + = $L $T0 .cbSavedRegs - = $P $T0 4 + .cbParams + = $ebx $T0 92 - ^ =
STACK WIN 4 64687 18a 0 0 18 c 54 0 1 $T0 $ebp = $eip $T0 4 + ^ = $ebp $T0 ^ = $esp $T0 8 + = $L $T0 .cbSavedRegs - = $P $T0 4 + .cbParams + = $ebx $T0 92 - ^ =
STACK WIN 4 6481c 37 8 0 c 0 10 0 1 $T0 $ebp = $eip $T0 4 + ^ = $ebp $T0 ^ = $esp $T0 8 + = $L $T0 .cbSavedRegs - = $P $T0 4 + .cbParams + =
STACK WIN 4 64858 2c5 9 0 18 0 18 0 1 $T0 $ebp = $eip $T0 4 + ^ = $ebp $T0 ^ = $esp $T0 8 + = $L $T0 .cbSavedRegs - = $P $T0 4 + .cbParams + =
STACK WIN 4 64861 2b8 0 0 18 4 18 0 1 $T0 $ebp = $eip $T0 4 + ^ = $ebp $T0 ^ = $esp $T0 8 + = $L $T0 .cbSavedRegs - = $P $T0 4 + .cbParams + =
STACK WIN 4 6489e 24c 0 0 18 8 18 0 1 $T0 $ebp = $eip $T0 4 + ^ = $ebp $T0 ^ = $esp $T0 8 + = $L $T0 .cbSavedRegs - = $P $T0 4 + .cbParams + =
STACK WIN 4 64b47 83 9 0 8 0 c 0 1 $T0 $ebp = $eip $T0 4 + ^ = $ebp $T0 ^ = $esp $T0 8 + = $L $T0 .cbSavedRegs - = $P $T0 4 + .cbParams + =
STACK WIN 4 64b50 76 0 0 8 4 c 0 1 $T0 $ebp = $eip $T0 4 + ^ = $ebp $T0 ^ = $esp $T0 8 + = $L $T0 .cbSavedRegs - = $P $T0 4 + .cbParams + =
STACK WIN 4 64bcf a8 20 0 8 0 a8 0 1 $T0 $ebp = $eip $T0 4 + ^ = $ebp $T0 ^ = $esp $T0 8 + = $L $T0 .cbSavedRegs - = $P $T0 4 + .cbParams + =
STACK WIN 4 64be7 87 8 0 8 4 a8 0 1 $T0 $ebp = $eip $T0 4 + ^ = $ebp $T0 ^ = $esp $T0 8 + = $L $T0 .cbSavedRegs - = $P $T0 4 + .cbParams + = $ebx $T0 176 - ^ =
STACK WIN 4 64beb 82 4 0 8 8 a8 0 1 $T0 $ebp = $eip $T0 4 + ^ = $ebp $T0 ^ = $esp $T0 8 + = $L $T0 .cbSavedRegs - = $P $T0 4 + .cbParams + = $ebx $T0 176 - ^ =
STACK WIN 4 64bef 7d 0 0 8 c a8 0 1 $T0 $ebp = $eip $T0 4 + ^ = $ebp $T0 ^ = $esp $T0 8 + = $L $T0 .cbSavedRegs - = $P $T0 4 + .cbParams + = $ebx $T0 176 - ^ =
STACK WIN 4 64c7c 112 17 0 8 0 11c 0 1 $T0 $ebp = $eip $T0 4 + ^ = $ebp $T0 ^ = $esp $T0 8 + = $L $T0 .cbSavedRegs - = $P $T0 4 + .cbParams + =
STACK WIN 4 64c93 f2 0 0 8 4 11c 0 1 $T0 $ebp = $eip $T0 4 + ^ = $ebp $T0 ^ = $esp $T0 8 + = $L $T0 .cbSavedRegs - = $P $T0 4 + .cbParams + =
STACK WIN 4 64cf5 8c 0 0 8 8 11c 0 1 $T0 $ebp = $eip $T0 4 + ^ = $ebp $T0 ^ = $esp $T0 8 + = $L $T0 .cbSavedRegs - = $P $T0 4 + .cbParams + =
STACK WIN 4 64d93 6b d 0 4 0 0 0 1 $T0 $ebp = $eip $T0 4 + ^ = $ebp $T0 ^ = $esp $T0 8 + = $L $T0 .cbSavedRegs - = $P $T0 4 + .cbParams + =
STACK WIN 4 64da0 5a 0 0 4 4 0 0 1 $T0 $ebp = $eip $T0 4 + ^ = $ebp $T0 ^ = $esp $T0 8 + = $L $T0 .cbSavedRegs - = $P $T0 4 + .cbParams + =
STACK WIN 4 64dc2 37 0 0 4 8 0 0 1 $T0 $ebp = $eip $T0 4 + ^ = $ebp $T0 ^ = $esp $T0 8 + = $L $T0 .cbSavedRegs - = $P $T0 4 + .cbParams + =
STACK WIN 4 64e03 22 5 0 4 0 0 0 1 $T0 $ebp = $eip $T0 4 + ^ = $ebp $T0 ^ = $esp $T0 8 + = $L $T0 .cbSavedRegs - = $P $T0 4 + .cbParams + =
STACK WIN 4 64e2a 156 11 0 4 0 1c 0 1 $T0 $ebp = $eip $T0 4 + ^ = $ebp $T0 ^ = $esp $T0 8 + = $L $T0 .cbSavedRegs - = $P $T0 4 + .cbParams + =
STACK WIN 4 64e38 13f 3 0 4 4 1c 0 1 $T0 $ebp = $eip $T0 4 + ^ = $ebp $T0 ^ = $esp $T0 8 + = $L $T0 .cbSavedRegs - = $P $T0 4 + .cbParams + =
STACK WIN 4 64e3b 13b 0 0 4 8 1c 0 1 $T0 $ebp = $eip $T0 4 + ^ = $ebp $T0 ^ = $esp $T0 8 + = $L $T0 .cbSavedRegs - = $P $T0 4 + .cbParams + =
STACK WIN 4 64f85 c9 7 0 14 0 0 0 1 $T0 $ebp = $eip $T0 4 + ^ = $ebp $T0 ^ = $esp $T0 8 + = $L $T0 .cbSavedRegs - = $P $T0 4 + .cbParams + =
STACK WIN 4 64f8b bf 1 0 14 4 0 0 1 $T0 $ebp = $eip $T0 4 + ^ = $ebp $T0 ^ = $esp $T0 8 + = $L $T0 .cbSavedRegs - = $P $T0 4 + .cbParams + = $ebx $T0 8 - ^ =
STACK WIN 4 64f8c bd 0 0 14 8 0 0 1 $T0 $ebp = $eip $T0 4 + ^ = $ebp $T0 ^ = $esp $T0 8 + = $L $T0 .cbSavedRegs - = $P $T0 4 + .cbParams + = $ebx $T0 8 - ^ =
STACK WIN 4 64fba 8e 0 0 14 c 0 0 1 $T0 $ebp = $eip $T0 4 + ^ = $ebp $T0 ^ = $esp $T0 8 + = $L $T0 .cbSavedRegs - = $P $T0 4 + .cbParams + = $ebx $T0 8 - ^ =
STACK WIN 4 65053 bc 11 0 c 0 10c 0 1 $T0 $ebp = $eip $T0 4 + ^ = $ebp $T0 ^ = $esp $T0 8 + = $L $T0 .cbSavedRegs - = $P $T0 4 + .cbParams + =
STACK WIN 4 65064 a2 0 0 c 4 10c 0 1 $T0 $ebp = $eip $T0 4 + ^ = $ebp $T0 ^ = $esp $T0 8 + = $L $T0 .cbSavedRegs - = $P $T0 4 + .cbParams + = $ebx $T0 276 - ^ =
STACK WIN 4 6508f 73 0 0 c 8 10c 0 1 $T0 $ebp = $eip $T0 4 + ^ = $ebp $T0 ^ = $esp $T0 8 + = $L $T0 .cbSavedRegs - = $P $T0 4 + .cbParams + = $ebx $T0 276 - ^ =
STACK WIN 4 65090 71 0 0 c c 10c 0 1 $T0 $ebp = $eip $T0 4 + ^ = $ebp $T0 ^ = $esp $T0 8 + = $L $T0 .cbSavedRegs - = $P $T0 4 + .cbParams + = $ebx $T0 276 - ^ =
STACK WIN 4 65114 92 17 0 c 0 118 0 1 $T0 $ebp = $eip $T0 4 + ^ = $ebp $T0 ^ = $esp $T0 8 + = $L $T0 .cbSavedRegs - = $P $T0 4 + .cbParams + =
STACK WIN 4 6512b 72 0 0 c 4 118 0 1 $T0 $ebp = $eip $T0 4 + ^ = $ebp $T0 ^ = $esp $T0 8 + = $L $T0 .cbSavedRegs - = $P $T0 4 + .cbParams + =
STACK WIN 4 651ab 86 b 0 c 0 0 0 1 $T0 $ebp = $eip $T0 4 + ^ = $ebp $T0 ^ = $esp $T0 8 + = $L $T0 .cbSavedRegs - = $P $T0 4 + .cbParams + =
STACK WIN 4 651b6 77 0 0 c 4 0 0 1 $T0 $ebp = $eip $T0 4 + ^ = $ebp $T0 ^ = $esp $T0 8 + = $L $T0 .cbSavedRegs - = $P $T0 4 + .cbParams + =
STACK WIN 4 651f5 32 0 0 c 8 0 0 1 $T0 $ebp = $eip $T0 4 + ^ = $ebp $T0 ^ = $esp $T0 8 + = $L $T0 .cbSavedRegs - = $P $T0 4 + .cbParams + =
STACK WIN 4 65236 209 13 0 c 0 14 0 1 $T0 $ebp = $eip $T0 4 + ^ = $ebp $T0 ^ = $esp $T0 8 + = $L $T0 .cbSavedRegs - = $P $T0 4 + .cbParams + =
STACK WIN 4 65248 1f3 1 0 c 4 14 0 1 $T0 $ebp = $eip $T0 4 + ^ = $ebp $T0 ^ = $esp $T0 8 + = $L $T0 .cbSavedRegs - = $P $T0 4 + .cbParams + = $ebx $T0 28 - ^ =
STACK WIN 4 65249 1f1 0 0 c 8 14 0 1 $T0 $ebp = $eip $T0 4 + ^ = $ebp $T0 ^ = $esp $T0 8 + = $L $T0 .cbSavedRegs - = $P $T0 4 + .cbParams + = $ebx $T0 28 - ^ =
STACK WIN 4 652a3 9b 0 0 c c 14 0 1 $T0 $ebp = $eip $T0 4 + ^ = $ebp $T0 ^ = $esp $T0 8 + = $L $T0 .cbSavedRegs - = $P $T0 4 + .cbParams + = $ebx $T0 28 - ^ =
STACK WIN 4 65444 72 6 0 4 0 0 0 1 $T0 $ebp = $eip $T0 4 + ^ = $ebp $T0 ^ = $esp $T0 8 + = $L $T0 .cbSavedRegs - = $P $T0 4 + .cbParams + =
STACK WIN 4 6544a 68 0 0 4 4 0 0 1 $T0 $ebp = $eip $T0 4 + ^ = $ebp $T0 ^ = $esp $T0 8 + = $L $T0 .cbSavedRegs - = $P $T0 4 + .cbParams + =
STACK WIN 4 6547f 32 0 0 4 8 0 0 1 $T0 $ebp = $eip $T0 4 + ^ = $ebp $T0 ^ = $esp $T0 8 + = $L $T0 .cbSavedRegs - = $P $T0 4 + .cbParams + =
STACK WIN 4 654bb 72 6 0 4 0 0 0 1 $T0 $ebp = $eip $T0 4 + ^ = $ebp $T0 ^ = $esp $T0 8 + = $L $T0 .cbSavedRegs - = $P $T0 4 + .cbParams + =
STACK WIN 4 654c1 68 0 0 4 4 0 0 1 $T0 $ebp = $eip $T0 4 + ^ = $ebp $T0 ^ = $esp $T0 8 + = $L $T0 .cbSavedRegs - = $P $T0 4 + .cbParams + =
STACK WIN 4 654f6 32 0 0 4 8 0 0 1 $T0 $ebp = $eip $T0 4 + ^ = $ebp $T0 ^ = $esp $T0 8 + = $L $T0 .cbSavedRegs - = $P $T0 4 + .cbParams + =
STACK WIN 4 65532 45 10 0 18 0 10 0 1 $T0 $ebp = $eip $T0 4 + ^ = $ebp $T0 ^ = $esp $T0 8 + = $L $T0 .cbSavedRegs - = $P $T0 4 + .cbParams + =
STACK WIN 4 6553b 38 7 0 18 4 10 0 1 $T0 $ebp = $eip $T0 4 + ^ = $ebp $T0 ^ = $esp $T0 8 + = $L $T0 .cbSavedRegs - = $P $T0 4 + .cbParams + =
STACK WIN 4 65542 2e 0 0 18 8 10 0 1 $T0 $ebp = $eip $T0 4 + ^ = $ebp $T0 ^ = $esp $T0 8 + = $L $T0 .cbSavedRegs - = $P $T0 4 + .cbParams + =
STACK WIN 4 6557c 146 a 0 c 0 20 0 1 $T0 $ebp = $eip $T0 4 + ^ = $ebp $T0 ^ = $esp $T0 8 + = $L $T0 .cbSavedRegs - = $P $T0 4 + .cbParams + =
STACK WIN 4 65585 139 1 0 c 4 20 0 1 $T0 $ebp = $eip $T0 4 + ^ = $ebp $T0 ^ = $esp $T0 8 + = $L $T0 .cbSavedRegs - = $P $T0 4 + .cbParams + = $ebx $T0 40 - ^ =
STACK WIN 4 65586 137 0 0 c 8 20 0 1 $T0 $ebp = $eip $T0 4 + ^ = $ebp $T0 ^ = $esp $T0 8 + = $L $T0 .cbSavedRegs - = $P $T0 4 + .cbParams + = $ebx $T0 40 - ^ =
STACK WIN 4 655ad 10f 0 0 c c 20 0 1 $T0 $ebp = $eip $T0 4 + ^ = $ebp $T0 ^ = $esp $T0 8 + = $L $T0 .cbSavedRegs - = $P $T0 4 + .cbParams + = $ebx $T0 40 - ^ =
STACK WIN 4 656c7 c2 d 0 c 0 10 0 1 $T0 $ebp = $eip $T0 4 + ^ = $ebp $T0 ^ = $esp $T0 8 + = $L $T0 .cbSavedRegs - = $P $T0 4 + .cbParams + =
STACK WIN 4 656d3 b2 1 0 c 4 10 0 1 $T0 $ebp = $eip $T0 4 + ^ = $ebp $T0 ^ = $esp $T0 8 + = $L $T0 .cbSavedRegs - = $P $T0 4 + .cbParams + =
STACK WIN 4 656d4 b0 0 0 c 8 10 0 1 $T0 $ebp = $eip $T0 4 + ^ = $ebp $T0 ^ = $esp $T0 8 + = $L $T0 .cbSavedRegs - = $P $T0 4 + .cbParams + =
STACK WIN 4 6578e f7 11 0 8 0 8 0 1 $T0 $ebp = $eip $T0 4 + ^ = $ebp $T0 ^ = $esp $T0 8 + = $L $T0 .cbSavedRegs - = $P $T0 4 + .cbParams + =
STACK WIN 4 65799 c4 6 0 8 4 8 0 1 $T0 $ebp = $eip $T0 4 + ^ = $ebp $T0 ^ = $esp $T0 8 + = $L $T0 .cbSavedRegs - = $P $T0 4 + .cbParams + = $ebx $T0 16 - ^ =
STACK WIN 4 6579e be 1 0 8 8 8 0 1 $T0 $ebp = $eip $T0 4 + ^ = $ebp $T0 ^ = $esp $T0 8 + = $L $T0 .cbSavedRegs - = $P $T0 4 + .cbParams + = $ebx $T0 16 - ^ =
STACK WIN 4 6579f bc 0 0 8 c 8 0 1 $T0 $ebp = $eip $T0 4 + ^ = $ebp $T0 ^ = $esp $T0 8 + = $L $T0 .cbSavedRegs - = $P $T0 4 + .cbParams + = $ebx $T0 16 - ^ =
STACK WIN 4 6588a 84 9 0 8 0 8 0 1 $T0 $ebp = $eip $T0 4 + ^ = $ebp $T0 ^ = $esp $T0 8 + = $L $T0 .cbSavedRegs - = $P $T0 4 + .cbParams + =
STACK WIN 4 65892 78 1 0 8 4 8 0 1 $T0 $ebp = $eip $T0 4 + ^ = $ebp $T0 ^ = $esp $T0 8 + = $L $T0 .cbSavedRegs - = $P $T0 4 + .cbParams + = $ebx $T0 16 - ^ =
STACK WIN 4 65893 76 0 0 8 8 8 0 1 $T0 $ebp = $eip $T0 4 + ^ = $ebp $T0 ^ = $esp $T0 8 + = $L $T0 .cbSavedRegs - = $P $T0 4 + .cbParams + = $ebx $T0 16 - ^ =
STACK WIN 4 658aa 5e 0 0 8 c 8 0 1 $T0 $ebp = $eip $T0 4 + ^ = $ebp $T0 ^ = $esp $T0 8 + = $L $T0 .cbSavedRegs - = $P $T0 4 + .cbParams + = $ebx $T0 16 - ^ =
STACK WIN 4 65913 84 9 0 8 0 8 0 1 $T0 $ebp = $eip $T0 4 + ^ = $ebp $T0 ^ = $esp $T0 8 + = $L $T0 .cbSavedRegs - = $P $T0 4 + .cbParams + =
STACK WIN 4 6591b 78 1 0 8 4 8 0 1 $T0 $ebp = $eip $T0 4 + ^ = $ebp $T0 ^ = $esp $T0 8 + = $L $T0 .cbSavedRegs - = $P $T0 4 + .cbParams + = $ebx $T0 16 - ^ =
STACK WIN 4 6591c 76 0 0 8 8 8 0 1 $T0 $ebp = $eip $T0 4 + ^ = $ebp $T0 ^ = $esp $T0 8 + = $L $T0 .cbSavedRegs - = $P $T0 4 + .cbParams + = $ebx $T0 16 - ^ =
STACK WIN 4 65933 5e 0 0 8 c 8 0 1 $T0 $ebp = $eip $T0 4 + ^ = $ebp $T0 ^ = $esp $T0 8 + = $L $T0 .cbSavedRegs - = $P $T0 4 + .cbParams + = $ebx $T0 16 - ^ =
STACK WIN 4 6599c b3 15 0 8 0 c 0 1 $T0 $ebp = $eip $T0 4 + ^ = $ebp $T0 ^ = $esp $T0 8 + = $L $T0 .cbSavedRegs - = $P $T0 4 + .cbParams + =
STACK WIN 4 659a5 a6 c 0 8 4 c 0 1 $T0 $ebp = $eip $T0 4 + ^ = $ebp $T0 ^ = $esp $T0 8 + = $L $T0 .cbSavedRegs - = $P $T0 4 + .cbParams + = $ebx $T0 20 - ^ =
STACK WIN 4 659b0 9a 1 0 8 8 c 0 1 $T0 $ebp = $eip $T0 4 + ^ = $ebp $T0 ^ = $esp $T0 8 + = $L $T0 .cbSavedRegs - = $P $T0 4 + .cbParams + = $ebx $T0 20 - ^ =
STACK WIN 4 659b1 98 0 0 8 c c 0 1 $T0 $ebp = $eip $T0 4 + ^ = $ebp $T0 ^ = $esp $T0 8 + = $L $T0 .cbSavedRegs - = $P $T0 4 + .cbParams + = $ebx $T0 20 - ^ =
STACK WIN 4 65a54 2a9 d 0 8 0 2c 0 1 $T0 $ebp = $eip $T0 4 + ^ = $ebp $T0 ^ = $esp $T0 8 + = $L $T0 .cbSavedRegs - = $P $T0 4 + .cbParams + =
STACK WIN 4 65a5d 29c 4 0 8 4 2c 0 1 $T0 $ebp = $eip $T0 4 + ^ = $ebp $T0 ^ = $esp $T0 8 + = $L $T0 .cbSavedRegs - = $P $T0 4 + .cbParams + =
STACK WIN 4 65a61 297 0 0 8 8 2c 0 1 $T0 $ebp = $eip $T0 4 + ^ = $ebp $T0 ^ = $esp $T0 8 + = $L $T0 .cbSavedRegs - = $P $T0 4 + .cbParams + =
STACK WIN 4 22128 9e a 0 8 0 1c 0 1 $T0 $ebp = $eip $T0 4 + ^ = $ebp $T0 ^ = $esp $T0 8 + = $L $T0 .cbSavedRegs - = $P $T0 4 + .cbParams + =
STACK WIN 4 22131 91 1 0 8 4 1c 0 1 $T0 $ebp = $eip $T0 4 + ^ = $ebp $T0 ^ = $esp $T0 8 + = $L $T0 .cbSavedRegs - = $P $T0 4 + .cbParams + =
STACK WIN 4 22132 8f 0 0 8 8 1c 0 1 $T0 $ebp = $eip $T0 4 + ^ = $ebp $T0 ^ = $esp $T0 8 + = $L $T0 .cbSavedRegs - = $P $T0 4 + .cbParams + =
STACK WIN 4 65d02 85 9 0 8 0 8 0 1 $T0 $ebp = $eip $T0 4 + ^ = $ebp $T0 ^ = $esp $T0 8 + = $L $T0 .cbSavedRegs - = $P $T0 4 + .cbParams + =
STACK WIN 4 65d0a 79 1 0 8 4 8 0 1 $T0 $ebp = $eip $T0 4 + ^ = $ebp $T0 ^ = $esp $T0 8 + = $L $T0 .cbSavedRegs - = $P $T0 4 + .cbParams + = $ebx $T0 16 - ^ =
STACK WIN 4 65d0b 77 0 0 8 8 8 0 1 $T0 $ebp = $eip $T0 4 + ^ = $ebp $T0 ^ = $esp $T0 8 + = $L $T0 .cbSavedRegs - = $P $T0 4 + .cbParams + = $ebx $T0 16 - ^ =
STACK WIN 4 65d22 5f 0 0 8 c 8 0 1 $T0 $ebp = $eip $T0 4 + ^ = $ebp $T0 ^ = $esp $T0 8 + = $L $T0 .cbSavedRegs - = $P $T0 4 + .cbParams + = $ebx $T0 16 - ^ =
STACK WIN 4 65d8c 13 5 0 4 0 0 0 1 $T0 $ebp = $eip $T0 4 + ^ = $ebp $T0 ^ = $esp $T0 8 + = $L $T0 .cbSavedRegs - = $P $T0 4 + .cbParams + =
STACK WIN 4 65da4 9a 8 0 8 0 8 0 1 $T0 $ebp = $eip $T0 4 + ^ = $ebp $T0 ^ = $esp $T0 8 + = $L $T0 .cbSavedRegs - = $P $T0 4 + .cbParams + =
STACK WIN 4 65dac 8e 0 0 8 4 8 0 1 $T0 $ebp = $eip $T0 4 + ^ = $ebp $T0 ^ = $esp $T0 8 + = $L $T0 .cbSavedRegs - = $P $T0 4 + .cbParams + =
STACK WIN 4 65dc4 74 0 0 8 8 8 0 1 $T0 $ebp = $eip $T0 4 + ^ = $ebp $T0 ^ = $esp $T0 8 + = $L $T0 .cbSavedRegs - = $P $T0 4 + .cbParams + =
STACK WIN 4 65e43 303 b 0 8 0 48 0 1 $T0 $ebp = $eip $T0 4 + ^ = $ebp $T0 ^ = $esp $T0 8 + = $L $T0 .cbSavedRegs - = $P $T0 4 + .cbParams + =
STACK WIN 4 65e4c 2ec 2 0 8 4 48 0 1 $T0 $ebp = $eip $T0 4 + ^ = $ebp $T0 ^ = $esp $T0 8 + = $L $T0 .cbSavedRegs - = $P $T0 4 + .cbParams + = $ebx $T0 80 - ^ =
STACK WIN 4 65e4d 2ea 1 0 8 8 48 0 1 $T0 $ebp = $eip $T0 4 + ^ = $ebp $T0 ^ = $esp $T0 8 + = $L $T0 .cbSavedRegs - = $P $T0 4 + .cbParams + = $ebx $T0 80 - ^ =
STACK WIN 4 65e4e 2e8 0 0 8 c 48 0 1 $T0 $ebp = $eip $T0 4 + ^ = $ebp $T0 ^ = $esp $T0 8 + = $L $T0 .cbSavedRegs - = $P $T0 4 + .cbParams + = $ebx $T0 80 - ^ =
STACK WIN 4 6614b a6 f 0 8 0 1c 0 1 $T0 $ebp = $eip $T0 4 + ^ = $ebp $T0 ^ = $esp $T0 8 + = $L $T0 .cbSavedRegs - = $P $T0 4 + .cbParams + =
STACK WIN 4 66159 94 1 0 8 4 1c 0 1 $T0 $ebp = $eip $T0 4 + ^ = $ebp $T0 ^ = $esp $T0 8 + = $L $T0 .cbSavedRegs - = $P $T0 4 + .cbParams + = $ebx $T0 36 - ^ =
STACK WIN 4 6615a 92 0 0 8 8 1c 0 1 $T0 $ebp = $eip $T0 4 + ^ = $ebp $T0 ^ = $esp $T0 8 + = $L $T0 .cbSavedRegs - = $P $T0 4 + .cbParams + = $ebx $T0 36 - ^ =
STACK WIN 4 6618c 5f 0 0 8 c 1c 0 1 $T0 $ebp = $eip $T0 4 + ^ = $ebp $T0 ^ = $esp $T0 8 + = $L $T0 .cbSavedRegs - = $P $T0 4 + .cbParams + = $ebx $T0 36 - ^ =
STACK WIN 4 661f6 85 9 0 8 0 8 0 1 $T0 $ebp = $eip $T0 4 + ^ = $ebp $T0 ^ = $esp $T0 8 + = $L $T0 .cbSavedRegs - = $P $T0 4 + .cbParams + =
STACK WIN 4 661fe 79 1 0 8 4 8 0 1 $T0 $ebp = $eip $T0 4 + ^ = $ebp $T0 ^ = $esp $T0 8 + = $L $T0 .cbSavedRegs - = $P $T0 4 + .cbParams + = $ebx $T0 16 - ^ =
STACK WIN 4 661ff 77 0 0 8 8 8 0 1 $T0 $ebp = $eip $T0 4 + ^ = $ebp $T0 ^ = $esp $T0 8 + = $L $T0 .cbSavedRegs - = $P $T0 4 + .cbParams + = $ebx $T0 16 - ^ =
STACK WIN 4 66216 5f 0 0 8 c 8 0 1 $T0 $ebp = $eip $T0 4 + ^ = $ebp $T0 ^ = $esp $T0 8 + = $L $T0 .cbSavedRegs - = $P $T0 4 + .cbParams + = $ebx $T0 16 - ^ =
STACK WIN 4 66280 d4 10 0 c 0 8 0 1 $T0 $ebp = $eip $T0 4 + ^ = $ebp $T0 ^ = $esp $T0 8 + = $L $T0 .cbSavedRegs - = $P $T0 4 + .cbParams + =
STACK WIN 4 6628b c5 5 0 c 4 8 0 1 $T0 $ebp = $eip $T0 4 + ^ = $ebp $T0 ^ = $esp $T0 8 + = $L $T0 .cbSavedRegs - = $P $T0 4 + .cbParams + =
STACK WIN 4 66290 bf 0 0 c 8 8 0 1 $T0 $ebp = $eip $T0 4 + ^ = $ebp $T0 ^ = $esp $T0 8 + = $L $T0 .cbSavedRegs - = $P $T0 4 + .cbParams + =
STACK WIN 4 66359 6a 5 0 18 0 0 0 1 $T0 $ebp = $eip $T0 4 + ^ = $ebp $T0 ^ = $esp $T0 8 + = $L $T0 .cbSavedRegs - = $P $T0 4 + .cbParams + =
STACK WIN 4 6636c 53 0 0 18 4 0 0 1 $T0 $ebp = $eip $T0 4 + ^ = $ebp $T0 ^ = $esp $T0 8 + = $L $T0 .cbSavedRegs - = $P $T0 4 + .cbParams + =
STACK WIN 4 66370 4e 0 0 18 8 0 0 1 $T0 $ebp = $eip $T0 4 + ^ = $ebp $T0 ^ = $esp $T0 8 + = $L $T0 .cbSavedRegs - = $P $T0 4 + .cbParams + =
STACK WIN 4 663c8 2ec f 0 8 8 94 0 1 $T0 $ebp = $eip $T0 4 + ^ = $ebp $T0 ^ = $esp $T0 8 + = $L $T0 .cbSavedRegs - = $P $T0 4 + .cbParams + =
STACK WIN 4 6665c 1c 0 0 8 8 94 0 1 $T0 $ebp = $T2 $esp = $T1 .raSearchStart = $eip $T1 ^ = $ebp $ebp = $esp $T1 4 + = $L $T0 .cbSavedRegs - = $P $T0 4 + .cbParams + =
STACK WIN 4 66682 b 0 0 8 8 94 0 1 $T0 $ebp = $T2 $esp = $T1 .raSearchStart = $eip $T1 ^ = $ebp $ebp = $esp $T1 4 + = $L $T0 .cbSavedRegs - = $P $T0 4 + .cbParams + =
STACK WIN 4 6677d ba c 0 c 8 30 0 1 $T0 $ebp = $eip $T0 4 + ^ = $ebp $T0 ^ = $esp $T0 8 + = $L $T0 .cbSavedRegs - = $P $T0 4 + .cbParams + =
STACK WIN 4 66801 3b 0 0 c 8 30 0 1 $T0 $ebp = $T2 $esp = $T1 .raSearchStart = $eip $T1 ^ = $ebp $ebp = $esp $T1 4 + = $L $T0 .cbSavedRegs - = $P $T0 4 + .cbParams + =
STACK WIN 4 66871 bc c 0 c 8 30 0 1 $T0 $ebp = $eip $T0 4 + ^ = $ebp $T0 ^ = $esp $T0 8 + = $L $T0 .cbSavedRegs - = $P $T0 4 + .cbParams + =
STACK WIN 4 66918 1a 0 0 c 8 30 0 1 $T0 $ebp = $T2 $esp = $T1 .raSearchStart = $eip $T1 ^ = $ebp $ebp = $esp $T1 4 + = $L $T0 .cbSavedRegs - = $P $T0 4 + .cbParams + =
STACK WIN 4 66949 ba c 0 c 8 30 0 1 $T0 $ebp = $eip $T0 4 + ^ = $ebp $T0 ^ = $esp $T0 8 + = $L $T0 .cbSavedRegs - = $P $T0 4 + .cbParams + =
STACK WIN 4 669cd 3b 0 0 c 8 30 0 1 $T0 $ebp = $T2 $esp = $T1 .raSearchStart = $eip $T1 ^ = $ebp $ebp = $esp $T1 4 + = $L $T0 .cbSavedRegs - = $P $T0 4 + .cbParams + =
STACK WIN 4 66a41 bc c 0 c 8 30 0 1 $T0 $ebp = $eip $T0 4 + ^ = $ebp $T0 ^ = $esp $T0 8 + = $L $T0 .cbSavedRegs - = $P $T0 4 + .cbParams + =
STACK WIN 4 66ae8 1a 0 0 c 8 30 0 1 $T0 $ebp = $T2 $esp = $T1 .raSearchStart = $eip $T1 ^ = $ebp $ebp = $esp $T1 4 + = $L $T0 .cbSavedRegs - = $P $T0 4 + .cbParams + =
STACK WIN 4 66b19 ba c 0 c 8 30 0 1 $T0 $ebp = $eip $T0 4 + ^ = $ebp $T0 ^ = $esp $T0 8 + = $L $T0 .cbSavedRegs - = $P $T0 4 + .cbParams + =
STACK WIN 4 66b9d 3b 0 0 c 8 30 0 1 $T0 $ebp = $T2 $esp = $T1 .raSearchStart = $eip $T1 ^ = $ebp $ebp = $esp $T1 4 + = $L $T0 .cbSavedRegs - = $P $T0 4 + .cbParams + =
STACK WIN 4 66c11 c3 c 0 c 8 30 0 1 $T0 $ebp = $eip $T0 4 + ^ = $ebp $T0 ^ = $esp $T0 8 + = $L $T0 .cbSavedRegs - = $P $T0 4 + .cbParams + =
STACK WIN 4 66cbf 1a 0 0 c 8 30 0 1 $T0 $ebp = $T2 $esp = $T1 .raSearchStart = $eip $T1 ^ = $ebp $ebp = $esp $T1 4 + = $L $T0 .cbSavedRegs - = $P $T0 4 + .cbParams + =
STACK WIN 4 66cf1 13 5 0 4 0 0 0 1 $T0 $ebp = $eip $T0 4 + ^ = $ebp $T0 ^ = $esp $T0 8 + = $L $T0 .cbSavedRegs - = $P $T0 4 + .cbParams + =
STACK WIN 4 66d09 19d b 0 c 0 10 0 1 $T0 $ebp = $eip $T0 4 + ^ = $ebp $T0 ^ = $esp $T0 8 + = $L $T0 .cbSavedRegs - = $P $T0 4 + .cbParams + =
STACK WIN 4 66d12 190 2 0 c 4 10 0 1 $T0 $ebp = $eip $T0 4 + ^ = $ebp $T0 ^ = $esp $T0 8 + = $L $T0 .cbSavedRegs - = $P $T0 4 + .cbParams + = $ebx $T0 24 - ^ =
STACK WIN 4 66d13 18e 1 0 c 8 10 0 1 $T0 $ebp = $eip $T0 4 + ^ = $ebp $T0 ^ = $esp $T0 8 + = $L $T0 .cbSavedRegs - = $P $T0 4 + .cbParams + = $ebx $T0 24 - ^ =
STACK WIN 4 66d14 18c 0 0 c c 10 0 1 $T0 $ebp = $eip $T0 4 + ^ = $ebp $T0 ^ = $esp $T0 8 + = $L $T0 .cbSavedRegs - = $P $T0 4 + .cbParams + = $ebx $T0 24 - ^ =
STACK WIN 4 66eab 93 a 0 c 0 8 0 1 $T0 $ebp = $eip $T0 4 + ^ = $ebp $T0 ^ = $esp $T0 8 + = $L $T0 .cbSavedRegs - = $P $T0 4 + .cbParams + =
STACK WIN 4 66eb3 87 2 0 c 4 8 0 1 $T0 $ebp = $eip $T0 4 + ^ = $ebp $T0 ^ = $esp $T0 8 + = $L $T0 .cbSavedRegs - = $P $T0 4 + .cbParams + = $ebx $T0 16 - ^ =
STACK WIN 4 66eb4 85 1 0 c 8 8 0 1 $T0 $ebp = $eip $T0 4 + ^ = $ebp $T0 ^ = $esp $T0 8 + = $L $T0 .cbSavedRegs - = $P $T0 4 + .cbParams + = $ebx $T0 16 - ^ =
STACK WIN 4 66eb5 83 0 0 c c 8 0 1 $T0 $ebp = $eip $T0 4 + ^ = $ebp $T0 ^ = $esp $T0 8 + = $L $T0 .cbSavedRegs - = $P $T0 4 + .cbParams + = $ebx $T0 16 - ^ =
STACK WIN 4 66f43 71c 17 0 4 8 ec 0 1 $T0 $ebp = $eip $T0 4 + ^ = $ebp $T0 ^ = $esp $T0 8 + = $L $T0 .cbSavedRegs - = $P $T0 4 + .cbParams + =
STACK WIN 4 67093 11 0 0 4 8 ec 0 1 $T0 $ebp = $T2 $esp = $T1 .raSearchStart = $eip $T1 ^ = $ebp $ebp = $esp $T1 4 + = $L $T0 .cbSavedRegs - = $P $T0 4 + .cbParams + =
STACK WIN 4 675f4 11 0 0 4 8 ec 0 1 $T0 $ebp = $T2 $esp = $T1 .raSearchStart = $eip $T1 ^ = $ebp $ebp = $esp $T1 4 + = $L $T0 .cbSavedRegs - = $P $T0 4 + .cbParams + =
STACK WIN 4 67695 7a 13 0 8 0 c4 0 1 $T0 $ebp = $eip $T0 4 + ^ = $ebp $T0 ^ = $esp $T0 8 + = $L $T0 .cbSavedRegs - = $P $T0 4 + .cbParams + =
STACK WIN 4 67714 114 17 0 8 8 e4 0 1 $T0 $ebp = $eip $T0 4 + ^ = $ebp $T0 ^ = $esp $T0 8 + = $L $T0 .cbSavedRegs - = $P $T0 4 + .cbParams + =
STACK WIN 4 677e9 11 0 0 8 8 e4 0 1 $T0 $ebp = $T2 $esp = $T1 .raSearchStart = $eip $T1 ^ = $ebp $ebp = $esp $T1 4 + = $L $T0 .cbSavedRegs - = $P $T0 4 + .cbParams + =
STACK WIN 4 67849 145 17 0 8 8 e4 0 1 $T0 $ebp = $eip $T0 4 + ^ = $ebp $T0 ^ = $esp $T0 8 + = $L $T0 .cbSavedRegs - = $P $T0 4 + .cbParams + =
STACK WIN 4 67941 11 0 0 8 8 e4 0 1 $T0 $ebp = $T2 $esp = $T1 .raSearchStart = $eip $T1 ^ = $ebp $ebp = $esp $T1 4 + = $L $T0 .cbSavedRegs - = $P $T0 4 + .cbParams + =
STACK WIN 4 2f609 58 13 0 4 0 c4 0 1 $T0 $ebp = $eip $T0 4 + ^ = $ebp $T0 ^ = $esp $T0 8 + = $L $T0 .cbSavedRegs - = $P $T0 4 + .cbParams + =
STACK WIN 4 679a9 53 13 0 4 0 c4 0 1 $T0 $ebp = $eip $T0 4 + ^ = $ebp $T0 ^ = $esp $T0 8 + = $L $T0 .cbSavedRegs - = $P $T0 4 + .cbParams + =
STACK WIN 4 67a01 44 7 0 c 0 8 0 1 $T0 $ebp = $eip $T0 4 + ^ = $ebp $T0 ^ = $esp $T0 8 + = $L $T0 .cbSavedRegs - = $P $T0 4 + .cbParams + =
STACK WIN 4 67a4a df 16 0 10 0 c4 0 1 $T0 $ebp = $eip $T0 4 + ^ = $ebp $T0 ^ = $esp $T0 8 + = $L $T0 .cbSavedRegs - = $P $T0 4 + .cbParams + =
STACK WIN 4 67a5b c5 5 0 10 4 c4 0 1 $T0 $ebp = $eip $T0 4 + ^ = $ebp $T0 ^ = $esp $T0 8 + = $L $T0 .cbSavedRegs - = $P $T0 4 + .cbParams + = $ebx $T0 204 - ^ =
STACK WIN 4 67a5c c3 4 0 10 8 c4 0 1 $T0 $ebp = $eip $T0 4 + ^ = $ebp $T0 ^ = $esp $T0 8 + = $L $T0 .cbSavedRegs - = $P $T0 4 + .cbParams + = $ebx $T0 204 - ^ =
STACK WIN 4 67a60 be 0 0 10 c c4 0 1 $T0 $ebp = $eip $T0 4 + ^ = $ebp $T0 ^ = $esp $T0 8 + = $L $T0 .cbSavedRegs - = $P $T0 4 + .cbParams + = $ebx $T0 204 - ^ =
STACK WIN 4 28b87 ad 21 0 8 0 8 0 1 $T0 $ebp = $eip $T0 4 + ^ = $ebp $T0 ^ = $esp $T0 8 + = $L $T0 .cbSavedRegs - = $P $T0 4 + .cbParams + =
STACK WIN 4 28b95 9b 13 0 8 4 8 0 1 $T0 $ebp = $eip $T0 4 + ^ = $ebp $T0 ^ = $esp $T0 8 + = $L $T0 .cbSavedRegs - = $P $T0 4 + .cbParams + =
STACK WIN 4 28ba8 87 0 0 8 8 8 0 1 $T0 $ebp = $eip $T0 4 + ^ = $ebp $T0 ^ = $esp $T0 8 + = $L $T0 .cbSavedRegs - = $P $T0 4 + .cbParams + =
STACK WIN 4 1ae5e 85 15 0 8 0 cc 0 1 $T0 $ebp = $eip $T0 4 + ^ = $ebp $T0 ^ = $esp $T0 8 + = $L $T0 .cbSavedRegs - = $P $T0 4 + .cbParams + =
STACK WIN 4 1ae6f 6b 4 0 8 4 cc 0 1 $T0 $ebp = $eip $T0 4 + ^ = $ebp $T0 ^ = $esp $T0 8 + = $L $T0 .cbSavedRegs - = $P $T0 4 + .cbParams + =
STACK WIN 4 1ae73 66 0 0 8 8 cc 0 1 $T0 $ebp = $eip $T0 4 + ^ = $ebp $T0 ^ = $esp $T0 8 + = $L $T0 .cbSavedRegs - = $P $T0 4 + .cbParams + =
STACK WIN 4 67b2e 3d 5 0 8 0 0 0 1 $T0 $ebp = $eip $T0 4 + ^ = $ebp $T0 ^ = $esp $T0 8 + = $L $T0 .cbSavedRegs - = $P $T0 4 + .cbParams + =
STACK WIN 4 67b70 57 c 0 8 0 4 0 1 $T0 $ebp = $eip $T0 4 + ^ = $ebp $T0 ^ = $esp $T0 8 + = $L $T0 .cbSavedRegs - = $P $T0 4 + .cbParams + =
STACK WIN 4 67b77 4c 5 0 8 4 4 0 1 $T0 $ebp = $eip $T0 4 + ^ = $ebp $T0 ^ = $esp $T0 8 + = $L $T0 .cbSavedRegs - = $P $T0 4 + .cbParams + = $ebx $T0 12 - ^ =
STACK WIN 4 67b7b 47 1 0 8 8 4 0 1 $T0 $ebp = $eip $T0 4 + ^ = $ebp $T0 ^ = $esp $T0 8 + = $L $T0 .cbSavedRegs - = $P $T0 4 + .cbParams + = $ebx $T0 12 - ^ =
STACK WIN 4 67b7c 45 0 0 8 c 4 0 1 $T0 $ebp = $eip $T0 4 + ^ = $ebp $T0 ^ = $esp $T0 8 + = $L $T0 .cbSavedRegs - = $P $T0 4 + .cbParams + = $ebx $T0 12 - ^ =
STACK WIN 4 1143f 60 6 0 4 0 0 0 1 $T0 $ebp = $eip $T0 4 + ^ = $ebp $T0 ^ = $esp $T0 8 + = $L $T0 .cbSavedRegs - = $P $T0 4 + .cbParams + =
STACK WIN 4 11445 56 0 0 4 4 0 0 1 $T0 $ebp = $eip $T0 4 + ^ = $ebp $T0 ^ = $esp $T0 8 + = $L $T0 .cbSavedRegs - = $P $T0 4 + .cbParams + =
STACK WIN 4 1f5a6 197 11 0 8 0 128 0 1 $T0 $ebp = $eip $T0 4 + ^ = $ebp $T0 ^ = $esp $T0 8 + = $L $T0 .cbSavedRegs - = $P $T0 4 + .cbParams + =
STACK WIN 4 1f5b7 179 0 0 8 4 128 0 1 $T0 $ebp = $eip $T0 4 + ^ = $ebp $T0 ^ = $esp $T0 8 + = $L $T0 .cbSavedRegs - = $P $T0 4 + .cbParams + =
STACK WIN 4 1f5ca 15f 0 0 8 8 128 0 1 $T0 $ebp = $eip $T0 4 + ^ = $ebp $T0 ^ = $esp $T0 8 + = $L $T0 .cbSavedRegs - = $P $T0 4 + .cbParams + =
STACK WIN 4 132f9 54 c 0 8 0 0 0 1 $T0 $ebp = $eip $T0 4 + ^ = $ebp $T0 ^ = $esp $T0 8 + = $L $T0 .cbSavedRegs - = $P $T0 4 + .cbParams + =
STACK WIN 4 13304 45 1 0 8 4 0 0 1 $T0 $ebp = $eip $T0 4 + ^ = $ebp $T0 ^ = $esp $T0 8 + = $L $T0 .cbSavedRegs - = $P $T0 4 + .cbParams + =
STACK WIN 4 13305 43 0 0 8 8 0 0 1 $T0 $ebp = $eip $T0 4 + ^ = $ebp $T0 ^ = $esp $T0 8 + = $L $T0 .cbSavedRegs - = $P $T0 4 + .cbParams + =
STACK WIN 4 67bcc 231 f 0 8 8 9c 0 1 $T0 $ebp = $eip $T0 4 + ^ = $ebp $T0 ^ = $esp $T0 8 + = $L $T0 .cbSavedRegs - = $P $T0 4 + .cbParams + =
STACK WIN 4 67dd6 2c 0 0 8 8 9c 0 1 $T0 $ebp = $T2 $esp = $T1 .raSearchStart = $eip $T1 ^ = $ebp $ebp = $esp $T1 4 + = $L $T0 .cbSavedRegs - = $P $T0 4 + .cbParams + =
STACK WIN 4 67e19 17 5 0 4 0 0 0 1 $T0 $ebp = $eip $T0 4 + ^ = $ebp $T0 ^ = $esp $T0 8 + = $L $T0 .cbSavedRegs - = $P $T0 4 + .cbParams + =
STACK WIN 4 67e35 17e c 0 14 0 3c 0 1 $T0 $ebp = $eip $T0 4 + ^ = $ebp $T0 ^ = $esp $T0 8 + = $L $T0 .cbSavedRegs - = $P $T0 4 + .cbParams + =
STACK WIN 4 67e3e 171 3 0 14 4 3c 0 1 $T0 $ebp = $eip $T0 4 + ^ = $ebp $T0 ^ = $esp $T0 8 + = $L $T0 .cbSavedRegs - = $P $T0 4 + .cbParams + =
STACK WIN 4 67e41 16d 0 0 14 8 3c 0 1 $T0 $ebp = $eip $T0 4 + ^ = $ebp $T0 ^ = $esp $T0 8 + = $L $T0 .cbSavedRegs - = $P $T0 4 + .cbParams + =
STACK WIN 4 1146a 90 a 0 10 0 0 0 1 $T0 $ebp = $eip $T0 4 + ^ = $ebp $T0 ^ = $esp $T0 8 + = $L $T0 .cbSavedRegs - = $P $T0 4 + .cbParams + =
STACK WIN 4 11470 86 4 0 10 4 0 0 1 $T0 $ebp = $eip $T0 4 + ^ = $ebp $T0 ^ = $esp $T0 8 + = $L $T0 .cbSavedRegs - = $P $T0 4 + .cbParams + =
STACK WIN 4 11474 81 0 0 10 8 0 0 1 $T0 $ebp = $eip $T0 4 + ^ = $ebp $T0 ^ = $esp $T0 8 + = $L $T0 .cbSavedRegs - = $P $T0 4 + .cbParams + =
STACK WIN 4 6802b 8e 9 0 8 0 10 0 1 $T0 $ebp = $eip $T0 4 + ^ = $ebp $T0 ^ = $esp $T0 8 + = $L $T0 .cbSavedRegs - = $P $T0 4 + .cbParams + =
STACK WIN 4 68034 81 0 0 8 4 10 0 1 $T0 $ebp = $eip $T0 4 + ^ = $ebp $T0 ^ = $esp $T0 8 + = $L $T0 .cbSavedRegs - = $P $T0 4 + .cbParams + =
STACK WIN 4 1f26e 432 17 0 c 8 2b4 0 1 $T0 $ebp = $eip $T0 4 + ^ = $ebp $T0 ^ = $esp $T0 8 + = $L $T0 .cbSavedRegs - = $P $T0 4 + .cbParams + =
STACK WIN 4 1f571 50 0 0 c 8 2b4 0 1 $T0 $ebp = $T2 $esp = $T1 .raSearchStart = $eip $T1 ^ = $ebp $ebp = $esp $T1 4 + = $L $T0 .cbSavedRegs - = $P $T0 4 + .cbParams + =
STACK WIN 4 680be 42e c 0 c 8 50 0 1 $T0 $ebp = $eip $T0 4 + ^ = $ebp $T0 ^ = $esp $T0 8 + = $L $T0 .cbSavedRegs - = $P $T0 4 + .cbParams + =
STACK WIN 4 68496 4a 0 0 c 8 50 0 1 $T0 $ebp = $T2 $esp = $T1 .raSearchStart = $eip $T1 ^ = $ebp $ebp = $esp $T1 4 + = $L $T0 .cbSavedRegs - = $P $T0 4 + .cbParams + =
STACK WIN 4 13353 406 17 0 c 8 2ac 0 1 $T0 $ebp = $eip $T0 4 + ^ = $ebp $T0 ^ = $esp $T0 8 + = $L $T0 .cbSavedRegs - = $P $T0 4 + .cbParams + =
STACK WIN 4 1366c 45 0 0 c 8 2ac 0 1 $T0 $ebp = $T2 $esp = $T1 .raSearchStart = $eip $T1 ^ = $ebp $ebp = $esp $T1 4 + = $L $T0 .cbSavedRegs - = $P $T0 4 + .cbParams + =
STACK WIN 4 28c38 1099 17 0 24 8 2e4 0 1 $T0 $ebp = $eip $T0 4 + ^ = $ebp $T0 ^ = $esp $T0 8 + = $L $T0 .cbSavedRegs - = $P $T0 4 + .cbParams + =
STACK WIN 4 29b93 127 0 0 24 8 2e4 0 1 $T0 $ebp = $T2 $esp = $T1 .raSearchStart = $eip $T1 ^ = $ebp $ebp = $esp $T1 4 + = $L $T0 .cbSavedRegs - = $P $T0 4 + .cbParams + =
STACK WIN 4 68509 78 6 0 24 0 0 0 1 $T0 $ebp = $eip $T0 4 + ^ = $ebp $T0 ^ = $esp $T0 8 + = $L $T0 .cbSavedRegs - = $P $T0 4 + .cbParams + =
STACK WIN 4 6850f 6c 0 0 24 4 0 0 1 $T0 $ebp = $eip $T0 4 + ^ = $ebp $T0 ^ = $esp $T0 8 + = $L $T0 .cbSavedRegs - = $P $T0 4 + .cbParams + =
STACK WIN 4 68538 3b 0 0 24 8 0 0 1 $T0 $ebp = $eip $T0 4 + ^ = $ebp $T0 ^ = $esp $T0 8 + = $L $T0 .cbSavedRegs - = $P $T0 4 + .cbParams + =
STACK WIN 4 35bb0 1fe 17 0 c 8 254 0 1 $T0 $ebp = $eip $T0 4 + ^ = $ebp $T0 ^ = $esp $T0 8 + = $L $T0 .cbSavedRegs - = $P $T0 4 + .cbParams + =
STACK WIN 4 44db3 55 0 0 c 8 254 0 1 $T0 $ebp = $T2 $esp = $T1 .raSearchStart = $eip $T1 ^ = $ebp $ebp = $esp $T1 4 + = $L $T0 .cbSavedRegs - = $P $T0 4 + .cbParams + =
STACK WIN 4 68586 1fe 17 0 c 8 254 0 1 $T0 $ebp = $eip $T0 4 + ^ = $ebp $T0 ^ = $esp $T0 8 + = $L $T0 .cbSavedRegs - = $P $T0 4 + .cbParams + =
STACK WIN 4 68734 55 0 0 c 8 254 0 1 $T0 $ebp = $T2 $esp = $T1 .raSearchStart = $eip $T1 ^ = $ebp $ebp = $esp $T1 4 + = $L $T0 .cbSavedRegs - = $P $T0 4 + .cbParams + =
STACK WIN 4 687a1 2ab 1c 0 14 0 118 0 1 $T0 $ebp = $eip $T0 4 + ^ = $ebp $T0 ^ = $esp $T0 8 + = $L $T0 .cbSavedRegs - = $P $T0 4 + .cbParams + =
STACK WIN 4 687bd 286 0 0 14 4 118 0 1 $T0 $ebp = $eip $T0 4 + ^ = $ebp $T0 ^ = $esp $T0 8 + = $L $T0 .cbSavedRegs - = $P $T0 4 + .cbParams + = $ebx $T0 288 - ^ =
STACK WIN 4 68828 217 0 0 14 8 118 0 1 $T0 $ebp = $eip $T0 4 + ^ = $ebp $T0 ^ = $esp $T0 8 + = $L $T0 .cbSavedRegs - = $P $T0 4 + .cbParams + = $ebx $T0 288 - ^ =
STACK WIN 4 68867 1d7 0 0 14 c 118 0 1 $T0 $ebp = $eip $T0 4 + ^ = $ebp $T0 ^ = $esp $T0 8 + = $L $T0 .cbSavedRegs - = $P $T0 4 + .cbParams + = $ebx $T0 288 - ^ =
STACK WIN 4 2cf9b 28d f 0 c 0 18 0 1 $T0 $ebp = $eip $T0 4 + ^ = $ebp $T0 ^ = $esp $T0 8 + = $L $T0 .cbSavedRegs - = $P $T0 4 + .cbParams + =
STACK WIN 4 2cfa8 27c 2 0 c 4 18 0 1 $T0 $ebp = $eip $T0 4 + ^ = $ebp $T0 ^ = $esp $T0 8 + = $L $T0 .cbSavedRegs - = $P $T0 4 + .cbParams + = $ebx $T0 32 - ^ =
STACK WIN 4 2cfa9 27a 1 0 c 8 18 0 1 $T0 $ebp = $eip $T0 4 + ^ = $ebp $T0 ^ = $esp $T0 8 + = $L $T0 .cbSavedRegs - = $P $T0 4 + .cbParams + = $ebx $T0 32 - ^ =
STACK WIN 4 2cfaa 278 0 0 c c 18 0 1 $T0 $ebp = $eip $T0 4 + ^ = $ebp $T0 ^ = $esp $T0 8 + = $L $T0 .cbSavedRegs - = $P $T0 4 + .cbParams + = $ebx $T0 32 - ^ =
STACK WIN 4 2cf60 23 5 0 4 0 0 0 1 $T0 $ebp = $eip $T0 4 + ^ = $ebp $T0 ^ = $esp $T0 8 + = $L $T0 .cbSavedRegs - = $P $T0 4 + .cbParams + =
STACK WIN 4 68abf 2ed 11 0 10 0 58 0 1 $T0 $ebp = $eip $T0 4 + ^ = $ebp $T0 ^ = $esp $T0 8 + = $L $T0 .cbSavedRegs - = $P $T0 4 + .cbParams + =
STACK WIN 4 68ac8 2e0 8 0 10 4 58 0 1 $T0 $ebp = $eip $T0 4 + ^ = $ebp $T0 ^ = $esp $T0 8 + = $L $T0 .cbSavedRegs - = $P $T0 4 + .cbParams + = $ebx $T0 96 - ^ =
STACK WIN 4 68acf 2d8 1 0 10 8 58 0 1 $T0 $ebp = $eip $T0 4 + ^ = $ebp $T0 ^ = $esp $T0 8 + = $L $T0 .cbSavedRegs - = $P $T0 4 + .cbParams + = $ebx $T0 96 - ^ =
STACK WIN 4 68ad0 2d6 0 0 10 c 58 0 1 $T0 $ebp = $eip $T0 4 + ^ = $ebp $T0 ^ = $esp $T0 8 + = $L $T0 .cbSavedRegs - = $P $T0 4 + .cbParams + = $ebx $T0 96 - ^ =
STACK WIN 4 68db1 10d 9 0 c 0 18 0 1 $T0 $ebp = $eip $T0 4 + ^ = $ebp $T0 ^ = $esp $T0 8 + = $L $T0 .cbSavedRegs - = $P $T0 4 + .cbParams + =
STACK WIN 4 68dba 100 0 0 c 4 18 0 1 $T0 $ebp = $eip $T0 4 + ^ = $ebp $T0 ^ = $esp $T0 8 + = $L $T0 .cbSavedRegs - = $P $T0 4 + .cbParams + =
STACK WIN 4 68e39 80 0 0 c 8 18 0 1 $T0 $ebp = $eip $T0 4 + ^ = $ebp $T0 ^ = $esp $T0 8 + = $L $T0 .cbSavedRegs - = $P $T0 4 + .cbParams + =
STACK WIN 4 68f11 148 8 0 8 0 28 0 1 $T0 $ebp = $eip $T0 4 + ^ = $ebp $T0 ^ = $esp $T0 8 + = $L $T0 .cbSavedRegs - = $P $T0 4 + .cbParams + =
STACK WIN 4 68f3e 115 0 0 8 4 28 0 1 $T0 $ebp = $eip $T0 4 + ^ = $ebp $T0 ^ = $esp $T0 8 + = $L $T0 .cbSavedRegs - = $P $T0 4 + .cbParams + =
STACK WIN 4 68f75 dd 0 0 8 8 28 0 1 $T0 $ebp = $eip $T0 4 + ^ = $ebp $T0 ^ = $esp $T0 8 + = $L $T0 .cbSavedRegs - = $P $T0 4 + .cbParams + =
STACK WIN 4 6905d 19 5 0 c 0 0 0 1 $T0 $ebp = $eip $T0 4 + ^ = $ebp $T0 ^ = $esp $T0 8 + = $L $T0 .cbSavedRegs - = $P $T0 4 + .cbParams + =
STACK WIN 4 357d5 b 5 0 4 0 0 0 1 $T0 $ebp = $eip $T0 4 + ^ = $ebp $T0 ^ = $esp $T0 8 + = $L $T0 .cbSavedRegs - = $P $T0 4 + .cbParams + =
STACK WIN 4 2080d 5f7 11 0 c 0 24c 0 1 $T0 $ebp = $eip $T0 4 + ^ = $ebp $T0 ^ = $esp $T0 8 + = $L $T0 .cbSavedRegs - = $P $T0 4 + .cbParams + =
STACK WIN 4 2081e 5dd 0 0 c 4 24c 0 1 $T0 $ebp = $eip $T0 4 + ^ = $ebp $T0 ^ = $esp $T0 8 + = $L $T0 .cbSavedRegs - = $P $T0 4 + .cbParams + =
STACK WIN 4 2083d 5b0 0 0 c 8 24c 0 1 $T0 $ebp = $eip $T0 4 + ^ = $ebp $T0 ^ = $esp $T0 8 + = $L $T0 .cbSavedRegs - = $P $T0 4 + .cbParams + =
STACK WIN 4 31b99 1f2 7 0 10 0 4 0 1 $T0 $ebp = $eip $T0 4 + ^ = $ebp $T0 ^ = $esp $T0 8 + = $L $T0 .cbSavedRegs - = $P $T0 4 + .cbParams + =
STACK WIN 4 31ba0 1e7 0 0 10 4 4 0 1 $T0 $ebp = $eip $T0 4 + ^ = $ebp $T0 ^ = $esp $T0 8 + = $L $T0 .cbSavedRegs - = $P $T0 4 + .cbParams + = $ebx $T0 12 - ^ =
STACK WIN 4 31bcf 1ac 0 0 10 8 4 0 1 $T0 $ebp = $eip $T0 4 + ^ = $ebp $T0 ^ = $esp $T0 8 + = $L $T0 .cbSavedRegs - = $P $T0 4 + .cbParams + = $ebx $T0 12 - ^ =
STACK WIN 4 31bd0 1aa 0 0 10 c 4 0 1 $T0 $ebp = $eip $T0 4 + ^ = $ebp $T0 ^ = $esp $T0 8 + = $L $T0 .cbSavedRegs - = $P $T0 4 + .cbParams + = $ebx $T0 12 - ^ =
STACK WIN 4 20799 e2 e 0 10 0 8 0 1 $T0 $ebp = $eip $T0 4 + ^ = $ebp $T0 ^ = $esp $T0 8 + = $L $T0 .cbSavedRegs - = $P $T0 4 + .cbParams + =
STACK WIN 4 207a1 d6 6 0 10 4 8 0 1 $T0 $ebp = $eip $T0 4 + ^ = $ebp $T0 ^ = $esp $T0 8 + = $L $T0 .cbSavedRegs - = $P $T0 4 + .cbParams + = $ebx $T0 16 - ^ =
STACK WIN 4 207a7 cf 0 0 10 8 8 0 1 $T0 $ebp = $eip $T0 4 + ^ = $ebp $T0 ^ = $esp $T0 8 + = $L $T0 .cbSavedRegs - = $P $T0 4 + .cbParams + = $ebx $T0 16 - ^ =
STACK WIN 4 207d8 7d 0 0 10 c 8 0 1 $T0 $ebp = $eip $T0 4 + ^ = $ebp $T0 ^ = $esp $T0 8 + = $L $T0 .cbSavedRegs - = $P $T0 4 + .cbParams + = $ebx $T0 16 - ^ =
STACK WIN 4 1fb88 19 5 0 c 0 0 0 1 $T0 $ebp = $eip $T0 4 + ^ = $ebp $T0 ^ = $esp $T0 8 + = $L $T0 .cbSavedRegs - = $P $T0 4 + .cbParams + =
STACK WIN 4 6907b 199 9 0 8 0 14 0 1 $T0 $ebp = $eip $T0 4 + ^ = $ebp $T0 ^ = $esp $T0 8 + = $L $T0 .cbSavedRegs - = $P $T0 4 + .cbParams + =
STACK WIN 4 69084 18c 0 0 8 4 14 0 1 $T0 $ebp = $eip $T0 4 + ^ = $ebp $T0 ^ = $esp $T0 8 + = $L $T0 .cbSavedRegs - = $P $T0 4 + .cbParams + = $ebx $T0 28 - ^ =
STACK WIN 4 690b9 156 0 0 8 8 14 0 1 $T0 $ebp = $eip $T0 4 + ^ = $ebp $T0 ^ = $esp $T0 8 + = $L $T0 .cbSavedRegs - = $P $T0 4 + .cbParams + = $ebx $T0 28 - ^ =
STACK WIN 4 690ba 154 0 0 8 c 14 0 1 $T0 $ebp = $eip $T0 4 + ^ = $ebp $T0 ^ = $esp $T0 8 + = $L $T0 .cbSavedRegs - = $P $T0 4 + .cbParams + = $ebx $T0 28 - ^ =
STACK WIN 4 69218 17a 9 0 c 0 10 0 1 $T0 $ebp = $eip $T0 4 + ^ = $ebp $T0 ^ = $esp $T0 8 + = $L $T0 .cbSavedRegs - = $P $T0 4 + .cbParams + =
STACK WIN 4 69221 16d 0 0 c 4 10 0 1 $T0 $ebp = $eip $T0 4 + ^ = $ebp $T0 ^ = $esp $T0 8 + = $L $T0 .cbSavedRegs - = $P $T0 4 + .cbParams + =
STACK WIN 4 692b0 da 0 0 c 8 10 0 1 $T0 $ebp = $eip $T0 4 + ^ = $ebp $T0 ^ = $esp $T0 8 + = $L $T0 .cbSavedRegs - = $P $T0 4 + .cbParams + =
STACK WIN 4 69395 3de 16 0 8 0 230 0 1 $T0 $ebp = $eip $T0 4 + ^ = $ebp $T0 ^ = $esp $T0 8 + = $L $T0 .cbSavedRegs - = $P $T0 4 + .cbParams + =
STACK WIN 4 693a6 3c4 5 0 8 4 230 0 1 $T0 $ebp = $eip $T0 4 + ^ = $ebp $T0 ^ = $esp $T0 8 + = $L $T0 .cbSavedRegs - = $P $T0 4 + .cbParams + = $ebx $T0 568 - ^ =
STACK WIN 4 693aa 3bf 1 0 8 8 230 0 1 $T0 $ebp = $eip $T0 4 + ^ = $ebp $T0 ^ = $esp $T0 8 + = $L $T0 .cbSavedRegs - = $P $T0 4 + .cbParams + = $ebx $T0 568 - ^ =
STACK WIN 4 693ab 3bd 0 0 8 c 230 0 1 $T0 $ebp = $eip $T0 4 + ^ = $ebp $T0 ^ = $esp $T0 8 + = $L $T0 .cbSavedRegs - = $P $T0 4 + .cbParams + = $ebx $T0 568 - ^ =
STACK WIN 4 69778 1b3 9 0 4 0 c 0 1 $T0 $ebp = $eip $T0 4 + ^ = $ebp $T0 ^ = $esp $T0 8 + = $L $T0 .cbSavedRegs - = $P $T0 4 + .cbParams + =
STACK WIN 4 69781 1a6 0 0 4 4 c 0 1 $T0 $ebp = $eip $T0 4 + ^ = $ebp $T0 ^ = $esp $T0 8 + = $L $T0 .cbSavedRegs - = $P $T0 4 + .cbParams + = $ebx $T0 20 - ^ =
STACK WIN 4 697b6 170 0 0 4 8 c 0 1 $T0 $ebp = $eip $T0 4 + ^ = $ebp $T0 ^ = $esp $T0 8 + = $L $T0 .cbSavedRegs - = $P $T0 4 + .cbParams + = $ebx $T0 20 - ^ =
STACK WIN 4 697b7 16e 0 0 4 c c 0 1 $T0 $ebp = $eip $T0 4 + ^ = $ebp $T0 ^ = $esp $T0 8 + = $L $T0 .cbSavedRegs - = $P $T0 4 + .cbParams + = $ebx $T0 20 - ^ =
STACK WIN 4 69930 2ca 9 0 4 0 14 0 1 $T0 $ebp = $eip $T0 4 + ^ = $ebp $T0 ^ = $esp $T0 8 + = $L $T0 .cbSavedRegs - = $P $T0 4 + .cbParams + =
STACK WIN 4 69939 2bd 0 0 4 4 14 0 1 $T0 $ebp = $eip $T0 4 + ^ = $ebp $T0 ^ = $esp $T0 8 + = $L $T0 .cbSavedRegs - = $P $T0 4 + .cbParams + =
STACK WIN 4 69983 271 0 0 4 8 14 0 1 $T0 $ebp = $eip $T0 4 + ^ = $ebp $T0 ^ = $esp $T0 8 + = $L $T0 .cbSavedRegs - = $P $T0 4 + .cbParams + =
STACK WIN 4 2e61c 39d a 0 c 0 24 0 1 $T0 $ebp = $eip $T0 4 + ^ = $ebp $T0 ^ = $esp $T0 8 + = $L $T0 .cbSavedRegs - = $P $T0 4 + .cbParams + =
STACK WIN 4 2e625 390 1 0 c 4 24 0 1 $T0 $ebp = $eip $T0 4 + ^ = $ebp $T0 ^ = $esp $T0 8 + = $L $T0 .cbSavedRegs - = $P $T0 4 + .cbParams + = $ebx $T0 44 - ^ =
STACK WIN 4 2e626 38e 0 0 c 8 24 0 1 $T0 $ebp = $eip $T0 4 + ^ = $ebp $T0 ^ = $esp $T0 8 + = $L $T0 .cbSavedRegs - = $P $T0 4 + .cbParams + = $ebx $T0 44 - ^ =
STACK WIN 4 2e63e 372 0 0 c c 24 0 1 $T0 $ebp = $eip $T0 4 + ^ = $ebp $T0 ^ = $esp $T0 8 + = $L $T0 .cbSavedRegs - = $P $T0 4 + .cbParams + = $ebx $T0 44 - ^ =
STACK WIN 4 20d14 3ab b 0 10 0 10 0 1 $T0 $ebp = $eip $T0 4 + ^ = $ebp $T0 ^ = $esp $T0 8 + = $L $T0 .cbSavedRegs - = $P $T0 4 + .cbParams + =
STACK WIN 4 20d1d 39e 2 0 10 4 10 0 1 $T0 $ebp = $eip $T0 4 + ^ = $ebp $T0 ^ = $esp $T0 8 + = $L $T0 .cbSavedRegs - = $P $T0 4 + .cbParams + = $ebx $T0 24 - ^ =
STACK WIN 4 20d1e 39c 1 0 10 8 10 0 1 $T0 $ebp = $eip $T0 4 + ^ = $ebp $T0 ^ = $esp $T0 8 + = $L $T0 .cbSavedRegs - = $P $T0 4 + .cbParams + = $ebx $T0 24 - ^ =
STACK WIN 4 20d1f 39a 0 0 10 c 10 0 1 $T0 $ebp = $eip $T0 4 + ^ = $ebp $T0 ^ = $esp $T0 8 + = $L $T0 .cbSavedRegs - = $P $T0 4 + .cbParams + = $ebx $T0 24 - ^ =
STACK WIN 4 2d2af 13d 9 0 8 0 24 0 1 $T0 $ebp = $eip $T0 4 + ^ = $ebp $T0 ^ = $esp $T0 8 + = $L $T0 .cbSavedRegs - = $P $T0 4 + .cbParams + =
STACK WIN 4 2d2b8 130 0 0 8 4 24 0 1 $T0 $ebp = $eip $T0 4 + ^ = $ebp $T0 ^ = $esp $T0 8 + = $L $T0 .cbSavedRegs - = $P $T0 4 + .cbParams + = $ebx $T0 44 - ^ =
STACK WIN 4 2d2de 106 0 0 8 8 24 0 1 $T0 $ebp = $eip $T0 4 + ^ = $ebp $T0 ^ = $esp $T0 8 + = $L $T0 .cbSavedRegs - = $P $T0 4 + .cbParams + = $ebx $T0 44 - ^ =
STACK WIN 4 2d2df 104 0 0 8 c 24 0 1 $T0 $ebp = $eip $T0 4 + ^ = $ebp $T0 ^ = $esp $T0 8 + = $L $T0 .cbSavedRegs - = $P $T0 4 + .cbParams + = $ebx $T0 44 - ^ =
STACK WIN 4 69bff fd c 0 c 8 38 0 1 $T0 $ebp = $eip $T0 4 + ^ = $ebp $T0 ^ = $esp $T0 8 + = $L $T0 .cbSavedRegs - = $P $T0 4 + .cbParams + =
STACK WIN 4 69ce0 21 0 0 c 8 38 0 1 $T0 $ebp = $T2 $esp = $T1 .raSearchStart = $eip $T1 ^ = $ebp $ebp = $esp $T1 4 + = $L $T0 .cbSavedRegs - = $P $T0 4 + .cbParams + =
STACK WIN 4 69d19 111 c 0 c 8 38 0 1 $T0 $ebp = $eip $T0 4 + ^ = $ebp $T0 ^ = $esp $T0 8 + = $L $T0 .cbSavedRegs - = $P $T0 4 + .cbParams + =
STACK WIN 4 69e0e 21 0 0 c 8 38 0 1 $T0 $ebp = $T2 $esp = $T1 .raSearchStart = $eip $T1 ^ = $ebp $ebp = $esp $T1 4 + = $L $T0 .cbSavedRegs - = $P $T0 4 + .cbParams + =
STACK WIN 4 69e49 fd c 0 c 8 38 0 1 $T0 $ebp = $eip $T0 4 + ^ = $ebp $T0 ^ = $esp $T0 8 + = $L $T0 .cbSavedRegs - = $P $T0 4 + .cbParams + =
STACK WIN 4 69f2a 21 0 0 c 8 38 0 1 $T0 $ebp = $T2 $esp = $T1 .raSearchStart = $eip $T1 ^ = $ebp $ebp = $esp $T1 4 + = $L $T0 .cbSavedRegs - = $P $T0 4 + .cbParams + =
STACK WIN 4 69f61 10f c 0 c 8 38 0 1 $T0 $ebp = $eip $T0 4 + ^ = $ebp $T0 ^ = $esp $T0 8 + = $L $T0 .cbSavedRegs - = $P $T0 4 + .cbParams + =
STACK WIN 4 6a054 21 0 0 c 8 38 0 1 $T0 $ebp = $T2 $esp = $T1 .raSearchStart = $eip $T1 ^ = $ebp $ebp = $esp $T1 4 + = $L $T0 .cbSavedRegs - = $P $T0 4 + .cbParams + =
STACK WIN 4 6a091 48 8 0 8 0 8 0 1 $T0 $ebp = $eip $T0 4 + ^ = $ebp $T0 ^ = $esp $T0 8 + = $L $T0 .cbSavedRegs - = $P $T0 4 + .cbParams + =
STACK WIN 4 6a099 3c 0 0 8 4 8 0 1 $T0 $ebp = $eip $T0 4 + ^ = $ebp $T0 ^ = $esp $T0 8 + = $L $T0 .cbSavedRegs - = $P $T0 4 + .cbParams + =
STACK WIN 4 6a0de 1d 5 0 4 0 0 0 1 $T0 $ebp = $eip $T0 4 + ^ = $ebp $T0 ^ = $esp $T0 8 + = $L $T0 .cbSavedRegs - = $P $T0 4 + .cbParams + =
STACK WIN 4 2e8b2 10f c 0 c 8 38 0 1 $T0 $ebp = $eip $T0 4 + ^ = $ebp $T0 ^ = $esp $T0 8 + = $L $T0 .cbSavedRegs - = $P $T0 4 + .cbParams + =
STACK WIN 4 453fe 21 0 0 c 8 38 0 1 $T0 $ebp = $T2 $esp = $T1 .raSearchStart = $eip $T1 ^ = $ebp $ebp = $esp $T1 4 + = $L $T0 .cbSavedRegs - = $P $T0 4 + .cbParams + =
STACK WIN 4 6a100 13c c 0 10 8 3c 0 1 $T0 $ebp = $eip $T0 4 + ^ = $ebp $T0 ^ = $esp $T0 8 + = $L $T0 .cbSavedRegs - = $P $T0 4 + .cbParams + =
STACK WIN 4 6a220 21 0 0 10 8 3c 0 1 $T0 $ebp = $T2 $esp = $T1 .raSearchStart = $eip $T1 ^ = $ebp $ebp = $esp $T1 4 + = $L $T0 .cbSavedRegs - = $P $T0 4 + .cbParams + =
STACK WIN 4 6a259 fc c 0 8 8 38 0 1 $T0 $ebp = $eip $T0 4 + ^ = $ebp $T0 ^ = $esp $T0 8 + = $L $T0 .cbSavedRegs - = $P $T0 4 + .cbParams + =
STACK WIN 4 6a339 21 0 0 8 8 38 0 1 $T0 $ebp = $T2 $esp = $T1 .raSearchStart = $eip $T1 ^ = $ebp $ebp = $esp $T1 4 + = $L $T0 .cbSavedRegs - = $P $T0 4 + .cbParams + =
STACK WIN 4 6a371 172 a 0 0 0 c 0 1 $T0 $ebp = $eip $T0 4 + ^ = $ebp $T0 ^ = $esp $T0 8 + = $L $T0 .cbSavedRegs - = $P $T0 4 + .cbParams + =
STACK WIN 4 6a37a 167 1 0 0 4 c 0 1 $T0 $ebp = $eip $T0 4 + ^ = $ebp $T0 ^ = $esp $T0 8 + = $L $T0 .cbSavedRegs - = $P $T0 4 + .cbParams + = $ebx $T0 20 - ^ =
STACK WIN 4 6a37b 165 0 0 0 8 c 0 1 $T0 $ebp = $eip $T0 4 + ^ = $ebp $T0 ^ = $esp $T0 8 + = $L $T0 .cbSavedRegs - = $P $T0 4 + .cbParams + = $ebx $T0 20 - ^ =
STACK WIN 4 6a4e8 11 0 0 0 0 0 0 1 $T2 $esp .cbLocals + .cbSavedRegs + = $T0 .raSearchStart = $eip $T0 ^ = $esp $T0 4 + =
STACK WIN 4 6a4fe c7 0 0 0 0 0 0 1 $T2 $esp .cbLocals + .cbSavedRegs + = $T0 .raSearchStart = $eip $T0 ^ = $esp $T0 4 + =
STACK WIN 4 6a5ca 3e 0 0 0 0 0 0 1 $T2 $esp .cbLocals + .cbSavedRegs + = $T0 .raSearchStart = $eip $T0 ^ = $esp $T0 4 + =
STACK WIN 4 6a60d a4 10 0 8 0 0 0 1 $T0 $ebp = $eip $T0 4 + ^ = $ebp $T0 ^ = $esp $T0 8 + = $L $T0 .cbSavedRegs - = $P $T0 4 + .cbParams + =
STACK WIN 4 6a613 9a a 0 8 4 0 0 1 $T0 $ebp = $eip $T0 4 + ^ = $ebp $T0 ^ = $esp $T0 8 + = $L $T0 .cbSavedRegs - = $P $T0 4 + .cbParams + = $ebx $T0 8 - ^ =
STACK WIN 4 6a614 98 9 0 8 8 0 0 1 $T0 $ebp = $eip $T0 4 + ^ = $ebp $T0 ^ = $esp $T0 8 + = $L $T0 .cbSavedRegs - = $P $T0 4 + .cbParams + = $ebx $T0 8 - ^ =
STACK WIN 4 6a61b 90 2 0 8 c 0 0 1 $T0 $ebp = $eip $T0 4 + ^ = $ebp $T0 ^ = $esp $T0 8 + = $L $T0 .cbSavedRegs - = $P $T0 4 + .cbParams + = $ebx $T0 8 - ^ =
STACK WIN 4 6a6b6 d0 10 0 8 0 0 0 1 $T0 $ebp = $eip $T0 4 + ^ = $ebp $T0 ^ = $esp $T0 8 + = $L $T0 .cbSavedRegs - = $P $T0 4 + .cbParams + =
STACK WIN 4 6a6bc c6 a 0 8 4 0 0 1 $T0 $ebp = $eip $T0 4 + ^ = $ebp $T0 ^ = $esp $T0 8 + = $L $T0 .cbSavedRegs - = $P $T0 4 + .cbParams + = $ebx $T0 8 - ^ =
STACK WIN 4 6a6bd c4 9 0 8 8 0 0 1 $T0 $ebp = $eip $T0 4 + ^ = $ebp $T0 ^ = $esp $T0 8 + = $L $T0 .cbSavedRegs - = $P $T0 4 + .cbParams + = $ebx $T0 8 - ^ =
STACK WIN 4 6a6c4 bc 2 0 8 c 0 0 1 $T0 $ebp = $eip $T0 4 + ^ = $ebp $T0 ^ = $esp $T0 8 + = $L $T0 .cbSavedRegs - = $P $T0 4 + .cbParams + = $ebx $T0 8 - ^ =
STACK WIN 4 6a78b 66 8 0 18 0 10 0 1 $T0 $ebp = $eip $T0 4 + ^ = $ebp $T0 ^ = $esp $T0 8 + = $L $T0 .cbSavedRegs - = $P $T0 4 + .cbParams + =
STACK WIN 4 6a7b8 33 0 0 18 4 10 0 1 $T0 $ebp = $eip $T0 4 + ^ = $ebp $T0 ^ = $esp $T0 8 + = $L $T0 .cbSavedRegs - = $P $T0 4 + .cbParams + =
STACK WIN 4 6a7fb 60c e 0 8 0 94 0 1 $T0 $ebp = $eip $T0 4 + ^ = $ebp $T0 ^ = $esp $T0 8 + = $L $T0 .cbSavedRegs - = $P $T0 4 + .cbParams + =
STACK WIN 4 6a807 5fc 2 0 8 4 94 0 1 $T0 $ebp = $eip $T0 4 + ^ = $ebp $T0 ^ = $esp $T0 8 + = $L $T0 .cbSavedRegs - = $P $T0 4 + .cbParams + = $ebx $T0 156 - ^ =
STACK WIN 4 6a808 5fa 1 0 8 8 94 0 1 $T0 $ebp = $eip $T0 4 + ^ = $ebp $T0 ^ = $esp $T0 8 + = $L $T0 .cbSavedRegs - = $P $T0 4 + .cbParams + = $ebx $T0 156 - ^ =
STACK WIN 4 6a809 5f8 0 0 8 c 94 0 1 $T0 $ebp = $eip $T0 4 + ^ = $ebp $T0 ^ = $esp $T0 8 + = $L $T0 .cbSavedRegs - = $P $T0 4 + .cbParams + = $ebx $T0 156 - ^ =
STACK WIN 4 6aebf 29 5 0 c 0 0 0 1 $T0 $ebp = $eip $T0 4 + ^ = $ebp $T0 ^ = $esp $T0 8 + = $L $T0 .cbSavedRegs - = $P $T0 4 + .cbParams + =
STACK WIN 4 6aeed 2d 8 0 8 0 14 0 1 $T0 $ebp = $eip $T0 4 + ^ = $ebp $T0 ^ = $esp $T0 8 + = $L $T0 .cbSavedRegs - = $P $T0 4 + .cbParams + =
STACK WIN 4 6af1f 55 8 0 c 0 10 0 1 $T0 $ebp = $eip $T0 4 + ^ = $ebp $T0 ^ = $esp $T0 8 + = $L $T0 .cbSavedRegs - = $P $T0 4 + .cbParams + =
STACK WIN 4 6af53 1d 0 0 c 4 10 0 1 $T0 $ebp = $eip $T0 4 + ^ = $ebp $T0 ^ = $esp $T0 8 + = $L $T0 .cbSavedRegs - = $P $T0 4 + .cbParams + =
STACK WIN 4 6af79 52 8 0 8 0 10 0 1 $T0 $ebp = $eip $T0 4 + ^ = $ebp $T0 ^ = $esp $T0 8 + = $L $T0 .cbSavedRegs - = $P $T0 4 + .cbParams + =
STACK WIN 4 6afad 1a 0 0 8 4 10 0 1 $T0 $ebp = $eip $T0 4 + ^ = $ebp $T0 ^ = $esp $T0 8 + = $L $T0 .cbSavedRegs - = $P $T0 4 + .cbParams + =
STACK WIN 4 6afd0 71 9 0 18 0 8 0 1 $T0 $ebp = $eip $T0 4 + ^ = $ebp $T0 ^ = $esp $T0 8 + = $L $T0 .cbSavedRegs - = $P $T0 4 + .cbParams + =
STACK WIN 4 6afd8 65 1 0 18 4 8 0 1 $T0 $ebp = $eip $T0 4 + ^ = $ebp $T0 ^ = $esp $T0 8 + = $L $T0 .cbSavedRegs - = $P $T0 4 + .cbParams + = $ebx $T0 16 - ^ =
STACK WIN 4 6afd9 63 0 0 18 8 8 0 1 $T0 $ebp = $eip $T0 4 + ^ = $ebp $T0 ^ = $esp $T0 8 + = $L $T0 .cbSavedRegs - = $P $T0 4 + .cbParams + = $ebx $T0 16 - ^ =
STACK WIN 4 6aff2 49 0 0 18 c 8 0 1 $T0 $ebp = $eip $T0 4 + ^ = $ebp $T0 ^ = $esp $T0 8 + = $L $T0 .cbSavedRegs - = $P $T0 4 + .cbParams + = $ebx $T0 16 - ^ =
STACK WIN 4 6b046 41 8 0 18 0 18 0 1 $T0 $ebp = $eip $T0 4 + ^ = $ebp $T0 ^ = $esp $T0 8 + = $L $T0 .cbSavedRegs - = $P $T0 4 + .cbParams + =
STACK WIN 4 6b08c 57 8 0 14 0 10 0 1 $T0 $ebp = $eip $T0 4 + ^ = $ebp $T0 ^ = $esp $T0 8 + = $L $T0 .cbSavedRegs - = $P $T0 4 + .cbParams + =
STACK WIN 4 6b0e8 2e 7 0 c 0 8 0 1 $T0 $ebp = $eip $T0 4 + ^ = $ebp $T0 ^ = $esp $T0 8 + = $L $T0 .cbSavedRegs - = $P $T0 4 + .cbParams + =
STACK WIN 4 6b11b 2e 7 0 c 0 8 0 1 $T0 $ebp = $eip $T0 4 + ^ = $ebp $T0 ^ = $esp $T0 8 + = $L $T0 .cbSavedRegs - = $P $T0 4 + .cbParams + =
STACK WIN 4 6b14e 35 8 0 10 0 c 0 1 $T0 $ebp = $eip $T0 4 + ^ = $ebp $T0 ^ = $esp $T0 8 + = $L $T0 .cbSavedRegs - = $P $T0 4 + .cbParams + =
STACK WIN 4 6b188 35 8 0 10 0 c 0 1 $T0 $ebp = $eip $T0 4 + ^ = $ebp $T0 ^ = $esp $T0 8 + = $L $T0 .cbSavedRegs - = $P $T0 4 + .cbParams + =
STACK WIN 4 6b1c2 57 5 0 10 0 0 0 1 $T0 $ebp = $eip $T0 4 + ^ = $ebp $T0 ^ = $esp $T0 8 + = $L $T0 .cbSavedRegs - = $P $T0 4 + .cbParams + =
STACK WIN 4 6b21e 3c 5 0 c 0 0 0 1 $T0 $ebp = $eip $T0 4 + ^ = $ebp $T0 ^ = $esp $T0 8 + = $L $T0 .cbSavedRegs - = $P $T0 4 + .cbParams + =
STACK WIN 4 6b25f 1c 5 0 4 0 0 0 1 $T0 $ebp = $eip $T0 4 + ^ = $ebp $T0 ^ = $esp $T0 8 + = $L $T0 .cbSavedRegs - = $P $T0 4 + .cbParams + =
STACK WIN 4 2cb03 69 8 0 8 0 20 0 1 $T0 $ebp = $eip $T0 4 + ^ = $ebp $T0 ^ = $esp $T0 8 + = $L $T0 .cbSavedRegs - = $P $T0 4 + .cbParams + =
STACK WIN 4 6b280 72 8 0 c 0 20 0 1 $T0 $ebp = $eip $T0 4 + ^ = $ebp $T0 ^ = $esp $T0 8 + = $L $T0 .cbSavedRegs - = $P $T0 4 + .cbParams + =
STACK WIN 4 2e44a 28 6 0 8 0 0 0 1 $T0 $ebp = $eip $T0 4 + ^ = $ebp $T0 ^ = $esp $T0 8 + = $L $T0 .cbSavedRegs - = $P $T0 4 + .cbParams + =
STACK WIN 4 2e450 1e 0 0 8 4 0 0 1 $T0 $ebp = $eip $T0 4 + ^ = $ebp $T0 ^ = $esp $T0 8 + = $L $T0 .cbSavedRegs - = $P $T0 4 + .cbParams + =
STACK WIN 4 6b2f7 28 6 0 8 0 0 0 1 $T0 $ebp = $eip $T0 4 + ^ = $ebp $T0 ^ = $esp $T0 8 + = $L $T0 .cbSavedRegs - = $P $T0 4 + .cbParams + =
STACK WIN 4 6b2fd 1e 0 0 8 4 0 0 1 $T0 $ebp = $eip $T0 4 + ^ = $ebp $T0 ^ = $esp $T0 8 + = $L $T0 .cbSavedRegs - = $P $T0 4 + .cbParams + =
STACK WIN 4 2afc9 cc e 0 14 0 70 0 1 $T0 $ebp = $eip $T0 4 + ^ = $ebp $T0 ^ = $esp $T0 8 + = $L $T0 .cbSavedRegs - = $P $T0 4 + .cbParams + =
STACK WIN 4 2afd6 bb 1 0 14 4 70 0 1 $T0 $ebp = $eip $T0 4 + ^ = $ebp $T0 ^ = $esp $T0 8 + = $L $T0 .cbSavedRegs - = $P $T0 4 + .cbParams + =
STACK WIN 4 2afd7 b9 0 0 14 8 70 0 1 $T0 $ebp = $eip $T0 4 + ^ = $ebp $T0 ^ = $esp $T0 8 + = $L $T0 .cbSavedRegs - = $P $T0 4 + .cbParams + =
STACK WIN 4 2ca9f 111 f 0 10 0 78 0 1 $T0 $ebp = $eip $T0 4 + ^ = $ebp $T0 ^ = $esp $T0 8 + = $L $T0 .cbSavedRegs - = $P $T0 4 + .cbParams + =
STACK WIN 4 2caac 100 2 0 10 4 78 0 1 $T0 $ebp = $eip $T0 4 + ^ = $ebp $T0 ^ = $esp $T0 8 + = $L $T0 .cbSavedRegs - = $P $T0 4 + .cbParams + = $ebx $T0 128 - ^ =
STACK WIN 4 2caad fe 1 0 10 8 78 0 1 $T0 $ebp = $eip $T0 4 + ^ = $ebp $T0 ^ = $esp $T0 8 + = $L $T0 .cbSavedRegs - = $P $T0 4 + .cbParams + = $ebx $T0 128 - ^ =
STACK WIN 4 2caae fc 0 0 10 c 78 0 1 $T0 $ebp = $eip $T0 4 + ^ = $ebp $T0 ^ = $esp $T0 8 + = $L $T0 .cbSavedRegs - = $P $T0 4 + .cbParams + = $ebx $T0 128 - ^ =
STACK WIN 4 6b324 35 5 0 c 0 0 0 1 $T0 $ebp = $eip $T0 4 + ^ = $ebp $T0 ^ = $esp $T0 8 + = $L $T0 .cbSavedRegs - = $P $T0 4 + .cbParams + =
STACK WIN 4 6b35e 29 5 0 c 0 0 0 1 $T0 $ebp = $eip $T0 4 + ^ = $ebp $T0 ^ = $esp $T0 8 + = $L $T0 .cbSavedRegs - = $P $T0 4 + .cbParams + =
STACK WIN 4 6b38c 67 8 0 8 0 8 0 1 $T0 $ebp = $eip $T0 4 + ^ = $ebp $T0 ^ = $esp $T0 8 + = $L $T0 .cbSavedRegs - = $P $T0 4 + .cbParams + =
STACK WIN 4 6b394 5b 0 0 8 4 8 0 1 $T0 $ebp = $eip $T0 4 + ^ = $ebp $T0 ^ = $esp $T0 8 + = $L $T0 .cbSavedRegs - = $P $T0 4 + .cbParams + =
STACK WIN 4 6b3f8 6f c 0 c 0 8 0 1 $T0 $ebp = $eip $T0 4 + ^ = $ebp $T0 ^ = $esp $T0 8 + = $L $T0 .cbSavedRegs - = $P $T0 4 + .cbParams + =
STACK WIN 4 6b404 5f 0 0 c 4 8 0 1 $T0 $ebp = $eip $T0 4 + ^ = $ebp $T0 ^ = $esp $T0 8 + = $L $T0 .cbSavedRegs - = $P $T0 4 + .cbParams + =
STACK WIN 4 6b46c 19d c 0 c 8 5c 0 1 $T0 $ebp = $eip $T0 4 + ^ = $ebp $T0 ^ = $esp $T0 8 + = $L $T0 .cbSavedRegs - = $P $T0 4 + .cbParams + =
STACK WIN 4 6b5b5 48 0 0 c 8 5c 0 1 $T0 $ebp = $T2 $esp = $T1 .raSearchStart = $eip $T1 ^ = $ebp $ebp = $esp $T1 4 + = $L $T0 .cbSavedRegs - = $P $T0 4 + .cbParams + =
STACK WIN 4 6b629 55 8 0 c 0 8 0 1 $T0 $ebp = $eip $T0 4 + ^ = $ebp $T0 ^ = $esp $T0 8 + = $L $T0 .cbSavedRegs - = $P $T0 4 + .cbParams + =
STACK WIN 4 6b631 49 0 0 c 4 8 0 1 $T0 $ebp = $eip $T0 4 + ^ = $ebp $T0 ^ = $esp $T0 8 + = $L $T0 .cbSavedRegs - = $P $T0 4 + .cbParams + =
STACK WIN 4 6b683 c 0 0 4 0 0 0 1 $T2 $esp .cbLocals + .cbSavedRegs + = $T0 .raSearchStart = $eip $T0 ^ = $esp $T0 4 + =
STACK WIN 4 2146c c 0 0 8 0 0 0 1 $T2 $esp .cbLocals + .cbSavedRegs + = $T0 .raSearchStart = $eip $T0 ^ = $esp $T0 4 + =
STACK WIN 4 6b694 a 0 0 0 0 0 0 1 $T2 $esp .cbLocals + .cbSavedRegs + = $T0 .raSearchStart = $eip $T0 ^ = $esp $T0 4 + =
STACK WIN 4 1301e 22 5 0 18 0 0 0 1 $T0 $ebp = $eip $T0 4 + ^ = $ebp $T0 ^ = $esp $T0 8 + = $L $T0 .cbSavedRegs - = $P $T0 4 + .cbParams + =
STACK WIN 4 6b6a3 53 6 0 10 0 0 0 1 $T0 $ebp = $eip $T0 4 + ^ = $ebp $T0 ^ = $esp $T0 8 + = $L $T0 .cbSavedRegs - = $P $T0 4 + .cbParams + =
STACK WIN 4 6b6a9 49 0 0 10 4 0 0 1 $T0 $ebp = $eip $T0 4 + ^ = $ebp $T0 ^ = $esp $T0 8 + = $L $T0 .cbSavedRegs - = $P $T0 4 + .cbParams + =
STACK WIN 4 17190 c4 13 0 c 0 c 0 1 $T0 $ebp = $eip $T0 4 + ^ = $ebp $T0 ^ = $esp $T0 8 + = $L $T0 .cbSavedRegs - = $P $T0 4 + .cbParams + =
STACK WIN 4 1719f b1 4 0 c 4 c 0 1 $T0 $ebp = $eip $T0 4 + ^ = $ebp $T0 ^ = $esp $T0 8 + = $L $T0 .cbSavedRegs - = $P $T0 4 + .cbParams + = $ebx $T0 20 - ^ =
STACK WIN 4 171a2 ad 1 0 c 8 c 0 1 $T0 $ebp = $eip $T0 4 + ^ = $ebp $T0 ^ = $esp $T0 8 + = $L $T0 .cbSavedRegs - = $P $T0 4 + .cbParams + = $ebx $T0 20 - ^ =
STACK WIN 4 171a3 a9 0 0 c c c 0 1 $T0 $ebp = $eip $T0 4 + ^ = $ebp $T0 ^ = $esp $T0 8 + = $L $T0 .cbSavedRegs - = $P $T0 4 + .cbParams + = $ebx $T0 20 - ^ =
STACK WIN 4 2bf01 c 5 0 4 0 0 0 1 $T0 $ebp = $eip $T0 4 + ^ = $ebp $T0 ^ = $esp $T0 8 + = $L $T0 .cbSavedRegs - = $P $T0 4 + .cbParams + =
STACK WIN 4 1305f c 5 0 4 0 0 0 1 $T0 $ebp = $eip $T0 4 + ^ = $ebp $T0 ^ = $esp $T0 8 + = $L $T0 .cbSavedRegs - = $P $T0 4 + .cbParams + =
STACK WIN 4 6b6fb 23 5 0 4 0 0 0 1 $T0 $ebp = $eip $T0 4 + ^ = $ebp $T0 ^ = $esp $T0 8 + = $L $T0 .cbSavedRegs - = $P $T0 4 + .cbParams + =
STACK WIN 4 a644 35 5 0 8 0 0 0 1 $T0 $ebp = $eip $T0 4 + ^ = $ebp $T0 ^ = $esp $T0 8 + = $L $T0 .cbSavedRegs - = $P $T0 4 + .cbParams + =
STACK WIN 4 a675 38 5 0 8 0 0 0 1 $T0 $ebp = $eip $T0 4 + ^ = $ebp $T0 ^ = $esp $T0 8 + = $L $T0 .cbSavedRegs - = $P $T0 4 + .cbParams + =
STACK WIN 4 300a9 33 6 0 4 0 0 0 1 $T0 $ebp = $eip $T0 4 + ^ = $ebp $T0 ^ = $esp $T0 8 + = $L $T0 .cbSavedRegs - = $P $T0 4 + .cbParams + =
STACK WIN 4 300af 29 0 0 4 4 0 0 1 $T0 $ebp = $eip $T0 4 + ^ = $ebp $T0 ^ = $esp $T0 8 + = $L $T0 .cbSavedRegs - = $P $T0 4 + .cbParams + =
STACK WIN 4 967c 12f c 0 10 0 8 0 1 $T0 $ebp = $eip $T0 4 + ^ = $ebp $T0 ^ = $esp $T0 8 + = $L $T0 .cbSavedRegs - = $P $T0 4 + .cbParams + =
STACK WIN 4 9684 123 4 0 10 4 8 0 1 $T0 $ebp = $eip $T0 4 + ^ = $ebp $T0 ^ = $esp $T0 8 + = $L $T0 .cbSavedRegs - = $P $T0 4 + .cbParams + =
STACK WIN 4 9688 11e 0 0 10 8 8 0 1 $T0 $ebp = $eip $T0 4 + ^ = $ebp $T0 ^ = $esp $T0 8 + = $L $T0 .cbSavedRegs - = $P $T0 4 + .cbParams + =
STACK WIN 4 6b723 39 6 0 4 0 0 0 1 $T0 $ebp = $eip $T0 4 + ^ = $ebp $T0 ^ = $esp $T0 8 + = $L $T0 .cbSavedRegs - = $P $T0 4 + .cbParams + =
STACK WIN 4 6b729 2f 0 0 4 4 0 0 1 $T0 $ebp = $eip $T0 4 + ^ = $ebp $T0 ^ = $esp $T0 8 + = $L $T0 .cbSavedRegs - = $P $T0 4 + .cbParams + =
STACK WIN 4 130a6 42 e 0 4 0 0 0 1 $T0 $ebp = $eip $T0 4 + ^ = $ebp $T0 ^ = $esp $T0 8 + = $L $T0 .cbSavedRegs - = $P $T0 4 + .cbParams + =
STACK WIN 4 130ac 38 8 0 4 4 0 0 1 $T0 $ebp = $eip $T0 4 + ^ = $ebp $T0 ^ = $esp $T0 8 + = $L $T0 .cbSavedRegs - = $P $T0 4 + .cbParams + =
STACK WIN 4 130b4 2f 0 0 4 8 0 0 1 $T0 $ebp = $eip $T0 4 + ^ = $ebp $T0 ^ = $esp $T0 8 + = $L $T0 .cbSavedRegs - = $P $T0 4 + .cbParams + =
STACK WIN 4 15350 124 16 0 14 0 50 0 1 $T0 $ebp = $eip $T0 4 + ^ = $ebp $T0 ^ = $esp $T0 8 + = $L $T0 .cbSavedRegs - = $P $T0 4 + .cbParams + =
STACK WIN 4 1535e 10d 8 0 14 4 50 0 1 $T0 $ebp = $eip $T0 4 + ^ = $ebp $T0 ^ = $esp $T0 8 + = $L $T0 .cbSavedRegs - = $P $T0 4 + .cbParams + = $ebx $T0 88 - ^ =
STACK WIN 4 15362 108 4 0 14 8 50 0 1 $T0 $ebp = $eip $T0 4 + ^ = $ebp $T0 ^ = $esp $T0 8 + = $L $T0 .cbSavedRegs - = $P $T0 4 + .cbParams + = $ebx $T0 88 - ^ =
STACK WIN 4 15366 103 0 0 14 c 50 0 1 $T0 $ebp = $eip $T0 4 + ^ = $ebp $T0 ^ = $esp $T0 8 + = $L $T0 .cbSavedRegs - = $P $T0 4 + .cbParams + = $ebx $T0 88 - ^ =
STACK WIN 4 6b761 3f 9 0 8 0 0 0 1 $T0 $ebp = $eip $T0 4 + ^ = $ebp $T0 ^ = $esp $T0 8 + = $L $T0 .cbSavedRegs - = $P $T0 4 + .cbParams + =
STACK WIN 4 6b76a 32 0 0 8 4 0 0 1 $T0 $ebp = $eip $T0 4 + ^ = $ebp $T0 ^ = $esp $T0 8 + = $L $T0 .cbSavedRegs - = $P $T0 4 + .cbParams + =
STACK WIN 4 1530d 47 5 0 4 0 0 0 1 $T0 $ebp = $eip $T0 4 + ^ = $ebp $T0 ^ = $esp $T0 8 + = $L $T0 .cbSavedRegs - = $P $T0 4 + .cbParams + =
STACK WIN 4 19aaa 33 5 0 4 0 0 0 1 $T0 $ebp = $eip $T0 4 + ^ = $ebp $T0 ^ = $esp $T0 8 + = $L $T0 .cbSavedRegs - = $P $T0 4 + .cbParams + =
STACK WIN 4 1a9d9 3a 8 0 8 0 18 0 1 $T0 $ebp = $eip $T0 4 + ^ = $ebp $T0 ^ = $esp $T0 8 + = $L $T0 .cbSavedRegs - = $P $T0 4 + .cbParams + =
STACK WIN 4 15229 170 e 0 10 0 38 0 1 $T0 $ebp = $eip $T0 4 + ^ = $ebp $T0 ^ = $esp $T0 8 + = $L $T0 .cbSavedRegs - = $P $T0 4 + .cbParams + =
STACK WIN 4 15232 163 5 0 10 4 38 0 1 $T0 $ebp = $eip $T0 4 + ^ = $ebp $T0 ^ = $esp $T0 8 + = $L $T0 .cbSavedRegs - = $P $T0 4 + .cbParams + = $ebx $T0 64 - ^ =
STACK WIN 4 15233 15f 4 0 10 8 38 0 1 $T0 $ebp = $eip $T0 4 + ^ = $ebp $T0 ^ = $esp $T0 8 + = $L $T0 .cbSavedRegs - = $P $T0 4 + .cbParams + = $ebx $T0 64 - ^ =
STACK WIN 4 15237 15a 0 0 10 c 38 0 1 $T0 $ebp = $eip $T0 4 + ^ = $ebp $T0 ^ = $esp $T0 8 + = $L $T0 .cbSavedRegs - = $P $T0 4 + .cbParams + = $ebx $T0 64 - ^ =
STACK WIN 4 162db ef b 0 1c 0 4 0 1 $T0 $ebp = $eip $T0 4 + ^ = $ebp $T0 ^ = $esp $T0 8 + = $L $T0 .cbSavedRegs - = $P $T0 4 + .cbParams + =
STACK WIN 4 162e2 e4 4 0 1c 4 4 0 1 $T0 $ebp = $eip $T0 4 + ^ = $ebp $T0 ^ = $esp $T0 8 + = $L $T0 .cbSavedRegs - = $P $T0 4 + .cbParams + = $ebx $T0 12 - ^ =
STACK WIN 4 162e6 df 0 0 1c 8 4 0 1 $T0 $ebp = $eip $T0 4 + ^ = $ebp $T0 ^ = $esp $T0 8 + = $L $T0 .cbSavedRegs - = $P $T0 4 + .cbParams + = $ebx $T0 12 - ^ =
STACK WIN 4 1529b af 8 0 3c 0 0 0 1 $T0 $ebp = $eip $T0 4 + ^ = $ebp $T0 ^ = $esp $T0 8 + = $L $T0 .cbSavedRegs - = $P $T0 4 + .cbParams + =
STACK WIN 4 152a1 a5 2 0 3c 4 0 0 1 $T0 $ebp = $eip $T0 4 + ^ = $ebp $T0 ^ = $esp $T0 8 + = $L $T0 .cbSavedRegs - = $P $T0 4 + .cbParams + = $ebx $T0 8 - ^ =
STACK WIN 4 152a2 a3 1 0 3c 8 0 0 1 $T0 $ebp = $eip $T0 4 + ^ = $ebp $T0 ^ = $esp $T0 8 + = $L $T0 .cbSavedRegs - = $P $T0 4 + .cbParams + = $ebx $T0 8 - ^ =
STACK WIN 4 152a3 a1 0 0 3c c 0 0 1 $T0 $ebp = $eip $T0 4 + ^ = $ebp $T0 ^ = $esp $T0 8 + = $L $T0 .cbSavedRegs - = $P $T0 4 + .cbParams + = $ebx $T0 8 - ^ =
STACK WIN 4 1a86f 227 21 0 28 0 20 0 1 $T0 $ebp = $eip $T0 4 + ^ = $ebp $T0 ^ = $esp $T0 8 + = $L $T0 .cbSavedRegs - = $P $T0 4 + .cbParams + =
STACK WIN 4 1a878 21a 18 0 28 4 20 0 1 $T0 $ebp = $eip $T0 4 + ^ = $ebp $T0 ^ = $esp $T0 8 + = $L $T0 .cbSavedRegs - = $P $T0 4 + .cbParams + = $ebx $T0 40 - ^ =
STACK WIN 4 1a879 216 17 0 28 8 20 0 1 $T0 $ebp = $eip $T0 4 + ^ = $ebp $T0 ^ = $esp $T0 8 + = $L $T0 .cbSavedRegs - = $P $T0 4 + .cbParams + = $ebx $T0 40 - ^ =
STACK WIN 4 1a890 1fe 0 0 28 c 20 0 1 $T0 $ebp = $eip $T0 4 + ^ = $ebp $T0 ^ = $esp $T0 8 + = $L $T0 .cbSavedRegs - = $P $T0 4 + .cbParams + = $ebx $T0 40 - ^ =
STACK WIN 4 15921 ab5 45 0 c 0 3dc 0 1 $T0 $ebp = $eip $T0 4 + ^ = $ebp $T0 ^ = $esp $T0 8 + = $L $T0 .cbSavedRegs - = $P $T0 4 + .cbParams + =
STACK WIN 4 15958 a75 e 0 c 4 3dc 0 1 $T0 $ebp = $eip $T0 4 + ^ = $ebp $T0 ^ = $esp $T0 8 + = $L $T0 .cbSavedRegs - = $P $T0 4 + .cbParams + = $ebx $T0 996 - ^ =
STACK WIN 4 15965 a67 1 0 c 8 3dc 0 1 $T0 $ebp = $eip $T0 4 + ^ = $ebp $T0 ^ = $esp $T0 8 + = $L $T0 .cbSavedRegs - = $P $T0 4 + .cbParams + = $ebx $T0 996 - ^ =
STACK WIN 4 15966 a65 0 0 c c 3dc 0 1 $T0 $ebp = $eip $T0 4 + ^ = $ebp $T0 ^ = $esp $T0 8 + = $L $T0 .cbSavedRegs - = $P $T0 4 + .cbParams + = $ebx $T0 996 - ^ =
STACK WIN 4 1545c 910 17 0 4 8 2e0 0 1 $T0 $ebp = $eip $T0 4 + ^ = $ebp $T0 ^ = $esp $T0 8 + = $L $T0 .cbSavedRegs - = $P $T0 4 + .cbParams + =
STACK WIN 4 45f23 e 0 0 4 8 2e0 0 1 $T0 $ebp = $T2 $esp = $T1 .raSearchStart = $eip $T1 ^ = $ebp $ebp = $esp $T1 4 + = $L $T0 .cbSavedRegs - = $P $T0 4 + .cbParams + =
STACK WIN 4 11210 83 9 0 c 0 24 0 1 $T0 $ebp = $eip $T0 4 + ^ = $ebp $T0 ^ = $esp $T0 8 + = $L $T0 .cbSavedRegs - = $P $T0 4 + .cbParams + =
STACK WIN 4 11219 76 0 0 c 4 24 0 1 $T0 $ebp = $eip $T0 4 + ^ = $ebp $T0 ^ = $esp $T0 8 + = $L $T0 .cbSavedRegs - = $P $T0 4 + .cbParams + =
STACK WIN 4 1123b 57 0 0 c 8 24 0 1 $T0 $ebp = $eip $T0 4 + ^ = $ebp $T0 ^ = $esp $T0 8 + = $L $T0 .cbSavedRegs - = $P $T0 4 + .cbParams + =
STACK WIN 4 6b7a5 32f 1d 0 4 0 254 0 1 $T0 $ebp = $eip $T0 4 + ^ = $ebp $T0 ^ = $esp $T0 8 + = $L $T0 .cbSavedRegs - = $P $T0 4 + .cbParams + =
STACK WIN 4 6b7bd 2c9 5 0 4 4 254 0 1 $T0 $ebp = $eip $T0 4 + ^ = $ebp $T0 ^ = $esp $T0 8 + = $L $T0 .cbSavedRegs - = $P $T0 4 + .cbParams + = $ebx $T0 604 - ^ =
STACK WIN 4 6b7be 2c7 4 0 4 8 254 0 1 $T0 $ebp = $eip $T0 4 + ^ = $ebp $T0 ^ = $esp $T0 8 + = $L $T0 .cbSavedRegs - = $P $T0 4 + .cbParams + = $ebx $T0 604 - ^ =
STACK WIN 4 6b7c2 2c2 0 0 4 c 254 0 1 $T0 $ebp = $eip $T0 4 + ^ = $ebp $T0 ^ = $esp $T0 8 + = $L $T0 .cbSavedRegs - = $P $T0 4 + .cbParams + = $ebx $T0 604 - ^ =
STACK WIN 4 2fe16 84 3e 0 c 0 0 0 1 $T0 $ebp = $eip $T0 4 + ^ = $ebp $T0 ^ = $esp $T0 8 + = $L $T0 .cbSavedRegs - = $P $T0 4 + .cbParams + =
STACK WIN 4 2fe54 1f 0 0 c 4 0 0 1 $T0 $ebp = $eip $T0 4 + ^ = $ebp $T0 ^ = $esp $T0 8 + = $L $T0 .cbSavedRegs - = $P $T0 4 + .cbParams + =
STACK WIN 4 30e9a a7 9 0 c 0 4 0 1 $T0 $ebp = $eip $T0 4 + ^ = $ebp $T0 ^ = $esp $T0 8 + = $L $T0 .cbSavedRegs - = $P $T0 4 + .cbParams + =
STACK WIN 4 30ea1 9c 2 0 c 4 4 0 1 $T0 $ebp = $eip $T0 4 + ^ = $ebp $T0 ^ = $esp $T0 8 + = $L $T0 .cbSavedRegs - = $P $T0 4 + .cbParams + = $ebx $T0 12 - ^ =
STACK WIN 4 30ea2 9a 1 0 c 8 4 0 1 $T0 $ebp = $eip $T0 4 + ^ = $ebp $T0 ^ = $esp $T0 8 + = $L $T0 .cbSavedRegs - = $P $T0 4 + .cbParams + = $ebx $T0 12 - ^ =
STACK WIN 4 30ea3 98 0 0 c c 4 0 1 $T0 $ebp = $eip $T0 4 + ^ = $ebp $T0 ^ = $esp $T0 8 + = $L $T0 .cbSavedRegs - = $P $T0 4 + .cbParams + = $ebx $T0 12 - ^ =
STACK WIN 4 2fd92 73 9 0 14 0 44 0 1 $T0 $ebp = $eip $T0 4 + ^ = $ebp $T0 ^ = $esp $T0 8 + = $L $T0 .cbSavedRegs - = $P $T0 4 + .cbParams + =
STACK WIN 4 2fd9b 66 0 0 14 4 44 0 1 $T0 $ebp = $eip $T0 4 + ^ = $ebp $T0 ^ = $esp $T0 8 + = $L $T0 .cbSavedRegs - = $P $T0 4 + .cbParams + =
STACK WIN 4 2fdb4 2a 0 0 14 8 44 0 1 $T0 $ebp = $eip $T0 4 + ^ = $ebp $T0 ^ = $esp $T0 8 + = $L $T0 .cbSavedRegs - = $P $T0 4 + .cbParams + =
STACK WIN 4 6bb0f 51 9 0 14 0 8 0 1 $T0 $ebp = $eip $T0 4 + ^ = $ebp $T0 ^ = $esp $T0 8 + = $L $T0 .cbSavedRegs - = $P $T0 4 + .cbParams + =
STACK WIN 4 6bb17 45 1 0 14 4 8 0 1 $T0 $ebp = $eip $T0 4 + ^ = $ebp $T0 ^ = $esp $T0 8 + = $L $T0 .cbSavedRegs - = $P $T0 4 + .cbParams + =
STACK WIN 4 6bb18 43 0 0 14 8 8 0 1 $T0 $ebp = $eip $T0 4 + ^ = $ebp $T0 ^ = $esp $T0 8 + = $L $T0 .cbSavedRegs - = $P $T0 4 + .cbParams + =
STACK WIN 4 2fd4c 41 8 0 14 0 8 0 1 $T0 $ebp = $eip $T0 4 + ^ = $ebp $T0 ^ = $esp $T0 8 + = $L $T0 .cbSavedRegs - = $P $T0 4 + .cbParams + =
STACK WIN 4 2fd54 35 0 0 14 4 8 0 1 $T0 $ebp = $eip $T0 4 + ^ = $ebp $T0 ^ = $esp $T0 8 + = $L $T0 .cbSavedRegs - = $P $T0 4 + .cbParams + =
STACK WIN 4 30f21 73 9 0 14 0 44 0 1 $T0 $ebp = $eip $T0 4 + ^ = $ebp $T0 ^ = $esp $T0 8 + = $L $T0 .cbSavedRegs - = $P $T0 4 + .cbParams + =
STACK WIN 4 30f2a 66 0 0 14 4 44 0 1 $T0 $ebp = $eip $T0 4 + ^ = $ebp $T0 ^ = $esp $T0 8 + = $L $T0 .cbSavedRegs - = $P $T0 4 + .cbParams + =
STACK WIN 4 30f43 2a 0 0 14 8 44 0 1 $T0 $ebp = $eip $T0 4 + ^ = $ebp $T0 ^ = $esp $T0 8 + = $L $T0 .cbSavedRegs - = $P $T0 4 + .cbParams + =
STACK WIN 4 38653 18e 2e 0 14 0 e4 0 1 $T0 $ebp = $eip $T0 4 + ^ = $ebp $T0 ^ = $esp $T0 8 + = $L $T0 .cbSavedRegs - = $P $T0 4 + .cbParams + =
STACK WIN 4 38667 171 1a 0 14 4 e4 0 1 $T0 $ebp = $eip $T0 4 + ^ = $ebp $T0 ^ = $esp $T0 8 + = $L $T0 .cbSavedRegs - = $P $T0 4 + .cbParams + = $ebx $T0 236 - ^ =
STACK WIN 4 3866b 16c 16 0 14 8 e4 0 1 $T0 $ebp = $eip $T0 4 + ^ = $ebp $T0 ^ = $esp $T0 8 + = $L $T0 .cbSavedRegs - = $P $T0 4 + .cbParams + = $ebx $T0 236 - ^ =
STACK WIN 4 38681 155 0 0 14 c e4 0 1 $T0 $ebp = $eip $T0 4 + ^ = $ebp $T0 ^ = $esp $T0 8 + = $L $T0 .cbSavedRegs - = $P $T0 4 + .cbParams + = $ebx $T0 236 - ^ =
STACK WIN 4 3835a 3f 6 0 14 0 4 0 1 $T0 $ebp = $eip $T0 4 + ^ = $ebp $T0 ^ = $esp $T0 8 + = $L $T0 .cbSavedRegs - = $P $T0 4 + .cbParams + =
STACK WIN 4 1612f 113 1f 0 4 0 d8 0 1 $T0 $ebp = $eip $T0 4 + ^ = $ebp $T0 ^ = $esp $T0 8 + = $L $T0 .cbSavedRegs - = $P $T0 4 + .cbParams + =
STACK WIN 4 16147 f2 7 0 4 4 d8 0 1 $T0 $ebp = $eip $T0 4 + ^ = $ebp $T0 ^ = $esp $T0 8 + = $L $T0 .cbSavedRegs - = $P $T0 4 + .cbParams + =
STACK WIN 4 1614e e8 0 0 4 8 d8 0 1 $T0 $ebp = $eip $T0 4 + ^ = $ebp $T0 ^ = $esp $T0 8 + = $L $T0 .cbSavedRegs - = $P $T0 4 + .cbParams + =
STACK WIN 4 6bb65 38 5 0 4 0 0 0 1 $T0 $ebp = $eip $T0 4 + ^ = $ebp $T0 ^ = $esp $T0 8 + = $L $T0 .cbSavedRegs - = $P $T0 4 + .cbParams + =
STACK WIN 4 6bba2 28 6 0 0 0 4 0 1 $T0 $ebp = $eip $T0 4 + ^ = $ebp $T0 ^ = $esp $T0 8 + = $L $T0 .cbSavedRegs - = $P $T0 4 + .cbParams + =
STACK WIN 4 6bbcf 6b 8 0 4 0 8 0 1 $T0 $ebp = $eip $T0 4 + ^ = $ebp $T0 ^ = $esp $T0 8 + = $L $T0 .cbSavedRegs - = $P $T0 4 + .cbParams + =
STACK WIN 4 6bbd7 5f 0 0 4 4 8 0 1 $T0 $ebp = $eip $T0 4 + ^ = $ebp $T0 ^ = $esp $T0 8 + = $L $T0 .cbSavedRegs - = $P $T0 4 + .cbParams + =
STACK WIN 4 6bc0c 29 0 0 4 8 8 0 1 $T0 $ebp = $eip $T0 4 + ^ = $ebp $T0 ^ = $esp $T0 8 + = $L $T0 .cbSavedRegs - = $P $T0 4 + .cbParams + =
STACK WIN 4 16763 87 16 0 c 0 0 0 1 $T0 $ebp = $eip $T0 4 + ^ = $ebp $T0 ^ = $esp $T0 8 + = $L $T0 .cbSavedRegs - = $P $T0 4 + .cbParams + =
STACK WIN 4 16772 74 7 0 c 4 0 0 1 $T0 $ebp = $eip $T0 4 + ^ = $ebp $T0 ^ = $esp $T0 8 + = $L $T0 .cbSavedRegs - = $P $T0 4 + .cbParams + = $ebx $T0 8 - ^ =
STACK WIN 4 16778 6d 1 0 c 8 0 0 1 $T0 $ebp = $eip $T0 4 + ^ = $ebp $T0 ^ = $esp $T0 8 + = $L $T0 .cbSavedRegs - = $P $T0 4 + .cbParams + = $ebx $T0 8 - ^ =
STACK WIN 4 16779 6b 0 0 c c 0 0 1 $T0 $ebp = $eip $T0 4 + ^ = $ebp $T0 ^ = $esp $T0 8 + = $L $T0 .cbSavedRegs - = $P $T0 4 + .cbParams + = $ebx $T0 8 - ^ =
STACK WIN 4 16602 5b 13 0 4 0 20c 0 1 $T0 $ebp = $eip $T0 4 + ^ = $ebp $T0 ^ = $esp $T0 8 + = $L $T0 .cbSavedRegs - = $P $T0 4 + .cbParams + =
STACK WIN 4 16613 41 2 0 4 4 20c 0 1 $T0 $ebp = $eip $T0 4 + ^ = $ebp $T0 ^ = $esp $T0 8 + = $L $T0 .cbSavedRegs - = $P $T0 4 + .cbParams + = $ebx $T0 532 - ^ =
STACK WIN 4 16614 3d 1 0 4 8 20c 0 1 $T0 $ebp = $eip $T0 4 + ^ = $ebp $T0 ^ = $esp $T0 8 + = $L $T0 .cbSavedRegs - = $P $T0 4 + .cbParams + = $ebx $T0 532 - ^ =
STACK WIN 4 16615 3b 0 0 4 c 20c 0 1 $T0 $ebp = $eip $T0 4 + ^ = $ebp $T0 ^ = $esp $T0 8 + = $L $T0 .cbSavedRegs - = $P $T0 4 + .cbParams + = $ebx $T0 532 - ^ =
STACK WIN 4 1aa2c ff 13 0 0 0 228 0 1 $T0 $ebp = $eip $T0 4 + ^ = $ebp $T0 ^ = $esp $T0 8 + = $L $T0 .cbSavedRegs - = $P $T0 4 + .cbParams + =
STACK WIN 4 1aa3d e7 2 0 0 4 228 0 1 $T0 $ebp = $eip $T0 4 + ^ = $ebp $T0 ^ = $esp $T0 8 + = $L $T0 .cbSavedRegs - = $P $T0 4 + .cbParams + = $ebx $T0 560 - ^ =
STACK WIN 4 1aa3e e4 1 0 0 8 228 0 1 $T0 $ebp = $eip $T0 4 + ^ = $ebp $T0 ^ = $esp $T0 8 + = $L $T0 .cbSavedRegs - = $P $T0 4 + .cbParams + = $ebx $T0 560 - ^ =
STACK WIN 4 1aa3f e0 0 0 0 c 228 0 1 $T0 $ebp = $eip $T0 4 + ^ = $ebp $T0 ^ = $esp $T0 8 + = $L $T0 .cbSavedRegs - = $P $T0 4 + .cbParams + = $ebx $T0 560 - ^ =
STACK WIN 4 169ea 5c 9 0 c 0 48 0 1 $T0 $ebp = $eip $T0 4 + ^ = $ebp $T0 ^ = $esp $T0 8 + = $L $T0 .cbSavedRegs - = $P $T0 4 + .cbParams + =
STACK WIN 4 169f3 4f 0 0 c 4 48 0 1 $T0 $ebp = $eip $T0 4 + ^ = $ebp $T0 ^ = $esp $T0 8 + = $L $T0 .cbSavedRegs - = $P $T0 4 + .cbParams + =
STACK WIN 4 1691d 5c 8 0 8 0 10 0 1 $T0 $ebp = $eip $T0 4 + ^ = $ebp $T0 ^ = $esp $T0 8 + = $L $T0 .cbSavedRegs - = $P $T0 4 + .cbParams + =
STACK WIN 4 2b335 67 e 0 c 0 0 0 1 $T0 $ebp = $eip $T0 4 + ^ = $ebp $T0 ^ = $esp $T0 8 + = $L $T0 .cbSavedRegs - = $P $T0 4 + .cbParams + =
STACK WIN 4 2b33e 5a 5 0 c 4 0 0 1 $T0 $ebp = $eip $T0 4 + ^ = $ebp $T0 ^ = $esp $T0 8 + = $L $T0 .cbSavedRegs - = $P $T0 4 + .cbParams + = $ebx $T0 8 - ^ =
STACK WIN 4 2b33f 57 4 0 c 8 0 0 1 $T0 $ebp = $eip $T0 4 + ^ = $ebp $T0 ^ = $esp $T0 8 + = $L $T0 .cbSavedRegs - = $P $T0 4 + .cbParams + = $ebx $T0 8 - ^ =
STACK WIN 4 2b343 50 0 0 c c 0 0 1 $T0 $ebp = $eip $T0 4 + ^ = $ebp $T0 ^ = $esp $T0 8 + = $L $T0 .cbSavedRegs - = $P $T0 4 + .cbParams + = $ebx $T0 8 - ^ =
STACK WIN 4 16473 5f 10 0 10 0 0 0 1 $T0 $ebp = $eip $T0 4 + ^ = $ebp $T0 ^ = $esp $T0 8 + = $L $T0 .cbSavedRegs - = $P $T0 4 + .cbParams + =
STACK WIN 4 16479 47 a 0 10 4 0 0 1 $T0 $ebp = $eip $T0 4 + ^ = $ebp $T0 ^ = $esp $T0 8 + = $L $T0 .cbSavedRegs - = $P $T0 4 + .cbParams + = $ebx $T0 8 - ^ =
STACK WIN 4 1647a 45 9 0 10 8 0 0 1 $T0 $ebp = $eip $T0 4 + ^ = $ebp $T0 ^ = $esp $T0 8 + = $L $T0 .cbSavedRegs - = $P $T0 4 + .cbParams + = $ebx $T0 8 - ^ =
STACK WIN 4 16483 3b 0 0 10 c 0 0 1 $T0 $ebp = $eip $T0 4 + ^ = $ebp $T0 ^ = $esp $T0 8 + = $L $T0 .cbSavedRegs - = $P $T0 4 + .cbParams + = $ebx $T0 8 - ^ =
STACK WIN 4 1697f 66 7 0 c 0 8 0 1 $T0 $ebp = $eip $T0 4 + ^ = $ebp $T0 ^ = $esp $T0 8 + = $L $T0 .cbSavedRegs - = $P $T0 4 + .cbParams + =
STACK WIN 4 16996 47 0 0 c 4 8 0 1 $T0 $ebp = $eip $T0 4 + ^ = $ebp $T0 ^ = $esp $T0 8 + = $L $T0 .cbSavedRegs - = $P $T0 4 + .cbParams + =
STACK WIN 4 1699b 39 0 0 c 8 8 0 1 $T0 $ebp = $eip $T0 4 + ^ = $ebp $T0 ^ = $esp $T0 8 + = $L $T0 .cbSavedRegs - = $P $T0 4 + .cbParams + =
STACK WIN 4 2c59b 87 c 0 c 0 0 0 1 $T0 $ebp = $eip $T0 4 + ^ = $ebp $T0 ^ = $esp $T0 8 + = $L $T0 .cbSavedRegs - = $P $T0 4 + .cbParams + =
STACK WIN 4 2c5a6 78 1 0 c 4 0 0 1 $T0 $ebp = $eip $T0 4 + ^ = $ebp $T0 ^ = $esp $T0 8 + = $L $T0 .cbSavedRegs - = $P $T0 4 + .cbParams + = $ebx $T0 8 - ^ =
STACK WIN 4 2c5a7 76 0 0 c 8 0 0 1 $T0 $ebp = $eip $T0 4 + ^ = $ebp $T0 ^ = $esp $T0 8 + = $L $T0 .cbSavedRegs - = $P $T0 4 + .cbParams + = $ebx $T0 8 - ^ =
STACK WIN 4 2c5be 5a 0 0 c c 0 0 1 $T0 $ebp = $eip $T0 4 + ^ = $ebp $T0 ^ = $esp $T0 8 + = $L $T0 .cbSavedRegs - = $P $T0 4 + .cbParams + = $ebx $T0 8 - ^ =
STACK WIN 4 2f70b 90 6 0 1c 0 0 0 1 $T0 $ebp = $eip $T0 4 + ^ = $ebp $T0 ^ = $esp $T0 8 + = $L $T0 .cbSavedRegs - = $P $T0 4 + .cbParams + =
STACK WIN 4 2f711 86 0 0 1c 4 0 0 1 $T0 $ebp = $eip $T0 4 + ^ = $ebp $T0 ^ = $esp $T0 8 + = $L $T0 .cbSavedRegs - = $P $T0 4 + .cbParams + =
STACK WIN 4 2f737 5f 0 0 1c 8 0 0 1 $T0 $ebp = $eip $T0 4 + ^ = $ebp $T0 ^ = $esp $T0 8 + = $L $T0 .cbSavedRegs - = $P $T0 4 + .cbParams + =
STACK WIN 4 2f695 bd 8 0 10 0 10 0 1 $T0 $ebp = $eip $T0 4 + ^ = $ebp $T0 ^ = $esp $T0 8 + = $L $T0 .cbSavedRegs - = $P $T0 4 + .cbParams + =
STACK WIN 4 2f6ca 81 0 0 10 4 10 0 1 $T0 $ebp = $eip $T0 4 + ^ = $ebp $T0 ^ = $esp $T0 8 + = $L $T0 .cbSavedRegs - = $P $T0 4 + .cbParams + =
STACK WIN 4 2f6ce 7b 0 0 10 8 10 0 1 $T0 $ebp = $eip $T0 4 + ^ = $ebp $T0 ^ = $esp $T0 8 + = $L $T0 .cbSavedRegs - = $P $T0 4 + .cbParams + =
STACK WIN 4 1642c 42 5 0 8 0 0 0 1 $T0 $ebp = $eip $T0 4 + ^ = $ebp $T0 ^ = $esp $T0 8 + = $L $T0 .cbSavedRegs - = $P $T0 4 + .cbParams + =
STACK WIN 4 1643c 2d 0 0 8 4 0 0 1 $T0 $ebp = $eip $T0 4 + ^ = $ebp $T0 ^ = $esp $T0 8 + = $L $T0 .cbSavedRegs - = $P $T0 4 + .cbParams + =
STACK WIN 4 16440 28 0 0 8 8 0 0 1 $T0 $ebp = $eip $T0 4 + ^ = $ebp $T0 ^ = $esp $T0 8 + = $L $T0 .cbSavedRegs - = $P $T0 4 + .cbParams + =
STACK WIN 4 168bb 52 11 0 c 0 8 0 1 $T0 $ebp = $eip $T0 4 + ^ = $ebp $T0 ^ = $esp $T0 8 + = $L $T0 .cbSavedRegs - = $P $T0 4 + .cbParams + =
STACK WIN 4 168c3 46 9 0 c 4 8 0 1 $T0 $ebp = $eip $T0 4 + ^ = $ebp $T0 ^ = $esp $T0 8 + = $L $T0 .cbSavedRegs - = $P $T0 4 + .cbParams + = $ebx $T0 16 - ^ =
STACK WIN 4 168c4 44 8 0 c 8 8 0 1 $T0 $ebp = $eip $T0 4 + ^ = $ebp $T0 ^ = $esp $T0 8 + = $L $T0 .cbSavedRegs - = $P $T0 4 + .cbParams + = $ebx $T0 16 - ^ =
STACK WIN 4 168cc 3b 0 0 c c 8 0 1 $T0 $ebp = $eip $T0 4 + ^ = $ebp $T0 ^ = $esp $T0 8 + = $L $T0 .cbSavedRegs - = $P $T0 4 + .cbParams + = $ebx $T0 16 - ^ =
STACK WIN 4 16396 91 a 0 4 0 10 0 1 $T0 $ebp = $eip $T0 4 + ^ = $ebp $T0 ^ = $esp $T0 8 + = $L $T0 .cbSavedRegs - = $P $T0 4 + .cbParams + =
STACK WIN 4 1639f 5c 1 0 4 4 10 0 1 $T0 $ebp = $eip $T0 4 + ^ = $ebp $T0 ^ = $esp $T0 8 + = $L $T0 .cbSavedRegs - = $P $T0 4 + .cbParams + = $ebx $T0 24 - ^ =
STACK WIN 4 163a0 5a 0 0 4 8 10 0 1 $T0 $ebp = $eip $T0 4 + ^ = $ebp $T0 ^ = $esp $T0 8 + = $L $T0 .cbSavedRegs - = $P $T0 4 + .cbParams + = $ebx $T0 24 - ^ =
STACK WIN 4 163bf 3a 0 0 4 c 10 0 1 $T0 $ebp = $eip $T0 4 + ^ = $ebp $T0 ^ = $esp $T0 8 + = $L $T0 .cbSavedRegs - = $P $T0 4 + .cbParams + = $ebx $T0 24 - ^ =
STACK WIN 4 165e9 13 0 0 0 0 0 0 1 $T2 $esp .cbLocals + .cbSavedRegs + = $T0 .raSearchStart = $eip $T0 ^ = $esp $T0 4 + =
STACK WIN 4 16b75 415 21 0 4 0 4a8 0 1 $T0 $ebp = $eip $T0 4 + ^ = $ebp $T0 ^ = $esp $T0 8 + = $L $T0 .cbSavedRegs - = $P $T0 4 + .cbParams + =
STACK WIN 4 16b8c 3f5 a 0 4 4 4a8 0 1 $T0 $ebp = $eip $T0 4 + ^ = $ebp $T0 ^ = $esp $T0 8 + = $L $T0 .cbSavedRegs - = $P $T0 4 + .cbParams + = $ebx $T0 1200 - ^ =
STACK WIN 4 16b95 3eb 1 0 4 8 4a8 0 1 $T0 $ebp = $eip $T0 4 + ^ = $ebp $T0 ^ = $esp $T0 8 + = $L $T0 .cbSavedRegs - = $P $T0 4 + .cbParams + = $ebx $T0 1200 - ^ =
STACK WIN 4 16b96 3e9 0 0 4 c 4a8 0 1 $T0 $ebp = $eip $T0 4 + ^ = $ebp $T0 ^ = $esp $T0 8 + = $L $T0 .cbSavedRegs - = $P $T0 4 + .cbParams + = $ebx $T0 1200 - ^ =
STACK WIN 4 164cd c4 c 0 0 8 18 0 1 $T0 $ebp = $eip $T0 4 + ^ = $ebp $T0 ^ = $esp $T0 8 + = $L $T0 .cbSavedRegs - = $P $T0 4 + .cbParams + =
STACK WIN 4 46631 e 0 0 0 8 18 0 1 $T0 $ebp = $T2 $esp = $T1 .raSearchStart = $eip $T1 ^ = $ebp $ebp = $esp $T1 4 + = $L $T0 .cbSavedRegs - = $P $T0 4 + .cbParams + =
STACK WIN 4 2b553 b8 8 0 8 0 8 0 1 $T0 $ebp = $eip $T0 4 + ^ = $ebp $T0 ^ = $esp $T0 8 + = $L $T0 .cbSavedRegs - = $P $T0 4 + .cbParams + =
STACK WIN 4 2b55b ac 0 0 8 4 8 0 1 $T0 $ebp = $eip $T0 4 + ^ = $ebp $T0 ^ = $esp $T0 8 + = $L $T0 .cbSavedRegs - = $P $T0 4 + .cbParams + = $ebx $T0 16 - ^ =
STACK WIN 4 2b57d 86 0 0 8 8 8 0 1 $T0 $ebp = $eip $T0 4 + ^ = $ebp $T0 ^ = $esp $T0 8 + = $L $T0 .cbSavedRegs - = $P $T0 4 + .cbParams + = $ebx $T0 16 - ^ =
STACK WIN 4 2b57e 82 0 0 8 c 8 0 1 $T0 $ebp = $eip $T0 4 + ^ = $ebp $T0 ^ = $esp $T0 8 + = $L $T0 .cbSavedRegs - = $P $T0 4 + .cbParams + = $ebx $T0 16 - ^ =
STACK WIN 4 16662 f2 b 0 14 0 30 0 1 $T0 $ebp = $eip $T0 4 + ^ = $ebp $T0 ^ = $esp $T0 8 + = $L $T0 .cbSavedRegs - = $P $T0 4 + .cbParams + =
STACK WIN 4 1666b e5 2 0 14 4 30 0 1 $T0 $ebp = $eip $T0 4 + ^ = $ebp $T0 ^ = $esp $T0 8 + = $L $T0 .cbSavedRegs - = $P $T0 4 + .cbParams + = $ebx $T0 56 - ^ =
STACK WIN 4 1666c e3 1 0 14 8 30 0 1 $T0 $ebp = $eip $T0 4 + ^ = $ebp $T0 ^ = $esp $T0 8 + = $L $T0 .cbSavedRegs - = $P $T0 4 + .cbParams + = $ebx $T0 56 - ^ =
STACK WIN 4 1666d e1 0 0 14 c 30 0 1 $T0 $ebp = $eip $T0 4 + ^ = $ebp $T0 ^ = $esp $T0 8 + = $L $T0 .cbSavedRegs - = $P $T0 4 + .cbParams + = $ebx $T0 56 - ^ =
STACK WIN 4 16879 b7 f 0 10 0 14 0 1 $T0 $ebp = $eip $T0 4 + ^ = $ebp $T0 ^ = $esp $T0 8 + = $L $T0 .cbSavedRegs - = $P $T0 4 + .cbParams + =
STACK WIN 4 16884 a8 4 0 10 4 14 0 1 $T0 $ebp = $eip $T0 4 + ^ = $ebp $T0 ^ = $esp $T0 8 + = $L $T0 .cbSavedRegs - = $P $T0 4 + .cbParams + = $ebx $T0 28 - ^ =
STACK WIN 4 16888 a3 0 0 10 8 14 0 1 $T0 $ebp = $eip $T0 4 + ^ = $ebp $T0 ^ = $esp $T0 8 + = $L $T0 .cbSavedRegs - = $P $T0 4 + .cbParams + = $ebx $T0 28 - ^ =
STACK WIN 4 16a5c 79 0 0 10 c 14 0 1 $T0 $ebp = $eip $T0 4 + ^ = $ebp $T0 ^ = $esp $T0 8 + = $L $T0 .cbSavedRegs - = $P $T0 4 + .cbParams + = $ebx $T0 28 - ^ =
STACK WIN 4 16562 8d c 0 8 8 24 0 1 $T0 $ebp = $eip $T0 4 + ^ = $ebp $T0 ^ = $esp $T0 8 + = $L $T0 .cbSavedRegs - = $P $T0 4 + .cbParams + =
STACK WIN 4 46678 4 0 0 8 8 24 0 1 $T0 $ebp = $T2 $esp = $T1 .raSearchStart = $eip $T1 ^ = $ebp $ebp = $esp $T1 4 + = $L $T0 .cbSavedRegs - = $P $T0 4 + .cbParams + =
STACK WIN 4 167d7 9a c 0 10 8 28 0 1 $T0 $ebp = $eip $T0 4 + ^ = $ebp $T0 ^ = $esp $T0 8 + = $L $T0 .cbSavedRegs - = $P $T0 4 + .cbParams + =
STACK WIN 4 466a9 4 0 0 10 8 28 0 1 $T0 $ebp = $T2 $esp = $T1 .raSearchStart = $eip $T1 ^ = $ebp $ebp = $esp $T1 4 + = $L $T0 .cbSavedRegs - = $P $T0 4 + .cbParams + =
STACK WIN 4 15120 a1 c 0 c 8 28 0 1 $T0 $ebp = $eip $T0 4 + ^ = $ebp $T0 ^ = $esp $T0 8 + = $L $T0 .cbSavedRegs - = $P $T0 4 + .cbParams + =
STACK WIN 4 466d4 4 0 0 c 8 28 0 1 $T0 $ebp = $T2 $esp = $T1 .raSearchStart = $eip $T1 ^ = $ebp $ebp = $esp $T1 4 + = $L $T0 .cbSavedRegs - = $P $T0 4 + .cbParams + =
STACK WIN 4 6bc3f 63 c 0 0 8 24 0 1 $T0 $ebp = $eip $T0 4 + ^ = $ebp $T0 ^ = $esp $T0 8 + = $L $T0 .cbSavedRegs - = $P $T0 4 + .cbParams + =
STACK WIN 4 6bc8a 4 0 0 0 8 24 0 1 $T0 $ebp = $T2 $esp = $T1 .raSearchStart = $eip $T1 ^ = $ebp $ebp = $esp $T1 4 + = $L $T0 .cbSavedRegs - = $P $T0 4 + .cbParams + =
STACK WIN 4 6bcc1 a9 8 0 0 0 8 0 1 $T0 $ebp = $eip $T0 4 + ^ = $ebp $T0 ^ = $esp $T0 8 + = $L $T0 .cbSavedRegs - = $P $T0 4 + .cbParams + =
STACK WIN 4 6bcc9 9f 0 0 0 4 8 0 1 $T0 $ebp = $eip $T0 4 + ^ = $ebp $T0 ^ = $esp $T0 8 + = $L $T0 .cbSavedRegs - = $P $T0 4 + .cbParams + =
STACK WIN 4 6bcf0 77 0 0 0 8 8 0 1 $T0 $ebp = $eip $T0 4 + ^ = $ebp $T0 ^ = $esp $T0 8 + = $L $T0 .cbSavedRegs - = $P $T0 4 + .cbParams + =
STACK WIN 4 2b38d 214 e 0 0 0 24 0 1 $T0 $ebp = $eip $T0 4 + ^ = $ebp $T0 ^ = $esp $T0 8 + = $L $T0 .cbSavedRegs - = $P $T0 4 + .cbParams + =
STACK WIN 4 2b39b 1ff 0 0 0 4 24 0 1 $T0 $ebp = $eip $T0 4 + ^ = $ebp $T0 ^ = $esp $T0 8 + = $L $T0 .cbSavedRegs - = $P $T0 4 + .cbParams + = $ebx $T0 44 - ^ =
STACK WIN 4 2b3dd 1b6 0 0 0 8 24 0 1 $T0 $ebp = $eip $T0 4 + ^ = $ebp $T0 ^ = $esp $T0 8 + = $L $T0 .cbSavedRegs - = $P $T0 4 + .cbParams + = $ebx $T0 44 - ^ =
STACK WIN 4 2b3de 1b4 0 0 0 c 24 0 1 $T0 $ebp = $eip $T0 4 + ^ = $ebp $T0 ^ = $esp $T0 8 + = $L $T0 .cbSavedRegs - = $P $T0 4 + .cbParams + = $ebx $T0 44 - ^ =
STACK WIN 4 6be06 7f 3 0 0 0 0 0 1 $T2 $esp .cbLocals + .cbSavedRegs + = $T0 .raSearchStart = $eip $T0 ^ = $esp $T0 4 + =
STACK WIN 4 6be09 7b 0 0 0 4 0 0 1 $T2 $esp .cbLocals + .cbSavedRegs + = $T0 .raSearchStart = $eip $T0 ^ = $esp $T0 4 + =
STACK WIN 4 6be41 42 0 0 0 8 0 0 1 $T2 $esp .cbLocals + .cbSavedRegs + = $T0 .raSearchStart = $eip $T0 ^ = $esp $T0 4 + =
STACK WIN 4 6be8a 33 5 0 4 0 0 0 1 $T0 $ebp = $eip $T0 4 + ^ = $ebp $T0 ^ = $esp $T0 8 + = $L $T0 .cbSavedRegs - = $P $T0 4 + .cbParams + =
STACK WIN 4 1204d 44 5 0 c 0 0 0 1 $T0 $ebp = $eip $T0 4 + ^ = $ebp $T0 ^ = $esp $T0 8 + = $L $T0 .cbSavedRegs - = $P $T0 4 + .cbParams + =
STACK WIN 4 12061 1c 0 0 c 4 0 0 1 $T0 $ebp = $eip $T0 4 + ^ = $ebp $T0 ^ = $esp $T0 8 + = $L $T0 .cbSavedRegs - = $P $T0 4 + .cbParams + =
STACK WIN 4 6bec2 70 7 0 4 0 0 0 1 $T0 $ebp = $eip $T0 4 + ^ = $ebp $T0 ^ = $esp $T0 8 + = $L $T0 .cbSavedRegs - = $P $T0 4 + .cbParams + =
STACK WIN 4 6bec8 66 1 0 4 4 0 0 1 $T0 $ebp = $eip $T0 4 + ^ = $ebp $T0 ^ = $esp $T0 8 + = $L $T0 .cbSavedRegs - = $P $T0 4 + .cbParams + =
STACK WIN 4 6bec9 64 0 0 4 8 0 0 1 $T0 $ebp = $eip $T0 4 + ^ = $ebp $T0 ^ = $esp $T0 8 + = $L $T0 .cbSavedRegs - = $P $T0 4 + .cbParams + =
STACK WIN 4 6bf37 105 b 0 4 0 0 0 1 $T0 $ebp = $eip $T0 4 + ^ = $ebp $T0 ^ = $esp $T0 8 + = $L $T0 .cbSavedRegs - = $P $T0 4 + .cbParams + =
STACK WIN 4 6bf3d fb 5 0 4 4 0 0 1 $T0 $ebp = $eip $T0 4 + ^ = $ebp $T0 ^ = $esp $T0 8 + = $L $T0 .cbSavedRegs - = $P $T0 4 + .cbParams + = $ebx $T0 8 - ^ =
STACK WIN 4 6bf3e f9 4 0 4 8 0 0 1 $T0 $ebp = $eip $T0 4 + ^ = $ebp $T0 ^ = $esp $T0 8 + = $L $T0 .cbSavedRegs - = $P $T0 4 + .cbParams + = $ebx $T0 8 - ^ =
STACK WIN 4 6bf42 f4 0 0 4 c 0 0 1 $T0 $ebp = $eip $T0 4 + ^ = $ebp $T0 ^ = $esp $T0 8 + = $L $T0 .cbSavedRegs - = $P $T0 4 + .cbParams + = $ebx $T0 8 - ^ =
STACK WIN 4 6c041 167 10 0 8 0 4 0 1 $T0 $ebp = $eip $T0 4 + ^ = $ebp $T0 ^ = $esp $T0 8 + = $L $T0 .cbSavedRegs - = $P $T0 4 + .cbParams + =
STACK WIN 4 6c04f 155 2 0 8 4 4 0 1 $T0 $ebp = $eip $T0 4 + ^ = $ebp $T0 ^ = $esp $T0 8 + = $L $T0 .cbSavedRegs - = $P $T0 4 + .cbParams + = $ebx $T0 12 - ^ =
STACK WIN 4 6c050 153 1 0 8 8 4 0 1 $T0 $ebp = $eip $T0 4 + ^ = $ebp $T0 ^ = $esp $T0 8 + = $L $T0 .cbSavedRegs - = $P $T0 4 + .cbParams + = $ebx $T0 12 - ^ =
STACK WIN 4 6c051 151 0 0 8 c 4 0 1 $T0 $ebp = $eip $T0 4 + ^ = $ebp $T0 ^ = $esp $T0 8 + = $L $T0 .cbSavedRegs - = $P $T0 4 + .cbParams + = $ebx $T0 12 - ^ =
STACK WIN 4 6c1ad 165 5 0 18 0 0 0 1 $T0 $ebp = $eip $T0 4 + ^ = $ebp $T0 ^ = $esp $T0 8 + = $L $T0 .cbSavedRegs - = $P $T0 4 + .cbParams + =
STACK WIN 4 6c1c9 df 0 0 18 4 0 0 1 $T0 $ebp = $eip $T0 4 + ^ = $ebp $T0 ^ = $esp $T0 8 + = $L $T0 .cbSavedRegs - = $P $T0 4 + .cbParams + =
STACK WIN 4 6c1cd da 0 0 18 8 0 0 1 $T0 $ebp = $eip $T0 4 + ^ = $ebp $T0 ^ = $esp $T0 8 + = $L $T0 .cbSavedRegs - = $P $T0 4 + .cbParams + =
STACK WIN 4 6c317 f8 6 0 24 0 0 0 1 $T0 $ebp = $eip $T0 4 + ^ = $ebp $T0 ^ = $esp $T0 8 + = $L $T0 .cbSavedRegs - = $P $T0 4 + .cbParams + =
STACK WIN 4 6c31d ee 0 0 24 4 0 0 1 $T0 $ebp = $eip $T0 4 + ^ = $ebp $T0 ^ = $esp $T0 8 + = $L $T0 .cbSavedRegs - = $P $T0 4 + .cbParams + = $ebx $T0 8 - ^ =
STACK WIN 4 6c34d bd 0 0 24 8 0 0 1 $T0 $ebp = $eip $T0 4 + ^ = $ebp $T0 ^ = $esp $T0 8 + = $L $T0 .cbSavedRegs - = $P $T0 4 + .cbParams + = $ebx $T0 8 - ^ =
STACK WIN 4 6c351 b6 0 0 24 c 0 0 1 $T0 $ebp = $eip $T0 4 + ^ = $ebp $T0 ^ = $esp $T0 8 + = $L $T0 .cbSavedRegs - = $P $T0 4 + .cbParams + = $ebx $T0 8 - ^ =
STACK WIN 4 6c414 15 5 0 4 0 0 0 1 $T0 $ebp = $eip $T0 4 + ^ = $ebp $T0 ^ = $esp $T0 8 + = $L $T0 .cbSavedRegs - = $P $T0 4 + .cbParams + =
STACK WIN 4 6c42e 16 5 0 8 0 0 0 1 $T0 $ebp = $eip $T0 4 + ^ = $ebp $T0 ^ = $esp $T0 8 + = $L $T0 .cbSavedRegs - = $P $T0 4 + .cbParams + =
STACK WIN 4 6c449 22 5 0 c 0 0 0 1 $T0 $ebp = $eip $T0 4 + ^ = $ebp $T0 ^ = $esp $T0 8 + = $L $T0 .cbSavedRegs - = $P $T0 4 + .cbParams + =
STACK WIN 4 6c470 22 5 0 c 0 0 0 1 $T0 $ebp = $eip $T0 4 + ^ = $ebp $T0 ^ = $esp $T0 8 + = $L $T0 .cbSavedRegs - = $P $T0 4 + .cbParams + =
STACK WIN 4 6c497 9a c 0 c 0 4 0 1 $T0 $ebp = $eip $T0 4 + ^ = $ebp $T0 ^ = $esp $T0 8 + = $L $T0 .cbSavedRegs - = $P $T0 4 + .cbParams + =
STACK WIN 4 6c4a2 83 1 0 c 4 4 0 1 $T0 $ebp = $eip $T0 4 + ^ = $ebp $T0 ^ = $esp $T0 8 + = $L $T0 .cbSavedRegs - = $P $T0 4 + .cbParams + = $ebx $T0 12 - ^ =
STACK WIN 4 6c4a3 81 0 0 c 8 4 0 1 $T0 $ebp = $eip $T0 4 + ^ = $ebp $T0 ^ = $esp $T0 8 + = $L $T0 .cbSavedRegs - = $P $T0 4 + .cbParams + = $ebx $T0 12 - ^ =
STACK WIN 4 6c4d1 52 0 0 c c 4 0 1 $T0 $ebp = $eip $T0 4 + ^ = $ebp $T0 ^ = $esp $T0 8 + = $L $T0 .cbSavedRegs - = $P $T0 4 + .cbParams + = $ebx $T0 12 - ^ =
STACK WIN 4 6c536 22 5 0 c 0 0 0 1 $T0 $ebp = $eip $T0 4 + ^ = $ebp $T0 ^ = $esp $T0 8 + = $L $T0 .cbSavedRegs - = $P $T0 4 + .cbParams + =
STACK WIN 4 6c55d 30 5 0 10 0 0 0 1 $T0 $ebp = $eip $T0 4 + ^ = $ebp $T0 ^ = $esp $T0 8 + = $L $T0 .cbSavedRegs - = $P $T0 4 + .cbParams + =
STACK WIN 4 6c592 50 7 0 c 0 0 0 1 $T0 $ebp = $eip $T0 4 + ^ = $ebp $T0 ^ = $esp $T0 8 + = $L $T0 .cbSavedRegs - = $P $T0 4 + .cbParams + =
STACK WIN 4 6c598 42 1 0 c 4 0 0 1 $T0 $ebp = $eip $T0 4 + ^ = $ebp $T0 ^ = $esp $T0 8 + = $L $T0 .cbSavedRegs - = $P $T0 4 + .cbParams + =
STACK WIN 4 6c599 40 0 0 c 8 0 0 1 $T0 $ebp = $eip $T0 4 + ^ = $ebp $T0 ^ = $esp $T0 8 + = $L $T0 .cbSavedRegs - = $P $T0 4 + .cbParams + =
STACK WIN 4 6c5e7 3e 1a 0 14 0 0 0 1 $T0 $ebp = $eip $T0 4 + ^ = $ebp $T0 ^ = $esp $T0 8 + = $L $T0 .cbSavedRegs - = $P $T0 4 + .cbParams + =
STACK WIN 4 6c601 20 0 0 14 4 0 0 1 $T0 $ebp = $eip $T0 4 + ^ = $ebp $T0 ^ = $esp $T0 8 + = $L $T0 .cbSavedRegs - = $P $T0 4 + .cbParams + =
STACK WIN 4 6c62a 17b 15 0 14 0 c 0 1 $T0 $ebp = $eip $T0 4 + ^ = $ebp $T0 ^ = $esp $T0 8 + = $L $T0 .cbSavedRegs - = $P $T0 4 + .cbParams + =
STACK WIN 4 6c639 168 6 0 14 4 c 0 1 $T0 $ebp = $eip $T0 4 + ^ = $ebp $T0 ^ = $esp $T0 8 + = $L $T0 .cbSavedRegs - = $P $T0 4 + .cbParams + = $ebx $T0 20 - ^ =
STACK WIN 4 6c63e 162 1 0 14 8 c 0 1 $T0 $ebp = $eip $T0 4 + ^ = $ebp $T0 ^ = $esp $T0 8 + = $L $T0 .cbSavedRegs - = $P $T0 4 + .cbParams + = $ebx $T0 20 - ^ =
STACK WIN 4 6c63f 15e 0 0 14 c c 0 1 $T0 $ebp = $eip $T0 4 + ^ = $ebp $T0 ^ = $esp $T0 8 + = $L $T0 .cbSavedRegs - = $P $T0 4 + .cbParams + = $ebx $T0 20 - ^ =
STACK WIN 4 6c7a6 177 d 0 28 0 4 0 1 $T0 $ebp = $eip $T0 4 + ^ = $ebp $T0 ^ = $esp $T0 8 + = $L $T0 .cbSavedRegs - = $P $T0 4 + .cbParams + =
STACK WIN 4 6c7ad 16c 6 0 28 4 4 0 1 $T0 $ebp = $eip $T0 4 + ^ = $ebp $T0 ^ = $esp $T0 8 + = $L $T0 .cbSavedRegs - = $P $T0 4 + .cbParams + =
STACK WIN 4 6c7b3 165 0 0 28 8 4 0 1 $T0 $ebp = $eip $T0 4 + ^ = $ebp $T0 ^ = $esp $T0 8 + = $L $T0 .cbSavedRegs - = $P $T0 4 + .cbParams + =
STACK WIN 4 6c922 177 d 0 28 0 4 0 1 $T0 $ebp = $eip $T0 4 + ^ = $ebp $T0 ^ = $esp $T0 8 + = $L $T0 .cbSavedRegs - = $P $T0 4 + .cbParams + =
STACK WIN 4 6c929 16c 6 0 28 4 4 0 1 $T0 $ebp = $eip $T0 4 + ^ = $ebp $T0 ^ = $esp $T0 8 + = $L $T0 .cbSavedRegs - = $P $T0 4 + .cbParams + =
STACK WIN 4 6c92f 165 0 0 28 8 4 0 1 $T0 $ebp = $eip $T0 4 + ^ = $ebp $T0 ^ = $esp $T0 8 + = $L $T0 .cbSavedRegs - = $P $T0 4 + .cbParams + =
STACK WIN 4 6ca9e 195 10 0 18 0 48 0 1 $T0 $ebp = $eip $T0 4 + ^ = $ebp $T0 ^ = $esp $T0 8 + = $L $T0 .cbSavedRegs - = $P $T0 4 + .cbParams + =
STACK WIN 4 6caa7 188 7 0 18 4 48 0 1 $T0 $ebp = $eip $T0 4 + ^ = $ebp $T0 ^ = $esp $T0 8 + = $L $T0 .cbSavedRegs - = $P $T0 4 + .cbParams + = $ebx $T0 80 - ^ =
STACK WIN 4 6caae 180 0 0 18 8 48 0 1 $T0 $ebp = $eip $T0 4 + ^ = $ebp $T0 ^ = $esp $T0 8 + = $L $T0 .cbSavedRegs - = $P $T0 4 + .cbParams + = $ebx $T0 80 - ^ =
STACK WIN 4 6cabd 170 0 0 18 c 48 0 1 $T0 $ebp = $eip $T0 4 + ^ = $ebp $T0 ^ = $esp $T0 8 + = $L $T0 .cbSavedRegs - = $P $T0 4 + .cbParams + = $ebx $T0 80 - ^ =
STACK WIN 4 6cc38 198 10 0 18 0 48 0 1 $T0 $ebp = $eip $T0 4 + ^ = $ebp $T0 ^ = $esp $T0 8 + = $L $T0 .cbSavedRegs - = $P $T0 4 + .cbParams + =
STACK WIN 4 6cc41 18b 7 0 18 4 48 0 1 $T0 $ebp = $eip $T0 4 + ^ = $ebp $T0 ^ = $esp $T0 8 + = $L $T0 .cbSavedRegs - = $P $T0 4 + .cbParams + = $ebx $T0 80 - ^ =
STACK WIN 4 6cc48 183 0 0 18 8 48 0 1 $T0 $ebp = $eip $T0 4 + ^ = $ebp $T0 ^ = $esp $T0 8 + = $L $T0 .cbSavedRegs - = $P $T0 4 + .cbParams + = $ebx $T0 80 - ^ =
STACK WIN 4 6cc57 173 0 0 18 c 48 0 1 $T0 $ebp = $eip $T0 4 + ^ = $ebp $T0 ^ = $esp $T0 8 + = $L $T0 .cbSavedRegs - = $P $T0 4 + .cbParams + = $ebx $T0 80 - ^ =
STACK WIN 4 6cdd5 115c 1b 0 14 0 254 0 1 $T0 $ebp = $eip $T0 4 + ^ = $ebp $T0 ^ = $esp $T0 8 + = $L $T0 .cbSavedRegs - = $P $T0 4 + .cbParams + =
STACK WIN 4 6cde9 1144 7 0 14 4 254 0 1 $T0 $ebp = $eip $T0 4 + ^ = $ebp $T0 ^ = $esp $T0 8 + = $L $T0 .cbSavedRegs - = $P $T0 4 + .cbParams + = $ebx $T0 604 - ^ =
STACK WIN 4 6cded 113f 3 0 14 8 254 0 1 $T0 $ebp = $eip $T0 4 + ^ = $ebp $T0 ^ = $esp $T0 8 + = $L $T0 .cbSavedRegs - = $P $T0 4 + .cbParams + = $ebx $T0 604 - ^ =
STACK WIN 4 6cdf0 113b 0 0 14 c 254 0 1 $T0 $ebp = $eip $T0 4 + ^ = $ebp $T0 ^ = $esp $T0 8 + = $L $T0 .cbSavedRegs - = $P $T0 4 + .cbParams + = $ebx $T0 604 - ^ =
STACK WIN 4 6df34 115c 1b 0 14 0 274 0 1 $T0 $ebp = $eip $T0 4 + ^ = $ebp $T0 ^ = $esp $T0 8 + = $L $T0 .cbSavedRegs - = $P $T0 4 + .cbParams + =
STACK WIN 4 6df48 1144 7 0 14 4 274 0 1 $T0 $ebp = $eip $T0 4 + ^ = $ebp $T0 ^ = $esp $T0 8 + = $L $T0 .cbSavedRegs - = $P $T0 4 + .cbParams + = $ebx $T0 636 - ^ =
STACK WIN 4 6df4c 113f 3 0 14 8 274 0 1 $T0 $ebp = $eip $T0 4 + ^ = $ebp $T0 ^ = $esp $T0 8 + = $L $T0 .cbSavedRegs - = $P $T0 4 + .cbParams + = $ebx $T0 636 - ^ =
STACK WIN 4 6df4f 113b 0 0 14 c 274 0 1 $T0 $ebp = $eip $T0 4 + ^ = $ebp $T0 ^ = $esp $T0 8 + = $L $T0 .cbSavedRegs - = $P $T0 4 + .cbParams + = $ebx $T0 636 - ^ =
STACK WIN 4 335b7 1d 5 0 c 0 0 0 1 $T0 $ebp = $eip $T0 4 + ^ = $ebp $T0 ^ = $esp $T0 8 + = $L $T0 .cbSavedRegs - = $P $T0 4 + .cbParams + =
STACK WIN 4 6f093 357 13 0 18 0 10 0 1 $T0 $ebp = $eip $T0 4 + ^ = $ebp $T0 ^ = $esp $T0 8 + = $L $T0 .cbSavedRegs - = $P $T0 4 + .cbParams + =
STACK WIN 4 6f09f 347 7 0 18 4 10 0 1 $T0 $ebp = $eip $T0 4 + ^ = $ebp $T0 ^ = $esp $T0 8 + = $L $T0 .cbSavedRegs - = $P $T0 4 + .cbParams + = $ebx $T0 24 - ^ =
STACK WIN 4 6f0a2 343 4 0 18 8 10 0 1 $T0 $ebp = $eip $T0 4 + ^ = $ebp $T0 ^ = $esp $T0 8 + = $L $T0 .cbSavedRegs - = $P $T0 4 + .cbParams + = $ebx $T0 24 - ^ =
STACK WIN 4 6f0a6 33e 0 0 18 c 10 0 1 $T0 $ebp = $eip $T0 4 + ^ = $ebp $T0 ^ = $esp $T0 8 + = $L $T0 .cbSavedRegs - = $P $T0 4 + .cbParams + = $ebx $T0 24 - ^ =
STACK WIN 4 6f3ef a6 c 0 10 0 f8 0 1 $T0 $ebp = $eip $T0 4 + ^ = $ebp $T0 ^ = $esp $T0 8 + = $L $T0 .cbSavedRegs - = $P $T0 4 + .cbParams + =
STACK WIN 4 6f3fb 96 0 0 10 4 f8 0 1 $T0 $ebp = $eip $T0 4 + ^ = $ebp $T0 ^ = $esp $T0 8 + = $L $T0 .cbSavedRegs - = $P $T0 4 + .cbParams + =
STACK WIN 4 6f49a 104 19 0 8 0 58 0 1 $T0 $ebp = $eip $T0 4 + ^ = $ebp $T0 ^ = $esp $T0 8 + = $L $T0 .cbSavedRegs - = $P $T0 4 + .cbParams + =
STACK WIN 4 6f4a8 ed b 0 8 4 58 0 1 $T0 $ebp = $eip $T0 4 + ^ = $ebp $T0 ^ = $esp $T0 8 + = $L $T0 .cbSavedRegs - = $P $T0 4 + .cbParams + = $ebx $T0 96 - ^ =
STACK WIN 4 6f4a9 eb a 0 8 8 58 0 1 $T0 $ebp = $eip $T0 4 + ^ = $ebp $T0 ^ = $esp $T0 8 + = $L $T0 .cbSavedRegs - = $P $T0 4 + .cbParams + = $ebx $T0 96 - ^ =
STACK WIN 4 6f4b3 e0 0 0 8 c 58 0 1 $T0 $ebp = $eip $T0 4 + ^ = $ebp $T0 ^ = $esp $T0 8 + = $L $T0 .cbSavedRegs - = $P $T0 4 + .cbParams + = $ebx $T0 96 - ^ =
STACK WIN 4 6f5a3 102 8 0 18 0 4 0 1 $T0 $ebp = $eip $T0 4 + ^ = $ebp $T0 ^ = $esp $T0 8 + = $L $T0 .cbSavedRegs - = $P $T0 4 + .cbParams + =
STACK WIN 4 6f5aa f7 1 0 18 4 4 0 1 $T0 $ebp = $eip $T0 4 + ^ = $ebp $T0 ^ = $esp $T0 8 + = $L $T0 .cbSavedRegs - = $P $T0 4 + .cbParams + = $ebx $T0 12 - ^ =
STACK WIN 4 6f5ab f5 0 0 18 8 4 0 1 $T0 $ebp = $eip $T0 4 + ^ = $ebp $T0 ^ = $esp $T0 8 + = $L $T0 .cbSavedRegs - = $P $T0 4 + .cbParams + = $ebx $T0 12 - ^ =
STACK WIN 4 6f602 9d 0 0 18 c 4 0 1 $T0 $ebp = $eip $T0 4 + ^ = $ebp $T0 ^ = $esp $T0 8 + = $L $T0 .cbSavedRegs - = $P $T0 4 + .cbParams + = $ebx $T0 12 - ^ =
STACK WIN 4 6f6aa c5 1a 0 18 0 18 0 1 $T0 $ebp = $eip $T0 4 + ^ = $ebp $T0 ^ = $esp $T0 8 + = $L $T0 .cbSavedRegs - = $P $T0 4 + .cbParams + =
STACK WIN 4 6f6bc af 8 0 18 4 18 0 1 $T0 $ebp = $eip $T0 4 + ^ = $ebp $T0 ^ = $esp $T0 8 + = $L $T0 .cbSavedRegs - = $P $T0 4 + .cbParams + = $ebx $T0 32 - ^ =
STACK WIN 4 6f6bd ad 7 0 18 8 18 0 1 $T0 $ebp = $eip $T0 4 + ^ = $ebp $T0 ^ = $esp $T0 8 + = $L $T0 .cbSavedRegs - = $P $T0 4 + .cbParams + = $ebx $T0 32 - ^ =
STACK WIN 4 6f6c4 a5 0 0 18 c 18 0 1 $T0 $ebp = $eip $T0 4 + ^ = $ebp $T0 ^ = $esp $T0 8 + = $L $T0 .cbSavedRegs - = $P $T0 4 + .cbParams + = $ebx $T0 32 - ^ =
STACK WIN 4 6f774 1c7 16 0 8 0 220 0 1 $T0 $ebp = $eip $T0 4 + ^ = $ebp $T0 ^ = $esp $T0 8 + = $L $T0 .cbSavedRegs - = $P $T0 4 + .cbParams + =
STACK WIN 4 6f785 1ad 5 0 8 4 220 0 1 $T0 $ebp = $eip $T0 4 + ^ = $ebp $T0 ^ = $esp $T0 8 + = $L $T0 .cbSavedRegs - = $P $T0 4 + .cbParams + = $ebx $T0 552 - ^ =
STACK WIN 4 6f786 1ab 4 0 8 8 220 0 1 $T0 $ebp = $eip $T0 4 + ^ = $ebp $T0 ^ = $esp $T0 8 + = $L $T0 .cbSavedRegs - = $P $T0 4 + .cbParams + = $ebx $T0 552 - ^ =
STACK WIN 4 6f78a 1a6 0 0 8 c 220 0 1 $T0 $ebp = $eip $T0 4 + ^ = $ebp $T0 ^ = $esp $T0 8 + = $L $T0 .cbSavedRegs - = $P $T0 4 + .cbParams + = $ebx $T0 552 - ^ =
STACK WIN 4 6f949 b 5 0 8 0 0 0 1 $T0 $ebp = $eip $T0 4 + ^ = $ebp $T0 ^ = $esp $T0 8 + = $L $T0 .cbSavedRegs - = $P $T0 4 + .cbParams + =
STACK WIN 4 6f959 12f 7 0 14 0 8 0 1 $T0 $ebp = $eip $T0 4 + ^ = $ebp $T0 ^ = $esp $T0 8 + = $L $T0 .cbSavedRegs - = $P $T0 4 + .cbParams + =
STACK WIN 4 6f97d 107 0 0 14 4 8 0 1 $T0 $ebp = $eip $T0 4 + ^ = $ebp $T0 ^ = $esp $T0 8 + = $L $T0 .cbSavedRegs - = $P $T0 4 + .cbParams + =
STACK WIN 4 6f9f0 92 0 0 14 8 8 0 1 $T0 $ebp = $eip $T0 4 + ^ = $ebp $T0 ^ = $esp $T0 8 + = $L $T0 .cbSavedRegs - = $P $T0 4 + .cbParams + =
STACK WIN 4 6fa8d 22 5 0 10 0 0 0 1 $T0 $ebp = $eip $T0 4 + ^ = $ebp $T0 ^ = $esp $T0 8 + = $L $T0 .cbSavedRegs - = $P $T0 4 + .cbParams + =
STACK WIN 4 6fab4 1f 5 0 c 0 0 0 1 $T0 $ebp = $eip $T0 4 + ^ = $ebp $T0 ^ = $esp $T0 8 + = $L $T0 .cbSavedRegs - = $P $T0 4 + .cbParams + =
STACK WIN 4 6fad8 19e 8 0 8 0 8 0 1 $T0 $ebp = $eip $T0 4 + ^ = $ebp $T0 ^ = $esp $T0 8 + = $L $T0 .cbSavedRegs - = $P $T0 4 + .cbParams + =
STACK WIN 4 6fae0 192 0 0 8 4 8 0 1 $T0 $ebp = $eip $T0 4 + ^ = $ebp $T0 ^ = $esp $T0 8 + = $L $T0 .cbSavedRegs - = $P $T0 4 + .cbParams + =
STACK WIN 4 6fb1d 153 0 0 8 8 8 0 1 $T0 $ebp = $eip $T0 4 + ^ = $ebp $T0 ^ = $esp $T0 8 + = $L $T0 .cbSavedRegs - = $P $T0 4 + .cbParams + =
STACK WIN 4 6fc7b 61 8 0 8 0 8 0 1 $T0 $ebp = $eip $T0 4 + ^ = $ebp $T0 ^ = $esp $T0 8 + = $L $T0 .cbSavedRegs - = $P $T0 4 + .cbParams + =
STACK WIN 4 6fc83 55 0 0 8 4 8 0 1 $T0 $ebp = $eip $T0 4 + ^ = $ebp $T0 ^ = $esp $T0 8 + = $L $T0 .cbSavedRegs - = $P $T0 4 + .cbParams + =
STACK WIN 4 6fcdc e9 c 0 0 4 330 0 1 $T0 $ebp = $eip $T0 4 + ^ = $ebp $T0 ^ = $esp $T0 8 + = $L $T0 .cbSavedRegs - = $P $T0 4 + .cbParams + =
STACK WIN 4 6fdca 66 c 0 4 8 1c 0 1 $T0 $ebp = $eip $T0 4 + ^ = $ebp $T0 ^ = $esp $T0 8 + = $L $T0 .cbSavedRegs - = $P $T0 4 + .cbParams + =
STACK WIN 4 6fe04 4 0 0 4 8 1c 0 1 $T0 $ebp = $T2 $esp = $T1 .raSearchStart = $eip $T1 ^ = $ebp $ebp = $esp $T1 4 + = $L $T0 .cbSavedRegs - = $P $T0 4 + .cbParams + =
STACK WIN 4 189fc 28 0 0 0 0 0 0 1 $T2 $esp .cbLocals + .cbSavedRegs + = $T0 .raSearchStart = $eip $T0 ^ = $esp $T0 4 + =
STACK WIN 4 6fe51 65 5 0 8 0 0 0 1 $T0 $ebp = $eip $T0 4 + ^ = $ebp $T0 ^ = $esp $T0 8 + = $L $T0 .cbSavedRegs - = $P $T0 4 + .cbParams + =
STACK WIN 4 6fe6d 44 0 0 8 4 0 0 1 $T0 $ebp = $eip $T0 4 + ^ = $ebp $T0 ^ = $esp $T0 8 + = $L $T0 .cbSavedRegs - = $P $T0 4 + .cbParams + =
STACK WIN 4 6fe6e 42 0 0 8 8 0 0 1 $T0 $ebp = $eip $T0 4 + ^ = $ebp $T0 ^ = $esp $T0 8 + = $L $T0 .cbSavedRegs - = $P $T0 4 + .cbParams + =
STACK WIN 4 6febb 5f c 0 c 8 18 0 1 $T0 $ebp = $eip $T0 4 + ^ = $ebp $T0 ^ = $esp $T0 8 + = $L $T0 .cbSavedRegs - = $P $T0 4 + .cbParams + =
STACK WIN 4 6ff09 4 0 0 c 8 18 0 1 $T0 $ebp = $T2 $esp = $T1 .raSearchStart = $eip $T1 ^ = $ebp $ebp = $esp $T1 4 + = $L $T0 .cbSavedRegs - = $P $T0 4 + .cbParams + =
STACK WIN 4 6ff39 148 15 0 18 0 ac 0 1 $T0 $ebp = $eip $T0 4 + ^ = $ebp $T0 ^ = $esp $T0 8 + = $L $T0 .cbSavedRegs - = $P $T0 4 + .cbParams + =
STACK WIN 4 6ff4a 12e 4 0 18 4 ac 0 1 $T0 $ebp = $eip $T0 4 + ^ = $ebp $T0 ^ = $esp $T0 8 + = $L $T0 .cbSavedRegs - = $P $T0 4 + .cbParams + =
STACK WIN 4 6ff4e 129 0 0 18 8 ac 0 1 $T0 $ebp = $eip $T0 4 + ^ = $ebp $T0 ^ = $esp $T0 8 + = $L $T0 .cbSavedRegs - = $P $T0 4 + .cbParams + =
STACK WIN 4 70086 27 5 0 10 0 0 0 1 $T0 $ebp = $eip $T0 4 + ^ = $ebp $T0 ^ = $esp $T0 8 + = $L $T0 .cbSavedRegs - = $P $T0 4 + .cbParams + =
STACK WIN 4 700b2 25 5 0 10 0 0 0 1 $T0 $ebp = $eip $T0 4 + ^ = $ebp $T0 ^ = $esp $T0 8 + = $L $T0 .cbSavedRegs - = $P $T0 4 + .cbParams + =
STACK WIN 4 700dc c0 13 0 8 0 a8 0 1 $T0 $ebp = $eip $T0 4 + ^ = $ebp $T0 ^ = $esp $T0 8 + = $L $T0 .cbSavedRegs - = $P $T0 4 + .cbParams + =
STACK WIN 4 700ed a6 2 0 8 4 a8 0 1 $T0 $ebp = $eip $T0 4 + ^ = $ebp $T0 ^ = $esp $T0 8 + = $L $T0 .cbSavedRegs - = $P $T0 4 + .cbParams + = $ebx $T0 176 - ^ =
STACK WIN 4 700ee a4 1 0 8 8 a8 0 1 $T0 $ebp = $eip $T0 4 + ^ = $ebp $T0 ^ = $esp $T0 8 + = $L $T0 .cbSavedRegs - = $P $T0 4 + .cbParams + = $ebx $T0 176 - ^ =
STACK WIN 4 700ef a2 0 0 8 c a8 0 1 $T0 $ebp = $eip $T0 4 + ^ = $ebp $T0 ^ = $esp $T0 8 + = $L $T0 .cbSavedRegs - = $P $T0 4 + .cbParams + = $ebx $T0 176 - ^ =
STACK WIN 4 701a1 13 5 0 4 0 0 0 1 $T0 $ebp = $eip $T0 4 + ^ = $ebp $T0 ^ = $esp $T0 8 + = $L $T0 .cbSavedRegs - = $P $T0 4 + .cbParams + =
STACK WIN 4 701b9 13 5 0 4 0 0 0 1 $T0 $ebp = $eip $T0 4 + ^ = $ebp $T0 ^ = $esp $T0 8 + = $L $T0 .cbSavedRegs - = $P $T0 4 + .cbParams + =
STACK WIN 4 701d1 6f 13 0 4 0 a4 0 1 $T0 $ebp = $eip $T0 4 + ^ = $ebp $T0 ^ = $esp $T0 8 + = $L $T0 .cbSavedRegs - = $P $T0 4 + .cbParams + =
STACK WIN 4 70245 8 0 0 0 0 0 0 1 $T2 $esp .cbLocals + .cbSavedRegs + = $T0 .raSearchStart = $eip $T0 ^ = $esp $T0 4 + =
STACK WIN 4 70252 8 0 0 0 0 0 0 1 $T2 $esp .cbLocals + .cbSavedRegs + = $T0 .raSearchStart = $eip $T0 ^ = $esp $T0 4 + =
STACK WIN 4 7025f 149 17 0 10 8 c4 0 1 $T0 $ebp = $eip $T0 4 + ^ = $ebp $T0 ^ = $esp $T0 8 + = $L $T0 .cbSavedRegs - = $P $T0 4 + .cbParams + =
STACK WIN 4 70362 4 0 0 10 8 c4 0 1 $T0 $ebp = $T2 $esp = $T1 .raSearchStart = $eip $T1 ^ = $ebp $ebp = $esp $T1 4 + = $L $T0 .cbSavedRegs - = $P $T0 4 + .cbParams + =
STACK WIN 4 703c9 19 5 0 c 0 0 0 1 $T0 $ebp = $eip $T0 4 + ^ = $ebp $T0 ^ = $esp $T0 8 + = $L $T0 .cbSavedRegs - = $P $T0 4 + .cbParams + =
STACK WIN 4 703e7 19 5 0 c 0 0 0 1 $T0 $ebp = $eip $T0 4 + ^ = $ebp $T0 ^ = $esp $T0 8 + = $L $T0 .cbSavedRegs - = $P $T0 4 + .cbParams + =
STACK WIN 4 70405 10c 17 0 c 8 c0 0 1 $T0 $ebp = $eip $T0 4 + ^ = $ebp $T0 ^ = $esp $T0 8 + = $L $T0 .cbSavedRegs - = $P $T0 4 + .cbParams + =
STACK WIN 4 704cb 4 0 0 c 8 c0 0 1 $T0 $ebp = $T2 $esp = $T1 .raSearchStart = $eip $T1 ^ = $ebp $ebp = $esp $T1 4 + = $L $T0 .cbSavedRegs - = $P $T0 4 + .cbParams + =
STACK WIN 4 70531 16 5 0 8 0 0 0 1 $T0 $ebp = $eip $T0 4 + ^ = $ebp $T0 ^ = $esp $T0 8 + = $L $T0 .cbSavedRegs - = $P $T0 4 + .cbParams + =
STACK WIN 4 7054c 16 5 0 8 0 0 0 1 $T0 $ebp = $eip $T0 4 + ^ = $ebp $T0 ^ = $esp $T0 8 + = $L $T0 .cbSavedRegs - = $P $T0 4 + .cbParams + =
STACK WIN 4 70567 a3 19 0 8 0 a8 0 1 $T0 $ebp = $eip $T0 4 + ^ = $ebp $T0 ^ = $esp $T0 8 + = $L $T0 .cbSavedRegs - = $P $T0 4 + .cbParams + =
STACK WIN 4 70578 89 8 0 8 4 a8 0 1 $T0 $ebp = $eip $T0 4 + ^ = $ebp $T0 ^ = $esp $T0 8 + = $L $T0 .cbSavedRegs - = $P $T0 4 + .cbParams + = $ebx $T0 176 - ^ =
STACK WIN 4 70579 87 7 0 8 8 a8 0 1 $T0 $ebp = $eip $T0 4 + ^ = $ebp $T0 ^ = $esp $T0 8 + = $L $T0 .cbSavedRegs - = $P $T0 4 + .cbParams + = $ebx $T0 176 - ^ =
STACK WIN 4 70580 7f 0 0 8 c a8 0 1 $T0 $ebp = $eip $T0 4 + ^ = $ebp $T0 ^ = $esp $T0 8 + = $L $T0 .cbSavedRegs - = $P $T0 4 + .cbParams + = $ebx $T0 176 - ^ =
STACK WIN 4 7060f 13 5 0 4 0 0 0 1 $T0 $ebp = $eip $T0 4 + ^ = $ebp $T0 ^ = $esp $T0 8 + = $L $T0 .cbSavedRegs - = $P $T0 4 + .cbParams + =
STACK WIN 4 70627 13 5 0 4 0 0 0 1 $T0 $ebp = $eip $T0 4 + ^ = $ebp $T0 ^ = $esp $T0 8 + = $L $T0 .cbSavedRegs - = $P $T0 4 + .cbParams + =
STACK WIN 4 7063f c6 13 0 c 0 a8 0 1 $T0 $ebp = $eip $T0 4 + ^ = $ebp $T0 ^ = $esp $T0 8 + = $L $T0 .cbSavedRegs - = $P $T0 4 + .cbParams + =
STACK WIN 4 70650 ac 2 0 c 4 a8 0 1 $T0 $ebp = $eip $T0 4 + ^ = $ebp $T0 ^ = $esp $T0 8 + = $L $T0 .cbSavedRegs - = $P $T0 4 + .cbParams + = $ebx $T0 176 - ^ =
STACK WIN 4 70651 aa 1 0 c 8 a8 0 1 $T0 $ebp = $eip $T0 4 + ^ = $ebp $T0 ^ = $esp $T0 8 + = $L $T0 .cbSavedRegs - = $P $T0 4 + .cbParams + = $ebx $T0 176 - ^ =
STACK WIN 4 70652 a8 0 0 c c a8 0 1 $T0 $ebp = $eip $T0 4 + ^ = $ebp $T0 ^ = $esp $T0 8 + = $L $T0 .cbSavedRegs - = $P $T0 4 + .cbParams + = $ebx $T0 176 - ^ =
STACK WIN 4 7070a 16 5 0 8 0 0 0 1 $T0 $ebp = $eip $T0 4 + ^ = $ebp $T0 ^ = $esp $T0 8 + = $L $T0 .cbSavedRegs - = $P $T0 4 + .cbParams + =
STACK WIN 4 70725 16 5 0 8 0 0 0 1 $T0 $ebp = $eip $T0 4 + ^ = $ebp $T0 ^ = $esp $T0 8 + = $L $T0 .cbSavedRegs - = $P $T0 4 + .cbParams + =
STACK WIN 4 70740 a8 19 0 8 0 a8 0 1 $T0 $ebp = $eip $T0 4 + ^ = $ebp $T0 ^ = $esp $T0 8 + = $L $T0 .cbSavedRegs - = $P $T0 4 + .cbParams + =
STACK WIN 4 70751 8e 8 0 8 4 a8 0 1 $T0 $ebp = $eip $T0 4 + ^ = $ebp $T0 ^ = $esp $T0 8 + = $L $T0 .cbSavedRegs - = $P $T0 4 + .cbParams + = $ebx $T0 176 - ^ =
STACK WIN 4 70752 8c 7 0 8 8 a8 0 1 $T0 $ebp = $eip $T0 4 + ^ = $ebp $T0 ^ = $esp $T0 8 + = $L $T0 .cbSavedRegs - = $P $T0 4 + .cbParams + = $ebx $T0 176 - ^ =
STACK WIN 4 70759 84 0 0 8 c a8 0 1 $T0 $ebp = $eip $T0 4 + ^ = $ebp $T0 ^ = $esp $T0 8 + = $L $T0 .cbSavedRegs - = $P $T0 4 + .cbParams + = $ebx $T0 176 - ^ =
STACK WIN 4 707ed 13 5 0 4 0 0 0 1 $T0 $ebp = $eip $T0 4 + ^ = $ebp $T0 ^ = $esp $T0 8 + = $L $T0 .cbSavedRegs - = $P $T0 4 + .cbParams + =
STACK WIN 4 70805 13 5 0 4 0 0 0 1 $T0 $ebp = $eip $T0 4 + ^ = $ebp $T0 ^ = $esp $T0 8 + = $L $T0 .cbSavedRegs - = $P $T0 4 + .cbParams + =
STACK WIN 4 7081d 150 17 0 10 8 c8 0 1 $T0 $ebp = $eip $T0 4 + ^ = $ebp $T0 ^ = $esp $T0 8 + = $L $T0 .cbSavedRegs - = $P $T0 4 + .cbParams + =
STACK WIN 4 70927 4 0 0 10 8 c8 0 1 $T0 $ebp = $T2 $esp = $T1 .raSearchStart = $eip $T1 ^ = $ebp $ebp = $esp $T1 4 + = $L $T0 .cbSavedRegs - = $P $T0 4 + .cbParams + =
STACK WIN 4 70989 19 5 0 c 0 0 0 1 $T0 $ebp = $eip $T0 4 + ^ = $ebp $T0 ^ = $esp $T0 8 + = $L $T0 .cbSavedRegs - = $P $T0 4 + .cbParams + =
STACK WIN 4 709a7 19 5 0 c 0 0 0 1 $T0 $ebp = $eip $T0 4 + ^ = $ebp $T0 ^ = $esp $T0 8 + = $L $T0 .cbSavedRegs - = $P $T0 4 + .cbParams + =
STACK WIN 4 709c5 6f 13 0 4 0 a4 0 1 $T0 $ebp = $eip $T0 4 + ^ = $ebp $T0 ^ = $esp $T0 8 + = $L $T0 .cbSavedRegs - = $P $T0 4 + .cbParams + =
STACK WIN 4 1ba6a 111 17 0 c 8 c0 0 1 $T0 $ebp = $eip $T0 4 + ^ = $ebp $T0 ^ = $esp $T0 8 + = $L $T0 .cbSavedRegs - = $P $T0 4 + .cbParams + =
STACK WIN 4 4677c 4 0 0 c 8 c0 0 1 $T0 $ebp = $T2 $esp = $T1 .raSearchStart = $eip $T1 ^ = $ebp $ebp = $esp $T1 4 + = $L $T0 .cbSavedRegs - = $P $T0 4 + .cbParams + =
STACK WIN 4 70a39 23 9 0 8 0 0 0 1 $T0 $ebp = $eip $T0 4 + ^ = $ebp $T0 ^ = $esp $T0 8 + = $L $T0 .cbSavedRegs - = $P $T0 4 + .cbParams + =
STACK WIN 4 70a42 16 0 0 8 4 0 0 1 $T0 $ebp = $eip $T0 4 + ^ = $ebp $T0 ^ = $esp $T0 8 + = $L $T0 .cbSavedRegs - = $P $T0 4 + .cbParams + =
STACK WIN 4 1ba3c 29 9 0 8 0 0 0 1 $T0 $ebp = $eip $T0 4 + ^ = $ebp $T0 ^ = $esp $T0 8 + = $L $T0 .cbSavedRegs - = $P $T0 4 + .cbParams + =
STACK WIN 4 1ba45 1c 0 0 8 4 0 0 1 $T0 $ebp = $eip $T0 4 + ^ = $ebp $T0 ^ = $esp $T0 8 + = $L $T0 .cbSavedRegs - = $P $T0 4 + .cbParams + =
STACK WIN 4 2da09 a0 12 0 c 0 a4 0 1 $T0 $ebp = $eip $T0 4 + ^ = $ebp $T0 ^ = $esp $T0 8 + = $L $T0 .cbSavedRegs - = $P $T0 4 + .cbParams + =
STACK WIN 4 2da1a 86 1 0 c 4 a4 0 1 $T0 $ebp = $eip $T0 4 + ^ = $ebp $T0 ^ = $esp $T0 8 + = $L $T0 .cbSavedRegs - = $P $T0 4 + .cbParams + =
STACK WIN 4 2da1b 84 0 0 c 8 a4 0 1 $T0 $ebp = $eip $T0 4 + ^ = $ebp $T0 ^ = $esp $T0 8 + = $L $T0 .cbSavedRegs - = $P $T0 4 + .cbParams + =
STACK WIN 4 70a61 4f c 0 4 8 1c 0 1 $T0 $ebp = $eip $T0 4 + ^ = $ebp $T0 ^ = $esp $T0 8 + = $L $T0 .cbSavedRegs - = $P $T0 4 + .cbParams + =
STACK WIN 4 70a99 4 0 0 4 8 1c 0 1 $T0 $ebp = $T2 $esp = $T1 .raSearchStart = $eip $T1 ^ = $ebp $ebp = $esp $T1 4 + = $L $T0 .cbSavedRegs - = $P $T0 4 + .cbParams + =
STACK WIN 4 2d9bd 4b c 0 4 8 1c 0 1 $T0 $ebp = $eip $T0 4 + ^ = $ebp $T0 ^ = $esp $T0 8 + = $L $T0 .cbSavedRegs - = $P $T0 4 + .cbParams + =
STACK WIN 4 467de 4 0 0 4 8 1c 0 1 $T0 $ebp = $T2 $esp = $T1 .raSearchStart = $eip $T1 ^ = $ebp $ebp = $esp $T1 4 + = $L $T0 .cbSavedRegs - = $P $T0 4 + .cbParams + =
STACK WIN 4 70ad1 75 c 0 8 8 18 0 1 $T0 $ebp = $eip $T0 4 + ^ = $ebp $T0 ^ = $esp $T0 8 + = $L $T0 .cbSavedRegs - = $P $T0 4 + .cbParams + =
STACK WIN 4 70b3f c 0 0 8 8 18 0 1 $T0 $ebp = $T2 $esp = $T1 .raSearchStart = $eip $T1 ^ = $ebp $ebp = $esp $T1 4 + = $L $T0 .cbSavedRegs - = $P $T0 4 + .cbParams + =
STACK WIN 4 1b355 6e c 0 4 8 18 0 1 $T0 $ebp = $eip $T0 4 + ^ = $ebp $T0 ^ = $esp $T0 8 + = $L $T0 .cbSavedRegs - = $P $T0 4 + .cbParams + =
STACK WIN 4 1b3c1 c 0 0 4 8 18 0 1 $T0 $ebp = $T2 $esp = $T1 .raSearchStart = $eip $T1 ^ = $ebp $ebp = $esp $T1 4 + = $L $T0 .cbSavedRegs - = $P $T0 4 + .cbParams + =
STACK WIN 4 70b61 11b 1c 0 18 0 a8 0 1 $T0 $ebp = $eip $T0 4 + ^ = $ebp $T0 ^ = $esp $T0 8 + = $L $T0 .cbSavedRegs - = $P $T0 4 + .cbParams + =
STACK WIN 4 70b72 101 b 0 18 4 a8 0 1 $T0 $ebp = $eip $T0 4 + ^ = $ebp $T0 ^ = $esp $T0 8 + = $L $T0 .cbSavedRegs - = $P $T0 4 + .cbParams + = $ebx $T0 176 - ^ =
STACK WIN 4 70b73 ff a 0 18 8 a8 0 1 $T0 $ebp = $eip $T0 4 + ^ = $ebp $T0 ^ = $esp $T0 8 + = $L $T0 .cbSavedRegs - = $P $T0 4 + .cbParams + = $ebx $T0 176 - ^ =
STACK WIN 4 70b7d f4 0 0 18 c a8 0 1 $T0 $ebp = $eip $T0 4 + ^ = $ebp $T0 ^ = $esp $T0 8 + = $L $T0 .cbSavedRegs - = $P $T0 4 + .cbParams + = $ebx $T0 176 - ^ =
STACK WIN 4 70c81 39 5 0 c 0 0 0 1 $T0 $ebp = $eip $T0 4 + ^ = $ebp $T0 ^ = $esp $T0 8 + = $L $T0 .cbSavedRegs - = $P $T0 4 + .cbParams + =
STACK WIN 4 70cbf 38 5 0 c 0 0 0 1 $T0 $ebp = $eip $T0 4 + ^ = $ebp $T0 ^ = $esp $T0 8 + = $L $T0 .cbSavedRegs - = $P $T0 4 + .cbParams + =
STACK WIN 4 70cfc a7 13 0 8 0 214 0 1 $T0 $ebp = $eip $T0 4 + ^ = $ebp $T0 ^ = $esp $T0 8 + = $L $T0 .cbSavedRegs - = $P $T0 4 + .cbParams + =
STACK WIN 4 70d0d 8d 2 0 8 4 214 0 1 $T0 $ebp = $eip $T0 4 + ^ = $ebp $T0 ^ = $esp $T0 8 + = $L $T0 .cbSavedRegs - = $P $T0 4 + .cbParams + = $ebx $T0 540 - ^ =
STACK WIN 4 70d0e 8b 1 0 8 8 214 0 1 $T0 $ebp = $eip $T0 4 + ^ = $ebp $T0 ^ = $esp $T0 8 + = $L $T0 .cbSavedRegs - = $P $T0 4 + .cbParams + = $ebx $T0 540 - ^ =
STACK WIN 4 70d0f 89 0 0 8 c 214 0 1 $T0 $ebp = $eip $T0 4 + ^ = $ebp $T0 ^ = $esp $T0 8 + = $L $T0 .cbSavedRegs - = $P $T0 4 + .cbParams + = $ebx $T0 540 - ^ =
STACK WIN 4 70da8 58 8 0 4 0 8 0 1 $T0 $ebp = $eip $T0 4 + ^ = $ebp $T0 ^ = $esp $T0 8 + = $L $T0 .cbSavedRegs - = $P $T0 4 + .cbParams + =
STACK WIN 4 70db0 4c 0 0 4 4 8 0 1 $T0 $ebp = $eip $T0 4 + ^ = $ebp $T0 ^ = $esp $T0 8 + = $L $T0 .cbSavedRegs - = $P $T0 4 + .cbParams + =
STACK WIN 4 1b10f 77 5 0 10 0 0 0 1 $T0 $ebp = $eip $T0 4 + ^ = $ebp $T0 ^ = $esp $T0 8 + = $L $T0 .cbSavedRegs - = $P $T0 4 + .cbParams + =
STACK WIN 4 1b132 4f 0 0 10 4 0 0 1 $T0 $ebp = $eip $T0 4 + ^ = $ebp $T0 ^ = $esp $T0 8 + = $L $T0 .cbSavedRegs - = $P $T0 4 + .cbParams + =
STACK WIN 4 1b13a 46 0 0 10 8 0 0 1 $T0 $ebp = $eip $T0 4 + ^ = $ebp $T0 ^ = $esp $T0 8 + = $L $T0 .cbSavedRegs - = $P $T0 4 + .cbParams + =
STACK WIN 4 29ee3 70 d 0 8 0 c 0 1 $T0 $ebp = $eip $T0 4 + ^ = $ebp $T0 ^ = $esp $T0 8 + = $L $T0 .cbSavedRegs - = $P $T0 4 + .cbParams + =
STACK WIN 4 29ef0 5f 0 0 8 4 c 0 1 $T0 $ebp = $eip $T0 4 + ^ = $ebp $T0 ^ = $esp $T0 8 + = $L $T0 .cbSavedRegs - = $P $T0 4 + .cbParams + =
STACK WIN 4 46833 26 0 0 8 8 c 0 1 $T0 $ebp = $eip $T0 4 + ^ = $ebp $T0 ^ = $esp $T0 8 + = $L $T0 .cbSavedRegs - = $P $T0 4 + .cbParams + =
STACK WIN 4 1aff3 81 17 0 4 8 bc 0 1 $T0 $ebp = $eip $T0 4 + ^ = $ebp $T0 ^ = $esp $T0 8 + = $L $T0 .cbSavedRegs - = $P $T0 4 + .cbParams + =
STACK WIN 4 4687c 4 0 0 4 8 bc 0 1 $T0 $ebp = $T2 $esp = $T1 .raSearchStart = $eip $T1 ^ = $ebp $ebp = $esp $T1 4 + = $L $T0 .cbSavedRegs - = $P $T0 4 + .cbParams + =
STACK WIN 4 1afd5 1f 6 0 0 0 4 0 1 $T0 $ebp = $eip $T0 4 + ^ = $ebp $T0 ^ = $esp $T0 8 + = $L $T0 .cbSavedRegs - = $P $T0 4 + .cbParams + =
STACK WIN 4 18c64 9a b 0 c 0 4 0 1 $T0 $ebp = $eip $T0 4 + ^ = $ebp $T0 ^ = $esp $T0 8 + = $L $T0 .cbSavedRegs - = $P $T0 4 + .cbParams + =
STACK WIN 4 18c6b 8f 4 0 c 4 4 0 1 $T0 $ebp = $eip $T0 4 + ^ = $ebp $T0 ^ = $esp $T0 8 + = $L $T0 .cbSavedRegs - = $P $T0 4 + .cbParams + =
STACK WIN 4 18c6f 8a 0 0 c 8 4 0 1 $T0 $ebp = $eip $T0 4 + ^ = $ebp $T0 ^ = $esp $T0 8 + = $L $T0 .cbSavedRegs - = $P $T0 4 + .cbParams + =
STACK WIN 4 70e05 1ef 17 0 2c 8 e0 0 1 $T0 $ebp = $eip $T0 4 + ^ = $ebp $T0 ^ = $esp $T0 8 + = $L $T0 .cbSavedRegs - = $P $T0 4 + .cbParams + =
STACK WIN 4 70fe7 12 0 0 2c 8 e0 0 1 $T0 $ebp = $T2 $esp = $T1 .raSearchStart = $eip $T1 ^ = $ebp $ebp = $esp $T1 4 + = $L $T0 .cbSavedRegs - = $P $T0 4 + .cbParams + =
STACK WIN 4 71011 77 13 0 0 0 a4 0 1 $T0 $ebp = $eip $T0 4 + ^ = $ebp $T0 ^ = $esp $T0 8 + = $L $T0 .cbSavedRegs - = $P $T0 4 + .cbParams + =
STACK WIN 4 7108d 4f 4 0 0 0 0 0 1 $T2 $esp .cbLocals + .cbSavedRegs + = $T0 .raSearchStart = $eip $T0 ^ = $esp $T0 4 + =
STACK WIN 4 71090 4b 1 0 0 4 0 0 1 $T2 $esp .cbLocals + .cbSavedRegs + = $T0 .raSearchStart = $eip $T0 ^ = $esp $T0 4 + =
STACK WIN 4 71091 49 0 0 0 8 0 0 1 $T2 $esp .cbLocals + .cbSavedRegs + = $T0 .raSearchStart = $eip $T0 ^ = $esp $T0 4 + =
STACK WIN 4 710e1 93 7 0 4 0 4 0 1 $T0 $ebp = $eip $T0 4 + ^ = $ebp $T0 ^ = $esp $T0 8 + = $L $T0 .cbSavedRegs - = $P $T0 4 + .cbParams + =
STACK WIN 4 710e8 88 0 0 4 4 4 0 1 $T0 $ebp = $eip $T0 4 + ^ = $ebp $T0 ^ = $esp $T0 8 + = $L $T0 .cbSavedRegs - = $P $T0 4 + .cbParams + =
STACK WIN 4 71107 68 0 0 4 8 4 0 1 $T0 $ebp = $eip $T0 4 + ^ = $ebp $T0 ^ = $esp $T0 8 + = $L $T0 .cbSavedRegs - = $P $T0 4 + .cbParams + =
STACK WIN 4 71191 164 17 0 10 8 d0 0 1 $T0 $ebp = $eip $T0 4 + ^ = $ebp $T0 ^ = $esp $T0 8 + = $L $T0 .cbSavedRegs - = $P $T0 4 + .cbParams + =
STACK WIN 4 712e3 17 0 0 10 8 d0 0 1 $T0 $ebp = $T2 $esp = $T1 .raSearchStart = $eip $T1 ^ = $ebp $ebp = $esp $T1 4 + = $L $T0 .cbSavedRegs - = $P $T0 4 + .cbParams + =
STACK WIN 4 b6d7 228 16 0 8 0 640 0 1 $T0 $ebp = $eip $T0 4 + ^ = $ebp $T0 ^ = $esp $T0 8 + = $L $T0 .cbSavedRegs - = $P $T0 4 + .cbParams + =
STACK WIN 4 b6ec 20a 1 0 8 4 640 0 1 $T0 $ebp = $eip $T0 4 + ^ = $ebp $T0 ^ = $esp $T0 8 + = $L $T0 .cbSavedRegs - = $P $T0 4 + .cbParams + = $ebx $T0 1608 - ^ =
STACK WIN 4 b6ed 208 0 0 8 8 640 0 1 $T0 $ebp = $eip $T0 4 + ^ = $ebp $T0 ^ = $esp $T0 8 + = $L $T0 .cbSavedRegs - = $P $T0 4 + .cbParams + = $ebx $T0 1608 - ^ =
STACK WIN 4 71311 1cd 17 0 0 8 480 0 1 $T0 $ebp = $eip $T0 4 + ^ = $ebp $T0 ^ = $esp $T0 8 + = $L $T0 .cbSavedRegs - = $P $T0 4 + .cbParams + =
STACK WIN 4 714d7 c 0 0 0 8 480 0 1 $T0 $ebp = $T2 $esp = $T1 .raSearchStart = $eip $T1 ^ = $ebp $ebp = $esp $T1 4 + = $L $T0 .cbSavedRegs - = $P $T0 4 + .cbParams + =
STACK WIN 4 714f9 e9 17 0 4 8 128 0 1 $T0 $ebp = $eip $T0 4 + ^ = $ebp $T0 ^ = $esp $T0 8 + = $L $T0 .cbSavedRegs - = $P $T0 4 + .cbParams + =
STACK WIN 4 715db c 0 0 4 8 128 0 1 $T0 $ebp = $T2 $esp = $T1 .raSearchStart = $eip $T1 ^ = $ebp $ebp = $esp $T1 4 + = $L $T0 .cbSavedRegs - = $P $T0 4 + .cbParams + =
STACK WIN 4 715f9 6 0 0 0 0 0 0 1 $T2 $esp .cbLocals + .cbSavedRegs + = $T0 .raSearchStart = $eip $T0 ^ = $esp $T0 4 + =
STACK WIN 4 1ce32 125 17 0 14 8 bc 0 1 $T0 $ebp = $eip $T0 4 + ^ = $ebp $T0 ^ = $esp $T0 8 + = $L $T0 .cbSavedRegs - = $P $T0 4 + .cbParams + =
STACK WIN 4 468d9 4 0 0 14 8 bc 0 1 $T0 $ebp = $T2 $esp = $T1 .raSearchStart = $eip $T1 ^ = $ebp $ebp = $esp $T1 4 + = $L $T0 .cbSavedRegs - = $P $T0 4 + .cbParams + =
STACK WIN 4 468e9 4 0 0 14 8 bc 0 1 $T0 $ebp = $T2 $esp = $T1 .raSearchStart = $eip $T1 ^ = $ebp $ebp = $esp $T1 4 + = $L $T0 .cbSavedRegs - = $P $T0 4 + .cbParams + =
STACK WIN 4 1cf25 1c 5 0 14 0 0 0 1 $T0 $ebp = $eip $T0 4 + ^ = $ebp $T0 ^ = $esp $T0 8 + = $L $T0 .cbSavedRegs - = $P $T0 4 + .cbParams + =
STACK WIN 4 35484 1c 5 0 14 0 0 0 1 $T0 $ebp = $eip $T0 4 + ^ = $ebp $T0 ^ = $esp $T0 8 + = $L $T0 .cbSavedRegs - = $P $T0 4 + .cbParams + =
STACK WIN 4 1dc7e 6f 13 0 4 0 a4 0 1 $T0 $ebp = $eip $T0 4 + ^ = $ebp $T0 ^ = $esp $T0 8 + = $L $T0 .cbSavedRegs - = $P $T0 4 + .cbParams + =
STACK WIN 4 1dd4d 9b 1c 0 10 0 a4 0 1 $T0 $ebp = $eip $T0 4 + ^ = $ebp $T0 ^ = $esp $T0 8 + = $L $T0 .cbSavedRegs - = $P $T0 4 + .cbParams + =
STACK WIN 4 71604 a3 17 0 8 8 bc 0 1 $T0 $ebp = $eip $T0 4 + ^ = $ebp $T0 ^ = $esp $T0 8 + = $L $T0 .cbSavedRegs - = $P $T0 4 + .cbParams + =
STACK WIN 4 71674 4 0 0 8 8 bc 0 1 $T0 $ebp = $T2 $esp = $T1 .raSearchStart = $eip $T1 ^ = $ebp $ebp = $esp $T1 4 + = $L $T0 .cbSavedRegs - = $P $T0 4 + .cbParams + =
STACK WIN 4 716c9 7b 13 0 c 0 a4 0 1 $T0 $ebp = $eip $T0 4 + ^ = $ebp $T0 ^ = $esp $T0 8 + = $L $T0 .cbSavedRegs - = $P $T0 4 + .cbParams + =
STACK WIN 4 1aeaa 73 13 0 4 0 a4 0 1 $T0 $ebp = $eip $T0 4 + ^ = $ebp $T0 ^ = $esp $T0 8 + = $L $T0 .cbSavedRegs - = $P $T0 4 + .cbParams + =
STACK WIN 4 1ff5b 82 13 0 10 0 a4 0 1 $T0 $ebp = $eip $T0 4 + ^ = $ebp $T0 ^ = $esp $T0 8 + = $L $T0 .cbSavedRegs - = $P $T0 4 + .cbParams + =
STACK WIN 4 10fe1 95 c 0 10 8 1c 0 1 $T0 $ebp = $eip $T0 4 + ^ = $ebp $T0 ^ = $esp $T0 8 + = $L $T0 .cbSavedRegs - = $P $T0 4 + .cbParams + =
STACK WIN 4 46968 4 0 0 10 8 1c 0 1 $T0 $ebp = $T2 $esp = $T1 .raSearchStart = $eip $T1 ^ = $ebp $ebp = $esp $T1 4 + = $L $T0 .cbSavedRegs - = $P $T0 4 + .cbParams + =
STACK WIN 4 71749 29c 17 0 20 8 d8 0 1 $T0 $ebp = $eip $T0 4 + ^ = $ebp $T0 ^ = $esp $T0 8 + = $L $T0 .cbSavedRegs - = $P $T0 4 + .cbParams + =
STACK WIN 4 7189d 11 0 0 20 8 d8 0 1 $T0 $ebp = $T2 $esp = $T1 .raSearchStart = $eip $T1 ^ = $ebp $ebp = $esp $T1 4 + = $L $T0 .cbSavedRegs - = $P $T0 4 + .cbParams + =
STACK WIN 4 7199c 4 0 0 20 8 d8 0 1 $T0 $ebp = $T2 $esp = $T1 .raSearchStart = $eip $T1 ^ = $ebp $ebp = $esp $T1 4 + = $L $T0 .cbSavedRegs - = $P $T0 4 + .cbParams + =
STACK WIN 4 71a1d 4a 16 0 14 0 54 0 1 $T0 $ebp = $eip $T0 4 + ^ = $ebp $T0 ^ = $esp $T0 8 + = $L $T0 .cbSavedRegs - = $P $T0 4 + .cbParams + =
STACK WIN 4 71a2b 33 8 0 14 4 54 0 1 $T0 $ebp = $eip $T0 4 + ^ = $ebp $T0 ^ = $esp $T0 8 + = $L $T0 .cbSavedRegs - = $P $T0 4 + .cbParams + = $ebx $T0 92 - ^ =
STACK WIN 4 71a2f 2e 4 0 14 8 54 0 1 $T0 $ebp = $eip $T0 4 + ^ = $ebp $T0 ^ = $esp $T0 8 + = $L $T0 .cbSavedRegs - = $P $T0 4 + .cbParams + = $ebx $T0 92 - ^ =
STACK WIN 4 71a33 29 0 0 14 c 54 0 1 $T0 $ebp = $eip $T0 4 + ^ = $ebp $T0 ^ = $esp $T0 8 + = $L $T0 .cbSavedRegs - = $P $T0 4 + .cbParams + = $ebx $T0 92 - ^ =
STACK WIN 4 71a6c 51 1c 0 14 0 58 0 1 $T0 $ebp = $eip $T0 4 + ^ = $ebp $T0 ^ = $esp $T0 8 + = $L $T0 .cbSavedRegs - = $P $T0 4 + .cbParams + =
STACK WIN 4 71a7a 3a e 0 14 4 58 0 1 $T0 $ebp = $eip $T0 4 + ^ = $ebp $T0 ^ = $esp $T0 8 + = $L $T0 .cbSavedRegs - = $P $T0 4 + .cbParams + = $ebx $T0 96 - ^ =
STACK WIN 4 71a7e 35 a 0 14 8 58 0 1 $T0 $ebp = $eip $T0 4 + ^ = $ebp $T0 ^ = $esp $T0 8 + = $L $T0 .cbSavedRegs - = $P $T0 4 + .cbParams + = $ebx $T0 96 - ^ =
STACK WIN 4 71a88 2a 0 0 14 c 58 0 1 $T0 $ebp = $eip $T0 4 + ^ = $ebp $T0 ^ = $esp $T0 8 + = $L $T0 .cbSavedRegs - = $P $T0 4 + .cbParams + = $ebx $T0 96 - ^ =
STACK WIN 4 71ac2 139 17 0 2c 8 c8 0 1 $T0 $ebp = $eip $T0 4 + ^ = $ebp $T0 ^ = $esp $T0 8 + = $L $T0 .cbSavedRegs - = $P $T0 4 + .cbParams + =
STACK WIN 4 71be9 4 0 0 2c 8 c8 0 1 $T0 $ebp = $T2 $esp = $T1 .raSearchStart = $eip $T1 ^ = $ebp $ebp = $esp $T1 4 + = $L $T0 .cbSavedRegs - = $P $T0 4 + .cbParams + =
STACK WIN 4 71c19 ae 17 0 c 8 bc 0 1 $T0 $ebp = $eip $T0 4 + ^ = $ebp $T0 ^ = $esp $T0 8 + = $L $T0 .cbSavedRegs - = $P $T0 4 + .cbParams + =
STACK WIN 4 71ca8 4 0 0 c 8 bc 0 1 $T0 $ebp = $T2 $esp = $T1 .raSearchStart = $eip $T1 ^ = $ebp $ebp = $esp $T1 4 + = $L $T0 .cbSavedRegs - = $P $T0 4 + .cbParams + =
STACK WIN 4 71ce9 7b 13 0 c 0 a4 0 1 $T0 $ebp = $eip $T0 4 + ^ = $ebp $T0 ^ = $esp $T0 8 + = $L $T0 .cbSavedRegs - = $P $T0 4 + .cbParams + =
STACK WIN 4 37c53 9a 17 0 4 8 bc 0 1 $T0 $ebp = $eip $T0 4 + ^ = $ebp $T0 ^ = $esp $T0 8 + = $L $T0 .cbSavedRegs - = $P $T0 4 + .cbParams + =
STACK WIN 4 469a3 4 0 0 4 8 bc 0 1 $T0 $ebp = $T2 $esp = $T1 .raSearchStart = $eip $T1 ^ = $ebp $ebp = $esp $T1 4 + = $L $T0 .cbSavedRegs - = $P $T0 4 + .cbParams + =
STACK WIN 4 71d69 c2 19 0 10 0 a4 0 1 $T0 $ebp = $eip $T0 4 + ^ = $ebp $T0 ^ = $esp $T0 8 + = $L $T0 .cbSavedRegs - = $P $T0 4 + .cbParams + =
STACK WIN 4 71d7a a8 8 0 10 4 a4 0 1 $T0 $ebp = $eip $T0 4 + ^ = $ebp $T0 ^ = $esp $T0 8 + = $L $T0 .cbSavedRegs - = $P $T0 4 + .cbParams + = $ebx $T0 172 - ^ =
STACK WIN 4 71d7e a3 4 0 10 8 a4 0 1 $T0 $ebp = $eip $T0 4 + ^ = $ebp $T0 ^ = $esp $T0 8 + = $L $T0 .cbSavedRegs - = $P $T0 4 + .cbParams + = $ebx $T0 172 - ^ =
STACK WIN 4 71d82 9e 0 0 10 c a4 0 1 $T0 $ebp = $eip $T0 4 + ^ = $ebp $T0 ^ = $esp $T0 8 + = $L $T0 .cbSavedRegs - = $P $T0 4 + .cbParams + = $ebx $T0 172 - ^ =
STACK WIN 4 71e30 6f 13 0 4 0 a4 0 1 $T0 $ebp = $eip $T0 4 + ^ = $ebp $T0 ^ = $esp $T0 8 + = $L $T0 .cbSavedRegs - = $P $T0 4 + .cbParams + =
STACK WIN 4 71ea4 1e 5 0 10 0 0 0 1 $T0 $ebp = $eip $T0 4 + ^ = $ebp $T0 ^ = $esp $T0 8 + = $L $T0 .cbSavedRegs - = $P $T0 4 + .cbParams + =
STACK WIN 4 71ec7 1e 5 0 10 0 0 0 1 $T0 $ebp = $eip $T0 4 + ^ = $ebp $T0 ^ = $esp $T0 8 + = $L $T0 .cbSavedRegs - = $P $T0 4 + .cbParams + =
STACK WIN 4 71eea 75 13 0 8 0 a4 0 1 $T0 $ebp = $eip $T0 4 + ^ = $ebp $T0 ^ = $esp $T0 8 + = $L $T0 .cbSavedRegs - = $P $T0 4 + .cbParams + =
STACK WIN 4 71f64 56 13 0 8 0 a4 0 1 $T0 $ebp = $eip $T0 4 + ^ = $ebp $T0 ^ = $esp $T0 8 + = $L $T0 .cbSavedRegs - = $P $T0 4 + .cbParams + =
STACK WIN 4 71fbf 5c 13 0 c 0 a4 0 1 $T0 $ebp = $eip $T0 4 + ^ = $ebp $T0 ^ = $esp $T0 8 + = $L $T0 .cbSavedRegs - = $P $T0 4 + .cbParams + =
STACK WIN 4 72020 7b 13 0 c 0 a4 0 1 $T0 $ebp = $eip $T0 4 + ^ = $ebp $T0 ^ = $esp $T0 8 + = $L $T0 .cbSavedRegs - = $P $T0 4 + .cbParams + =
STACK WIN 4 720a0 107 17 0 c 8 bc 0 1 $T0 $ebp = $eip $T0 4 + ^ = $ebp $T0 ^ = $esp $T0 8 + = $L $T0 .cbSavedRegs - = $P $T0 4 + .cbParams + =
STACK WIN 4 72188 4 0 0 c 8 bc 0 1 $T0 $ebp = $T2 $esp = $T1 .raSearchStart = $eip $T1 ^ = $ebp $ebp = $esp $T1 4 + = $L $T0 .cbSavedRegs - = $P $T0 4 + .cbParams + =
STACK WIN 4 721c9 78 8 0 c 0 c 0 1 $T0 $ebp = $eip $T0 4 + ^ = $ebp $T0 ^ = $esp $T0 8 + = $L $T0 .cbSavedRegs - = $P $T0 4 + .cbParams + =
STACK WIN 4 72269 12b 17 0 18 8 c0 0 1 $T0 $ebp = $eip $T0 4 + ^ = $ebp $T0 ^ = $esp $T0 8 + = $L $T0 .cbSavedRegs - = $P $T0 4 + .cbParams + =
STACK WIN 4 7236f 4 0 0 18 8 c0 0 1 $T0 $ebp = $T2 $esp = $T1 .raSearchStart = $eip $T1 ^ = $ebp $ebp = $esp $T1 4 + = $L $T0 .cbSavedRegs - = $P $T0 4 + .cbParams + =
STACK WIN 4 7237f 4 0 0 18 8 c0 0 1 $T0 $ebp = $T2 $esp = $T1 .raSearchStart = $eip $T1 ^ = $ebp $ebp = $esp $T1 4 + = $L $T0 .cbSavedRegs - = $P $T0 4 + .cbParams + =
STACK WIN 4 723c5 1e 5 0 10 0 0 0 1 $T0 $ebp = $eip $T0 4 + ^ = $ebp $T0 ^ = $esp $T0 8 + = $L $T0 .cbSavedRegs - = $P $T0 4 + .cbParams + =
STACK WIN 4 723e8 1e 5 0 10 0 0 0 1 $T0 $ebp = $eip $T0 4 + ^ = $ebp $T0 ^ = $esp $T0 8 + = $L $T0 .cbSavedRegs - = $P $T0 4 + .cbParams + =
STACK WIN 4 7240b 13f 26 0 18 0 c 0 1 $T0 $ebp = $eip $T0 4 + ^ = $ebp $T0 ^ = $esp $T0 8 + = $L $T0 .cbSavedRegs - = $P $T0 4 + .cbParams + =
STACK WIN 4 72420 126 11 0 18 4 c 0 1 $T0 $ebp = $eip $T0 4 + ^ = $ebp $T0 ^ = $esp $T0 8 + = $L $T0 .cbSavedRegs - = $P $T0 4 + .cbParams + = $ebx $T0 20 - ^ =
STACK WIN 4 72421 124 10 0 18 8 c 0 1 $T0 $ebp = $eip $T0 4 + ^ = $ebp $T0 ^ = $esp $T0 8 + = $L $T0 .cbSavedRegs - = $P $T0 4 + .cbParams + = $ebx $T0 20 - ^ =
STACK WIN 4 72431 113 0 0 18 c c 0 1 $T0 $ebp = $eip $T0 4 + ^ = $ebp $T0 ^ = $esp $T0 8 + = $L $T0 .cbSavedRegs - = $P $T0 4 + .cbParams + = $ebx $T0 20 - ^ =
STACK WIN 4 7254f 272 17 0 18 8 d4 0 1 $T0 $ebp = $eip $T0 4 + ^ = $ebp $T0 ^ = $esp $T0 8 + = $L $T0 .cbSavedRegs - = $P $T0 4 + .cbParams + =
STACK WIN 4 72787 4 0 0 18 8 d4 0 1 $T0 $ebp = $T2 $esp = $T1 .raSearchStart = $eip $T1 ^ = $ebp $ebp = $esp $T1 4 + = $L $T0 .cbSavedRegs - = $P $T0 4 + .cbParams + =
STACK WIN 4 727e1 1f 5 0 14 0 0 0 1 $T0 $ebp = $eip $T0 4 + ^ = $ebp $T0 ^ = $esp $T0 8 + = $L $T0 .cbSavedRegs - = $P $T0 4 + .cbParams + =
STACK WIN 4 72805 1f 5 0 14 0 0 0 1 $T0 $ebp = $eip $T0 4 + ^ = $ebp $T0 ^ = $esp $T0 8 + = $L $T0 .cbSavedRegs - = $P $T0 4 + .cbParams + =
STACK WIN 4 72829 2d8 17 0 18 8 e8 0 1 $T0 $ebp = $eip $T0 4 + ^ = $ebp $T0 ^ = $esp $T0 8 + = $L $T0 .cbSavedRegs - = $P $T0 4 + .cbParams + =
STACK WIN 4 72aa3 4 0 0 18 8 e8 0 1 $T0 $ebp = $T2 $esp = $T1 .raSearchStart = $eip $T1 ^ = $ebp $ebp = $esp $T1 4 + = $L $T0 .cbSavedRegs - = $P $T0 4 + .cbParams + =
STACK WIN 4 72b21 1f 5 0 14 0 0 0 1 $T0 $ebp = $eip $T0 4 + ^ = $ebp $T0 ^ = $esp $T0 8 + = $L $T0 .cbSavedRegs - = $P $T0 4 + .cbParams + =
STACK WIN 4 72b45 1f 5 0 14 0 0 0 1 $T0 $ebp = $eip $T0 4 + ^ = $ebp $T0 ^ = $esp $T0 8 + = $L $T0 .cbSavedRegs - = $P $T0 4 + .cbParams + =
STACK WIN 4 72b69 151 17 0 1c 8 c4 0 1 $T0 $ebp = $eip $T0 4 + ^ = $ebp $T0 ^ = $esp $T0 8 + = $L $T0 .cbSavedRegs - = $P $T0 4 + .cbParams + =
STACK WIN 4 72c86 4 0 0 1c 8 c4 0 1 $T0 $ebp = $T2 $esp = $T1 .raSearchStart = $eip $T1 ^ = $ebp $ebp = $esp $T1 4 + = $L $T0 .cbSavedRegs - = $P $T0 4 + .cbParams + =
STACK WIN 4 72cd9 21 5 0 14 0 0 0 1 $T0 $ebp = $eip $T0 4 + ^ = $ebp $T0 ^ = $esp $T0 8 + = $L $T0 .cbSavedRegs - = $P $T0 4 + .cbParams + =
STACK WIN 4 72cff 21 5 0 14 0 0 0 1 $T0 $ebp = $eip $T0 4 + ^ = $ebp $T0 ^ = $esp $T0 8 + = $L $T0 .cbSavedRegs - = $P $T0 4 + .cbParams + =
STACK WIN 4 72d25 21 5 0 14 0 0 0 1 $T0 $ebp = $eip $T0 4 + ^ = $ebp $T0 ^ = $esp $T0 8 + = $L $T0 .cbSavedRegs - = $P $T0 4 + .cbParams + =
STACK WIN 4 72d4b 126 17 0 1c 8 c0 0 1 $T0 $ebp = $eip $T0 4 + ^ = $ebp $T0 ^ = $esp $T0 8 + = $L $T0 .cbSavedRegs - = $P $T0 4 + .cbParams + =
STACK WIN 4 72e4c 4 0 0 1c 8 c0 0 1 $T0 $ebp = $T2 $esp = $T1 .raSearchStart = $eip $T1 ^ = $ebp $ebp = $esp $T1 4 + = $L $T0 .cbSavedRegs - = $P $T0 4 + .cbParams + =
STACK WIN 4 72e5c 4 0 0 1c 8 c0 0 1 $T0 $ebp = $T2 $esp = $T1 .raSearchStart = $eip $T1 ^ = $ebp $ebp = $esp $T1 4 + = $L $T0 .cbSavedRegs - = $P $T0 4 + .cbParams + =
STACK WIN 4 72ea5 21 5 0 14 0 0 0 1 $T0 $ebp = $eip $T0 4 + ^ = $ebp $T0 ^ = $esp $T0 8 + = $L $T0 .cbSavedRegs - = $P $T0 4 + .cbParams + =
STACK WIN 4 72ecb 21 5 0 14 0 0 0 1 $T0 $ebp = $eip $T0 4 + ^ = $ebp $T0 ^ = $esp $T0 8 + = $L $T0 .cbSavedRegs - = $P $T0 4 + .cbParams + =
STACK WIN 4 72ef1 21 5 0 14 0 0 0 1 $T0 $ebp = $eip $T0 4 + ^ = $ebp $T0 ^ = $esp $T0 8 + = $L $T0 .cbSavedRegs - = $P $T0 4 + .cbParams + =
STACK WIN 4 72f17 c3 17 0 18 8 bc 0 1 $T0 $ebp = $eip $T0 4 + ^ = $ebp $T0 ^ = $esp $T0 8 + = $L $T0 .cbSavedRegs - = $P $T0 4 + .cbParams + =
STACK WIN 4 72fbb 4 0 0 18 8 bc 0 1 $T0 $ebp = $T2 $esp = $T1 .raSearchStart = $eip $T1 ^ = $ebp $ebp = $esp $T1 4 + = $L $T0 .cbSavedRegs - = $P $T0 4 + .cbParams + =
STACK WIN 4 72ff9 22 5 0 14 0 0 0 1 $T0 $ebp = $eip $T0 4 + ^ = $ebp $T0 ^ = $esp $T0 8 + = $L $T0 .cbSavedRegs - = $P $T0 4 + .cbParams + =
STACK WIN 4 73020 1f 5 0 14 0 0 0 1 $T0 $ebp = $eip $T0 4 + ^ = $ebp $T0 ^ = $esp $T0 8 + = $L $T0 .cbSavedRegs - = $P $T0 4 + .cbParams + =
STACK WIN 4 73044 1f 5 0 14 0 0 0 1 $T0 $ebp = $eip $T0 4 + ^ = $ebp $T0 ^ = $esp $T0 8 + = $L $T0 .cbSavedRegs - = $P $T0 4 + .cbParams + =
STACK WIN 4 73068 172 17 0 14 8 c4 0 1 $T0 $ebp = $eip $T0 4 + ^ = $ebp $T0 ^ = $esp $T0 8 + = $L $T0 .cbSavedRegs - = $P $T0 4 + .cbParams + =
STACK WIN 4 7314a 4 0 0 14 8 c4 0 1 $T0 $ebp = $T2 $esp = $T1 .raSearchStart = $eip $T1 ^ = $ebp $ebp = $esp $T1 4 + = $L $T0 .cbSavedRegs - = $P $T0 4 + .cbParams + =
STACK WIN 4 731c9 4 0 0 14 8 c4 0 1 $T0 $ebp = $T2 $esp = $T1 .raSearchStart = $eip $T1 ^ = $ebp $ebp = $esp $T1 4 + = $L $T0 .cbSavedRegs - = $P $T0 4 + .cbParams + =
STACK WIN 4 73215 af 17 0 8 8 bc 0 1 $T0 $ebp = $eip $T0 4 + ^ = $ebp $T0 ^ = $esp $T0 8 + = $L $T0 .cbSavedRegs - = $P $T0 4 + .cbParams + =
STACK WIN 4 732a4 4 0 0 8 8 bc 0 1 $T0 $ebp = $T2 $esp = $T1 .raSearchStart = $eip $T1 ^ = $ebp $ebp = $esp $T1 4 + = $L $T0 .cbSavedRegs - = $P $T0 4 + .cbParams + =
STACK WIN 4 732e1 17b 17 0 18 8 c4 0 1 $T0 $ebp = $eip $T0 4 + ^ = $ebp $T0 ^ = $esp $T0 8 + = $L $T0 .cbSavedRegs - = $P $T0 4 + .cbParams + =
STACK WIN 4 73326 4 0 0 18 8 c4 0 1 $T0 $ebp = $T2 $esp = $T1 .raSearchStart = $eip $T1 ^ = $ebp $ebp = $esp $T1 4 + = $L $T0 .cbSavedRegs - = $P $T0 4 + .cbParams + =
STACK WIN 4 73432 4 0 0 18 8 c4 0 1 $T0 $ebp = $T2 $esp = $T1 .raSearchStart = $eip $T1 ^ = $ebp $ebp = $esp $T1 4 + = $L $T0 .cbSavedRegs - = $P $T0 4 + .cbParams + =
STACK WIN 4 7348d 1e 5 0 10 0 0 0 1 $T0 $ebp = $eip $T0 4 + ^ = $ebp $T0 ^ = $esp $T0 8 + = $L $T0 .cbSavedRegs - = $P $T0 4 + .cbParams + =
STACK WIN 4 734b0 1e 5 0 10 0 0 0 1 $T0 $ebp = $eip $T0 4 + ^ = $ebp $T0 ^ = $esp $T0 8 + = $L $T0 .cbSavedRegs - = $P $T0 4 + .cbParams + =
STACK WIN 4 734d3 1e 5 0 10 0 0 0 1 $T0 $ebp = $eip $T0 4 + ^ = $ebp $T0 ^ = $esp $T0 8 + = $L $T0 .cbSavedRegs - = $P $T0 4 + .cbParams + =
STACK WIN 4 734f6 1e 5 0 10 0 0 0 1 $T0 $ebp = $eip $T0 4 + ^ = $ebp $T0 ^ = $esp $T0 8 + = $L $T0 .cbSavedRegs - = $P $T0 4 + .cbParams + =
STACK WIN 4 73519 1f 5 0 14 0 0 0 1 $T0 $ebp = $eip $T0 4 + ^ = $ebp $T0 ^ = $esp $T0 8 + = $L $T0 .cbSavedRegs - = $P $T0 4 + .cbParams + =
STACK WIN 4 7353d 1f 5 0 14 0 0 0 1 $T0 $ebp = $eip $T0 4 + ^ = $ebp $T0 ^ = $esp $T0 8 + = $L $T0 .cbSavedRegs - = $P $T0 4 + .cbParams + =
STACK WIN 4 73561 ad 17 0 8 8 bc 0 1 $T0 $ebp = $eip $T0 4 + ^ = $ebp $T0 ^ = $esp $T0 8 + = $L $T0 .cbSavedRegs - = $P $T0 4 + .cbParams + =
STACK WIN 4 735db 4 0 0 8 8 bc 0 1 $T0 $ebp = $T2 $esp = $T1 .raSearchStart = $eip $T1 ^ = $ebp $ebp = $esp $T1 4 + = $L $T0 .cbSavedRegs - = $P $T0 4 + .cbParams + =
STACK WIN 4 73629 9c 17 0 4 8 bc 0 1 $T0 $ebp = $eip $T0 4 + ^ = $ebp $T0 ^ = $esp $T0 8 + = $L $T0 .cbSavedRegs - = $P $T0 4 + .cbParams + =
STACK WIN 4 73692 4 0 0 4 8 bc 0 1 $T0 $ebp = $T2 $esp = $T1 .raSearchStart = $eip $T1 ^ = $ebp $ebp = $esp $T1 4 + = $L $T0 .cbSavedRegs - = $P $T0 4 + .cbParams + =
STACK WIN 4 736e1 9a 17 0 4 8 bc 0 1 $T0 $ebp = $eip $T0 4 + ^ = $ebp $T0 ^ = $esp $T0 8 + = $L $T0 .cbSavedRegs - = $P $T0 4 + .cbParams + =
STACK WIN 4 73748 4 0 0 4 8 bc 0 1 $T0 $ebp = $T2 $esp = $T1 .raSearchStart = $eip $T1 ^ = $ebp $ebp = $esp $T1 4 + = $L $T0 .cbSavedRegs - = $P $T0 4 + .cbParams + =
STACK WIN 4 73799 107 17 0 10 8 c0 0 1 $T0 $ebp = $eip $T0 4 + ^ = $ebp $T0 ^ = $esp $T0 8 + = $L $T0 .cbSavedRegs - = $P $T0 4 + .cbParams + =
STACK WIN 4 73854 4 0 0 10 8 c0 0 1 $T0 $ebp = $T2 $esp = $T1 .raSearchStart = $eip $T1 ^ = $ebp $ebp = $esp $T1 4 + = $L $T0 .cbSavedRegs - = $P $T0 4 + .cbParams + =
STACK WIN 4 738c1 89 13 0 8 0 a8 0 1 $T0 $ebp = $eip $T0 4 + ^ = $ebp $T0 ^ = $esp $T0 8 + = $L $T0 .cbSavedRegs - = $P $T0 4 + .cbParams + =
STACK WIN 4 7394f b5 17 0 c 8 bc 0 1 $T0 $ebp = $eip $T0 4 + ^ = $ebp $T0 ^ = $esp $T0 8 + = $L $T0 .cbSavedRegs - = $P $T0 4 + .cbParams + =
STACK WIN 4 739d1 4 0 0 c 8 bc 0 1 $T0 $ebp = $T2 $esp = $T1 .raSearchStart = $eip $T1 ^ = $ebp $ebp = $esp $T1 4 + = $L $T0 .cbSavedRegs - = $P $T0 4 + .cbParams + =
STACK WIN 4 1b1f0 75 13 0 8 0 a4 0 1 $T0 $ebp = $eip $T0 4 + ^ = $ebp $T0 ^ = $esp $T0 8 + = $L $T0 .cbSavedRegs - = $P $T0 4 + .cbParams + =
STACK WIN 4 73a21 82 18 0 8 0 a4 0 1 $T0 $ebp = $eip $T0 4 + ^ = $ebp $T0 ^ = $esp $T0 8 + = $L $T0 .cbSavedRegs - = $P $T0 4 + .cbParams + =
STACK WIN 4 73aa8 6f 13 0 4 0 a4 0 1 $T0 $ebp = $eip $T0 4 + ^ = $ebp $T0 ^ = $esp $T0 8 + = $L $T0 .cbSavedRegs - = $P $T0 4 + .cbParams + =
STACK WIN 4 73b1c 6f 13 0 4 0 a4 0 1 $T0 $ebp = $eip $T0 4 + ^ = $ebp $T0 ^ = $esp $T0 8 + = $L $T0 .cbSavedRegs - = $P $T0 4 + .cbParams + =
STACK WIN 4 73b90 75 13 0 8 0 a4 0 1 $T0 $ebp = $eip $T0 4 + ^ = $ebp $T0 ^ = $esp $T0 8 + = $L $T0 .cbSavedRegs - = $P $T0 4 + .cbParams + =
STACK WIN 4 73c0a 75 13 0 8 0 a4 0 1 $T0 $ebp = $eip $T0 4 + ^ = $ebp $T0 ^ = $esp $T0 8 + = $L $T0 .cbSavedRegs - = $P $T0 4 + .cbParams + =
STACK WIN 4 73c84 ac 17 0 8 8 bc 0 1 $T0 $ebp = $eip $T0 4 + ^ = $ebp $T0 ^ = $esp $T0 8 + = $L $T0 .cbSavedRegs - = $P $T0 4 + .cbParams + =
STACK WIN 4 73d11 4 0 0 8 8 bc 0 1 $T0 $ebp = $T2 $esp = $T1 .raSearchStart = $eip $T1 ^ = $ebp $ebp = $esp $T1 4 + = $L $T0 .cbSavedRegs - = $P $T0 4 + .cbParams + =
STACK WIN 4 73d51 b5 17 0 c 8 bc 0 1 $T0 $ebp = $eip $T0 4 + ^ = $ebp $T0 ^ = $esp $T0 8 + = $L $T0 .cbSavedRegs - = $P $T0 4 + .cbParams + =
STACK WIN 4 73de7 4 0 0 c 8 bc 0 1 $T0 $ebp = $T2 $esp = $T1 .raSearchStart = $eip $T1 ^ = $ebp $ebp = $esp $T1 4 + = $L $T0 .cbSavedRegs - = $P $T0 4 + .cbParams + =
STACK WIN 4 73e21 e1 17 0 18 8 bc 0 1 $T0 $ebp = $eip $T0 4 + ^ = $ebp $T0 ^ = $esp $T0 8 + = $L $T0 .cbSavedRegs - = $P $T0 4 + .cbParams + =
STACK WIN 4 73ee3 4 0 0 18 8 bc 0 1 $T0 $ebp = $T2 $esp = $T1 .raSearchStart = $eip $T1 ^ = $ebp $ebp = $esp $T1 4 + = $L $T0 .cbSavedRegs - = $P $T0 4 + .cbParams + =
STACK WIN 4 73f21 1f 5 0 14 0 0 0 1 $T0 $ebp = $eip $T0 4 + ^ = $ebp $T0 ^ = $esp $T0 8 + = $L $T0 .cbSavedRegs - = $P $T0 4 + .cbParams + =
STACK WIN 4 73f45 1f 5 0 14 0 0 0 1 $T0 $ebp = $eip $T0 4 + ^ = $ebp $T0 ^ = $esp $T0 8 + = $L $T0 .cbSavedRegs - = $P $T0 4 + .cbParams + =
STACK WIN 4 73f69 77 13 0 8 0 a4 0 1 $T0 $ebp = $eip $T0 4 + ^ = $ebp $T0 ^ = $esp $T0 8 + = $L $T0 .cbSavedRegs - = $P $T0 4 + .cbParams + =
STACK WIN 4 73fe5 75 13 0 8 0 a4 0 1 $T0 $ebp = $eip $T0 4 + ^ = $ebp $T0 ^ = $esp $T0 8 + = $L $T0 .cbSavedRegs - = $P $T0 4 + .cbParams + =
STACK WIN 4 7405f 6f 13 0 4 0 a4 0 1 $T0 $ebp = $eip $T0 4 + ^ = $ebp $T0 ^ = $esp $T0 8 + = $L $T0 .cbSavedRegs - = $P $T0 4 + .cbParams + =
STACK WIN 4 740d3 6b 13 0 0 0 a4 0 1 $T0 $ebp = $eip $T0 4 + ^ = $ebp $T0 ^ = $esp $T0 8 + = $L $T0 .cbSavedRegs - = $P $T0 4 + .cbParams + =
STACK WIN 4 74143 b6 15 0 4 0 a4 0 1 $T0 $ebp = $eip $T0 4 + ^ = $ebp $T0 ^ = $esp $T0 8 + = $L $T0 .cbSavedRegs - = $P $T0 4 + .cbParams + =
STACK WIN 4 74154 9c 4 0 4 4 a4 0 1 $T0 $ebp = $eip $T0 4 + ^ = $ebp $T0 ^ = $esp $T0 8 + = $L $T0 .cbSavedRegs - = $P $T0 4 + .cbParams + =
STACK WIN 4 74158 97 0 0 4 8 a4 0 1 $T0 $ebp = $eip $T0 4 + ^ = $ebp $T0 ^ = $esp $T0 8 + = $L $T0 .cbSavedRegs - = $P $T0 4 + .cbParams + =
STACK WIN 4 1b18f 6e 13 0 0 0 a4 0 1 $T0 $ebp = $eip $T0 4 + ^ = $ebp $T0 ^ = $esp $T0 8 + = $L $T0 .cbSavedRegs - = $P $T0 4 + .cbParams + =
STACK WIN 4 741fe 5e 13 0 4 0 a4 0 1 $T0 $ebp = $eip $T0 4 + ^ = $ebp $T0 ^ = $esp $T0 8 + = $L $T0 .cbSavedRegs - = $P $T0 4 + .cbParams + =
STACK WIN 4 74261 2e 5 0 4 0 0 0 1 $T0 $ebp = $eip $T0 4 + ^ = $ebp $T0 ^ = $esp $T0 8 + = $L $T0 .cbSavedRegs - = $P $T0 4 + .cbParams + =
STACK WIN 4 74294 90 12 0 8 0 a4 0 1 $T0 $ebp = $eip $T0 4 + ^ = $ebp $T0 ^ = $esp $T0 8 + = $L $T0 .cbSavedRegs - = $P $T0 4 + .cbParams + =
STACK WIN 4 742a5 76 1 0 8 4 a4 0 1 $T0 $ebp = $eip $T0 4 + ^ = $ebp $T0 ^ = $esp $T0 8 + = $L $T0 .cbSavedRegs - = $P $T0 4 + .cbParams + =
STACK WIN 4 742a6 74 0 0 8 8 a4 0 1 $T0 $ebp = $eip $T0 4 + ^ = $ebp $T0 ^ = $esp $T0 8 + = $L $T0 .cbSavedRegs - = $P $T0 4 + .cbParams + =
STACK WIN 4 74329 13 5 0 4 0 0 0 1 $T0 $ebp = $eip $T0 4 + ^ = $ebp $T0 ^ = $esp $T0 8 + = $L $T0 .cbSavedRegs - = $P $T0 4 + .cbParams + =
STACK WIN 4 74341 13 5 0 4 0 0 0 1 $T0 $ebp = $eip $T0 4 + ^ = $ebp $T0 ^ = $esp $T0 8 + = $L $T0 .cbSavedRegs - = $P $T0 4 + .cbParams + =
STACK WIN 4 74359 67 13 0 0 0 a4 0 1 $T0 $ebp = $eip $T0 4 + ^ = $ebp $T0 ^ = $esp $T0 8 + = $L $T0 .cbSavedRegs - = $P $T0 4 + .cbParams + =
STACK WIN 4 743c5 11c 17 0 8 8 c4 0 1 $T0 $ebp = $eip $T0 4 + ^ = $ebp $T0 ^ = $esp $T0 8 + = $L $T0 .cbSavedRegs - = $P $T0 4 + .cbParams + =
STACK WIN 4 74497 4 0 0 8 8 c4 0 1 $T0 $ebp = $T2 $esp = $T1 .raSearchStart = $eip $T1 ^ = $ebp $ebp = $esp $T1 4 + = $L $T0 .cbSavedRegs - = $P $T0 4 + .cbParams + =
STACK WIN 4 1af14 a3 17 0 8 8 bc 0 1 $T0 $ebp = $eip $T0 4 + ^ = $ebp $T0 ^ = $esp $T0 8 + = $L $T0 .cbSavedRegs - = $P $T0 4 + .cbParams + =
STACK WIN 4 469dd 4 0 0 8 8 bc 0 1 $T0 $ebp = $T2 $esp = $T1 .raSearchStart = $eip $T1 ^ = $ebp $ebp = $esp $T1 4 + = $L $T0 .cbSavedRegs - = $P $T0 4 + .cbParams + =
STACK WIN 4 74501 67 13 0 0 0 a4 0 1 $T0 $ebp = $eip $T0 4 + ^ = $ebp $T0 ^ = $esp $T0 8 + = $L $T0 .cbSavedRegs - = $P $T0 4 + .cbParams + =
STACK WIN 4 7456d a3 17 0 8 8 bc 0 1 $T0 $ebp = $eip $T0 4 + ^ = $ebp $T0 ^ = $esp $T0 8 + = $L $T0 .cbSavedRegs - = $P $T0 4 + .cbParams + =
STACK WIN 4 745dd 4 0 0 8 8 bc 0 1 $T0 $ebp = $T2 $esp = $T1 .raSearchStart = $eip $T1 ^ = $ebp $ebp = $esp $T1 4 + = $L $T0 .cbSavedRegs - = $P $T0 4 + .cbParams + =
STACK WIN 4 74631 83 13 0 4 0 a8 0 1 $T0 $ebp = $eip $T0 4 + ^ = $ebp $T0 ^ = $esp $T0 8 + = $L $T0 .cbSavedRegs - = $P $T0 4 + .cbParams + =
STACK WIN 4 1bc2b e4 17 0 8 8 bc 0 1 $T0 $ebp = $eip $T0 4 + ^ = $ebp $T0 ^ = $esp $T0 8 + = $L $T0 .cbSavedRegs - = $P $T0 4 + .cbParams + =
STACK WIN 4 469fe 4 0 0 8 8 bc 0 1 $T0 $ebp = $T2 $esp = $T1 .raSearchStart = $eip $T1 ^ = $ebp $ebp = $esp $T1 4 + = $L $T0 .cbSavedRegs - = $P $T0 4 + .cbParams + =
STACK WIN 4 746b9 c1 19 0 10 0 a4 0 1 $T0 $ebp = $eip $T0 4 + ^ = $ebp $T0 ^ = $esp $T0 8 + = $L $T0 .cbSavedRegs - = $P $T0 4 + .cbParams + =
STACK WIN 4 746ca a7 8 0 10 4 a4 0 1 $T0 $ebp = $eip $T0 4 + ^ = $ebp $T0 ^ = $esp $T0 8 + = $L $T0 .cbSavedRegs - = $P $T0 4 + .cbParams + = $ebx $T0 172 - ^ =
STACK WIN 4 746ce a2 4 0 10 8 a4 0 1 $T0 $ebp = $eip $T0 4 + ^ = $ebp $T0 ^ = $esp $T0 8 + = $L $T0 .cbSavedRegs - = $P $T0 4 + .cbParams + = $ebx $T0 172 - ^ =
STACK WIN 4 746d2 9d 0 0 10 c a4 0 1 $T0 $ebp = $eip $T0 4 + ^ = $ebp $T0 ^ = $esp $T0 8 + = $L $T0 .cbSavedRegs - = $P $T0 4 + .cbParams + = $ebx $T0 172 - ^ =
STACK WIN 4 7477f 7b 13 0 c 0 a4 0 1 $T0 $ebp = $eip $T0 4 + ^ = $ebp $T0 ^ = $esp $T0 8 + = $L $T0 .cbSavedRegs - = $P $T0 4 + .cbParams + =
STACK WIN 4 747ff ae 17 0 c 8 bc 0 1 $T0 $ebp = $eip $T0 4 + ^ = $ebp $T0 ^ = $esp $T0 8 + = $L $T0 .cbSavedRegs - = $P $T0 4 + .cbParams + =
STACK WIN 4 7487a 4 0 0 c 8 bc 0 1 $T0 $ebp = $T2 $esp = $T1 .raSearchStart = $eip $T1 ^ = $ebp $ebp = $esp $T1 4 + = $L $T0 .cbSavedRegs - = $P $T0 4 + .cbParams + =
STACK WIN 4 748c9 6f 13 0 4 0 a4 0 1 $T0 $ebp = $eip $T0 4 + ^ = $ebp $T0 ^ = $esp $T0 8 + = $L $T0 .cbSavedRegs - = $P $T0 4 + .cbParams + =
STACK WIN 4 7493d 6f 13 0 4 0 a4 0 1 $T0 $ebp = $eip $T0 4 + ^ = $ebp $T0 ^ = $esp $T0 8 + = $L $T0 .cbSavedRegs - = $P $T0 4 + .cbParams + =
STACK WIN 4 749b1 e8 17 0 14 8 bc 0 1 $T0 $ebp = $eip $T0 4 + ^ = $ebp $T0 ^ = $esp $T0 8 + = $L $T0 .cbSavedRegs - = $P $T0 4 + .cbParams + =
STACK WIN 4 74a7a 4 0 0 14 8 bc 0 1 $T0 $ebp = $T2 $esp = $T1 .raSearchStart = $eip $T1 ^ = $ebp $ebp = $esp $T1 4 + = $L $T0 .cbSavedRegs - = $P $T0 4 + .cbParams + =
STACK WIN 4 74ab9 54 8 0 8 0 44 0 1 $T0 $ebp = $eip $T0 4 + ^ = $ebp $T0 ^ = $esp $T0 8 + = $L $T0 .cbSavedRegs - = $P $T0 4 + .cbParams + =
STACK WIN 4 74b12 6f 13 0 4 0 a4 0 1 $T0 $ebp = $eip $T0 4 + ^ = $ebp $T0 ^ = $esp $T0 8 + = $L $T0 .cbSavedRegs - = $P $T0 4 + .cbParams + =
STACK WIN 4 74b86 c 0 0 0 0 0 0 1 $T2 $esp .cbLocals + .cbSavedRegs + = $T0 .raSearchStart = $eip $T0 ^ = $esp $T0 4 + =
STACK WIN 4 74b97 4d 8 0 c 0 20 0 1 $T0 $ebp = $eip $T0 4 + ^ = $ebp $T0 ^ = $esp $T0 8 + = $L $T0 .cbSavedRegs - = $P $T0 4 + .cbParams + =
STACK WIN 4 74be9 a0 b 0 10 0 c 0 1 $T0 $ebp = $eip $T0 4 + ^ = $ebp $T0 ^ = $esp $T0 8 + = $L $T0 .cbSavedRegs - = $P $T0 4 + .cbParams + =
STACK WIN 4 74bf2 93 2 0 10 4 c 0 1 $T0 $ebp = $eip $T0 4 + ^ = $ebp $T0 ^ = $esp $T0 8 + = $L $T0 .cbSavedRegs - = $P $T0 4 + .cbParams + = $ebx $T0 20 - ^ =
STACK WIN 4 74bf3 91 1 0 10 8 c 0 1 $T0 $ebp = $eip $T0 4 + ^ = $ebp $T0 ^ = $esp $T0 8 + = $L $T0 .cbSavedRegs - = $P $T0 4 + .cbParams + = $ebx $T0 20 - ^ =
STACK WIN 4 74bf4 8f 0 0 10 c c 0 1 $T0 $ebp = $eip $T0 4 + ^ = $ebp $T0 ^ = $esp $T0 8 + = $L $T0 .cbSavedRegs - = $P $T0 4 + .cbParams + = $ebx $T0 20 - ^ =
STACK WIN 4 74c8e bd 11 0 8 0 408 0 1 $T0 $ebp = $eip $T0 4 + ^ = $ebp $T0 ^ = $esp $T0 8 + = $L $T0 .cbSavedRegs - = $P $T0 4 + .cbParams + =
STACK WIN 4 74c9f a3 0 0 8 4 408 0 1 $T0 $ebp = $eip $T0 4 + ^ = $ebp $T0 ^ = $esp $T0 8 + = $L $T0 .cbSavedRegs - = $P $T0 4 + .cbParams + =
STACK WIN 4 74e13 13d 11 0 4 0 4b0 0 1 $T0 $ebp = $eip $T0 4 + ^ = $ebp $T0 ^ = $esp $T0 8 + = $L $T0 .cbSavedRegs - = $P $T0 4 + .cbParams + =
STACK WIN 4 74e24 123 0 0 4 4 4b0 0 1 $T0 $ebp = $eip $T0 4 + ^ = $ebp $T0 ^ = $esp $T0 8 + = $L $T0 .cbSavedRegs - = $P $T0 4 + .cbParams + =
STACK WIN 4 74e74 79 0 0 4 8 4b0 0 1 $T0 $ebp = $eip $T0 4 + ^ = $ebp $T0 ^ = $esp $T0 8 + = $L $T0 .cbSavedRegs - = $P $T0 4 + .cbParams + =
STACK WIN 4 74f87 135 17 0 8 8 c0 0 1 $T0 $ebp = $eip $T0 4 + ^ = $ebp $T0 ^ = $esp $T0 8 + = $L $T0 .cbSavedRegs - = $P $T0 4 + .cbParams + =
STACK WIN 4 7507d 4 0 0 8 8 c0 0 1 $T0 $ebp = $T2 $esp = $T1 .raSearchStart = $eip $T1 ^ = $ebp $ebp = $esp $T1 4 + = $L $T0 .cbSavedRegs - = $P $T0 4 + .cbParams + =
STACK WIN 4 750d9 c5 15 0 8 0 a4 0 1 $T0 $ebp = $eip $T0 4 + ^ = $ebp $T0 ^ = $esp $T0 8 + = $L $T0 .cbSavedRegs - = $P $T0 4 + .cbParams + =
STACK WIN 4 750ea ab 4 0 8 4 a4 0 1 $T0 $ebp = $eip $T0 4 + ^ = $ebp $T0 ^ = $esp $T0 8 + = $L $T0 .cbSavedRegs - = $P $T0 4 + .cbParams + =
STACK WIN 4 750ee a6 0 0 8 8 a4 0 1 $T0 $ebp = $eip $T0 4 + ^ = $ebp $T0 ^ = $esp $T0 8 + = $L $T0 .cbSavedRegs - = $P $T0 4 + .cbParams + =
STACK WIN 4 751a3 ac 17 0 c 8 bc 0 1 $T0 $ebp = $eip $T0 4 + ^ = $ebp $T0 ^ = $esp $T0 8 + = $L $T0 .cbSavedRegs - = $P $T0 4 + .cbParams + =
STACK WIN 4 7521c 4 0 0 c 8 bc 0 1 $T0 $ebp = $T2 $esp = $T1 .raSearchStart = $eip $T1 ^ = $ebp $ebp = $esp $T1 4 + = $L $T0 .cbSavedRegs - = $P $T0 4 + .cbParams + =
STACK WIN 4 75271 b 0 0 4 0 0 0 1 $T2 $esp .cbLocals + .cbSavedRegs + = $T0 .raSearchStart = $eip $T0 ^ = $esp $T0 4 + =
STACK WIN 4 1b5c6 ca 5 0 4 0 0 0 1 $T0 $ebp = $eip $T0 4 + ^ = $ebp $T0 ^ = $esp $T0 8 + = $L $T0 .cbSavedRegs - = $P $T0 4 + .cbParams + =
STACK WIN 4 1b616 17 0 0 4 4 0 0 1 $T0 $ebp = $eip $T0 4 + ^ = $ebp $T0 ^ = $esp $T0 8 + = $L $T0 .cbSavedRegs - = $P $T0 4 + .cbParams + =
STACK WIN 4 1b61d f 0 0 4 8 0 0 1 $T0 $ebp = $eip $T0 4 + ^ = $ebp $T0 ^ = $esp $T0 8 + = $L $T0 .cbSavedRegs - = $P $T0 4 + .cbParams + =
STACK WIN 4 2000c 78 6 0 4 0 0 0 1 $T0 $ebp = $eip $T0 4 + ^ = $ebp $T0 ^ = $esp $T0 8 + = $L $T0 .cbSavedRegs - = $P $T0 4 + .cbParams + =
STACK WIN 4 20012 3d 0 0 4 4 0 0 1 $T0 $ebp = $eip $T0 4 + ^ = $ebp $T0 ^ = $esp $T0 8 + = $L $T0 .cbSavedRegs - = $P $T0 4 + .cbParams + =
STACK WIN 4 1b58b 39 7 0 8 0 0 0 1 $T0 $ebp = $eip $T0 4 + ^ = $ebp $T0 ^ = $esp $T0 8 + = $L $T0 .cbSavedRegs - = $P $T0 4 + .cbParams + =
STACK WIN 4 1b591 2f 1 0 8 4 0 0 1 $T0 $ebp = $eip $T0 4 + ^ = $ebp $T0 ^ = $esp $T0 8 + = $L $T0 .cbSavedRegs - = $P $T0 4 + .cbParams + =
STACK WIN 4 1b592 2d 0 0 8 8 0 0 1 $T0 $ebp = $eip $T0 4 + ^ = $ebp $T0 ^ = $esp $T0 8 + = $L $T0 .cbSavedRegs - = $P $T0 4 + .cbParams + =
STACK WIN 4 75280 1cc c 0 4 8 7c 0 1 $T0 $ebp = $eip $T0 4 + ^ = $ebp $T0 ^ = $esp $T0 8 + = $L $T0 .cbSavedRegs - = $P $T0 4 + .cbParams + =
STACK WIN 4 75348 4 0 0 4 8 7c 0 1 $T0 $ebp = $T2 $esp = $T1 .raSearchStart = $eip $T1 ^ = $ebp $ebp = $esp $T1 4 + = $L $T0 .cbSavedRegs - = $P $T0 4 + .cbParams + =
STACK WIN 4 753b9 c 0 0 4 8 7c 0 1 $T0 $ebp = $T2 $esp = $T1 .raSearchStart = $eip $T1 ^ = $ebp $ebp = $esp $T1 4 + = $L $T0 .cbSavedRegs - = $P $T0 4 + .cbParams + =
STACK WIN 4 75454 c 0 0 4 8 7c 0 1 $T0 $ebp = $T2 $esp = $T1 .raSearchStart = $eip $T1 ^ = $ebp $ebp = $esp $T1 4 + = $L $T0 .cbSavedRegs - = $P $T0 4 + .cbParams + =
STACK WIN 4 75489 45 13 0 0 0 a4 0 1 $T0 $ebp = $eip $T0 4 + ^ = $ebp $T0 ^ = $esp $T0 8 + = $L $T0 .cbSavedRegs - = $P $T0 4 + .cbParams + =
STACK WIN 4 754d3 f 0 0 0 0 0 0 1 $T2 $esp .cbLocals + .cbSavedRegs + = $T0 .raSearchStart = $eip $T0 ^ = $esp $T0 4 + =
STACK WIN 4 754e4 242 17 0 8 8 c8 0 1 $T0 $ebp = $eip $T0 4 + ^ = $ebp $T0 ^ = $esp $T0 8 + = $L $T0 .cbSavedRegs - = $P $T0 4 + .cbParams + =
STACK WIN 4 756a5 4 0 0 8 8 c8 0 1 $T0 $ebp = $T2 $esp = $T1 .raSearchStart = $eip $T1 ^ = $ebp $ebp = $esp $T1 4 + = $L $T0 .cbSavedRegs - = $P $T0 4 + .cbParams + =
STACK WIN 4 38211 1e 5 0 10 0 0 0 1 $T0 $ebp = $eip $T0 4 + ^ = $ebp $T0 ^ = $esp $T0 8 + = $L $T0 .cbSavedRegs - = $P $T0 4 + .cbParams + =
STACK WIN 4 75749 1e 5 0 10 0 0 0 1 $T0 $ebp = $eip $T0 4 + ^ = $ebp $T0 ^ = $esp $T0 8 + = $L $T0 .cbSavedRegs - = $P $T0 4 + .cbParams + =
STACK WIN 4 7576c 19 5 0 c 0 0 0 1 $T0 $ebp = $eip $T0 4 + ^ = $ebp $T0 ^ = $esp $T0 8 + = $L $T0 .cbSavedRegs - = $P $T0 4 + .cbParams + =
STACK WIN 4 7578a 1b 5 0 c 0 0 0 1 $T0 $ebp = $eip $T0 4 + ^ = $ebp $T0 ^ = $esp $T0 8 + = $L $T0 .cbSavedRegs - = $P $T0 4 + .cbParams + =
STACK WIN 4 757aa 1b 5 0 c 0 0 0 1 $T0 $ebp = $eip $T0 4 + ^ = $ebp $T0 ^ = $esp $T0 8 + = $L $T0 .cbSavedRegs - = $P $T0 4 + .cbParams + =
STACK WIN 4 757ca 19 5 0 c 0 0 0 1 $T0 $ebp = $eip $T0 4 + ^ = $ebp $T0 ^ = $esp $T0 8 + = $L $T0 .cbSavedRegs - = $P $T0 4 + .cbParams + =
STACK WIN 4 757e8 1c 5 0 10 0 0 0 1 $T0 $ebp = $eip $T0 4 + ^ = $ebp $T0 ^ = $esp $T0 8 + = $L $T0 .cbSavedRegs - = $P $T0 4 + .cbParams + =
STACK WIN 4 75809 19 5 0 c 0 0 0 1 $T0 $ebp = $eip $T0 4 + ^ = $ebp $T0 ^ = $esp $T0 8 + = $L $T0 .cbSavedRegs - = $P $T0 4 + .cbParams + =
STACK WIN 4 37ce1 16 5 0 8 0 0 0 1 $T0 $ebp = $eip $T0 4 + ^ = $ebp $T0 ^ = $esp $T0 8 + = $L $T0 .cbSavedRegs - = $P $T0 4 + .cbParams + =
STACK WIN 4 75827 16 5 0 8 0 0 0 1 $T0 $ebp = $eip $T0 4 + ^ = $ebp $T0 ^ = $esp $T0 8 + = $L $T0 .cbSavedRegs - = $P $T0 4 + .cbParams + =
STACK WIN 4 75842 84 16 0 14 0 a4 0 1 $T0 $ebp = $eip $T0 4 + ^ = $ebp $T0 ^ = $esp $T0 8 + = $L $T0 .cbSavedRegs - = $P $T0 4 + .cbParams + =
STACK WIN 4 75853 6a 5 0 14 4 a4 0 1 $T0 $ebp = $eip $T0 4 + ^ = $ebp $T0 ^ = $esp $T0 8 + = $L $T0 .cbSavedRegs - = $P $T0 4 + .cbParams + = $ebx $T0 172 - ^ =
STACK WIN 4 75857 65 1 0 14 8 a4 0 1 $T0 $ebp = $eip $T0 4 + ^ = $ebp $T0 ^ = $esp $T0 8 + = $L $T0 .cbSavedRegs - = $P $T0 4 + .cbParams + = $ebx $T0 172 - ^ =
STACK WIN 4 75858 63 0 0 14 c a4 0 1 $T0 $ebp = $eip $T0 4 + ^ = $ebp $T0 ^ = $esp $T0 8 + = $L $T0 .cbSavedRegs - = $P $T0 4 + .cbParams + = $ebx $T0 172 - ^ =
STACK WIN 4 a459 b3 5 0 8 0 0 0 1 $T0 $ebp = $eip $T0 4 + ^ = $ebp $T0 ^ = $esp $T0 8 + = $L $T0 .cbSavedRegs - = $P $T0 4 + .cbParams + =
STACK WIN 4 d21d 15 0 0 8 4 0 0 1 $T0 $ebp = $eip $T0 4 + ^ = $ebp $T0 ^ = $esp $T0 8 + = $L $T0 .cbSavedRegs - = $P $T0 4 + .cbParams + =
STACK WIN 4 cf52 136 5 0 18 0 0 0 1 $T0 $ebp = $eip $T0 4 + ^ = $ebp $T0 ^ = $esp $T0 8 + = $L $T0 .cbSavedRegs - = $P $T0 4 + .cbParams + =
STACK WIN 4 cf63 111 0 0 18 4 0 0 1 $T0 $ebp = $eip $T0 4 + ^ = $ebp $T0 ^ = $esp $T0 8 + = $L $T0 .cbSavedRegs - = $P $T0 4 + .cbParams + =
STACK WIN 4 cf7e f4 0 0 18 8 0 0 1 $T0 $ebp = $eip $T0 4 + ^ = $ebp $T0 ^ = $esp $T0 8 + = $L $T0 .cbSavedRegs - = $P $T0 4 + .cbParams + =
STACK WIN 4 d239 24 5 0 14 0 0 0 1 $T0 $ebp = $eip $T0 4 + ^ = $ebp $T0 ^ = $esp $T0 8 + = $L $T0 .cbSavedRegs - = $P $T0 4 + .cbParams + =
STACK WIN 4 380ef d7 c 0 c 0 4 0 1 $T0 $ebp = $eip $T0 4 + ^ = $ebp $T0 ^ = $esp $T0 8 + = $L $T0 .cbSavedRegs - = $P $T0 4 + .cbParams + =
STACK WIN 4 380f9 c9 2 0 c 4 4 0 1 $T0 $ebp = $eip $T0 4 + ^ = $ebp $T0 ^ = $esp $T0 8 + = $L $T0 .cbSavedRegs - = $P $T0 4 + .cbParams + = $ebx $T0 12 - ^ =
STACK WIN 4 380fa c7 1 0 c 8 4 0 1 $T0 $ebp = $eip $T0 4 + ^ = $ebp $T0 ^ = $esp $T0 8 + = $L $T0 .cbSavedRegs - = $P $T0 4 + .cbParams + = $ebx $T0 12 - ^ =
STACK WIN 4 380fb c5 0 0 c c 4 0 1 $T0 $ebp = $eip $T0 4 + ^ = $ebp $T0 ^ = $esp $T0 8 + = $L $T0 .cbSavedRegs - = $P $T0 4 + .cbParams + = $ebx $T0 12 - ^ =
STACK WIN 4 38063 f7 a 0 24 0 c 0 1 $T0 $ebp = $eip $T0 4 + ^ = $ebp $T0 ^ = $esp $T0 8 + = $L $T0 .cbSavedRegs - = $P $T0 4 + .cbParams + =
STACK WIN 4 3806c ea 1 0 24 4 c 0 1 $T0 $ebp = $eip $T0 4 + ^ = $ebp $T0 ^ = $esp $T0 8 + = $L $T0 .cbSavedRegs - = $P $T0 4 + .cbParams + = $ebx $T0 20 - ^ =
STACK WIN 4 3806d e8 0 0 24 8 c 0 1 $T0 $ebp = $eip $T0 4 + ^ = $ebp $T0 ^ = $esp $T0 8 + = $L $T0 .cbSavedRegs - = $P $T0 4 + .cbParams + = $ebx $T0 20 - ^ =
STACK WIN 4 380a9 65 0 0 24 c c 0 1 $T0 $ebp = $eip $T0 4 + ^ = $ebp $T0 ^ = $esp $T0 8 + = $L $T0 .cbSavedRegs - = $P $T0 4 + .cbParams + = $ebx $T0 20 - ^ =
STACK WIN 4 d077 1a3 1e 0 18 0 218 0 1 $T0 $ebp = $eip $T0 4 + ^ = $ebp $T0 ^ = $esp $T0 8 + = $L $T0 .cbSavedRegs - = $P $T0 4 + .cbParams + =
STACK WIN 4 d088 189 d 0 18 4 218 0 1 $T0 $ebp = $eip $T0 4 + ^ = $ebp $T0 ^ = $esp $T0 8 + = $L $T0 .cbSavedRegs - = $P $T0 4 + .cbParams + = $ebx $T0 544 - ^ =
STACK WIN 4 d08f 181 6 0 18 8 218 0 1 $T0 $ebp = $eip $T0 4 + ^ = $ebp $T0 ^ = $esp $T0 8 + = $L $T0 .cbSavedRegs - = $P $T0 4 + .cbParams + = $ebx $T0 544 - ^ =
STACK WIN 4 d095 17a 0 0 18 c 218 0 1 $T0 $ebp = $eip $T0 4 + ^ = $ebp $T0 ^ = $esp $T0 8 + = $L $T0 .cbSavedRegs - = $P $T0 4 + .cbParams + = $ebx $T0 544 - ^ =
STACK WIN 4 38de8 204 19 0 18 0 214 0 1 $T0 $ebp = $eip $T0 4 + ^ = $ebp $T0 ^ = $esp $T0 8 + = $L $T0 .cbSavedRegs - = $P $T0 4 + .cbParams + =
STACK WIN 4 38df9 1ea 8 0 18 4 214 0 1 $T0 $ebp = $eip $T0 4 + ^ = $ebp $T0 ^ = $esp $T0 8 + = $L $T0 .cbSavedRegs - = $P $T0 4 + .cbParams + = $ebx $T0 540 - ^ =
STACK WIN 4 38dfd 1e5 4 0 18 8 214 0 1 $T0 $ebp = $eip $T0 4 + ^ = $ebp $T0 ^ = $esp $T0 8 + = $L $T0 .cbSavedRegs - = $P $T0 4 + .cbParams + = $ebx $T0 540 - ^ =
STACK WIN 4 38e01 1e0 0 0 18 c 214 0 1 $T0 $ebp = $eip $T0 4 + ^ = $ebp $T0 ^ = $esp $T0 8 + = $L $T0 .cbSavedRegs - = $P $T0 4 + .cbParams + = $ebx $T0 540 - ^ =
STACK WIN 4 d262 16c 1d 0 10 0 108 0 1 $T0 $ebp = $eip $T0 4 + ^ = $ebp $T0 ^ = $esp $T0 8 + = $L $T0 .cbSavedRegs - = $P $T0 4 + .cbParams + =
STACK WIN 4 d277 14e 8 0 10 4 108 0 1 $T0 $ebp = $eip $T0 4 + ^ = $ebp $T0 ^ = $esp $T0 8 + = $L $T0 .cbSavedRegs - = $P $T0 4 + .cbParams + = $ebx $T0 272 - ^ =
STACK WIN 4 d27e 146 1 0 10 8 108 0 1 $T0 $ebp = $eip $T0 4 + ^ = $ebp $T0 ^ = $esp $T0 8 + = $L $T0 .cbSavedRegs - = $P $T0 4 + .cbParams + = $ebx $T0 272 - ^ =
STACK WIN 4 d27f 144 0 0 10 c 108 0 1 $T0 $ebp = $eip $T0 4 + ^ = $ebp $T0 ^ = $esp $T0 8 + = $L $T0 .cbSavedRegs - = $P $T0 4 + .cbParams + = $ebx $T0 272 - ^ =
STACK WIN 4 758cb 9b 11 0 c 0 10c 0 1 $T0 $ebp = $eip $T0 4 + ^ = $ebp $T0 ^ = $esp $T0 8 + = $L $T0 .cbSavedRegs - = $P $T0 4 + .cbParams + =
STACK WIN 4 758dc 81 0 0 c 4 10c 0 1 $T0 $ebp = $eip $T0 4 + ^ = $ebp $T0 ^ = $esp $T0 8 + = $L $T0 .cbSavedRegs - = $P $T0 4 + .cbParams + =
STACK WIN 4 75925 34 0 0 c 8 10c 0 1 $T0 $ebp = $eip $T0 4 + ^ = $ebp $T0 ^ = $esp $T0 8 + = $L $T0 .cbSavedRegs - = $P $T0 4 + .cbParams + =
STACK WIN 4 7596b 166 21 0 18 0 10c 0 1 $T0 $ebp = $eip $T0 4 + ^ = $ebp $T0 ^ = $esp $T0 8 + = $L $T0 .cbSavedRegs - = $P $T0 4 + .cbParams + =
STACK WIN 4 75981 47 b 0 18 4 10c 0 1 $T0 $ebp = $eip $T0 4 + ^ = $ebp $T0 ^ = $esp $T0 8 + = $L $T0 .cbSavedRegs - = $P $T0 4 + .cbParams + = $ebx $T0 276 - ^ =
STACK WIN 4 7598b 3c 1 0 18 8 10c 0 1 $T0 $ebp = $eip $T0 4 + ^ = $ebp $T0 ^ = $esp $T0 8 + = $L $T0 .cbSavedRegs - = $P $T0 4 + .cbParams + = $ebx $T0 276 - ^ =
STACK WIN 4 7598c 3a 0 0 18 c 10c 0 1 $T0 $ebp = $eip $T0 4 + ^ = $ebp $T0 ^ = $esp $T0 8 + = $L $T0 .cbSavedRegs - = $P $T0 4 + .cbParams + = $ebx $T0 276 - ^ =
STACK WIN 4 75ad6 9e 11 0 10 0 10c 0 1 $T0 $ebp = $eip $T0 4 + ^ = $ebp $T0 ^ = $esp $T0 8 + = $L $T0 .cbSavedRegs - = $P $T0 4 + .cbParams + =
STACK WIN 4 75ae7 84 0 0 10 4 10c 0 1 $T0 $ebp = $eip $T0 4 + ^ = $ebp $T0 ^ = $esp $T0 8 + = $L $T0 .cbSavedRegs - = $P $T0 4 + .cbParams + =
STACK WIN 4 75b30 37 0 0 10 8 10c 0 1 $T0 $ebp = $eip $T0 4 + ^ = $ebp $T0 ^ = $esp $T0 8 + = $L $T0 .cbSavedRegs - = $P $T0 4 + .cbParams + =
STACK WIN 4 3632d 1a7 19 0 18 0 218 0 1 $T0 $ebp = $eip $T0 4 + ^ = $ebp $T0 ^ = $esp $T0 8 + = $L $T0 .cbSavedRegs - = $P $T0 4 + .cbParams + =
STACK WIN 4 3633e 18d 8 0 18 4 218 0 1 $T0 $ebp = $eip $T0 4 + ^ = $ebp $T0 ^ = $esp $T0 8 + = $L $T0 .cbSavedRegs - = $P $T0 4 + .cbParams + = $ebx $T0 544 - ^ =
STACK WIN 4 36342 188 4 0 18 8 218 0 1 $T0 $ebp = $eip $T0 4 + ^ = $ebp $T0 ^ = $esp $T0 8 + = $L $T0 .cbSavedRegs - = $P $T0 4 + .cbParams + = $ebx $T0 544 - ^ =
STACK WIN 4 36346 183 0 0 18 c 218 0 1 $T0 $ebp = $eip $T0 4 + ^ = $ebp $T0 ^ = $esp $T0 8 + = $L $T0 .cbSavedRegs - = $P $T0 4 + .cbParams + = $ebx $T0 544 - ^ =
STACK WIN 4 361ee 1ea 19 0 18 0 218 0 1 $T0 $ebp = $eip $T0 4 + ^ = $ebp $T0 ^ = $esp $T0 8 + = $L $T0 .cbSavedRegs - = $P $T0 4 + .cbParams + =
STACK WIN 4 361ff 1d0 8 0 18 4 218 0 1 $T0 $ebp = $eip $T0 4 + ^ = $ebp $T0 ^ = $esp $T0 8 + = $L $T0 .cbSavedRegs - = $P $T0 4 + .cbParams + = $ebx $T0 544 - ^ =
STACK WIN 4 36203 1cb 4 0 18 8 218 0 1 $T0 $ebp = $eip $T0 4 + ^ = $ebp $T0 ^ = $esp $T0 8 + = $L $T0 .cbSavedRegs - = $P $T0 4 + .cbParams + = $ebx $T0 544 - ^ =
STACK WIN 4 36207 1c6 0 0 18 c 218 0 1 $T0 $ebp = $eip $T0 4 + ^ = $ebp $T0 ^ = $esp $T0 8 + = $L $T0 .cbSavedRegs - = $P $T0 4 + .cbParams + = $ebx $T0 544 - ^ =
STACK WIN 4 2ec56 2cc 16 0 18 0 234 0 1 $T0 $ebp = $eip $T0 4 + ^ = $ebp $T0 ^ = $esp $T0 8 + = $L $T0 .cbSavedRegs - = $P $T0 4 + .cbParams + =
STACK WIN 4 2ec67 2b2 5 0 18 4 234 0 1 $T0 $ebp = $eip $T0 4 + ^ = $ebp $T0 ^ = $esp $T0 8 + = $L $T0 .cbSavedRegs - = $P $T0 4 + .cbParams + = $ebx $T0 572 - ^ =
STACK WIN 4 2ec68 2b0 4 0 18 8 234 0 1 $T0 $ebp = $eip $T0 4 + ^ = $ebp $T0 ^ = $esp $T0 8 + = $L $T0 .cbSavedRegs - = $P $T0 4 + .cbParams + = $ebx $T0 572 - ^ =
STACK WIN 4 2ec6c 2ab 0 0 18 c 234 0 1 $T0 $ebp = $eip $T0 4 + ^ = $ebp $T0 ^ = $esp $T0 8 + = $L $T0 .cbSavedRegs - = $P $T0 4 + .cbParams + = $ebx $T0 572 - ^ =
STACK WIN 4 75b79 333 16 0 18 0 23c 0 1 $T0 $ebp = $eip $T0 4 + ^ = $ebp $T0 ^ = $esp $T0 8 + = $L $T0 .cbSavedRegs - = $P $T0 4 + .cbParams + =
STACK WIN 4 75b8a 319 5 0 18 4 23c 0 1 $T0 $ebp = $eip $T0 4 + ^ = $ebp $T0 ^ = $esp $T0 8 + = $L $T0 .cbSavedRegs - = $P $T0 4 + .cbParams + = $ebx $T0 580 - ^ =
STACK WIN 4 75b8b 317 4 0 18 8 23c 0 1 $T0 $ebp = $eip $T0 4 + ^ = $ebp $T0 ^ = $esp $T0 8 + = $L $T0 .cbSavedRegs - = $P $T0 4 + .cbParams + = $ebx $T0 580 - ^ =
STACK WIN 4 75b8f 312 0 0 18 c 23c 0 1 $T0 $ebp = $eip $T0 4 + ^ = $ebp $T0 ^ = $esp $T0 8 + = $L $T0 .cbSavedRegs - = $P $T0 4 + .cbParams + = $ebx $T0 580 - ^ =
STACK WIN 4 38a0c ad 15 0 14 0 10c 0 1 $T0 $ebp = $eip $T0 4 + ^ = $ebp $T0 ^ = $esp $T0 8 + = $L $T0 .cbSavedRegs - = $P $T0 4 + .cbParams + =
STACK WIN 4 38a1d 93 4 0 14 4 10c 0 1 $T0 $ebp = $eip $T0 4 + ^ = $ebp $T0 ^ = $esp $T0 8 + = $L $T0 .cbSavedRegs - = $P $T0 4 + .cbParams + =
STACK WIN 4 38a21 8e 0 0 14 8 10c 0 1 $T0 $ebp = $eip $T0 4 + ^ = $ebp $T0 ^ = $esp $T0 8 + = $L $T0 .cbSavedRegs - = $P $T0 4 + .cbParams + =
STACK WIN 4 75eb1 191 21 0 14 0 210 0 1 $T0 $ebp = $eip $T0 4 + ^ = $ebp $T0 ^ = $esp $T0 8 + = $L $T0 .cbSavedRegs - = $P $T0 4 + .cbParams + =
STACK WIN 4 75ec5 174 d 0 14 4 210 0 1 $T0 $ebp = $eip $T0 4 + ^ = $ebp $T0 ^ = $esp $T0 8 + = $L $T0 .cbSavedRegs - = $P $T0 4 + .cbParams + = $ebx $T0 536 - ^ =
STACK WIN 4 75ec6 172 c 0 14 8 210 0 1 $T0 $ebp = $eip $T0 4 + ^ = $ebp $T0 ^ = $esp $T0 8 + = $L $T0 .cbSavedRegs - = $P $T0 4 + .cbParams + = $ebx $T0 536 - ^ =
STACK WIN 4 75ed2 165 0 0 14 c 210 0 1 $T0 $ebp = $eip $T0 4 + ^ = $ebp $T0 ^ = $esp $T0 8 + = $L $T0 .cbSavedRegs - = $P $T0 4 + .cbParams + = $ebx $T0 536 - ^ =
STACK WIN 4 76047 83 11 0 c 0 224 0 1 $T0 $ebp = $eip $T0 4 + ^ = $ebp $T0 ^ = $esp $T0 8 + = $L $T0 .cbSavedRegs - = $P $T0 4 + .cbParams + =
STACK WIN 4 76058 69 0 0 c 4 224 0 1 $T0 $ebp = $eip $T0 4 + ^ = $ebp $T0 ^ = $esp $T0 8 + = $L $T0 .cbSavedRegs - = $P $T0 4 + .cbParams + =
STACK WIN 4 7606e 4f 0 0 c 8 224 0 1 $T0 $ebp = $eip $T0 4 + ^ = $ebp $T0 ^ = $esp $T0 8 + = $L $T0 .cbSavedRegs - = $P $T0 4 + .cbParams + =
STACK WIN 4 760cf b 5 0 14 0 0 0 1 $T0 $ebp = $eip $T0 4 + ^ = $ebp $T0 ^ = $esp $T0 8 + = $L $T0 .cbSavedRegs - = $P $T0 4 + .cbParams + =
STACK WIN 4 a490 196 8 0 10 0 0 0 1 $T0 $ebp = $eip $T0 4 + ^ = $ebp $T0 ^ = $esp $T0 8 + = $L $T0 .cbSavedRegs - = $P $T0 4 + .cbParams + =
STACK WIN 4 a496 18c 2 0 10 4 0 0 1 $T0 $ebp = $eip $T0 4 + ^ = $ebp $T0 ^ = $esp $T0 8 + = $L $T0 .cbSavedRegs - = $P $T0 4 + .cbParams + = $ebx $T0 8 - ^ =
STACK WIN 4 a497 18a 1 0 10 8 0 0 1 $T0 $ebp = $eip $T0 4 + ^ = $ebp $T0 ^ = $esp $T0 8 + = $L $T0 .cbSavedRegs - = $P $T0 4 + .cbParams + = $ebx $T0 8 - ^ =
STACK WIN 4 a498 188 0 0 10 c 0 0 1 $T0 $ebp = $eip $T0 4 + ^ = $ebp $T0 ^ = $esp $T0 8 + = $L $T0 .cbSavedRegs - = $P $T0 4 + .cbParams + = $ebx $T0 8 - ^ =
STACK WIN 4 760df 2e5 11 0 3c 0 14 0 1 $T0 $ebp = $eip $T0 4 + ^ = $ebp $T0 ^ = $esp $T0 8 + = $L $T0 .cbSavedRegs - = $P $T0 4 + .cbParams + =
STACK WIN 4 760eb 2d5 5 0 3c 4 14 0 1 $T0 $ebp = $eip $T0 4 + ^ = $ebp $T0 ^ = $esp $T0 8 + = $L $T0 .cbSavedRegs - = $P $T0 4 + .cbParams + = $ebx $T0 28 - ^ =
STACK WIN 4 760ef 2cb 1 0 3c 8 14 0 1 $T0 $ebp = $eip $T0 4 + ^ = $ebp $T0 ^ = $esp $T0 8 + = $L $T0 .cbSavedRegs - = $P $T0 4 + .cbParams + = $ebx $T0 28 - ^ =
STACK WIN 4 760f0 2c9 0 0 3c c 14 0 1 $T0 $ebp = $eip $T0 4 + ^ = $ebp $T0 ^ = $esp $T0 8 + = $L $T0 .cbSavedRegs - = $P $T0 4 + .cbParams + = $ebx $T0 28 - ^ =
STACK WIN 4 bfef 93 5 0 14 0 0 0 1 $T0 $ebp = $eip $T0 4 + ^ = $ebp $T0 ^ = $esp $T0 8 + = $L $T0 .cbSavedRegs - = $P $T0 4 + .cbParams + =
STACK WIN 4 af4f 12e7 1d 0 1c 0 98 0 1 $T0 $ebp = $eip $T0 4 + ^ = $ebp $T0 ^ = $esp $T0 8 + = $L $T0 .cbSavedRegs - = $P $T0 4 + .cbParams + =
STACK WIN 4 af64 12ce 8 0 1c 4 98 0 1 $T0 $ebp = $eip $T0 4 + ^ = $ebp $T0 ^ = $esp $T0 8 + = $L $T0 .cbSavedRegs - = $P $T0 4 + .cbParams + = $ebx $T0 160 - ^ =
STACK WIN 4 af68 12c9 4 0 1c 8 98 0 1 $T0 $ebp = $eip $T0 4 + ^ = $ebp $T0 ^ = $esp $T0 8 + = $L $T0 .cbSavedRegs - = $P $T0 4 + .cbParams + = $ebx $T0 160 - ^ =
STACK WIN 4 af6c 12c4 0 0 1c c 98 0 1 $T0 $ebp = $eip $T0 4 + ^ = $ebp $T0 ^ = $esp $T0 8 + = $L $T0 .cbSavedRegs - = $P $T0 4 + .cbParams + = $ebx $T0 160 - ^ =
STACK WIN 4 763c9 21 0 0 0 0 0 0 1 $T2 $esp .cbLocals + .cbSavedRegs + = $T0 .raSearchStart = $eip $T0 ^ = $esp $T0 4 + =
STACK WIN 4 763ef 107 1e 0 8 0 424 0 1 $T0 $ebp = $eip $T0 4 + ^ = $ebp $T0 ^ = $esp $T0 8 + = $L $T0 .cbSavedRegs - = $P $T0 4 + .cbParams + =
STACK WIN 4 76400 6b d 0 8 4 424 0 1 $T0 $ebp = $eip $T0 4 + ^ = $ebp $T0 ^ = $esp $T0 8 + = $L $T0 .cbSavedRegs - = $P $T0 4 + .cbParams + = $ebx $T0 1068 - ^ =
STACK WIN 4 7640d 5d 0 0 8 8 424 0 1 $T0 $ebp = $eip $T0 4 + ^ = $ebp $T0 ^ = $esp $T0 8 + = $L $T0 .cbSavedRegs - = $P $T0 4 + .cbParams + = $ebx $T0 1068 - ^ =
STACK WIN 4 1c48b 263 26 0 8 0 648 0 1 $T0 $ebp = $eip $T0 4 + ^ = $ebp $T0 ^ = $esp $T0 8 + = $L $T0 .cbSavedRegs - = $P $T0 4 + .cbParams + =
STACK WIN 4 1c4a3 ad e 0 8 4 648 0 1 $T0 $ebp = $eip $T0 4 + ^ = $ebp $T0 ^ = $esp $T0 8 + = $L $T0 .cbSavedRegs - = $P $T0 4 + .cbParams + = $ebx $T0 1616 - ^ =
STACK WIN 4 1c4ad a2 4 0 8 8 648 0 1 $T0 $ebp = $eip $T0 4 + ^ = $ebp $T0 ^ = $esp $T0 8 + = $L $T0 .cbSavedRegs - = $P $T0 4 + .cbParams + = $ebx $T0 1616 - ^ =
STACK WIN 4 1c4b1 9d 0 0 8 c 648 0 1 $T0 $ebp = $eip $T0 4 + ^ = $ebp $T0 ^ = $esp $T0 8 + = $L $T0 .cbSavedRegs - = $P $T0 4 + .cbParams + = $ebx $T0 1616 - ^ =
STACK WIN 4 764fb fe 18 0 4 0 140 0 1 $T0 $ebp = $eip $T0 4 + ^ = $ebp $T0 ^ = $esp $T0 8 + = $L $T0 .cbSavedRegs - = $P $T0 4 + .cbParams + =
STACK WIN 4 7650c e4 7 0 4 4 140 0 1 $T0 $ebp = $eip $T0 4 + ^ = $ebp $T0 ^ = $esp $T0 8 + = $L $T0 .cbSavedRegs - = $P $T0 4 + .cbParams + =
STACK WIN 4 76513 dc 0 0 4 8 140 0 1 $T0 $ebp = $eip $T0 4 + ^ = $ebp $T0 ^ = $esp $T0 8 + = $L $T0 .cbSavedRegs - = $P $T0 4 + .cbParams + =
STACK WIN 4 a415 d 0 0 0 0 0 0 1 $T2 $esp .cbLocals + .cbSavedRegs + = $T0 .raSearchStart = $eip $T0 ^ = $esp $T0 4 + =
STACK WIN 4 13038 2d 0 0 0 0 0 0 1 $T2 $esp .cbLocals + .cbSavedRegs + = $T0 .raSearchStart = $eip $T0 ^ = $esp $T0 4 + =
STACK WIN 4 13070 2a 6 0 0 0 4 0 1 $T0 $ebp = $eip $T0 4 + ^ = $ebp $T0 ^ = $esp $T0 8 + = $L $T0 .cbSavedRegs - = $P $T0 4 + .cbParams + =
STACK WIN 4 127b2 7 0 0 0 0 0 0 1 $T2 $esp .cbLocals + .cbSavedRegs + = $T0 .raSearchStart = $eip $T0 ^ = $esp $T0 4 + =
STACK WIN 4 bf3d 6 0 0 0 0 0 0 1 $T2 $esp .cbLocals + .cbSavedRegs + = $T0 .raSearchStart = $eip $T0 ^ = $esp $T0 4 + =
STACK WIN 4 9f10 e2 6 0 0 0 4 0 1 $T0 $ebp = $eip $T0 4 + ^ = $ebp $T0 ^ = $esp $T0 8 + = $L $T0 .cbSavedRegs - = $P $T0 4 + .cbParams + =
STACK WIN 4 7668d a2 9 0 c 0 c 0 1 $T0 $ebp = $eip $T0 4 + ^ = $ebp $T0 ^ = $esp $T0 8 + = $L $T0 .cbSavedRegs - = $P $T0 4 + .cbParams + =
STACK WIN 4 76696 95 0 0 c 4 c 0 1 $T0 $ebp = $eip $T0 4 + ^ = $ebp $T0 ^ = $esp $T0 8 + = $L $T0 .cbSavedRegs - = $P $T0 4 + .cbParams + =
STACK WIN 4 76734 2b9 6 0 1c 0 4 0 1 $T0 $ebp = $eip $T0 4 + ^ = $ebp $T0 ^ = $esp $T0 8 + = $L $T0 .cbSavedRegs - = $P $T0 4 + .cbParams + =
STACK WIN 4 7676f 27a 0 0 1c 4 4 0 1 $T0 $ebp = $eip $T0 4 + ^ = $ebp $T0 ^ = $esp $T0 8 + = $L $T0 .cbSavedRegs - = $P $T0 4 + .cbParams + =
STACK WIN 4 769f2 5c 5 0 1c 0 0 0 1 $T0 $ebp = $eip $T0 4 + ^ = $ebp $T0 ^ = $esp $T0 8 + = $L $T0 .cbSavedRegs - = $P $T0 4 + .cbParams + =
STACK WIN 4 39200 157 15 0 c 0 43c 0 1 $T0 $ebp = $eip $T0 4 + ^ = $ebp $T0 ^ = $esp $T0 8 + = $L $T0 .cbSavedRegs - = $P $T0 4 + .cbParams + =
STACK WIN 4 39211 13d 4 0 c 4 43c 0 1 $T0 $ebp = $eip $T0 4 + ^ = $ebp $T0 ^ = $esp $T0 8 + = $L $T0 .cbSavedRegs - = $P $T0 4 + .cbParams + =
STACK WIN 4 39215 138 0 0 c 8 43c 0 1 $T0 $ebp = $eip $T0 4 + ^ = $ebp $T0 ^ = $esp $T0 8 + = $L $T0 .cbSavedRegs - = $P $T0 4 + .cbParams + =
STACK WIN 4 76a53 195 1d 0 c 0 210 0 1 $T0 $ebp = $eip $T0 4 + ^ = $ebp $T0 ^ = $esp $T0 8 + = $L $T0 .cbSavedRegs - = $P $T0 4 + .cbParams + =
STACK WIN 4 76a6b 174 5 0 c 4 210 0 1 $T0 $ebp = $eip $T0 4 + ^ = $ebp $T0 ^ = $esp $T0 8 + = $L $T0 .cbSavedRegs - = $P $T0 4 + .cbParams + = $ebx $T0 536 - ^ =
STACK WIN 4 76a6f 16f 1 0 c 8 210 0 1 $T0 $ebp = $eip $T0 4 + ^ = $ebp $T0 ^ = $esp $T0 8 + = $L $T0 .cbSavedRegs - = $P $T0 4 + .cbParams + = $ebx $T0 536 - ^ =
STACK WIN 4 76a70 16d 0 0 c c 210 0 1 $T0 $ebp = $eip $T0 4 + ^ = $ebp $T0 ^ = $esp $T0 8 + = $L $T0 .cbSavedRegs - = $P $T0 4 + .cbParams + = $ebx $T0 536 - ^ =
STACK WIN 4 76c59 b2 8 0 10 0 0 0 1 $T0 $ebp = $eip $T0 4 + ^ = $ebp $T0 ^ = $esp $T0 8 + = $L $T0 .cbSavedRegs - = $P $T0 4 + .cbParams + =
STACK WIN 4 76c5f a8 2 0 10 4 0 0 1 $T0 $ebp = $eip $T0 4 + ^ = $ebp $T0 ^ = $esp $T0 8 + = $L $T0 .cbSavedRegs - = $P $T0 4 + .cbParams + = $ebx $T0 8 - ^ =
STACK WIN 4 76c60 a6 1 0 10 8 0 0 1 $T0 $ebp = $eip $T0 4 + ^ = $ebp $T0 ^ = $esp $T0 8 + = $L $T0 .cbSavedRegs - = $P $T0 4 + .cbParams + = $ebx $T0 8 - ^ =
STACK WIN 4 76c61 a4 0 0 10 c 0 0 1 $T0 $ebp = $eip $T0 4 + ^ = $ebp $T0 ^ = $esp $T0 8 + = $L $T0 .cbSavedRegs - = $P $T0 4 + .cbParams + = $ebx $T0 8 - ^ =
STACK WIN 4 383cf 49 5 0 4 0 0 0 1 $T0 $ebp = $eip $T0 4 + ^ = $ebp $T0 ^ = $esp $T0 8 + = $L $T0 .cbSavedRegs - = $P $T0 4 + .cbParams + =
STACK WIN 4 1bbba ac b 0 4 0 0 0 1 $T0 $ebp = $eip $T0 4 + ^ = $ebp $T0 ^ = $esp $T0 8 + = $L $T0 .cbSavedRegs - = $P $T0 4 + .cbParams + =
STACK WIN 4 1bbc5 9d 0 0 4 4 0 0 1 $T0 $ebp = $eip $T0 4 + ^ = $ebp $T0 ^ = $esp $T0 8 + = $L $T0 .cbSavedRegs - = $P $T0 4 + .cbParams + =
STACK WIN 4 bf64 5 0 0 0 0 0 0 1 $T2 $esp .cbLocals + .cbSavedRegs + = $T0 .raSearchStart = $eip $T0 ^ = $esp $T0 4 + =
STACK WIN 4 2f041 131 11 0 c 0 a8 0 1 $T0 $ebp = $eip $T0 4 + ^ = $ebp $T0 ^ = $esp $T0 8 + = $L $T0 .cbSavedRegs - = $P $T0 4 + .cbParams + =
STACK WIN 4 2f052 117 0 0 c 4 a8 0 1 $T0 $ebp = $eip $T0 4 + ^ = $ebp $T0 ^ = $esp $T0 8 + = $L $T0 .cbSavedRegs - = $P $T0 4 + .cbParams + = $ebx $T0 176 - ^ =
STACK WIN 4 2f06a ef 0 0 c 8 a8 0 1 $T0 $ebp = $eip $T0 4 + ^ = $ebp $T0 ^ = $esp $T0 8 + = $L $T0 .cbSavedRegs - = $P $T0 4 + .cbParams + = $ebx $T0 176 - ^ =
STACK WIN 4 2f06b eb 0 0 c c a8 0 1 $T0 $ebp = $eip $T0 4 + ^ = $ebp $T0 ^ = $esp $T0 8 + = $L $T0 .cbSavedRegs - = $P $T0 4 + .cbParams + = $ebx $T0 176 - ^ =
STACK WIN 4 2efb9 83 f 0 c 0 10 0 1 $T0 $ebp = $eip $T0 4 + ^ = $ebp $T0 ^ = $esp $T0 8 + = $L $T0 .cbSavedRegs - = $P $T0 4 + .cbParams + =
STACK WIN 4 2efc2 76 6 0 c 4 10 0 1 $T0 $ebp = $eip $T0 4 + ^ = $ebp $T0 ^ = $esp $T0 8 + = $L $T0 .cbSavedRegs - = $P $T0 4 + .cbParams + =
STACK WIN 4 2efc8 6f 0 0 c 8 10 0 1 $T0 $ebp = $eip $T0 4 + ^ = $ebp $T0 ^ = $esp $T0 8 + = $L $T0 .cbSavedRegs - = $P $T0 4 + .cbParams + =
STACK WIN 4 11562 17bb 2f 0 10 0 bc 0 1 $T0 $ebp = $eip $T0 4 + ^ = $ebp $T0 ^ = $esp $T0 8 + = $L $T0 .cbSavedRegs - = $P $T0 4 + .cbParams + =
STACK WIN 4 1157f ee5 12 0 10 4 bc 0 1 $T0 $ebp = $eip $T0 4 + ^ = $ebp $T0 ^ = $esp $T0 8 + = $L $T0 .cbSavedRegs - = $P $T0 4 + .cbParams + = $ebx $T0 196 - ^ =
STACK WIN 4 11582 19a f 0 10 8 bc 0 1 $T0 $ebp = $eip $T0 4 + ^ = $ebp $T0 ^ = $esp $T0 8 + = $L $T0 .cbSavedRegs - = $P $T0 4 + .cbParams + = $ebx $T0 196 - ^ =
STACK WIN 4 11591 18a 0 0 10 c bc 0 1 $T0 $ebp = $eip $T0 4 + ^ = $ebp $T0 ^ = $esp $T0 8 + = $L $T0 .cbSavedRegs - = $P $T0 4 + .cbParams + = $ebx $T0 196 - ^ =
STACK WIN 4 39020 385 39 0 18 0 c4 0 1 $T0 $ebp = $eip $T0 4 + ^ = $ebp $T0 ^ = $esp $T0 8 + = $L $T0 .cbSavedRegs - = $P $T0 4 + .cbParams + =
STACK WIN 4 39045 c8 14 0 18 4 c4 0 1 $T0 $ebp = $eip $T0 4 + ^ = $ebp $T0 ^ = $esp $T0 8 + = $L $T0 .cbSavedRegs - = $P $T0 4 + .cbParams + = $ebx $T0 204 - ^ =
STACK WIN 4 39046 c6 13 0 18 8 c4 0 1 $T0 $ebp = $eip $T0 4 + ^ = $ebp $T0 ^ = $esp $T0 8 + = $L $T0 .cbSavedRegs - = $P $T0 4 + .cbParams + = $ebx $T0 204 - ^ =
STACK WIN 4 39059 b2 0 0 18 c c4 0 1 $T0 $ebp = $eip $T0 4 + ^ = $ebp $T0 ^ = $esp $T0 8 + = $L $T0 .cbSavedRegs - = $P $T0 4 + .cbParams + = $ebx $T0 204 - ^ =
STACK WIN 4 76d1b 114 13 0 10 0 c 0 1 $T0 $ebp = $eip $T0 4 + ^ = $ebp $T0 ^ = $esp $T0 8 + = $L $T0 .cbSavedRegs - = $P $T0 4 + .cbParams + =
STACK WIN 4 76d2d fe 1 0 10 4 c 0 1 $T0 $ebp = $eip $T0 4 + ^ = $ebp $T0 ^ = $esp $T0 8 + = $L $T0 .cbSavedRegs - = $P $T0 4 + .cbParams + =
STACK WIN 4 76d2e fc 0 0 10 8 c 0 1 $T0 $ebp = $eip $T0 4 + ^ = $ebp $T0 ^ = $esp $T0 8 + = $L $T0 .cbSavedRegs - = $P $T0 4 + .cbParams + =
STACK WIN 4 76e34 3a 6 0 c 0 0 0 1 $T0 $ebp = $eip $T0 4 + ^ = $ebp $T0 ^ = $esp $T0 8 + = $L $T0 .cbSavedRegs - = $P $T0 4 + .cbParams + =
STACK WIN 4 76e3a 30 0 0 c 4 0 0 1 $T0 $ebp = $eip $T0 4 + ^ = $ebp $T0 ^ = $esp $T0 8 + = $L $T0 .cbSavedRegs - = $P $T0 4 + .cbParams + =
STACK WIN 4 1b258 159 f 0 4 0 3c 0 1 $T0 $ebp = $eip $T0 4 + ^ = $ebp $T0 ^ = $esp $T0 8 + = $L $T0 .cbSavedRegs - = $P $T0 4 + .cbParams + =
STACK WIN 4 1b266 142 1 0 4 4 3c 0 1 $T0 $ebp = $eip $T0 4 + ^ = $ebp $T0 ^ = $esp $T0 8 + = $L $T0 .cbSavedRegs - = $P $T0 4 + .cbParams + =
STACK WIN 4 1b267 140 0 0 4 8 3c 0 1 $T0 $ebp = $eip $T0 4 + ^ = $ebp $T0 ^ = $esp $T0 8 + = $L $T0 .cbSavedRegs - = $P $T0 4 + .cbParams + =
STACK WIN 4 76e73 e22 23 0 c 0 570 0 1 $T0 $ebp = $eip $T0 4 + ^ = $ebp $T0 ^ = $esp $T0 8 + = $L $T0 .cbSavedRegs - = $P $T0 4 + .cbParams + =
STACK WIN 4 76e84 d6c 12 0 c 4 570 0 1 $T0 $ebp = $eip $T0 4 + ^ = $ebp $T0 ^ = $esp $T0 8 + = $L $T0 .cbSavedRegs - = $P $T0 4 + .cbParams + = $ebx $T0 1400 - ^ =
STACK WIN 4 76e92 9ea 4 0 c 8 570 0 1 $T0 $ebp = $eip $T0 4 + ^ = $ebp $T0 ^ = $esp $T0 8 + = $L $T0 .cbSavedRegs - = $P $T0 4 + .cbParams + = $ebx $T0 1400 - ^ =
STACK WIN 4 76e96 9e5 0 0 c c 570 0 1 $T0 $ebp = $eip $T0 4 + ^ = $ebp $T0 ^ = $esp $T0 8 + = $L $T0 .cbSavedRegs - = $P $T0 4 + .cbParams + = $ebx $T0 1400 - ^ =
STACK WIN 4 77cf7 f4 1d 0 10 0 428 0 1 $T0 $ebp = $eip $T0 4 + ^ = $ebp $T0 ^ = $esp $T0 8 + = $L $T0 .cbSavedRegs - = $P $T0 4 + .cbParams + =
STACK WIN 4 77d0b d7 9 0 10 4 428 0 1 $T0 $ebp = $eip $T0 4 + ^ = $ebp $T0 ^ = $esp $T0 8 + = $L $T0 .cbSavedRegs - = $P $T0 4 + .cbParams + = $ebx $T0 1072 - ^ =
STACK WIN 4 77d0f d2 5 0 10 8 428 0 1 $T0 $ebp = $eip $T0 4 + ^ = $ebp $T0 ^ = $esp $T0 8 + = $L $T0 .cbSavedRegs - = $P $T0 4 + .cbParams + = $ebx $T0 1072 - ^ =
STACK WIN 4 77d14 cc 0 0 10 c 428 0 1 $T0 $ebp = $eip $T0 4 + ^ = $ebp $T0 ^ = $esp $T0 8 + = $L $T0 .cbSavedRegs - = $P $T0 4 + .cbParams + = $ebx $T0 1072 - ^ =
STACK WIN 4 1bcfe f4 1c 0 10 0 428 0 1 $T0 $ebp = $eip $T0 4 + ^ = $ebp $T0 ^ = $esp $T0 8 + = $L $T0 .cbSavedRegs - = $P $T0 4 + .cbParams + =
STACK WIN 4 1bd12 d7 8 0 10 4 428 0 1 $T0 $ebp = $eip $T0 4 + ^ = $ebp $T0 ^ = $esp $T0 8 + = $L $T0 .cbSavedRegs - = $P $T0 4 + .cbParams + = $ebx $T0 1072 - ^ =
STACK WIN 4 1bd16 d2 4 0 10 8 428 0 1 $T0 $ebp = $eip $T0 4 + ^ = $ebp $T0 ^ = $esp $T0 8 + = $L $T0 .cbSavedRegs - = $P $T0 4 + .cbParams + = $ebx $T0 1072 - ^ =
STACK WIN 4 1bd1a cd 0 0 10 c 428 0 1 $T0 $ebp = $eip $T0 4 + ^ = $ebp $T0 ^ = $esp $T0 8 + = $L $T0 .cbSavedRegs - = $P $T0 4 + .cbParams + = $ebx $T0 1072 - ^ =
STACK WIN 4 15047 f9 7 0 14 0 8 0 1 $T0 $ebp = $eip $T0 4 + ^ = $ebp $T0 ^ = $esp $T0 8 + = $L $T0 .cbSavedRegs - = $P $T0 4 + .cbParams + =
STACK WIN 4 1505b e1 0 0 14 4 8 0 1 $T0 $ebp = $eip $T0 4 + ^ = $ebp $T0 ^ = $esp $T0 8 + = $L $T0 .cbSavedRegs - = $P $T0 4 + .cbParams + =
STACK WIN 4 1505c df 0 0 14 8 8 0 1 $T0 $ebp = $eip $T0 4 + ^ = $ebp $T0 ^ = $esp $T0 8 + = $L $T0 .cbSavedRegs - = $P $T0 4 + .cbParams + =
STACK WIN 4 77df0 2f 7 0 10 0 8 0 1 $T0 $ebp = $eip $T0 4 + ^ = $ebp $T0 ^ = $esp $T0 8 + = $L $T0 .cbSavedRegs - = $P $T0 4 + .cbParams + =
STACK WIN 4 1734f 4a a 0 10 0 0 0 1 $T0 $ebp = $eip $T0 4 + ^ = $ebp $T0 ^ = $esp $T0 8 + = $L $T0 .cbSavedRegs - = $P $T0 4 + .cbParams + =
STACK WIN 4 17358 3d 1 0 10 4 0 0 1 $T0 $ebp = $eip $T0 4 + ^ = $ebp $T0 ^ = $esp $T0 8 + = $L $T0 .cbSavedRegs - = $P $T0 4 + .cbParams + =
STACK WIN 4 17359 3b 0 0 10 8 0 0 1 $T0 $ebp = $eip $T0 4 + ^ = $ebp $T0 ^ = $esp $T0 8 + = $L $T0 .cbSavedRegs - = $P $T0 4 + .cbParams + =
STACK WIN 4 77e24 1a 5 0 4 0 0 0 1 $T0 $ebp = $eip $T0 4 + ^ = $ebp $T0 ^ = $esp $T0 8 + = $L $T0 .cbSavedRegs - = $P $T0 4 + .cbParams + =
STACK WIN 4 17f7d 3f 9 0 18 0 0 0 1 $T0 $ebp = $eip $T0 4 + ^ = $ebp $T0 ^ = $esp $T0 8 + = $L $T0 .cbSavedRegs - = $P $T0 4 + .cbParams + =
STACK WIN 4 17f86 32 0 0 18 4 0 0 1 $T0 $ebp = $eip $T0 4 + ^ = $ebp $T0 ^ = $esp $T0 8 + = $L $T0 .cbSavedRegs - = $P $T0 4 + .cbParams + =
STACK WIN 4 77e43 13f 16 0 c 0 2a4 0 1 $T0 $ebp = $eip $T0 4 + ^ = $ebp $T0 ^ = $esp $T0 8 + = $L $T0 .cbSavedRegs - = $P $T0 4 + .cbParams + =
STACK WIN 4 77e54 125 5 0 c 4 2a4 0 1 $T0 $ebp = $eip $T0 4 + ^ = $ebp $T0 ^ = $esp $T0 8 + = $L $T0 .cbSavedRegs - = $P $T0 4 + .cbParams + = $ebx $T0 684 - ^ =
STACK WIN 4 77e58 120 1 0 c 8 2a4 0 1 $T0 $ebp = $eip $T0 4 + ^ = $ebp $T0 ^ = $esp $T0 8 + = $L $T0 .cbSavedRegs - = $P $T0 4 + .cbParams + = $ebx $T0 684 - ^ =
STACK WIN 4 77e59 11e 0 0 c c 2a4 0 1 $T0 $ebp = $eip $T0 4 + ^ = $ebp $T0 ^ = $esp $T0 8 + = $L $T0 .cbSavedRegs - = $P $T0 4 + .cbParams + = $ebx $T0 684 - ^ =
STACK WIN 4 2ae21 8d 1d 0 8 0 40c 0 1 $T0 $ebp = $eip $T0 4 + ^ = $ebp $T0 ^ = $esp $T0 8 + = $L $T0 .cbSavedRegs - = $P $T0 4 + .cbParams + =
STACK WIN 4 2ae3a 64 4 0 8 4 40c 0 1 $T0 $ebp = $eip $T0 4 + ^ = $ebp $T0 ^ = $esp $T0 8 + = $L $T0 .cbSavedRegs - = $P $T0 4 + .cbParams + =
STACK WIN 4 2ae3e 5f 0 0 8 8 40c 0 1 $T0 $ebp = $eip $T0 4 + ^ = $ebp $T0 ^ = $esp $T0 8 + = $L $T0 .cbSavedRegs - = $P $T0 4 + .cbParams + =
STACK WIN 4 2ac6c c8 10 0 c 0 10 0 1 $T0 $ebp = $eip $T0 4 + ^ = $ebp $T0 ^ = $esp $T0 8 + = $L $T0 .cbSavedRegs - = $P $T0 4 + .cbParams + =
STACK WIN 4 2ac7a b1 2 0 c 4 10 0 1 $T0 $ebp = $eip $T0 4 + ^ = $ebp $T0 ^ = $esp $T0 8 + = $L $T0 .cbSavedRegs - = $P $T0 4 + .cbParams + = $ebx $T0 24 - ^ =
STACK WIN 4 2ac7b af 1 0 c 8 10 0 1 $T0 $ebp = $eip $T0 4 + ^ = $ebp $T0 ^ = $esp $T0 8 + = $L $T0 .cbSavedRegs - = $P $T0 4 + .cbParams + = $ebx $T0 24 - ^ =
STACK WIN 4 2ac7c ab 0 0 c c 10 0 1 $T0 $ebp = $eip $T0 4 + ^ = $ebp $T0 ^ = $esp $T0 8 + = $L $T0 .cbSavedRegs - = $P $T0 4 + .cbParams + = $ebx $T0 24 - ^ =
STACK WIN 4 2b95b af 10 0 8 0 18 0 1 $T0 $ebp = $eip $T0 4 + ^ = $ebp $T0 ^ = $esp $T0 8 + = $L $T0 .cbSavedRegs - = $P $T0 4 + .cbParams + =
STACK WIN 4 2b969 98 2 0 8 4 18 0 1 $T0 $ebp = $eip $T0 4 + ^ = $ebp $T0 ^ = $esp $T0 8 + = $L $T0 .cbSavedRegs - = $P $T0 4 + .cbParams + = $ebx $T0 32 - ^ =
STACK WIN 4 2b96a 96 1 0 8 8 18 0 1 $T0 $ebp = $eip $T0 4 + ^ = $ebp $T0 ^ = $esp $T0 8 + = $L $T0 .cbSavedRegs - = $P $T0 4 + .cbParams + = $ebx $T0 32 - ^ =
STACK WIN 4 2b96b 94 0 0 8 c 18 0 1 $T0 $ebp = $eip $T0 4 + ^ = $ebp $T0 ^ = $esp $T0 8 + = $L $T0 .cbSavedRegs - = $P $T0 4 + .cbParams + = $ebx $T0 32 - ^ =
STACK WIN 4 2b883 c6 15 0 0 0 a8 0 1 $T0 $ebp = $eip $T0 4 + ^ = $ebp $T0 ^ = $esp $T0 8 + = $L $T0 .cbSavedRegs - = $P $T0 4 + .cbParams + =
STACK WIN 4 2b8c4 7b 0 0 0 4 a8 0 1 $T0 $ebp = $eip $T0 4 + ^ = $ebp $T0 ^ = $esp $T0 8 + = $L $T0 .cbSavedRegs - = $P $T0 4 + .cbParams + =
STACK WIN 4 172de 74 10 0 14 0 18 0 1 $T0 $ebp = $eip $T0 4 + ^ = $ebp $T0 ^ = $esp $T0 8 + = $L $T0 .cbSavedRegs - = $P $T0 4 + .cbParams + =
STACK WIN 4 172ea 64 4 0 14 4 18 0 1 $T0 $ebp = $eip $T0 4 + ^ = $ebp $T0 ^ = $esp $T0 8 + = $L $T0 .cbSavedRegs - = $P $T0 4 + .cbParams + =
STACK WIN 4 172ee 5f 0 0 14 8 18 0 1 $T0 $ebp = $eip $T0 4 + ^ = $ebp $T0 ^ = $esp $T0 8 + = $L $T0 .cbSavedRegs - = $P $T0 4 + .cbParams + =
STACK WIN 4 2ad98 b5 9 0 8 0 28 0 1 $T0 $ebp = $eip $T0 4 + ^ = $ebp $T0 ^ = $esp $T0 8 + = $L $T0 .cbSavedRegs - = $P $T0 4 + .cbParams + =
STACK WIN 4 2ada1 a8 0 0 8 4 28 0 1 $T0 $ebp = $eip $T0 4 + ^ = $ebp $T0 ^ = $esp $T0 8 + = $L $T0 .cbSavedRegs - = $P $T0 4 + .cbParams + =
STACK WIN 4 2adb4 90 0 0 8 8 28 0 1 $T0 $ebp = $eip $T0 4 + ^ = $ebp $T0 ^ = $esp $T0 8 + = $L $T0 .cbSavedRegs - = $P $T0 4 + .cbParams + =
STACK WIN 4 77f87 60 9 0 8 0 1c 0 1 $T0 $ebp = $eip $T0 4 + ^ = $ebp $T0 ^ = $esp $T0 8 + = $L $T0 .cbSavedRegs - = $P $T0 4 + .cbParams + =
STACK WIN 4 77f90 53 0 0 8 4 1c 0 1 $T0 $ebp = $eip $T0 4 + ^ = $ebp $T0 ^ = $esp $T0 8 + = $L $T0 .cbSavedRegs - = $P $T0 4 + .cbParams + =
STACK WIN 4 77fec 2d5 1d 0 10 0 440 0 1 $T0 $ebp = $eip $T0 4 + ^ = $ebp $T0 ^ = $esp $T0 8 + = $L $T0 .cbSavedRegs - = $P $T0 4 + .cbParams + =
STACK WIN 4 77ffd 2bb c 0 10 4 440 0 1 $T0 $ebp = $eip $T0 4 + ^ = $ebp $T0 ^ = $esp $T0 8 + = $L $T0 .cbSavedRegs - = $P $T0 4 + .cbParams + = $ebx $T0 1096 - ^ =
STACK WIN 4 78008 2af 1 0 10 8 440 0 1 $T0 $ebp = $eip $T0 4 + ^ = $ebp $T0 ^ = $esp $T0 8 + = $L $T0 .cbSavedRegs - = $P $T0 4 + .cbParams + = $ebx $T0 1096 - ^ =
STACK WIN 4 78009 2ad 0 0 10 c 440 0 1 $T0 $ebp = $eip $T0 4 + ^ = $ebp $T0 ^ = $esp $T0 8 + = $L $T0 .cbSavedRegs - = $P $T0 4 + .cbParams + = $ebx $T0 1096 - ^ =
STACK WIN 4 782c6 19a 15 0 14 0 e3c 0 1 $T0 $ebp = $eip $T0 4 + ^ = $ebp $T0 ^ = $esp $T0 8 + = $L $T0 .cbSavedRegs - = $P $T0 4 + .cbParams + =
STACK WIN 4 782d7 15b 4 0 14 4 e3c 0 1 $T0 $ebp = $eip $T0 4 + ^ = $ebp $T0 ^ = $esp $T0 8 + = $L $T0 .cbSavedRegs - = $P $T0 4 + .cbParams + = $ebx $T0 3652 - ^ =
STACK WIN 4 782db 156 0 0 14 8 e3c 0 1 $T0 $ebp = $eip $T0 4 + ^ = $ebp $T0 ^ = $esp $T0 8 + = $L $T0 .cbSavedRegs - = $P $T0 4 + .cbParams + = $ebx $T0 3652 - ^ =
STACK WIN 4 7838b a2 0 0 14 c e3c 0 1 $T0 $ebp = $eip $T0 4 + ^ = $ebp $T0 ^ = $esp $T0 8 + = $L $T0 .cbSavedRegs - = $P $T0 4 + .cbParams + = $ebx $T0 3652 - ^ =
STACK WIN 4 2a8fa 221 12 0 10 0 430 0 1 $T0 $ebp = $eip $T0 4 + ^ = $ebp $T0 ^ = $esp $T0 8 + = $L $T0 .cbSavedRegs - = $P $T0 4 + .cbParams + =
STACK WIN 4 2a90b 1f9 1 0 10 4 430 0 1 $T0 $ebp = $eip $T0 4 + ^ = $ebp $T0 ^ = $esp $T0 8 + = $L $T0 .cbSavedRegs - = $P $T0 4 + .cbParams + =
STACK WIN 4 2a90c 1f7 0 0 10 8 430 0 1 $T0 $ebp = $eip $T0 4 + ^ = $ebp $T0 ^ = $esp $T0 8 + = $L $T0 .cbSavedRegs - = $P $T0 4 + .cbParams + =
STACK WIN 4 37cfc 3ad 22 0 c 0 468 0 1 $T0 $ebp = $eip $T0 4 + ^ = $ebp $T0 ^ = $esp $T0 8 + = $L $T0 .cbSavedRegs - = $P $T0 4 + .cbParams + =
STACK WIN 4 37d14 38c a 0 c 4 468 0 1 $T0 $ebp = $eip $T0 4 + ^ = $ebp $T0 ^ = $esp $T0 8 + = $L $T0 .cbSavedRegs - = $P $T0 4 + .cbParams + = $ebx $T0 1136 - ^ =
STACK WIN 4 37d1d 382 1 0 c 8 468 0 1 $T0 $ebp = $eip $T0 4 + ^ = $ebp $T0 ^ = $esp $T0 8 + = $L $T0 .cbSavedRegs - = $P $T0 4 + .cbParams + = $ebx $T0 1136 - ^ =
STACK WIN 4 37d1e 380 0 0 c c 468 0 1 $T0 $ebp = $eip $T0 4 + ^ = $ebp $T0 ^ = $esp $T0 8 + = $L $T0 .cbSavedRegs - = $P $T0 4 + .cbParams + = $ebx $T0 1136 - ^ =
STACK WIN 4 7849b 22b 1d 0 c 0 228 0 1 $T0 $ebp = $eip $T0 4 + ^ = $ebp $T0 ^ = $esp $T0 8 + = $L $T0 .cbSavedRegs - = $P $T0 4 + .cbParams + =
STACK WIN 4 784ac 211 c 0 c 4 228 0 1 $T0 $ebp = $eip $T0 4 + ^ = $ebp $T0 ^ = $esp $T0 8 + = $L $T0 .cbSavedRegs - = $P $T0 4 + .cbParams + = $ebx $T0 560 - ^ =
STACK WIN 4 784ad 20f b 0 c 8 228 0 1 $T0 $ebp = $eip $T0 4 + ^ = $ebp $T0 ^ = $esp $T0 8 + = $L $T0 .cbSavedRegs - = $P $T0 4 + .cbParams + = $ebx $T0 560 - ^ =
STACK WIN 4 784b8 203 0 0 c c 228 0 1 $T0 $ebp = $eip $T0 4 + ^ = $ebp $T0 ^ = $esp $T0 8 + = $L $T0 .cbSavedRegs - = $P $T0 4 + .cbParams + = $ebx $T0 560 - ^ =
STACK WIN 4 38234 726 22 0 18 0 dc 0 1 $T0 $ebp = $eip $T0 4 + ^ = $ebp $T0 ^ = $esp $T0 8 + = $L $T0 .cbSavedRegs - = $P $T0 4 + .cbParams + =
STACK WIN 4 38248 709 e 0 18 4 dc 0 1 $T0 $ebp = $eip $T0 4 + ^ = $ebp $T0 ^ = $esp $T0 8 + = $L $T0 .cbSavedRegs - = $P $T0 4 + .cbParams + = $ebx $T0 228 - ^ =
STACK WIN 4 38249 707 d 0 18 8 dc 0 1 $T0 $ebp = $eip $T0 4 + ^ = $ebp $T0 ^ = $esp $T0 8 + = $L $T0 .cbSavedRegs - = $P $T0 4 + .cbParams + = $ebx $T0 228 - ^ =
STACK WIN 4 38256 6f9 0 0 18 c dc 0 1 $T0 $ebp = $eip $T0 4 + ^ = $ebp $T0 ^ = $esp $T0 8 + = $L $T0 .cbSavedRegs - = $P $T0 4 + .cbParams + = $ebx $T0 228 - ^ =
STACK WIN 4 38958 2ac 33 0 38 0 c4 0 1 $T0 $ebp = $eip $T0 4 + ^ = $ebp $T0 ^ = $esp $T0 8 + = $L $T0 .cbSavedRegs - = $P $T0 4 + .cbParams + =
STACK WIN 4 38970 28b 1b 0 38 4 c4 0 1 $T0 $ebp = $eip $T0 4 + ^ = $ebp $T0 ^ = $esp $T0 8 + = $L $T0 .cbSavedRegs - = $P $T0 4 + .cbParams + = $ebx $T0 204 - ^ =
STACK WIN 4 3897a 280 11 0 38 8 c4 0 1 $T0 $ebp = $eip $T0 4 + ^ = $ebp $T0 ^ = $esp $T0 8 + = $L $T0 .cbSavedRegs - = $P $T0 4 + .cbParams + = $ebx $T0 204 - ^ =
STACK WIN 4 3898b 26c 0 0 38 c c4 0 1 $T0 $ebp = $eip $T0 4 + ^ = $ebp $T0 ^ = $esp $T0 8 + = $L $T0 .cbSavedRegs - = $P $T0 4 + .cbParams + = $ebx $T0 204 - ^ =
STACK WIN 4 786e5 19 5 0 c 0 0 0 1 $T0 $ebp = $eip $T0 4 + ^ = $ebp $T0 ^ = $esp $T0 8 + = $L $T0 .cbSavedRegs - = $P $T0 4 + .cbParams + =
STACK WIN 4 78703 1c 5 0 10 0 0 0 1 $T0 $ebp = $eip $T0 4 + ^ = $ebp $T0 ^ = $esp $T0 8 + = $L $T0 .cbSavedRegs - = $P $T0 4 + .cbParams + =
STACK WIN 4 2a8dc 19 5 0 c 0 0 0 1 $T0 $ebp = $eip $T0 4 + ^ = $ebp $T0 ^ = $esp $T0 8 + = $L $T0 .cbSavedRegs - = $P $T0 4 + .cbParams + =
STACK WIN 4 78724 16 5 0 8 0 0 0 1 $T0 $ebp = $eip $T0 4 + ^ = $ebp $T0 ^ = $esp $T0 8 + = $L $T0 .cbSavedRegs - = $P $T0 4 + .cbParams + =
STACK WIN 4 7873f 16 5 0 8 0 0 0 1 $T0 $ebp = $eip $T0 4 + ^ = $ebp $T0 ^ = $esp $T0 8 + = $L $T0 .cbSavedRegs - = $P $T0 4 + .cbParams + =
STACK WIN 4 7875a 1e 5 0 10 0 0 0 1 $T0 $ebp = $eip $T0 4 + ^ = $ebp $T0 ^ = $esp $T0 8 + = $L $T0 .cbSavedRegs - = $P $T0 4 + .cbParams + =
STACK WIN 4 7877d 1e 5 0 10 0 0 0 1 $T0 $ebp = $eip $T0 4 + ^ = $ebp $T0 ^ = $esp $T0 8 + = $L $T0 .cbSavedRegs - = $P $T0 4 + .cbParams + =
STACK WIN 4 388dc df f 0 10 0 0 0 1 $T0 $ebp = $eip $T0 4 + ^ = $ebp $T0 ^ = $esp $T0 8 + = $L $T0 .cbSavedRegs - = $P $T0 4 + .cbParams + =
STACK WIN 4 388e7 d0 4 0 10 4 0 0 1 $T0 $ebp = $eip $T0 4 + ^ = $ebp $T0 ^ = $esp $T0 8 + = $L $T0 .cbSavedRegs - = $P $T0 4 + .cbParams + =
STACK WIN 4 388eb cb 0 0 10 8 0 0 1 $T0 $ebp = $eip $T0 4 + ^ = $ebp $T0 ^ = $esp $T0 8 + = $L $T0 .cbSavedRegs - = $P $T0 4 + .cbParams + =
STACK WIN 4 38801 15f c 0 14 0 0 0 1 $T0 $ebp = $eip $T0 4 + ^ = $ebp $T0 ^ = $esp $T0 8 + = $L $T0 .cbSavedRegs - = $P $T0 4 + .cbParams + =
STACK WIN 4 3880c 150 1 0 14 4 0 0 1 $T0 $ebp = $eip $T0 4 + ^ = $ebp $T0 ^ = $esp $T0 8 + = $L $T0 .cbSavedRegs - = $P $T0 4 + .cbParams + = $ebx $T0 8 - ^ =
STACK WIN 4 3880d 14e 0 0 14 8 0 0 1 $T0 $ebp = $eip $T0 4 + ^ = $ebp $T0 ^ = $esp $T0 8 + = $L $T0 .cbSavedRegs - = $P $T0 4 + .cbParams + = $ebx $T0 8 - ^ =
STACK WIN 4 388be 19 5 0 c 0 0 0 1 $T0 $ebp = $eip $T0 4 + ^ = $ebp $T0 ^ = $esp $T0 8 + = $L $T0 .cbSavedRegs - = $P $T0 4 + .cbParams + =
STACK WIN 4 387e1 1b 5 0 c 0 0 0 1 $T0 $ebp = $eip $T0 4 + ^ = $ebp $T0 ^ = $esp $T0 8 + = $L $T0 .cbSavedRegs - = $P $T0 4 + .cbParams + =
STACK WIN 4 787a0 1b 5 0 c 0 0 0 1 $T0 $ebp = $eip $T0 4 + ^ = $ebp $T0 ^ = $esp $T0 8 + = $L $T0 .cbSavedRegs - = $P $T0 4 + .cbParams + =
STACK WIN 4 787c0 82 5 0 8 0 0 0 1 $T0 $ebp = $eip $T0 4 + ^ = $ebp $T0 ^ = $esp $T0 8 + = $L $T0 .cbSavedRegs - = $P $T0 4 + .cbParams + =
STACK WIN 4 787e7 29 0 0 8 4 0 0 1 $T0 $ebp = $eip $T0 4 + ^ = $ebp $T0 ^ = $esp $T0 8 + = $L $T0 .cbSavedRegs - = $P $T0 4 + .cbParams + =
STACK WIN 4 787f2 1d 0 0 8 8 0 0 1 $T0 $ebp = $eip $T0 4 + ^ = $ebp $T0 ^ = $esp $T0 8 + = $L $T0 .cbSavedRegs - = $P $T0 4 + .cbParams + =
STACK WIN 4 78847 389 16 0 14 0 ac 0 1 $T0 $ebp = $eip $T0 4 + ^ = $ebp $T0 ^ = $esp $T0 8 + = $L $T0 .cbSavedRegs - = $P $T0 4 + .cbParams + =
STACK WIN 4 78858 343 5 0 14 4 ac 0 1 $T0 $ebp = $eip $T0 4 + ^ = $ebp $T0 ^ = $esp $T0 8 + = $L $T0 .cbSavedRegs - = $P $T0 4 + .cbParams + = $ebx $T0 180 - ^ =
STACK WIN 4 78859 341 4 0 14 8 ac 0 1 $T0 $ebp = $eip $T0 4 + ^ = $ebp $T0 ^ = $esp $T0 8 + = $L $T0 .cbSavedRegs - = $P $T0 4 + .cbParams + = $ebx $T0 180 - ^ =
STACK WIN 4 7885d 33c 0 0 14 c ac 0 1 $T0 $ebp = $eip $T0 4 + ^ = $ebp $T0 ^ = $esp $T0 8 + = $L $T0 .cbSavedRegs - = $P $T0 4 + .cbParams + = $ebx $T0 180 - ^ =
STACK WIN 4 78bd9 7e 6 0 c 0 0 0 1 $T0 $ebp = $eip $T0 4 + ^ = $ebp $T0 ^ = $esp $T0 8 + = $L $T0 .cbSavedRegs - = $P $T0 4 + .cbParams + =
STACK WIN 4 78bdf 74 0 0 c 4 0 0 1 $T0 $ebp = $eip $T0 4 + ^ = $ebp $T0 ^ = $esp $T0 8 + = $L $T0 .cbSavedRegs - = $P $T0 4 + .cbParams + =
STACK WIN 4 78c22 30 0 0 c 8 0 0 1 $T0 $ebp = $eip $T0 4 + ^ = $ebp $T0 ^ = $esp $T0 8 + = $L $T0 .cbSavedRegs - = $P $T0 4 + .cbParams + =
STACK WIN 4 3798e da 18 0 4 0 280 0 1 $T0 $ebp = $eip $T0 4 + ^ = $ebp $T0 ^ = $esp $T0 8 + = $L $T0 .cbSavedRegs - = $P $T0 4 + .cbParams + =
STACK WIN 4 3799f c0 7 0 4 4 280 0 1 $T0 $ebp = $eip $T0 4 + ^ = $ebp $T0 ^ = $esp $T0 8 + = $L $T0 .cbSavedRegs - = $P $T0 4 + .cbParams + =
STACK WIN 4 379a6 b8 0 0 4 8 280 0 1 $T0 $ebp = $eip $T0 4 + ^ = $ebp $T0 ^ = $esp $T0 8 + = $L $T0 .cbSavedRegs - = $P $T0 4 + .cbParams + =
STACK WIN 4 78c5c 150 12 0 4 0 148 0 1 $T0 $ebp = $eip $T0 4 + ^ = $ebp $T0 ^ = $esp $T0 8 + = $L $T0 .cbSavedRegs - = $P $T0 4 + .cbParams + =
STACK WIN 4 78c6d 136 1 0 4 4 148 0 1 $T0 $ebp = $eip $T0 4 + ^ = $ebp $T0 ^ = $esp $T0 8 + = $L $T0 .cbSavedRegs - = $P $T0 4 + .cbParams + = $ebx $T0 336 - ^ =
STACK WIN 4 78c6e 134 0 0 4 8 148 0 1 $T0 $ebp = $eip $T0 4 + ^ = $ebp $T0 ^ = $esp $T0 8 + = $L $T0 .cbSavedRegs - = $P $T0 4 + .cbParams + = $ebx $T0 336 - ^ =
STACK WIN 4 78cb4 ea 0 0 4 c 148 0 1 $T0 $ebp = $eip $T0 4 + ^ = $ebp $T0 ^ = $esp $T0 8 + = $L $T0 .cbSavedRegs - = $P $T0 4 + .cbParams + = $ebx $T0 336 - ^ =
STACK WIN 4 78db1 7c 5 0 10 0 0 0 1 $T0 $ebp = $eip $T0 4 + ^ = $ebp $T0 ^ = $esp $T0 8 + = $L $T0 .cbSavedRegs - = $P $T0 4 + .cbParams + =
STACK WIN 4 78dd9 4c 0 0 10 4 0 0 1 $T0 $ebp = $eip $T0 4 + ^ = $ebp $T0 ^ = $esp $T0 8 + = $L $T0 .cbSavedRegs - = $P $T0 4 + .cbParams + =
STACK WIN 4 78ddd 47 0 0 10 8 0 0 1 $T0 $ebp = $eip $T0 4 + ^ = $ebp $T0 ^ = $esp $T0 8 + = $L $T0 .cbSavedRegs - = $P $T0 4 + .cbParams + =
STACK WIN 4 78e32 7c 5 0 10 0 0 0 1 $T0 $ebp = $eip $T0 4 + ^ = $ebp $T0 ^ = $esp $T0 8 + = $L $T0 .cbSavedRegs - = $P $T0 4 + .cbParams + =
STACK WIN 4 78e5a 4c 0 0 10 4 0 0 1 $T0 $ebp = $eip $T0 4 + ^ = $ebp $T0 ^ = $esp $T0 8 + = $L $T0 .cbSavedRegs - = $P $T0 4 + .cbParams + =
STACK WIN 4 78e5e 47 0 0 10 8 0 0 1 $T0 $ebp = $eip $T0 4 + ^ = $ebp $T0 ^ = $esp $T0 8 + = $L $T0 .cbSavedRegs - = $P $T0 4 + .cbParams + =
STACK WIN 4 78eb3 c3 5 0 10 0 0 0 1 $T0 $ebp = $eip $T0 4 + ^ = $ebp $T0 ^ = $esp $T0 8 + = $L $T0 .cbSavedRegs - = $P $T0 4 + .cbParams + =
STACK WIN 4 78ef0 7e 0 0 10 4 0 0 1 $T0 $ebp = $eip $T0 4 + ^ = $ebp $T0 ^ = $esp $T0 8 + = $L $T0 .cbSavedRegs - = $P $T0 4 + .cbParams + =
STACK WIN 4 78ef3 7a 0 0 10 8 0 0 1 $T0 $ebp = $eip $T0 4 + ^ = $ebp $T0 ^ = $esp $T0 8 + = $L $T0 .cbSavedRegs - = $P $T0 4 + .cbParams + =
STACK WIN 4 78f7b 127 e 0 10 0 4 0 1 $T0 $ebp = $eip $T0 4 + ^ = $ebp $T0 ^ = $esp $T0 8 + = $L $T0 .cbSavedRegs - = $P $T0 4 + .cbParams + =
STACK WIN 4 78f88 116 1 0 10 4 4 0 1 $T0 $ebp = $eip $T0 4 + ^ = $ebp $T0 ^ = $esp $T0 8 + = $L $T0 .cbSavedRegs - = $P $T0 4 + .cbParams + = $ebx $T0 12 - ^ =
STACK WIN 4 78f89 114 0 0 10 8 4 0 1 $T0 $ebp = $eip $T0 4 + ^ = $ebp $T0 ^ = $esp $T0 8 + = $L $T0 .cbSavedRegs - = $P $T0 4 + .cbParams + = $ebx $T0 12 - ^ =
STACK WIN 4 78fac f0 0 0 10 c 4 0 1 $T0 $ebp = $eip $T0 4 + ^ = $ebp $T0 ^ = $esp $T0 8 + = $L $T0 .cbSavedRegs - = $P $T0 4 + .cbParams + = $ebx $T0 12 - ^ =
STACK WIN 4 790a7 126 11 0 10 0 c 0 1 $T0 $ebp = $eip $T0 4 + ^ = $ebp $T0 ^ = $esp $T0 8 + = $L $T0 .cbSavedRegs - = $P $T0 4 + .cbParams + =
STACK WIN 4 790b5 114 3 0 10 4 c 0 1 $T0 $ebp = $eip $T0 4 + ^ = $ebp $T0 ^ = $esp $T0 8 + = $L $T0 .cbSavedRegs - = $P $T0 4 + .cbParams + =
STACK WIN 4 790b8 110 0 0 10 8 c 0 1 $T0 $ebp = $eip $T0 4 + ^ = $ebp $T0 ^ = $esp $T0 8 + = $L $T0 .cbSavedRegs - = $P $T0 4 + .cbParams + =
STACK WIN 4 791d2 92 18 0 10 0 14 0 1 $T0 $ebp = $eip $T0 4 + ^ = $ebp $T0 ^ = $esp $T0 8 + = $L $T0 .cbSavedRegs - = $P $T0 4 + .cbParams + =
STACK WIN 4 791e0 7b a 0 10 4 14 0 1 $T0 $ebp = $eip $T0 4 + ^ = $ebp $T0 ^ = $esp $T0 8 + = $L $T0 .cbSavedRegs - = $P $T0 4 + .cbParams + = $ebx $T0 28 - ^ =
STACK WIN 4 791e4 76 6 0 10 8 14 0 1 $T0 $ebp = $eip $T0 4 + ^ = $ebp $T0 ^ = $esp $T0 8 + = $L $T0 .cbSavedRegs - = $P $T0 4 + .cbParams + = $ebx $T0 28 - ^ =
STACK WIN 4 791ea 6f 0 0 10 c 14 0 1 $T0 $ebp = $eip $T0 4 + ^ = $ebp $T0 ^ = $esp $T0 8 + = $L $T0 .cbSavedRegs - = $P $T0 4 + .cbParams + = $ebx $T0 28 - ^ =
STACK WIN 4 ce53 73 5 0 18 0 0 0 1 $T0 $ebp = $eip $T0 4 + ^ = $ebp $T0 ^ = $esp $T0 8 + = $L $T0 .cbSavedRegs - = $P $T0 4 + .cbParams + =
STACK WIN 4 ce77 40 0 0 18 4 0 0 1 $T0 $ebp = $eip $T0 4 + ^ = $ebp $T0 ^ = $esp $T0 8 + = $L $T0 .cbSavedRegs - = $P $T0 4 + .cbParams + =
STACK WIN 4 ce7b 3b 0 0 18 8 0 0 1 $T0 $ebp = $eip $T0 4 + ^ = $ebp $T0 ^ = $esp $T0 8 + = $L $T0 .cbSavedRegs - = $P $T0 4 + .cbParams + =
STACK WIN 4 2d4ad 1ced 29 0 1c 0 de4 0 1 $T0 $ebp = $eip $T0 4 + ^ = $ebp $T0 ^ = $esp $T0 8 + = $L $T0 .cbSavedRegs - = $P $T0 4 + .cbParams + =
STACK WIN 4 2d4c1 1cd0 15 0 1c 4 de4 0 1 $T0 $ebp = $eip $T0 4 + ^ = $ebp $T0 ^ = $esp $T0 8 + = $L $T0 .cbSavedRegs - = $P $T0 4 + .cbParams + = $ebx $T0 3564 - ^ =
STACK WIN 4 2d4d5 1cbb 1 0 1c 8 de4 0 1 $T0 $ebp = $eip $T0 4 + ^ = $ebp $T0 ^ = $esp $T0 8 + = $L $T0 .cbSavedRegs - = $P $T0 4 + .cbParams + = $ebx $T0 3564 - ^ =
STACK WIN 4 2d4d6 1cb9 0 0 1c c de4 0 1 $T0 $ebp = $eip $T0 4 + ^ = $ebp $T0 ^ = $esp $T0 8 + = $L $T0 .cbSavedRegs - = $P $T0 4 + .cbParams + = $ebx $T0 3564 - ^ =
STACK WIN 4 79269 289 7 0 18 0 4 0 1 $T0 $ebp = $eip $T0 4 + ^ = $ebp $T0 ^ = $esp $T0 8 + = $L $T0 .cbSavedRegs - = $P $T0 4 + .cbParams + =
STACK WIN 4 79270 27e 0 0 18 4 4 0 1 $T0 $ebp = $eip $T0 4 + ^ = $ebp $T0 ^ = $esp $T0 8 + = $L $T0 .cbSavedRegs - = $P $T0 4 + .cbParams + =
STACK WIN 4 7928e 25e 0 0 18 8 4 0 1 $T0 $ebp = $eip $T0 4 + ^ = $ebp $T0 ^ = $esp $T0 8 + = $L $T0 .cbSavedRegs - = $P $T0 4 + .cbParams + =
STACK WIN 4 374eb 220 1f 0 18 0 2c 0 1 $T0 $ebp = $eip $T0 4 + ^ = $ebp $T0 ^ = $esp $T0 8 + = $L $T0 .cbSavedRegs - = $P $T0 4 + .cbParams + =
STACK WIN 4 374fc 206 e 0 18 4 2c 0 1 $T0 $ebp = $eip $T0 4 + ^ = $ebp $T0 ^ = $esp $T0 8 + = $L $T0 .cbSavedRegs - = $P $T0 4 + .cbParams + =
STACK WIN 4 3750a 1f7 0 0 18 8 2c 0 1 $T0 $ebp = $eip $T0 4 + ^ = $ebp $T0 ^ = $esp $T0 8 + = $L $T0 .cbSavedRegs - = $P $T0 4 + .cbParams + =
STACK WIN 4 37787 e9 23 0 18 0 28 0 1 $T0 $ebp = $eip $T0 4 + ^ = $ebp $T0 ^ = $esp $T0 8 + = $L $T0 .cbSavedRegs - = $P $T0 4 + .cbParams + =
STACK WIN 4 3779d ca d 0 18 4 28 0 1 $T0 $ebp = $eip $T0 4 + ^ = $ebp $T0 ^ = $esp $T0 8 + = $L $T0 .cbSavedRegs - = $P $T0 4 + .cbParams + = $ebx $T0 48 - ^ =
STACK WIN 4 377aa bc 0 0 18 8 28 0 1 $T0 $ebp = $eip $T0 4 + ^ = $ebp $T0 ^ = $esp $T0 8 + = $L $T0 .cbSavedRegs - = $P $T0 4 + .cbParams + = $ebx $T0 48 - ^ =
STACK WIN 4 377d2 55 0 0 18 c 28 0 1 $T0 $ebp = $eip $T0 4 + ^ = $ebp $T0 ^ = $esp $T0 8 + = $L $T0 .cbSavedRegs - = $P $T0 4 + .cbParams + = $ebx $T0 48 - ^ =
STACK WIN 4 794fb 136 5 0 1c 0 0 0 1 $T0 $ebp = $eip $T0 4 + ^ = $ebp $T0 ^ = $esp $T0 8 + = $L $T0 .cbSavedRegs - = $P $T0 4 + .cbParams + =
STACK WIN 4 7952d ff 0 0 1c 4 0 0 1 $T0 $ebp = $eip $T0 4 + ^ = $ebp $T0 ^ = $esp $T0 8 + = $L $T0 .cbSavedRegs - = $P $T0 4 + .cbParams + =
STACK WIN 4 7952e fd 0 0 1c 8 0 0 1 $T0 $ebp = $eip $T0 4 + ^ = $ebp $T0 ^ = $esp $T0 8 + = $L $T0 .cbSavedRegs - = $P $T0 4 + .cbParams + =
STACK WIN 4 79636 188 d 0 14 0 0 0 1 $T0 $ebp = $eip $T0 4 + ^ = $ebp $T0 ^ = $esp $T0 8 + = $L $T0 .cbSavedRegs - = $P $T0 4 + .cbParams + =
STACK WIN 4 79641 179 2 0 14 4 0 0 1 $T0 $ebp = $eip $T0 4 + ^ = $ebp $T0 ^ = $esp $T0 8 + = $L $T0 .cbSavedRegs - = $P $T0 4 + .cbParams + = $ebx $T0 8 - ^ =
STACK WIN 4 79642 177 1 0 14 8 0 0 1 $T0 $ebp = $eip $T0 4 + ^ = $ebp $T0 ^ = $esp $T0 8 + = $L $T0 .cbSavedRegs - = $P $T0 4 + .cbParams + = $ebx $T0 8 - ^ =
STACK WIN 4 79643 175 0 0 14 c 0 0 1 $T0 $ebp = $eip $T0 4 + ^ = $ebp $T0 ^ = $esp $T0 8 + = $L $T0 .cbSavedRegs - = $P $T0 4 + .cbParams + = $ebx $T0 8 - ^ =
STACK WIN 4 37693 2ef a 0 18 0 0 0 1 $T0 $ebp = $eip $T0 4 + ^ = $ebp $T0 ^ = $esp $T0 8 + = $L $T0 .cbSavedRegs - = $P $T0 4 + .cbParams + =
STACK WIN 4 3769c 2e2 1 0 18 4 0 0 1 $T0 $ebp = $eip $T0 4 + ^ = $ebp $T0 ^ = $esp $T0 8 + = $L $T0 .cbSavedRegs - = $P $T0 4 + .cbParams + = $ebx $T0 8 - ^ =
STACK WIN 4 3769d 2e0 0 0 18 8 0 0 1 $T0 $ebp = $eip $T0 4 + ^ = $ebp $T0 ^ = $esp $T0 8 + = $L $T0 .cbSavedRegs - = $P $T0 4 + .cbParams + = $ebx $T0 8 - ^ =
STACK WIN 4 4acfb 1c3 0 0 18 c 0 0 1 $T0 $ebp = $eip $T0 4 + ^ = $ebp $T0 ^ = $esp $T0 8 + = $L $T0 .cbSavedRegs - = $P $T0 4 + .cbParams + = $ebx $T0 8 - ^ =
STACK WIN 4 cca8 3d3 13 0 18 0 0 0 1 $T0 $ebp = $eip $T0 4 + ^ = $ebp $T0 ^ = $esp $T0 8 + = $L $T0 .cbSavedRegs - = $P $T0 4 + .cbParams + =
STACK WIN 4 ccb4 3c3 7 0 18 4 0 0 1 $T0 $ebp = $eip $T0 4 + ^ = $ebp $T0 ^ = $esp $T0 8 + = $L $T0 .cbSavedRegs - = $P $T0 4 + .cbParams + = $ebx $T0 8 - ^ =
STACK WIN 4 ccba 3bc 1 0 18 8 0 0 1 $T0 $ebp = $eip $T0 4 + ^ = $ebp $T0 ^ = $esp $T0 8 + = $L $T0 .cbSavedRegs - = $P $T0 4 + .cbParams + = $ebx $T0 8 - ^ =
STACK WIN 4 ccbb 3ba 0 0 18 c 0 0 1 $T0 $ebp = $eip $T0 4 + ^ = $ebp $T0 ^ = $esp $T0 8 + = $L $T0 .cbSavedRegs - = $P $T0 4 + .cbParams + = $ebx $T0 8 - ^ =
STACK WIN 4 110cb 48 6 0 4 0 0 0 1 $T0 $ebp = $eip $T0 4 + ^ = $ebp $T0 ^ = $esp $T0 8 + = $L $T0 .cbSavedRegs - = $P $T0 4 + .cbParams + =
STACK WIN 4 110d1 3e 0 0 4 4 0 0 1 $T0 $ebp = $eip $T0 4 + ^ = $ebp $T0 ^ = $esp $T0 8 + = $L $T0 .cbSavedRegs - = $P $T0 4 + .cbParams + =
STACK WIN 4 9915 6 0 0 0 0 0 0 1 $T2 $esp .cbLocals + .cbSavedRegs + = $T0 .raSearchStart = $eip $T0 ^ = $esp $T0 4 + =
STACK WIN 4 797c3 17 5 0 4 0 0 0 1 $T0 $ebp = $eip $T0 4 + ^ = $ebp $T0 ^ = $esp $T0 8 + = $L $T0 .cbSavedRegs - = $P $T0 4 + .cbParams + =
STACK WIN 4 127a7 6 0 0 0 0 0 0 1 $T2 $esp .cbLocals + .cbSavedRegs + = $T0 .raSearchStart = $eip $T0 ^ = $esp $T0 4 + =
STACK WIN 4 b7dc 39 5 0 4 0 0 0 1 $T0 $ebp = $eip $T0 4 + ^ = $ebp $T0 ^ = $esp $T0 8 + = $L $T0 .cbSavedRegs - = $P $T0 4 + .cbParams + =
STACK WIN 4 2f540 24 5 0 10 0 0 0 1 $T0 $ebp = $eip $T0 4 + ^ = $ebp $T0 ^ = $esp $T0 8 + = $L $T0 .cbSavedRegs - = $P $T0 4 + .cbParams + =
STACK WIN 4 797df 82 5 0 1c 0 0 0 1 $T0 $ebp = $eip $T0 4 + ^ = $ebp $T0 ^ = $esp $T0 8 + = $L $T0 .cbSavedRegs - = $P $T0 4 + .cbParams + =
STACK WIN 4 79866 56 c 0 14 0 0 0 1 $T0 $ebp = $eip $T0 4 + ^ = $ebp $T0 ^ = $esp $T0 8 + = $L $T0 .cbSavedRegs - = $P $T0 4 + .cbParams + =
STACK WIN 4 79872 46 0 0 14 4 0 0 1 $T0 $ebp = $eip $T0 4 + ^ = $ebp $T0 ^ = $esp $T0 8 + = $L $T0 .cbSavedRegs - = $P $T0 4 + .cbParams + =
STACK WIN 4 798c1 c4 13 0 1c 0 0 0 1 $T0 $ebp = $eip $T0 4 + ^ = $ebp $T0 ^ = $esp $T0 8 + = $L $T0 .cbSavedRegs - = $P $T0 4 + .cbParams + =
STACK WIN 4 798cf 67 5 0 1c 4 0 0 1 $T0 $ebp = $eip $T0 4 + ^ = $ebp $T0 ^ = $esp $T0 8 + = $L $T0 .cbSavedRegs - = $P $T0 4 + .cbParams + = $ebx $T0 8 - ^ =
STACK WIN 4 798d0 65 4 0 1c 8 0 0 1 $T0 $ebp = $eip $T0 4 + ^ = $ebp $T0 ^ = $esp $T0 8 + = $L $T0 .cbSavedRegs - = $P $T0 4 + .cbParams + = $ebx $T0 8 - ^ =
STACK WIN 4 798d4 60 0 0 1c c 0 0 1 $T0 $ebp = $eip $T0 4 + ^ = $ebp $T0 ^ = $esp $T0 8 + = $L $T0 .cbSavedRegs - = $P $T0 4 + .cbParams + = $ebx $T0 8 - ^ =
STACK WIN 4 a1fb 2a0 13 0 18 0 8 0 1 $T0 $ebp = $eip $T0 4 + ^ = $ebp $T0 ^ = $esp $T0 8 + = $L $T0 .cbSavedRegs - = $P $T0 4 + .cbParams + =
STACK WIN 4 a20c 2c 2 0 18 4 8 0 1 $T0 $ebp = $eip $T0 4 + ^ = $ebp $T0 ^ = $esp $T0 8 + = $L $T0 .cbSavedRegs - = $P $T0 4 + .cbParams + = $ebx $T0 16 - ^ =
STACK WIN 4 a20d 2a 1 0 18 8 8 0 1 $T0 $ebp = $eip $T0 4 + ^ = $ebp $T0 ^ = $esp $T0 8 + = $L $T0 .cbSavedRegs - = $P $T0 4 + .cbParams + = $ebx $T0 16 - ^ =
STACK WIN 4 a20e 28 0 0 18 c 8 0 1 $T0 $ebp = $eip $T0 4 + ^ = $ebp $T0 ^ = $esp $T0 8 + = $L $T0 .cbSavedRegs - = $P $T0 4 + .cbParams + = $ebx $T0 16 - ^ =
STACK WIN 4 bd19 4ee 19 0 20 0 8 0 1 $T0 $ebp = $eip $T0 4 + ^ = $ebp $T0 ^ = $esp $T0 8 + = $L $T0 .cbSavedRegs - = $P $T0 4 + .cbParams + =
STACK WIN 4 bd30 70 2 0 20 4 8 0 1 $T0 $ebp = $eip $T0 4 + ^ = $ebp $T0 ^ = $esp $T0 8 + = $L $T0 .cbSavedRegs - = $P $T0 4 + .cbParams + = $ebx $T0 16 - ^ =
STACK WIN 4 bd31 6e 1 0 20 8 8 0 1 $T0 $ebp = $eip $T0 4 + ^ = $ebp $T0 ^ = $esp $T0 8 + = $L $T0 .cbSavedRegs - = $P $T0 4 + .cbParams + = $ebx $T0 16 - ^ =
