MODULE Linux x86_64 F4F8DFCD5A5FB5A7CE64717E9E6AE3890 libc-2.13.so
PUBLIC 1eb80 0 __libc_init_first
PUBLIC 1edb0 0 __libc_start_main
PUBLIC 1ef80 0 gnu_get_libc_release
PUBLIC 1ef90 0 gnu_get_libc_version
PUBLIC 1f3f0 0 __get_cpu_features
PUBLIC 1f410 0 __errno_location
PUBLIC 1f4e0 0 iconv_open
PUBLIC 1f700 0 iconv
PUBLIC 1f8b0 0 iconv_close
PUBLIC 203d0 0 __gconv_get_modules_db
PUBLIC 203e0 0 __gconv_get_alias_db
PUBLIC 28090 0 __gconv_get_cache
PUBLIC 28c60 0 __ctype_get_mb_cur_max
PUBLIC 28f20 0 setlocale
PUBLIC 2a7d0 0 localeconv
PUBLIC 2a990 0 nl_langinfo
PUBLIC 2a9a0 0 __nl_langinfo_l
PUBLIC 2aa00 0 __newlocale
PUBLIC 2b0b0 0 duplocale
PUBLIC 2b250 0 __freelocale
PUBLIC 2b310 0 uselocale
PUBLIC 2b530 0 __assert_fail
PUBLIC 2b680 0 __assert_perror_fail
PUBLIC 2b7e0 0 __assert
PUBLIC 2b7f0 0 tolower
PUBLIC 2b820 0 toupper
PUBLIC 2b850 0 isxdigit
PUBLIC 2b890 0 isupper
PUBLIC 2b8d0 0 isspace
PUBLIC 2b910 0 ispunct
PUBLIC 2b950 0 isprint
PUBLIC 2b990 0 isgraph
PUBLIC 2b9d0 0 islower
PUBLIC 2ba10 0 isdigit
PUBLIC 2ba50 0 iscntrl
PUBLIC 2ba90 0 isalpha
PUBLIC 2bad0 0 isalnum
PUBLIC 2bb10 0 _tolower
PUBLIC 2bb30 0 _toupper
PUBLIC 2bb50 0 __toascii_l
PUBLIC 2bb60 0 __isascii_l
PUBLIC 2bb70 0 isblank_l
PUBLIC 2bb80 0 isblank
PUBLIC 2bbc0 0 isalnum_l
PUBLIC 2bbd0 0 isalpha_l
PUBLIC 2bbf0 0 iscntrl_l
PUBLIC 2bc00 0 isdigit_l
PUBLIC 2bc20 0 __islower_l
PUBLIC 2bc40 0 __isgraph_l
PUBLIC 2bc60 0 isprint_l
PUBLIC 2bc80 0 ispunct_l
PUBLIC 2bc90 0 isspace_l
PUBLIC 2bcb0 0 isupper_l
PUBLIC 2bcd0 0 __isxdigit_l
PUBLIC 2bcf0 0 __tolower_l
PUBLIC 2bd00 0 toupper_l
PUBLIC 2bd10 0 isctype
PUBLIC 2bd30 0 __ctype_tolower_loc
PUBLIC 2bd70 0 __ctype_toupper_loc
PUBLIC 2bdb0 0 __ctype_b_loc
PUBLIC 2c1f0 0 bind_textdomain_codeset
PUBLIC 2c210 0 bindtextdomain
PUBLIC 2c230 0 dcgettext
PUBLIC 2c240 0 dgettext
PUBLIC 2c250 0 gettext
PUBLIC 2db60 0 dcngettext
PUBLIC 2db70 0 dngettext
PUBLIC 2db80 0 ngettext
PUBLIC 2f5e0 0 textdomain
PUBLIC 30b00 0 catgets
PUBLIC 30ba0 0 catclose
PUBLIC 30c10 0 catopen
PUBLIC 30e50 0 __open_catalog
PUBLIC 31710 0 isinf
PUBLIC 31750 0 isnan
PUBLIC 31780 0 finite
PUBLIC 317a0 0 copysign
PUBLIC 317c0 0 modf
PUBLIC 318b0 0 scalbln
PUBLIC 319c0 0 frexp
PUBLIC 31a70 0 ldexp
PUBLIC 31b00 0 __signbit
PUBLIC 31b10 0 __isinff
PUBLIC 31b40 0 __isnanf
PUBLIC 31b60 0 finitef
PUBLIC 31b80 0 copysignf
PUBLIC 31ba0 0 modff
PUBLIC 31c30 0 scalbnf
PUBLIC 31d10 0 frexpf
PUBLIC 31d80 0 ldexpf
PUBLIC 31e10 0 __signbitf
PUBLIC 31e20 0 __isinfl
PUBLIC 31e70 0 __isnanl
PUBLIC 31eb0 0 finitel
PUBLIC 31ec0 0 copysignl
PUBLIC 31ee0 0 modfl
PUBLIC 32060 0 scalbnl
PUBLIC 32080 0 frexpl
PUBLIC 32120 0 ldexpl
PUBLIC 321b0 0 __signbitl
PUBLIC 321f0 0 __sigsetjmp
PUBLIC 32290 0 setjmp
PUBLIC 322a0 0 _setjmp
PUBLIC 322b0 0 _longjmp
PUBLIC 32380 0 signal
PUBLIC 32440 0 gsignal
PUBLIC 324b0 0 killpg
PUBLIC 32700 0 sigaction
PUBLIC 32720 0 sigprocmask
PUBLIC 32750 0 kill
PUBLIC 32780 0 sigpending
PUBLIC 327e0 0 sigsuspend
PUBLIC 328f0 0 sigwait
PUBLIC 32940 0 sigblock
PUBLIC 329a0 0 sigsetmask
PUBLIC 32a80 0 __sigpause
PUBLIC 32ad0 0 __xpg_sigpause
PUBLIC 32ae0 0 sigpause
PUBLIC 32af0 0 sigvec
PUBLIC 32be0 0 sigstack
PUBLIC 32c40 0 sigaltstack
PUBLIC 32c70 0 siginterrupt
PUBLIC 32d40 0 __sigismember
PUBLIC 32d60 0 __sigaddset
PUBLIC 32d80 0 __sigdelset
PUBLIC 32da0 0 sigemptyset
PUBLIC 32dd0 0 sigfillset
PUBLIC 32e80 0 sigaddset
PUBLIC 32ec0 0 sigdelset
PUBLIC 32f00 0 sigismember
PUBLIC 32f50 0 sigreturn
PUBLIC 32f70 0 siggetmask
PUBLIC 32f80 0 sysv_signal
PUBLIC 33010 0 sigisemptyset
PUBLIC 33060 0 sigandset
PUBLIC 330b0 0 sigorset
PUBLIC 33100 0 __libc_current_sigrtmin_private
PUBLIC 33110 0 __libc_current_sigrtmax
PUBLIC 33120 0 __libc_allocate_rtsig_private
PUBLIC 33200 0 sigtimedwait
PUBLIC 332f0 0 sigwaitinfo
PUBLIC 33340 0 sigqueue
PUBLIC 333f0 0 sighold
PUBLIC 33460 0 sigrelse
PUBLIC 334d0 0 sigignore
PUBLIC 33520 0 sigset
PUBLIC 35520 0 atof
PUBLIC 35530 0 atoi
PUBLIC 35550 0 atol
PUBLIC 35560 0 atoll
PUBLIC 35570 0 abort
PUBLIC 35810 0 bsearch
PUBLIC 36070 0 qsort_r
PUBLIC 363a0 0 qsort
PUBLIC 363b0 0 getenv
PUBLIC 364d0 0 putenv
PUBLIC 36550 0 clearenv
PUBLIC 365e0 0 unsetenv
PUBLIC 36b60 0 setenv
PUBLIC 36ce0 0 __secure_getenv
PUBLIC 36e30 0 exit
PUBLIC 36e50 0 on_exit
PUBLIC 37080 0 __cxa_atexit
PUBLIC 370d0 0 __cxa_finalize
PUBLIC 37230 0 quick_exit
PUBLIC 37250 0 __cxa_at_quick_exit
PUBLIC 37270 0 abs
PUBLIC 37280 0 imaxabs
PUBLIC 372a0 0 llabs
PUBLIC 372c0 0 div
PUBLIC 372f0 0 imaxdiv
PUBLIC 37320 0 lldiv
PUBLIC 37350 0 random
PUBLIC 373c0 0 setstate
PUBLIC 37440 0 initstate
PUBLIC 374c0 0 srand
PUBLIC 37630 0 setstate_r
PUBLIC 37720 0 random_r
PUBLIC 377c0 0 srandom_r
PUBLIC 378c0 0 initstate_r
PUBLIC 37a00 0 rand
PUBLIC 37a10 0 rand_r
PUBLIC 37a60 0 drand48
PUBLIC 37a90 0 erand48
PUBLIC 37ab0 0 lrand48
PUBLIC 37ae0 0 nrand48
PUBLIC 37b00 0 mrand48
PUBLIC 37b30 0 jrand48
PUBLIC 37b50 0 srand48
PUBLIC 37b60 0 seed48
PUBLIC 37b80 0 lcong48
PUBLIC 37b90 0 drand48_r
PUBLIC 37ba0 0 erand48_r
PUBLIC 37c20 0 lrand48_r
PUBLIC 37c40 0 nrand48_r
PUBLIC 37c90 0 mrand48_r
PUBLIC 37cb0 0 jrand48_r
PUBLIC 37d00 0 srand48_r
PUBLIC 37d40 0 seed48_r
PUBLIC 37d80 0 lcong48_r
PUBLIC 37e40 0 strtoll
PUBLIC 37e60 0 __strtoll_internal
PUBLIC 37e70 0 strtoul
PUBLIC 37e90 0 __strtoull_internal
PUBLIC 38300 0 strtoll_l
PUBLIC 38740 0 strtoull_l
PUBLIC 38750 0 strtof
PUBLIC 38770 0 __strtof_internal
PUBLIC 38780 0 strtod
PUBLIC 387a0 0 __strtod_internal
PUBLIC 387b0 0 strtold
PUBLIC 387d0 0 __strtold_internal
PUBLIC 3ae10 0 strtof_l
PUBLIC 3d4f0 0 __strtod_l
PUBLIC 3fb10 0 strtold_l
PUBLIC 3ff80 0 __libc_system
PUBLIC 401b0 0 realpath
PUBLIC 40670 0 canonicalize_file_name
PUBLIC 40680 0 a64l
PUBLIC 406d0 0 l64a
PUBLIC 40720 0 getsubopt
PUBLIC 40830 0 __xpg_basename
PUBLIC 408e0 0 strtoimax
PUBLIC 408f0 0 strtoumax
PUBLIC 40900 0 getcontext
PUBLIC 409b0 0 setcontext
PUBLIC 40a50 0 makecontext
PUBLIC 40c50 0 swapcontext
PUBLIC 40d60 0 strfmon
PUBLIC 41fa0 0 strfmon_l
PUBLIC 42030 0 mblen
PUBLIC 420c0 0 mbstowcs
PUBLIC 420f0 0 mbtowc
PUBLIC 42180 0 wcstombs
PUBLIC 421b0 0 wctomb
PUBLIC 42220 0 wcstoimax
PUBLIC 42230 0 wcstoumax
PUBLIC 42300 0 rpmatch
PUBLIC 42410 0 addseverity
PUBLIC 426a0 0 fmtmsg
PUBLIC 43040 0 ctermid
PUBLIC 43070 0 cuserid
PUBLIC 43680 0 _IO_vfprintf
PUBLIC 48e40 0 vprintf
PUBLIC 49250 0 __printf_fp
PUBLIC 4b9c0 0 register_printf_specifier
PUBLIC 4bab0 0 register_printf_function
PUBLIC 4bb00 0 parse_printf_format
PUBLIC 4d800 0 register_printf_modifier
PUBLIC 4d9b0 0 register_printf_type
PUBLIC 4dac0 0 printf_size_info
PUBLIC 4dae0 0 printf_size
PUBLIC 4e350 0 _IO_fprintf
PUBLIC 4e3e0 0 _IO_printf
PUBLIC 4e490 0 snprintf
PUBLIC 4e520 0 sprintf
PUBLIC 4e5b0 0 asprintf
PUBLIC 4e640 0 dprintf
PUBLIC 4e6d0 0 _IO_vfscanf
PUBLIC 56b90 0 vfscanf
PUBLIC 56bd0 0 fscanf
PUBLIC 56c60 0 scanf
PUBLIC 56d10 0 _IO_sscanf
PUBLIC 56e30 0 perror
PUBLIC 56f20 0 psignal
PUBLIC 57030 0 tmpfile
PUBLIC 570c0 0 tmpnam
PUBLIC 57150 0 tmpnam_r
PUBLIC 571a0 0 tempnam
PUBLIC 57740 0 getline
PUBLIC 57750 0 getw
PUBLIC 57790 0 putw
PUBLIC 577c0 0 remove
PUBLIC 57800 0 rename
PUBLIC 57830 0 renameat
PUBLIC 57860 0 flockfile
PUBLIC 578c0 0 ftrylockfile
PUBLIC 57930 0 _IO_funlockfile
PUBLIC 57980 0 __isoc99_scanf
PUBLIC 57b60 0 __isoc99_vscanf
PUBLIC 57cc0 0 __isoc99_fscanf
PUBLIC 57e90 0 __isoc99_vfscanf
PUBLIC 57fd0 0 __isoc99_sscanf
PUBLIC 58060 0 __isoc99_vsscanf
PUBLIC 58110 0 psiginfo
PUBLIC 58a00 0 vfwprintf
PUBLIC 66ab0 0 vfwscanf
PUBLIC 67a70 0 _IO_file_doallocate
PUBLIC 67b80 0 fclose
PUBLIC 67e20 0 fdopen
PUBLIC 68070 0 fflush
PUBLIC 681c0 0 fgetpos
PUBLIC 683c0 0 fgets
PUBLIC 686c0 0 fopen
PUBLIC 68860 0 fopencookie
PUBLIC 68970 0 fputs
PUBLIC 68b20 0 fread
PUBLIC 68cc0 0 fsetpos64
PUBLIC 68e70 0 ftell
PUBLIC 69000 0 fwrite
PUBLIC 691e0 0 getdelim
PUBLIC 694d0 0 _IO_getline
PUBLIC 694e0 0 _IO_getline_info
PUBLIC 69670 0 gets
PUBLIC 69860 0 _IO_padn
PUBLIC 69970 0 _IO_proc_close
PUBLIC 69b50 0 _IO_proc_open
PUBLIC 69f20 0 popen
PUBLIC 6a060 0 _IO_puts
PUBLIC 6a340 0 _IO_seekoff
PUBLIC 6a500 0 _IO_seekpos
PUBLIC 6a630 0 setbuffer
PUBLIC 6a7d0 0 _IO_setvbuf
PUBLIC 6a9d0 0 _IO_ungetc
PUBLIC 6aab0 0 vsprintf
PUBLIC 6ab70 0 vsscanf
PUBLIC 6ac10 0 putchar
PUBLIC 6ad70 0 putchar_unlocked
PUBLIC 6b3b0 0 clearerr
PUBLIC 6b470 0 _IO_feof
PUBLIC 6b540 0 _IO_ferror
PUBLIC 6b610 0 fileno_unlocked
PUBLIC 6b640 0 fputc
PUBLIC 6b790 0 freopen
PUBLIC 6ba40 0 fseek
PUBLIC 6bb80 0 getc
PUBLIC 6bcc0 0 getchar
PUBLIC 6be10 0 open_memstream
PUBLIC 6bfc0 0 pclose
PUBLIC 6bfd0 0 _IO_putc
PUBLIC 6c120 0 rewind
PUBLIC 6c250 0 setbuf
PUBLIC 6c260 0 setlinebuf
PUBLIC 6c270 0 vasprintf
PUBLIC 6c400 0 vdprintf
PUBLIC 6c560 0 vscanf
PUBLIC 6c600 0 vsnprintf
PUBLIC 6c880 0 obstack_vprintf
PUBLIC 6ca40 0 obstack_printf
PUBLIC 6cad0 0 fcloseall
PUBLIC 6cae0 0 fseeko64
PUBLIC 6cc20 0 ftello64
PUBLIC 6cdb0 0 freopen64
PUBLIC 6d060 0 __fbufsize
PUBLIC 6d090 0 __freading
PUBLIC 6d0c0 0 __fwriting
PUBLIC 6d0d0 0 __freadable
PUBLIC 6d0e0 0 __fwritable
PUBLIC 6d0f0 0 __flbf
PUBLIC 6d100 0 __fpurge
PUBLIC 6d170 0 __fpending
PUBLIC 6d1a0 0 __fsetlocking
PUBLIC 6d5f0 0 __libc_fatal
PUBLIC 6d6a0 0 fmemopen
PUBLIC 6d970 0 clearerr_unlocked
PUBLIC 6d980 0 feof_unlocked
PUBLIC 6d990 0 ferror_unlocked
PUBLIC 6d9a0 0 fputc_unlocked
PUBLIC 6d9d0 0 getc_unlocked
PUBLIC 6d9f0 0 getchar_unlocked
PUBLIC 6da20 0 fflush_unlocked
PUBLIC 6da50 0 putc_unlocked
PUBLIC 6da80 0 _IO_peekc_locked
PUBLIC 6dbc0 0 fread_unlocked
PUBLIC 6dc20 0 fwrite_unlocked
PUBLIC 6dcc0 0 fgets_unlocked
PUBLIC 6dd80 0 fputs_unlocked
PUBLIC 6df50 0 swprintf
PUBLIC 6e060 0 vswprintf
PUBLIC 6e160 0 vswscanf
PUBLIC 6e210 0 swscanf
PUBLIC 6e2a0 0 _IO_least_wmarker
PUBLIC 6e2e0 0 _IO_switch_to_main_wget_area
PUBLIC 6e320 0 _IO_switch_to_wbackup_area
PUBLIC 6e360 0 _IO_wdefault_uflow
PUBLIC 6e390 0 _IO_wdoallocbuf
PUBLIC 6e3e0 0 _IO_switch_to_wget_mode
PUBLIC 6e460 0 _IO_sputbackwc
PUBLIC 6e4b0 0 _IO_sungetwc
PUBLIC 6e500 0 _IO_adjust_wcolumn
PUBLIC 6e550 0 _IO_init_wmarker
PUBLIC 6e5d0 0 _IO_wmarker_delta
PUBLIC 6e620 0 _IO_seekwmark
PUBLIC 6e6c0 0 _IO_unsave_wmarkers
PUBLIC 6e6f0 0 _IO_free_wbackup_area
PUBLIC 6e740 0 _IO_wdefault_doallocate
PUBLIC 6e790 0 __woverflow
PUBLIC 6e7e0 0 _IO_wdefault_xsputn
PUBLIC 6eae0 0 __wunderflow
PUBLIC 6ebf0 0 _IO_wdefault_xsgetn
PUBLIC 6ecc0 0 __wuflow
PUBLIC 6ede0 0 _IO_wdefault_pbackfail
PUBLIC 6ef80 0 _IO_wsetb
PUBLIC 6f030 0 _IO_wdefault_finish
PUBLIC 6fa10 0 _IO_wfile_xsputn
PUBLIC 6fbb0 0 _IO_wfile_seekoff
PUBLIC 700a0 0 _IO_wfile_sync
PUBLIC 70200 0 _IO_wfile_overflow
PUBLIC 70480 0 _IO_wfile_underflow
PUBLIC 70a60 0 _IO_wdo_write
PUBLIC 70c10 0 open_wmemstream
PUBLIC 70df0 0 fputwc
PUBLIC 70f70 0 fputwc_unlocked
PUBLIC 70ff0 0 fgetwc
PUBLIC 71140 0 getwc_unlocked
PUBLIC 71170 0 getwchar
PUBLIC 712d0 0 getwchar_unlocked
PUBLIC 71300 0 fgetws
PUBLIC 714e0 0 fgetws_unlocked
PUBLIC 715a0 0 fputws
PUBLIC 71730 0 fputws_unlocked
PUBLIC 71980 0 ungetwc
PUBLIC 71a70 0 putwc
PUBLIC 71bd0 0 putwc_unlocked
PUBLIC 71c00 0 putwchar
PUBLIC 71d70 0 putwchar_unlocked
PUBLIC 71db0 0 fwprintf
PUBLIC 71e40 0 vwprintf
PUBLIC 71e60 0 wprintf
PUBLIC 71f10 0 wscanf
PUBLIC 71fc0 0 fwscanf
PUBLIC 72050 0 vwscanf
PUBLIC 72070 0 fwide
PUBLIC 721a0 0 _IO_file_attach
PUBLIC 723c0 0 _IO_file_seek
PUBLIC 72bc0 0 _IO_file_xsputn
PUBLIC 72de0 0 _IO_do_write
PUBLIC 72e10 0 _IO_file_write
PUBLIC 72eb0 0 _IO_file_close
PUBLIC 72ef0 0 _IO_file_stat
PUBLIC 72f00 0 _IO_file_read
PUBLIC 72f30 0 _IO_file_underflow
PUBLIC 73160 0 _IO_file_seekoff
PUBLIC 73550 0 _IO_file_sync
PUBLIC 73610 0 _IO_file_overflow
PUBLIC 73850 0 _IO_file_setbuf
PUBLIC 738f0 0 _IO_file_open
PUBLIC 739c0 0 _IO_file_fopen
PUBLIC 73e50 0 _IO_file_init
PUBLIC 73e90 0 _IO_file_finish
PUBLIC 73f10 0 _IO_file_close_it
PUBLIC 74160 0 _IO_un_link
PUBLIC 743b0 0 _IO_link_in
PUBLIC 74630 0 _IO_switch_to_get_mode
PUBLIC 746b0 0 __overflow
PUBLIC 746e0 0 _IO_doallocbuf
PUBLIC 74740 0 _IO_default_uflow
PUBLIC 74770 0 _IO_sgetn
PUBLIC 749f0 0 _IO_init
PUBLIC 74a20 0 _IO_sputbackc
PUBLIC 74a70 0 _IO_sungetc
PUBLIC 74ab0 0 _IO_adjust_column
PUBLIC 74d80 0 _IO_flush_all
PUBLIC 74d90 0 _IO_flush_all_linebuffered
PUBLIC 74fe0 0 _IO_init_marker
PUBLIC 75040 0 _IO_remove_marker
PUBLIC 75080 0 _IO_marker_difference
PUBLIC 75090 0 _IO_marker_delta
PUBLIC 750d0 0 _IO_seekmark
PUBLIC 75160 0 _IO_unsave_markers
PUBLIC 751f0 0 _IO_iter_begin
PUBLIC 75200 0 _IO_iter_end
PUBLIC 75210 0 _IO_iter_next
PUBLIC 75220 0 _IO_iter_file
PUBLIC 75230 0 _IO_list_lock
PUBLIC 75280 0 _IO_list_unlock
PUBLIC 752d0 0 _IO_list_resetlock
PUBLIC 752f0 0 _IO_setb
PUBLIC 75370 0 _IO_default_finish
PUBLIC 753f0 0 _IO_free_backup_area
PUBLIC 75430 0 _IO_default_xsputn
PUBLIC 75690 0 _IO_default_pbackfail
PUBLIC 757f0 0 __uflow
PUBLIC 758c0 0 __underflow
PUBLIC 75980 0 _IO_default_xsgetn
PUBLIC 75c00 0 _IO_default_doallocate
PUBLIC 75eb0 0 _IO_str_underflow
PUBLIC 75f50 0 _IO_str_pbackfail
PUBLIC 76130 0 _IO_str_seekoff
PUBLIC 762d0 0 _IO_str_overflow
PUBLIC 76530 0 _IO_str_init_readonly
PUBLIC 76550 0 _IO_str_init_static
PUBLIC 768f0 0 malloc_usable_size
PUBLIC 77990 0 __libc_mallopt
PUBLIC 77ab0 0 __libc_mallinfo
PUBLIC 77b40 0 malloc_set_state
PUBLIC 78c00 0 malloc_trim
PUBLIC 7af90 0 malloc_info
PUBLIC 7b0b0 0 __libc_calloc
PUBLIC 7b510 0 pvalloc
PUBLIC 7b7c0 0 __libc_valloc
PUBLIC 7ba40 0 cfree
PUBLIC 7bb20 0 __libc_malloc
PUBLIC 7be60 0 malloc_get_state
PUBLIC 7c030 0 __libc_memalign
PUBLIC 7c310 0 posix_memalign
PUBLIC 7c380 0 malloc_stats
PUBLIC 7cb70 0 realloc
PUBLIC 7d9e0 0 __default_morecore
PUBLIC 7da90 0 mcheck_check_all
PUBLIC 7dad0 0 mprobe
PUBLIC 7daf0 0 mcheck
PUBLIC 7dbd0 0 mcheck_pedantic
PUBLIC 7e2f0 0 tr_break
PUBLIC 7e300 0 muntrace
PUBLIC 7e390 0 mtrace
PUBLIC 7ecf0 0 _obstack_begin
PUBLIC 7edb0 0 _obstack_begin_1
PUBLIC 7ee70 0 _obstack_newchunk
PUBLIC 7f000 0 _obstack_allocated_p
PUBLIC 7f040 0 _obstack_memory_used
PUBLIC 7f0a0 0 obstack_free
PUBLIC 7f120 0 strcat
PUBLIC 80810 0 strcoll
PUBLIC 80a00 0 __strverscmp
PUBLIC 80b20 0 __strdup
PUBLIC 80b80 0 strndup
PUBLIC 80bf0 0 strerror
PUBLIC 80cb0 0 __strerror_r
PUBLIC 80ef0 0 strnlen
PUBLIC 80f60 0 strncat
PUBLIC 82ac0 0 strsignal
PUBLIC 82df0 0 strtok
PUBLIC 82ef0 0 strtok_r
PUBLIC 82fe0 0 strxfrm
PUBLIC 82ff0 0 memchr
PUBLIC 84690 0 bcopy
PUBLIC 846e0 0 ffs
PUBLIC 846f0 0 ffsl
PUBLIC 891e0 0 memccpy
PUBLIC 89c60 0 __strsep_g
PUBLIC 89cf0 0 swab
PUBLIC 89d30 0 strfry
PUBLIC 89e10 0 memfrob
PUBLIC 8a280 0 memmem
PUBLIC 8a640 0 strchrnul
PUBLIC 8a6b0 0 argz_append
PUBLIC 8a740 0 argz_add
PUBLIC 8a790 0 argz_count
PUBLIC 8a7d0 0 argz_create
PUBLIC 8a860 0 argz_create_sep
PUBLIC 8a970 0 argz_next
PUBLIC 8a9c0 0 argz_delete
PUBLIC 8aa50 0 argz_extract
PUBLIC 8aaa0 0 argz_insert
PUBLIC 8ac10 0 argz_stringify
PUBLIC 8ac60 0 argz_add_sep
PUBLIC 8adf0 0 argz_replace
PUBLIC 8b120 0 basename
PUBLIC 8b140 0 strcoll_l
PUBLIC 8c050 0 strxfrm_l
PUBLIC 8cb30 0 __mempcpy_small
PUBLIC 8cc00 0 __strcpy_small
PUBLIC 8cca0 0 __stpcpy_small
PUBLIC 8cd40 0 __strcspn_c1
PUBLIC 8cd80 0 __strcspn_c2
PUBLIC 8cdd0 0 __strcspn_c3
PUBLIC 8ce20 0 __strspn_c1
PUBLIC 8ce40 0 __strspn_c2
PUBLIC 8ce60 0 __strspn_c3
PUBLIC 8ce90 0 __strpbrk_c2
PUBLIC 8cee0 0 __strpbrk_c3
PUBLIC 8cf40 0 __strtok_r_1c
PUBLIC 8cfb0 0 __strsep_2c
PUBLIC 8d020 0 __strsep_3c
PUBLIC 8d090 0 __strsep_1c
PUBLIC 8d0e0 0 memrchr
PUBLIC 8d200 0 __xpg_strerror_r
PUBLIC 8d2e0 0 strerror_l
PUBLIC 8d3b0 0 envz_entry
PUBLIC 8d450 0 envz_get
PUBLIC 8d490 0 envz_strip
PUBLIC 8d510 0 envz_merge
PUBLIC 8d5c0 0 envz_remove
PUBLIC 8d610 0 envz_add
PUBLIC 904d0 0 wmemcpy
PUBLIC 904e0 0 wmemset
PUBLIC 90550 0 wcscat
PUBLIC 90590 0 wcschr
PUBLIC 905b0 0 wcscmp
PUBLIC 905e0 0 wcscpy
PUBLIC 90610 0 wcscspn
PUBLIC 90650 0 wcsdup
PUBLIC 906b0 0 wcslen
PUBLIC 90720 0 wcsncat
PUBLIC 907b0 0 wcsncmp
PUBLIC 90870 0 wcsncpy
PUBLIC 90950 0 wcspbrk
PUBLIC 909a0 0 wcsrchr
PUBLIC 909c0 0 wcsspn
PUBLIC 90a20 0 wcstok
PUBLIC 90ad0 0 wcswcs
PUBLIC 90be0 0 wmemchr
PUBLIC 90c60 0 wmemcmp
PUBLIC 90d40 0 wmemmove
PUBLIC 90d50 0 wcpcpy
PUBLIC 90d80 0 wcpncpy
PUBLIC 90e60 0 wmempcpy
PUBLIC 90e70 0 btowc
PUBLIC 91030 0 wctob
PUBLIC 911c0 0 mbsinit
PUBLIC 911e0 0 __mbrlen
PUBLIC 91200 0 mbrtowc
PUBLIC 91470 0 wcrtomb
PUBLIC 91690 0 mbsrtowcs
PUBLIC 916b0 0 wcsrtombs
PUBLIC 91a00 0 mbsnrtowcs
PUBLIC 91d80 0 wcsnrtombs
PUBLIC 920f0 0 wcsnlen
PUBLIC 92190 0 wcschrnul
PUBLIC 921c0 0 wcstoll
PUBLIC 921e0 0 __wcstol_internal
PUBLIC 921f0 0 wcstoul
PUBLIC 92210 0 __wcstoull_internal
PUBLIC 92220 0 wcstod
PUBLIC 92240 0 __wcstod_internal
PUBLIC 92250 0 wcstold
PUBLIC 92270 0 __wcstold_internal
PUBLIC 92280 0 wcstof
PUBLIC 922a0 0 __wcstof_internal
PUBLIC 92710 0 wcstoll_l
PUBLIC 92b40 0 wcstoul_l
PUBLIC 94fa0 0 __wcstod_l
PUBLIC 97350 0 wcstold_l
PUBLIC 99700 0 __wcstof_l
PUBLIC 99710 0 wcscoll
PUBLIC 99720 0 wcsxfrm
PUBLIC 99730 0 wcwidth
PUBLIC 997a0 0 wcswidth
PUBLIC 99880 0 __wcscoll_l
PUBLIC 9a510 0 wcsxfrm_l
PUBLIC 9ade0 0 wcscasecmp
PUBLIC 9ae40 0 wcsncasecmp
PUBLIC 9aed0 0 __wcscasecmp_l
PUBLIC 9af30 0 wcsncasecmp_l
PUBLIC 9b7c0 0 __isoc99_swscanf
PUBLIC 9b850 0 __isoc99_vswscanf
PUBLIC 9b900 0 __isoc99_wscanf
PUBLIC 9bae0 0 __isoc99_vwscanf
PUBLIC 9bc40 0 __isoc99_fwscanf
PUBLIC 9be10 0 __isoc99_vfwscanf
PUBLIC 9c470 0 asctime
PUBLIC 9c490 0 asctime_r
PUBLIC 9c4a0 0 clock
PUBLIC 9c530 0 ctime
PUBLIC 9c550 0 ctime_r
PUBLIC 9c580 0 difftime
PUBLIC 9c5a0 0 gmtime
PUBLIC 9c5b0 0 __gmtime_r
PUBLIC 9c5c0 0 localtime
PUBLIC 9c5e0 0 localtime_r
PUBLIC 9cf30 0 timelocal
PUBLIC 9cf50 0 time
PUBLIC 9cf70 0 __gettimeofday
PUBLIC 9cfb0 0 settimeofday
PUBLIC 9cfe0 0 adjtime
PUBLIC 9e0b0 0 tzset
PUBLIC 9f930 0 getitimer
PUBLIC 9f960 0 setitimer
PUBLIC 9f990 0 stime
PUBLIC 9f9e0 0 dysize
PUBLIC 9fa30 0 timegm
PUBLIC 9fa50 0 ftime
PUBLIC 9fae0 0 getdate_r
PUBLIC a0030 0 getdate
PUBLIC a0070 0 strptime
PUBLIC a2e50 0 strptime_l
PUBLIC a2e60 0 strftime
PUBLIC a4f30 0 strftime_l
PUBLIC a4f50 0 wcsftime
PUBLIC a70c0 0 wcsftime_l
PUBLIC a7a10 0 ntp_gettime
PUBLIC a7a60 0 ntp_gettimex
PUBLIC a7be0 0 opendir
PUBLIC a7c20 0 closedir
PUBLIC a7c50 0 readdir
PUBLIC a7d70 0 readdir_r
PUBLIC a7f10 0 rewinddir
PUBLIC a7fa0 0 seekdir
PUBLIC a8050 0 telldir
PUBLIC a8060 0 scandir
PUBLIC a82a0 0 alphasort64
PUBLIC a82c0 0 versionsort
PUBLIC a8370 0 dirfd
PUBLIC a8380 0 fdopendir
PUBLIC a8410 0 getdirentries
PUBLIC a8480 0 fgetgrent
PUBLIC a8c60 0 initgroups
PUBLIC a8d30 0 getgrouplist
PUBLIC a8df0 0 setgroups
PUBLIC a8e50 0 getgrent
PUBLIC a8f10 0 getgrgid
PUBLIC a9070 0 getgrnam
PUBLIC a91d0 0 putgrent
PUBLIC a9470 0 getgrent_r
PUBLIC a9550 0 endgrent
PUBLIC a95f0 0 setgrent
PUBLIC a9750 0 getgrgid_r
PUBLIC a99b0 0 getgrnam_r
PUBLIC a9c10 0 _nss_files_parse_grent
PUBLIC a9f00 0 fgetgrent_r
PUBLIC aa200 0 fgetpwent
PUBLIC aa3e0 0 getpw
PUBLIC aa4b0 0 putpwent
PUBLIC aa5b0 0 getpwent
PUBLIC aa670 0 getpwnam
PUBLIC aa7d0 0 getpwuid
PUBLIC aa930 0 getpwent_r
PUBLIC aaa10 0 endpwent
PUBLIC aaab0 0 setpwent
PUBLIC aac10 0 getpwnam_r
PUBLIC aae70 0 getpwuid_r
PUBLIC ab0d0 0 _nss_files_parse_pwent
PUBLIC ab3b0 0 fgetpwent_r
PUBLIC ab680 0 uname
PUBLIC ab6b0 0 times
PUBLIC ab700 0 wait
PUBLIC ab7a0 0 waitpid
PUBLIC ab840 0 wait3
PUBLIC ab860 0 wait4
PUBLIC ab890 0 waitid
PUBLIC ab940 0 alarm
PUBLIC ab970 0 sleep
PUBLIC abb50 0 pause
PUBLIC abbb0 0 nanosleep
PUBLIC abc10 0 __libc_fork
PUBLIC abee0 0 vfork
PUBLIC abf30 0 _exit
PUBLIC abf80 0 execve
PUBLIC abfb0 0 fexecve
PUBLIC ac080 0 execv
PUBLIC ac090 0 execle
PUBLIC ac270 0 execl
PUBLIC ac430 0 execvp
PUBLIC ac440 0 execlp
PUBLIC ac5e0 0 execvpe
PUBLIC aca70 0 getpid
PUBLIC acab0 0 getppid
PUBLIC acac0 0 getuid
PUBLIC acad0 0 geteuid
PUBLIC acae0 0 getgid
PUBLIC acaf0 0 getegid
PUBLIC acb00 0 getgroups
PUBLIC acb30 0 setuid
PUBLIC acb90 0 setgid
PUBLIC acbf0 0 group_member
PUBLIC acc90 0 getpgid
PUBLIC accc0 0 setpgid
PUBLIC accf0 0 getpgrp
PUBLIC acd00 0 __bsd_getpgrp
PUBLIC acd10 0 setpgrp
PUBLIC acd20 0 getsid
PUBLIC acd50 0 setsid
PUBLIC acd80 0 getresuid
PUBLIC acdb0 0 getresgid
PUBLIC acde0 0 setresuid
PUBLIC ace50 0 setresgid
PUBLIC ad260 0 pathconf
PUBLIC ad590 0 __sysconf
PUBLIC ad9a0 0 fpathconf
PUBLIC add00 0 glob_pattern_p
PUBLIC add10 0 globfree64
PUBLIC ae6c0 0 glob64
PUBLIC b3aa0 0 fnmatch
PUBLIC b3e10 0 confstr
PUBLIC b56d0 0 __posix_getopt
PUBLIC b56f0 0 getopt
PUBLIC b5750 0 getopt_long_only
PUBLIC b5770 0 getopt_long
PUBLIC b5790 0 sched_setparam
PUBLIC b57c0 0 __sched_getparam
PUBLIC b57f0 0 sched_setscheduler
PUBLIC b5820 0 __sched_getscheduler
PUBLIC b5850 0 __sched_yield
PUBLIC b5880 0 __sched_get_priority_max
PUBLIC b58b0 0 sched_get_priority_min
PUBLIC b58e0 0 sched_rr_get_interval
PUBLIC b5910 0 sched_getaffinity
PUBLIC b5970 0 sched_setaffinity
PUBLIC b5ad0 0 pread64
PUBLIC b5b40 0 __pwrite64
PUBLIC b5bb0 0 posix_madvise
PUBLIC b5d40 0 __sched_cpualloc
PUBLIC b5d60 0 __sched_cpufree
PUBLIC b5e80 0 freeaddrinfo
PUBLIC b8fd0 0 getaddrinfo
PUBLIC b9940 0 gai_strerror
PUBLIC b9a00 0 re_set_syntax
PUBLIC b9c90 0 re_set_registers
PUBLIC bade0 0 regfree
PUBLIC c4490 0 regexec
PUBLIC c45d0 0 re_exec
PUBLIC c5460 0 regerror
PUBLIC c5be0 0 re_compile_fastmap
PUBLIC c62d0 0 re_search_2
PUBLIC c6300 0 re_match_2
PUBLIC c6330 0 re_search
PUBLIC c6350 0 re_match
PUBLIC c8f20 0 re_comp
PUBLIC c9060 0 re_compile_pattern
PUBLIC c90e0 0 regcomp
PUBLIC c92a0 0 posix_spawn_file_actions_init
PUBLIC c9300 0 posix_spawn_file_actions_destroy
PUBLIC c9320 0 posix_spawn_file_actions_addclose
PUBLIC c93b0 0 posix_spawn_file_actions_addopen
PUBLIC c9470 0 posix_spawn_file_actions_adddup2
PUBLIC c9510 0 posix_spawnattr_init
PUBLIC c9520 0 posix_spawnattr_destroy
PUBLIC c9530 0 posix_spawnattr_getsigdefault
PUBLIC c95c0 0 posix_spawnattr_setsigdefault
PUBLIC c9650 0 posix_spawnattr_getflags
PUBLIC c9660 0 posix_spawnattr_setflags
PUBLIC c9680 0 posix_spawnattr_getpgroup
PUBLIC c9690 0 posix_spawnattr_setpgroup
PUBLIC c96a0 0 posix_spawn
PUBLIC c96c0 0 posix_spawnp
PUBLIC c9d10 0 posix_spawnattr_getsigmask
PUBLIC c9da0 0 posix_spawnattr_getschedpolicy
PUBLIC c9db0 0 posix_spawnattr_getschedparam
PUBLIC c9dc0 0 posix_spawnattr_setsigmask
PUBLIC c9e50 0 posix_spawnattr_setschedpolicy
PUBLIC c9e70 0 posix_spawnattr_setschedparam
PUBLIC c9f60 0 getlogin
PUBLIC ca3c0 0 getlogin_r
PUBLIC ca450 0 wordfree
PUBLIC cd5c0 0 wordexp
PUBLIC ce2a0 0 setlogin
PUBLIC ce2f0 0 sched_getcpu
PUBLIC ce340 0 utime
PUBLIC ce370 0 mkfifo
PUBLIC ce3a0 0 mkfifoat
PUBLIC ce3d0 0 __xstat64
PUBLIC ce420 0 __fxstat64
PUBLIC ce470 0 __lxstat
PUBLIC ce4c0 0 __xmknod
PUBLIC ce520 0 __xmknodat
PUBLIC ce580 0 __fxstatat64
PUBLIC ce5d0 0 __statfs
PUBLIC ce600 0 fstatfs
PUBLIC ce630 0 statvfs64
PUBLIC ce6c0 0 fstatvfs
PUBLIC ce750 0 umask
PUBLIC ce760 0 chmod
PUBLIC ce790 0 fchmod
PUBLIC ce7c0 0 fchmodat
PUBLIC ce830 0 mkdir
PUBLIC ce860 0 mkdirat
PUBLIC ce890 0 __open64
PUBLIC ce920 0 openat
PUBLIC cea00 0 __openat64_2
PUBLIC cea20 0 close
PUBLIC cea80 0 __read
PUBLIC ceae0 0 __write
PUBLIC ceb40 0 access
PUBLIC ceb70 0 eaccess
PUBLIC cecb0 0 faccessat
PUBLIC cef40 0 fcntl
PUBLIC cefc0 0 flock
PUBLIC ceff0 0 lockf64
PUBLIC cf100 0 dup
PUBLIC cf130 0 __dup2
PUBLIC cf160 0 dup3
PUBLIC cf190 0 pipe
PUBLIC cf1c0 0 pipe2
PUBLIC cf1f0 0 creat64
PUBLIC cf250 0 chdir
PUBLIC cf280 0 fchdir
PUBLIC cf2b0 0 getcwd
PUBLIC cf400 0 getwd
PUBLIC cf490 0 get_current_dir_name
PUBLIC cf520 0 chown
PUBLIC cf550 0 fchown
PUBLIC cf580 0 lchown
PUBLIC cf5b0 0 fchownat
PUBLIC cf5e0 0 ttyname
PUBLIC cf8f0 0 ttyname_r
PUBLIC cfc10 0 isatty
PUBLIC cfc30 0 link
PUBLIC cfc60 0 linkat
PUBLIC cfc90 0 symlink
PUBLIC cfcc0 0 symlinkat
PUBLIC cfcf0 0 readlink
PUBLIC cfd20 0 readlinkat
PUBLIC cfd50 0 unlink
PUBLIC cfd80 0 unlinkat
PUBLIC cfdb0 0 rmdir
PUBLIC cfde0 0 __poll
PUBLIC cfe80 0 ppoll
PUBLIC cff50 0 posix_fadvise
PUBLIC d0120 0 posix_fallocate64
PUBLIC d0170 0 sendfile
PUBLIC d01a0 0 utimensat
PUBLIC d01f0 0 futimens
PUBLIC d0240 0 lchmod
PUBLIC d11b0 0 nftw64
PUBLIC d11f0 0 ftw64
PUBLIC d1200 0 fts_set
PUBLIC d1260 0 fts_close
PUBLIC d1f00 0 fts_children
PUBLIC d2040 0 fts_open
PUBLIC d2310 0 fts_read
PUBLIC d2e10 0 sync_file_range
PUBLIC d2e40 0 __open_2
PUBLIC d2e70 0 __open64_2
PUBLIC d2ea0 0 fallocate
PUBLIC d2ed0 0 cfgetospeed
PUBLIC d2ee0 0 cfgetispeed
PUBLIC d2f00 0 cfsetospeed
PUBLIC d2f50 0 cfsetispeed
PUBLIC d2fb0 0 cfsetspeed
PUBLIC d3040 0 tcsetattr
PUBLIC d3230 0 tcgetattr
PUBLIC d32e0 0 tcgetpgrp
PUBLIC d3310 0 tcsetpgrp
PUBLIC d3330 0 tcdrain
PUBLIC d33d0 0 tcflow
PUBLIC d33e0 0 tcflush
PUBLIC d33f0 0 tcsendbreak
PUBLIC d3430 0 cfmakeraw
PUBLIC d3460 0 tcgetsid
PUBLIC d3520 0 getrlimit64
PUBLIC d3550 0 setrlimit64
PUBLIC d3580 0 getrusage
PUBLIC d35b0 0 ulimit
PUBLIC d36d0 0 vlimit
PUBLIC d3830 0 vtimes
PUBLIC d3870 0 getpriority
PUBLIC d38b0 0 setpriority
PUBLIC d38e0 0 nice
PUBLIC d3980 0 brk
PUBLIC d39f0 0 __sbrk
PUBLIC d3aa0 0 sstk
PUBLIC d3ac0 0 ioctl
PUBLIC d3af0 0 readv
PUBLIC d3b90 0 writev
PUBLIC d3db0 0 preadv64
PUBLIC d4030 0 pwritev
PUBLIC d4140 0 setreuid
PUBLIC d41b0 0 setregid
PUBLIC d4220 0 seteuid
PUBLIC d42c0 0 setegid
PUBLIC d4360 0 getpagesize
PUBLIC d4380 0 getdtablesize
PUBLIC d43b0 0 gethostname
PUBLIC d4460 0 sethostname
PUBLIC d4490 0 getdomainname
PUBLIC d4510 0 setdomainname
PUBLIC d4540 0 __select
PUBLIC d45b0 0 pselect
PUBLIC d4690 0 acct
PUBLIC d46c0 0 chroot
PUBLIC d46f0 0 fsync
PUBLIC d4750 0 sync
PUBLIC d4780 0 fdatasync
PUBLIC d47e0 0 reboot
PUBLIC d4810 0 gethostid
PUBLIC d4990 0 sethostid
PUBLIC d4a40 0 vhangup
PUBLIC d4a70 0 swapon
PUBLIC d4aa0 0 swapoff
PUBLIC d4ad0 0 mktemp
PUBLIC d4af0 0 mkstemp
PUBLIC d4b00 0 mkdtemp
PUBLIC d4b30 0 mkostemp64
PUBLIC d4b40 0 mkstemps
PUBLIC d4b70 0 mkstemps64
PUBLIC d4ba0 0 mkostemps
PUBLIC d4bd0 0 mkostemps64
PUBLIC d4c00 0 ualarm
PUBLIC d4c60 0 usleep
PUBLIC d4ca0 0 gtty
PUBLIC d4ce0 0 stty
PUBLIC d4d20 0 ptrace
PUBLIC d4df0 0 getmntent
PUBLIC d4f70 0 hasmntopt
PUBLIC d4ff0 0 addmntent
PUBLIC d5520 0 __getmntent_r
PUBLIC d58c0 0 endmntent
PUBLIC d58e0 0 setmntent
PUBLIC d59a0 0 utimes
PUBLIC d59d0 0 lutimes
PUBLIC d5a70 0 futimes
PUBLIC d5b10 0 futimesat
PUBLIC d5b50 0 truncate
PUBLIC d5b80 0 ftruncate
PUBLIC d5bb0 0 insque
PUBLIC d5be0 0 remque
PUBLIC d5ce0 0 endttyent
PUBLIC d5d20 0 setttyent
PUBLIC d5d80 0 getttyent
PUBLIC d6110 0 getttynam
PUBLIC d6150 0 endusershell
PUBLIC d63c0 0 setusershell
PUBLIC d63e0 0 getusershell
PUBLIC d6430 0 getpass
PUBLIC d6680 0 ttyslot
PUBLIC d6780 0 setlogmask
PUBLIC d67a0 0 closelog
PUBLIC d6ab0 0 openlog
PUBLIC d6b20 0 __vsyslog_chk
PUBLIC d7100 0 vsyslog
PUBLIC d7110 0 __syslog_chk
PUBLIC d71a0 0 syslog
PUBLIC d72e0 0 syscall
PUBLIC d7320 0 daemon
PUBLIC d7480 0 mmap64
PUBLIC d74b0 0 munmap
PUBLIC d74e0 0 mprotect
PUBLIC d7510 0 msync
PUBLIC d7570 0 madvise
PUBLIC d75a0 0 mincore
PUBLIC d75d0 0 remap_file_pages
PUBLIC d7600 0 mlock
PUBLIC d7630 0 munlock
PUBLIC d7660 0 mlockall
PUBLIC d7690 0 munlockall
PUBLIC d76c0 0 hdestroy
PUBLIC d76d0 0 hcreate
PUBLIC d76e0 0 hsearch
PUBLIC d7710 0 hsearch_r
PUBLIC d7930 0 hdestroy_r
PUBLIC d7960 0 hcreate_r
PUBLIC d7b40 0 tfind
PUBLIC d7c40 0 twalk
PUBLIC d7cb0 0 tdestroy
PUBLIC d7cd0 0 tdelete
PUBLIC d8110 0 tsearch
PUBLIC d8230 0 lfind
PUBLIC d82a0 0 lsearch
PUBLIC d8430 0 vwarn
PUBLIC d8560 0 verr
PUBLIC d8580 0 err
PUBLIC d8610 0 warn
PUBLIC d86b0 0 vwarnx
PUBLIC d87a0 0 verrx
PUBLIC d87c0 0 errx
PUBLIC d8850 0 warnx
PUBLIC d8b10 0 error_at_line
PUBLIC d8d10 0 error
PUBLIC d8e60 0 ustat
PUBLIC d8fa0 0 get_avphys_pages
PUBLIC d8fb0 0 get_phys_pages
PUBLIC d91b0 0 get_nprocs
PUBLIC d92f0 0 get_nprocs_conf
PUBLIC d93c0 0 dirname
PUBLIC d94b0 0 getloadavg
PUBLIC d95b0 0 fgetxattr
PUBLIC d95e0 0 flistxattr
PUBLIC d9610 0 fremovexattr
PUBLIC d9640 0 fsetxattr
PUBLIC d9670 0 getxattr
PUBLIC d96a0 0 listxattr
PUBLIC d96d0 0 lgetxattr
PUBLIC d9700 0 llistxattr
PUBLIC d9730 0 lremovexattr
PUBLIC d9760 0 lsetxattr
PUBLIC d9790 0 removexattr
PUBLIC d97c0 0 setxattr
PUBLIC d97f0 0 advance
PUBLIC d9850 0 step
PUBLIC d98b0 0 endfsent
PUBLIC d9970 0 setfsent
PUBLIC d9a80 0 getfsfile
PUBLIC d9ae0 0 getfsspec
PUBLIC d9b40 0 getfsent
PUBLIC d9b80 0 chflags
PUBLIC d9bc0 0 fchflags
PUBLIC d9c00 0 revoke
PUBLIC d9c20 0 gcvt
PUBLIC d9c50 0 ecvt
PUBLIC d9c80 0 fcvt
PUBLIC d9d30 0 fcvt_r
PUBLIC da040 0 ecvt_r
PUBLIC da240 0 qgcvt
PUBLIC da280 0 qecvt
PUBLIC da2c0 0 qfcvt
PUBLIC da390 0 qfcvt_r
PUBLIC da6c0 0 qecvt_r
PUBLIC da950 0 ioperm
PUBLIC da980 0 iopl
PUBLIC da9b0 0 __sysctl
PUBLIC daa10 0 clone
PUBLIC daaa0 0 llseek
PUBLIC dab00 0 umount
PUBLIC dab10 0 umount2
PUBLIC dab40 0 readahead
PUBLIC dab70 0 setfsuid
PUBLIC daba0 0 setfsgid
PUBLIC dabd0 0 gnu_dev_major
PUBLIC dabf0 0 gnu_dev_minor
PUBLIC dac10 0 gnu_dev_makedev
PUBLIC dac40 0 epoll_pwait
PUBLIC dad00 0 signalfd
PUBLIC dad90 0 eventfd
PUBLIC dae10 0 eventfd_read
PUBLIC dae30 0 eventfd_write
PUBLIC dae60 0 prlimit
PUBLIC dae90 0 __arch_prctl
PUBLIC daec0 0 modify_ldt
PUBLIC daef0 0 fanotify_mark
PUBLIC daf20 0 ntp_adjtime
PUBLIC daf50 0 capget
PUBLIC daf80 0 capset
PUBLIC dafb0 0 create_module
PUBLIC dafe0 0 delete_module
PUBLIC db010 0 epoll_create
PUBLIC db040 0 epoll_create1
PUBLIC db070 0 epoll_ctl
PUBLIC db0a0 0 epoll_wait
PUBLIC db110 0 get_kernel_syms
PUBLIC db140 0 init_module
PUBLIC db170 0 inotify_add_watch
PUBLIC db1a0 0 inotify_init
PUBLIC db1d0 0 inotify_init1
PUBLIC db200 0 inotify_rm_watch
PUBLIC db230 0 klogctl
PUBLIC db260 0 mount
PUBLIC db290 0 mremap
PUBLIC db2c0 0 nfsservctl
PUBLIC db2f0 0 personality
PUBLIC db320 0 pivot_root
PUBLIC db350 0 prctl
PUBLIC db380 0 query_module
PUBLIC db3b0 0 quotactl
PUBLIC db3e0 0 splice
PUBLIC db450 0 sysinfo
PUBLIC db480 0 tee
PUBLIC db4f0 0 unshare
PUBLIC db520 0 uselib
PUBLIC db550 0 vmsplice
PUBLIC db5c0 0 timerfd_create
PUBLIC db5f0 0 timerfd_settime
PUBLIC db620 0 timerfd_gettime
PUBLIC db650 0 fanotify_init
PUBLIC db680 0 bdflush
PUBLIC db6a0 0 accept
PUBLIC db700 0 bind
PUBLIC db730 0 connect
PUBLIC db790 0 getpeername
PUBLIC db7c0 0 getsockname
PUBLIC db7f0 0 getsockopt
PUBLIC db820 0 listen
PUBLIC db850 0 recv
PUBLIC db900 0 recvfrom
PUBLIC db970 0 recvmsg
PUBLIC db9d0 0 __send
PUBLIC dba80 0 sendmsg
PUBLIC dbae0 0 sendto
PUBLIC dbb50 0 setsockopt
PUBLIC dbb80 0 shutdown
PUBLIC dbbb0 0 socket
PUBLIC dbbe0 0 socketpair
PUBLIC dbc10 0 isfdtype
PUBLIC dbf20 0 sockatmark
PUBLIC dbf50 0 accept4
PUBLIC dbff0 0 recvmmsg
PUBLIC dc0a0 0 __cmsg_nxthdr
PUBLIC dc0f0 0 __libc_sa_len
PUBLIC dc110 0 ftok
PUBLIC dc160 0 msgsnd
PUBLIC dc1d0 0 msgrcv
PUBLIC dc240 0 msgget
PUBLIC dc270 0 msgctl
PUBLIC dc2a0 0 semop
PUBLIC dc2d0 0 semget
PUBLIC dc300 0 semctl
PUBLIC dc330 0 semtimedop
PUBLIC dc360 0 shmat
PUBLIC dc390 0 shmdt
PUBLIC dc3c0 0 shmget
PUBLIC dc3f0 0 shmctl
PUBLIC dc910 0 moncontrol
PUBLIC dc970 0 _mcleanup
PUBLIC dc9a0 0 __monstartup
PUBLIC dcd40 0 profil
PUBLIC dd250 0 sprofil
PUBLIC dd670 0 __profile_frequency
PUBLIC dd680 0 _mcount
PUBLIC dd6e0 0 __fentry__
PUBLIC dd740 0 wctrans
PUBLIC dd7d0 0 towctrans
PUBLIC dd830 0 __towctrans_l
PUBLIC dd890 0 iswdigit
PUBLIC dd930 0 towlower
PUBLIC dd9a0 0 towupper
PUBLIC dda00 0 iswxdigit
PUBLIC ddad0 0 iswupper
PUBLIC ddba0 0 iswspace
PUBLIC ddc70 0 iswpunct
PUBLIC ddd40 0 iswprint
PUBLIC dde10 0 iswgraph
PUBLIC ddee0 0 iswlower
PUBLIC ddfb0 0 iswcntrl
PUBLIC de080 0 iswblank
PUBLIC de150 0 iswalpha
PUBLIC de220 0 iswalnum
PUBLIC de2f0 0 wctype
PUBLIC de370 0 __iswctype
PUBLIC de3d0 0 __iswalnum_l
PUBLIC de460 0 __iswalpha_l
PUBLIC de4f0 0 __iswblank_l
PUBLIC de580 0 iswcntrl_l
PUBLIC de610 0 iswdigit_l
PUBLIC de6a0 0 __iswlower_l
PUBLIC de730 0 __iswgraph_l
PUBLIC de7c0 0 __iswprint_l
PUBLIC de850 0 __iswpunct_l
PUBLIC de8e0 0 __iswspace_l
PUBLIC de970 0 __iswupper_l
PUBLIC dea00 0 iswxdigit_l
PUBLIC dea90 0 __towlower_l
PUBLIC deaf0 0 __towupper_l
PUBLIC deb50 0 __wctype_l
PUBLIC debd0 0 iswctype_l
PUBLIC dec30 0 wctrans_l
PUBLIC decb0 0 getspent
PUBLIC ded70 0 getspnam
PUBLIC deed0 0 sgetspent
PUBLIC df060 0 fgetspent
PUBLIC df240 0 putspent
PUBLIC df680 0 getspent_r
PUBLIC df760 0 endspent
PUBLIC df800 0 setspent
PUBLIC df960 0 getspnam_r
PUBLIC dfb50 0 _nss_files_parse_spent
PUBLIC dff10 0 sgetspent_r
PUBLIC dffc0 0 fgetspent_r
PUBLIC e0290 0 ulckpwdf
PUBLIC e0310 0 lckpwdf
PUBLIC e0620 0 getsgent
PUBLIC e06e0 0 getsgnam
PUBLIC e0840 0 sgetsgent
PUBLIC e09f0 0 fgetsgent
PUBLIC e0bd0 0 putsgent
PUBLIC e0df0 0 getsgent_r
PUBLIC e0ed0 0 endsgent
PUBLIC e0f70 0 setsgent
PUBLIC e10d0 0 getsgnam_r
PUBLIC e12c0 0 _nss_files_parse_sgent
PUBLIC e1650 0 sgetsgent_r
PUBLIC e1710 0 fgetsgent_r
PUBLIC e26f0 0 argp_failure
PUBLIC e5940 0 argp_state_help
PUBLIC e59f0 0 argp_error
PUBLIC e5b40 0 argp_help
PUBLIC e6150 0 argp_parse
PUBLIC e6e60 0 argp_usage
PUBLIC e6e80 0 __libc_alloca_cutoff
PUBLIC e6ed0 0 pthread_equal
PUBLIC e6f00 0 pthread_attr_destroy
PUBLIC e6f30 0 pthread_attr_init
PUBLIC e6f60 0 pthread_attr_getdetachstate
PUBLIC e6f90 0 pthread_attr_setdetachstate
PUBLIC e6fc0 0 pthread_attr_getinheritsched
PUBLIC e6ff0 0 pthread_attr_setinheritsched
PUBLIC e7020 0 pthread_attr_getschedparam
PUBLIC e7050 0 pthread_attr_setschedparam
PUBLIC e7080 0 pthread_attr_getschedpolicy
PUBLIC e70b0 0 pthread_attr_setschedpolicy
PUBLIC e70e0 0 pthread_attr_getscope
PUBLIC e7110 0 pthread_attr_setscope
PUBLIC e7140 0 pthread_condattr_destroy
PUBLIC e7170 0 pthread_condattr_init
PUBLIC e71a0 0 pthread_cond_broadcast
PUBLIC e71d0 0 pthread_cond_destroy
PUBLIC e7200 0 pthread_cond_init
PUBLIC e7230 0 pthread_cond_signal
PUBLIC e7260 0 pthread_cond_wait
PUBLIC e7290 0 pthread_cond_timedwait
PUBLIC e72c0 0 pthread_getschedparam
PUBLIC e72f0 0 pthread_setschedparam
PUBLIC e7320 0 pthread_mutex_destroy
PUBLIC e7350 0 pthread_mutex_init
PUBLIC e7380 0 pthread_mutex_lock
PUBLIC e73b0 0 pthread_mutex_unlock
PUBLIC e73e0 0 pthread_self
PUBLIC e7410 0 pthread_setcancelstate
PUBLIC e7440 0 pthread_setcanceltype
PUBLIC e7470 0 pthread_exit
PUBLIC e7610 0 __register_atfork
PUBLIC e7960 0 __libc_pthread_init
PUBLIC e79c0 0 hstrerror
PUBLIC e7a30 0 herror
PUBLIC e7b00 0 inet_aton
PUBLIC e7c50 0 inet_addr
PUBLIC e7cf0 0 inet_ntop
PUBLIC e80c0 0 inet_pton
PUBLIC e83b0 0 inet_nsap_ntoa
PUBLIC e8470 0 inet_nsap_addr
PUBLIC e8600 0 __res_iclose
PUBLIC e86d0 0 __res_nclose
PUBLIC e86e0 0 __res_randomid
PUBLIC e95a0 0 __res_ninit
PUBLIC ea2f0 0 __res_init
PUBLIC ea3b0 0 __res_maybe_init
PUBLIC ea540 0 __res_state
PUBLIC ea550 0 __gai_sigqueue
PUBLIC ea5e0 0 __nss_disable_nscd
PUBLIC ea680 0 __nss_lookup_function
PUBLIC eaff0 0 __nss_configure_lookup
PUBLIC eb100 0 __nss_next2
PUBLIC eb210 0 __nss_database_lookup
PUBLIC ebce0 0 __nss_group_lookup2
PUBLIC ebd90 0 __nss_passwd_lookup2
PUBLIC ec040 0 __nss_services_lookup2
PUBLIC ec0e0 0 __nss_hosts_lookup2
PUBLIC ec570 0 __nss_hostname_digits_dots
PUBLIC ecc50 0 __cyg_profile_func_enter
PUBLIC ecef0 0 __stpcpy_chk
PUBLIC ed050 0 __strcat_chk
PUBLIC ed0b0 0 __strcpy_chk
PUBLIC ed210 0 __strncat_chk
PUBLIC ed340 0 __strncpy_chk
PUBLIC ed430 0 __stpncpy_chk
PUBLIC ed520 0 __sprintf_chk
PUBLIC ed5c0 0 __vsprintf_chk
PUBLIC ed6b0 0 __snprintf_chk
PUBLIC ed740 0 __vsnprintf_chk
PUBLIC ed860 0 __printf_chk
PUBLIC eda50 0 __fprintf_chk
PUBLIC edc30 0 __vprintf_chk
PUBLIC eddb0 0 __vfprintf_chk
PUBLIC edf20 0 __gets_chk
PUBLIC ee150 0 __chk_fail
PUBLIC ee370 0 __fgets_chk
PUBLIC ee560 0 __fgets_unlocked_chk
PUBLIC ee620 0 __read_chk
PUBLIC ee660 0 __pread_chk
PUBLIC ee680 0 __pread64_chk
PUBLIC ee6a0 0 __recv_chk
PUBLIC ee6c0 0 __recvfrom_chk
PUBLIC ee6f0 0 __readlink_chk
PUBLIC ee730 0 __readlinkat_chk
PUBLIC ee750 0 __getwd_chk
PUBLIC ee780 0 __getcwd_chk
PUBLIC ee7a0 0 __realpath_chk
PUBLIC ee7c0 0 __ptsname_r_chk
PUBLIC ee7e0 0 __fread_chk
PUBLIC ee9e0 0 __fread_unlocked_chk
PUBLIC eea70 0 __confstr_chk
PUBLIC eea90 0 __getgroups_chk
PUBLIC eead0 0 __ttyname_r_chk
PUBLIC eeaf0 0 __gethostname_chk
PUBLIC eeb10 0 __getdomainname_chk
PUBLIC eeb30 0 __asprintf_chk
PUBLIC eebc0 0 __vasprintf_chk
PUBLIC eed60 0 __dprintf_chk
PUBLIC eedf0 0 __vdprintf_chk
PUBLIC eef00 0 __obstack_vprintf_chk
PUBLIC ef0e0 0 __obstack_printf_chk
PUBLIC ef170 0 __longjmp_chk
PUBLIC ef260 0 __stack_chk_fail
PUBLIC ef270 0 __fortify_fail
PUBLIC ef2b0 0 __getlogin_r_chk
PUBLIC ef3c0 0 backtrace
PUBLIC ef490 0 __backtrace_symbols
PUBLIC ef720 0 backtrace_symbols_fd
PUBLIC ef9f0 0 __wprintf_chk
PUBLIC efbe0 0 __fwprintf_chk
PUBLIC efdc0 0 __vwprintf_chk
PUBLIC eff40 0 __vfwprintf_chk
PUBLIC f00b0 0 __fgetws_chk
PUBLIC f02a0 0 __fgetws_unlocked_chk
PUBLIC f0360 0 __wctomb_chk
PUBLIC f03a0 0 __wcscpy_chk
PUBLIC f03e0 0 __wmemcpy_chk
PUBLIC f0400 0 __wmemmove_chk
PUBLIC f0420 0 __wmempcpy_chk
PUBLIC f0440 0 __wcpcpy_chk
PUBLIC f0480 0 __wcsncpy_chk
PUBLIC f04a0 0 __wcscat_chk
PUBLIC f0500 0 __wcsncat_chk
PUBLIC f0620 0 __wmemset_chk
PUBLIC f0640 0 __wcpncpy_chk
PUBLIC f0660 0 __swprintf_chk
PUBLIC f06f0 0 __vswprintf_chk
PUBLIC f0810 0 __wcrtomb_chk
PUBLIC f0840 0 __mbsnrtowcs_chk
PUBLIC f0860 0 __wcsnrtombs_chk
PUBLIC f0880 0 __mbsrtowcs_chk
PUBLIC f08a0 0 __wcsrtombs_chk
PUBLIC f08c0 0 __mbstowcs_chk
PUBLIC f08f0 0 __wcstombs_chk
PUBLIC f0b80 0 htonl
PUBLIC f0b90 0 htons
PUBLIC f0ba0 0 inet_lnaof
PUBLIC f0bd0 0 inet_makeaddr
PUBLIC f0c20 0 inet_netof
PUBLIC f0c50 0 inet_ntoa
PUBLIC f0cf0 0 inet_network
PUBLIC f0ee0 0 __h_errno_location
PUBLIC f0f00 0 gethostbyaddr
PUBLIC f10d0 0 gethostbyaddr_r
PUBLIC f1470 0 gethostbyname
PUBLIC f1670 0 gethostbyname2
PUBLIC f1880 0 gethostbyname2_r
PUBLIC f1bf0 0 gethostbyname_r
PUBLIC f1f50 0 gethostent
PUBLIC f2020 0 gethostent_r
PUBLIC f2110 0 endhostent
PUBLIC f21c0 0 sethostent
PUBLIC f2320 0 getnetbyaddr
PUBLIC f24f0 0 getnetbyaddr_r
PUBLIC f2760 0 getnetbyname
PUBLIC f2910 0 getnetent
PUBLIC f29e0 0 getnetent_r
PUBLIC f2ad0 0 endnetent
PUBLIC f2b80 0 setnetent
PUBLIC f2ce0 0 getnetbyname_r
PUBLIC f2f40 0 getprotobynumber
PUBLIC f30a0 0 getprotobynumber_r
PUBLIC f3290 0 getprotoent
PUBLIC f3350 0 getprotoent_r
PUBLIC f3430 0 endprotoent
PUBLIC f34d0 0 setprotoent
PUBLIC f3630 0 getprotobyname
PUBLIC f3790 0 getprotobyname_r
PUBLIC f3980 0 getservbyname
PUBLIC f3b00 0 getservbyname_r
PUBLIC f3d70 0 getservbyport
PUBLIC f3ef0 0 getservbyport_r
PUBLIC f4160 0 getservent
PUBLIC f4220 0 getservent_r
PUBLIC f4300 0 endservent
PUBLIC f43a0 0 setservent
PUBLIC f4500 0 getrpcent
PUBLIC f45c0 0 getrpcbyname
PUBLIC f4720 0 getrpcbynumber
PUBLIC f4880 0 getrpcent_r
PUBLIC f4960 0 endrpcent
PUBLIC f4a00 0 setrpcent
PUBLIC f4b60 0 getrpcbyname_r
PUBLIC f4d50 0 getrpcbynumber_r
PUBLIC f4f40 0 ether_aton
PUBLIC f4f50 0 ether_aton_r
PUBLIC f50c0 0 ether_hostton
PUBLIC f5240 0 ether_line
PUBLIC f54b0 0 ether_ntoa
PUBLIC f54c0 0 ether_ntoa_r
PUBLIC f5510 0 ether_ntohost
PUBLIC f58a0 0 __internal_getnetgrent_r
PUBLIC f5a90 0 getnetgrent_r
PUBLIC f5b80 0 innetgr
PUBLIC f5f00 0 __internal_endnetgrent
PUBLIC f5f20 0 endnetgrent
PUBLIC f5f90 0 __internal_setnetgrent
PUBLIC f5fe0 0 setnetgrent
PUBLIC f6130 0 getnetgrent
PUBLIC f6510 0 getnameinfo
PUBLIC f6fb0 0 if_indextoname
PUBLIC f7040 0 if_nametoindex
PUBLIC f70e0 0 if_freenameindex
PUBLIC f7120 0 if_nameindex
PUBLIC f7440 0 freeifaddrs
PUBLIC f86d0 0 getifaddrs
PUBLIC f86f0 0 getipv4sourcefilter
PUBLIC f8850 0 setipv4sourcefilter
PUBLIC f8a30 0 getsourcefilter
PUBLIC f8bc0 0 setsourcefilter
PUBLIC f9260 0 __ivaliduser
PUBLIC f9620 0 iruserok_af
PUBLIC f96b0 0 iruserok
PUBLIC f96d0 0 ruserok_af
PUBLIC f9790 0 ruserok
PUBLIC f97a0 0 rresvport_af
PUBLIC f9960 0 rresvport
PUBLIC f9970 0 rcmd_af
PUBLIC fa3c0 0 rcmd
PUBLIC fa3e0 0 rexec_af
PUBLIC fa960 0 rexec
PUBLIC faba0 0 ruserpass
PUBLIC fb020 0 getaliasent_r
PUBLIC fb100 0 endaliasent
PUBLIC fb1a0 0 setaliasent
PUBLIC fb300 0 getaliasent
PUBLIC fb3c0 0 getaliasbyname
PUBLIC fb520 0 getaliasbyname_r
PUBLIC fb710 0 inet6_option_space
PUBLIC fb720 0 inet6_option_init
PUBLIC fb750 0 inet6_option_next
PUBLIC fb800 0 inet6_option_find
PUBLIC fba10 0 inet6_option_alloc
PUBLIC fba20 0 inet6_option_append
PUBLIC fba70 0 inet6_opt_init
PUBLIC fbab0 0 inet6_opt_next
PUBLIC fbb40 0 inet6_opt_find
PUBLIC fbbd0 0 inet6_opt_get_val
PUBLIC fbc10 0 inet6_opt_set_val
PUBLIC fbc50 0 inet6_opt_finish
PUBLIC fbcd0 0 inet6_opt_append
PUBLIC fbde0 0 inet6_rth_space
PUBLIC fbe00 0 inet6_rth_segments
PUBLIC fbe20 0 inet6_rth_getaddr
PUBLIC fbe50 0 inet6_rth_reverse
PUBLIC fbf30 0 inet6_rth_add
PUBLIC fbf80 0 inet6_rth_init
PUBLIC fcc50 0 authnone_create
PUBLIC fccf0 0 authunix_create_default
PUBLIC fcf50 0 authunix_create
PUBLIC fd3a0 0 xdr_authunix_parms
PUBLIC fd440 0 bindresvport
PUBLIC fd840 0 clnt_create
PUBLIC fdaf0 0 clnt_sperrno
PUBLIC fdb60 0 clnt_spcreateerror
PUBLIC fdc60 0 clnt_pcreateerror
PUBLIC fdc80 0 clnt_perrno
PUBLIC fdca0 0 clnt_sperror
PUBLIC fdf40 0 clnt_perror
PUBLIC fe010 0 clntraw_create
PUBLIC fe3d0 0 callrpc
PUBLIC fe8e0 0 clnttcp_create
PUBLIC ff050 0 clntudp_bufcreate
PUBLIC ff080 0 clntudp_create
PUBLIC ff280 0 __libc_clntudp_bufcreate
PUBLIC ffde0 0 _rpc_dtablesize
PUBLIC ffe00 0 get_myaddress
PUBLIC ffea0 0 getrpcport
PUBLIC 100050 0 pmap_unset
PUBLIC 100150 0 pmap_set
PUBLIC 1002a0 0 pmap_getmaps
PUBLIC 100430 0 __libc_rpc_getport
PUBLIC 100620 0 pmap_getport
PUBLIC 100640 0 xdr_pmap
PUBLIC 1006b0 0 xdr_pmaplist
PUBLIC 100780 0 clnt_broadcast
PUBLIC 100de0 0 xdr_rmtcall_args
PUBLIC 100ef0 0 xdr_rmtcallres
PUBLIC 100f70 0 pmap_rmtcall
PUBLIC 1010c0 0 _seterr_reply
PUBLIC 1011e0 0 xdr_callhdr
PUBLIC 101280 0 xdr_rejected_reply
PUBLIC 101310 0 xdr_accepted_reply
PUBLIC 1013b0 0 xdr_replymsg
PUBLIC 101420 0 xdr_des_block
PUBLIC 101430 0 xdr_opaque_auth
PUBLIC 101490 0 xdr_callmsg
PUBLIC 1018e0 0 __rpc_thread_svc_max_pollfd
PUBLIC 101910 0 __rpc_thread_svc_pollfd
PUBLIC 101940 0 __rpc_thread_createerr
PUBLIC 101970 0 __rpc_thread_svc_fdset
PUBLIC 101990 0 svc_sendreply
PUBLIC 1019e0 0 svcerr_noproc
PUBLIC 101a30 0 svcerr_decode
PUBLIC 101a80 0 svcerr_systemerr
PUBLIC 101ad0 0 svcerr_auth
PUBLIC 101b00 0 svcerr_weakauth
PUBLIC 101b10 0 svcerr_noprog
PUBLIC 101b60 0 svcerr_progvers
PUBLIC 101bb0 0 svc_getreq
PUBLIC 101be0 0 svc_getreq_common
PUBLIC 101e00 0 svc_getreqset
PUBLIC 101ea0 0 svc_unregister
PUBLIC 101f90 0 svc_register
PUBLIC 102080 0 xprt_unregister
PUBLIC 102170 0 svc_getreq_poll
PUBLIC 102210 0 xprt_register
PUBLIC 102360 0 _authenticate
PUBLIC 1026b0 0 svcraw_create
PUBLIC 102840 0 svc_run
PUBLIC 102980 0 svc_exit
PUBLIC 1029b0 0 registerrpc
PUBLIC 102ef0 0 svcfd_create
PUBLIC 103180 0 svctcp_create
PUBLIC 103490 0 svcudp_create
PUBLIC 1034f0 0 svcudp_enablecache
PUBLIC 103620 0 svcudp_bufcreate
PUBLIC 103f20 0 xdr_free
PUBLIC 103f40 0 xdr_void
PUBLIC 103f50 0 xdr_int
PUBLIC 103fc0 0 xdr_u_int
PUBLIC 104030 0 xdr_long
PUBLIC 104070 0 xdr_u_long
PUBLIC 1040f0 0 xdr_hyper
PUBLIC 1041c0 0 xdr_u_hyper
PUBLIC 104290 0 xdr_longlong_t
PUBLIC 1042a0 0 xdr_u_longlong_t
PUBLIC 1042b0 0 xdr_short
PUBLIC 104320 0 xdr_u_short
PUBLIC 104390 0 xdr_char
PUBLIC 1043d0 0 xdr_u_char
PUBLIC 104410 0 xdr_bool
PUBLIC 104480 0 xdr_enum
PUBLIC 1044f0 0 xdr_opaque
PUBLIC 1045b0 0 xdr_netobj
PUBLIC 1045d0 0 xdr_union
PUBLIC 1046a0 0 xdr_wrapstring
PUBLIC 1046c0 0 xdr_string
PUBLIC 104800 0 xdr_bytes
PUBLIC 104950 0 xdr_vector
PUBLIC 1049d0 0 xdr_array
PUBLIC 104b50 0 xdr_float
PUBLIC 104bc0 0 xdr_double
PUBLIC 104c80 0 xdrmem_create
PUBLIC 104fd0 0 xdrrec_endofrecord
PUBLIC 105220 0 xdrrec_eof
PUBLIC 105280 0 xdrrec_skiprecord
PUBLIC 105510 0 xdrrec_create
PUBLIC 105810 0 xdr_pointer
PUBLIC 1058a0 0 xdr_reference
PUBLIC 105990 0 xdrstdio_create
PUBLIC 105bb0 0 getsecretkey
PUBLIC 105cc0 0 getpublickey
PUBLIC 105e20 0 xdr_sizeof
PUBLIC 1063b0 0 authdes_pk_create
PUBLIC 106610 0 authdes_create
PUBLIC 1066f0 0 xdr_authdes_verf
PUBLIC 106740 0 xdr_authdes_cred
PUBLIC 106c70 0 key_get_conv
PUBLIC 106cc0 0 key_setnet
PUBLIC 106d10 0 key_decryptsession_pk
PUBLIC 106d80 0 key_encryptsession_pk
PUBLIC 106df0 0 key_decryptsession
PUBLIC 106e50 0 key_encryptsession
PUBLIC 106eb0 0 key_setsecret
PUBLIC 106f00 0 key_gendes
PUBLIC 106fe0 0 key_secretkey_is_set
PUBLIC 107070 0 xdr_getcredres
PUBLIC 1070d0 0 xdr_key_netstarg
PUBLIC 107130 0 xdr_key_netstres
PUBLIC 107190 0 xdr_unixcred
PUBLIC 107200 0 xdr_cryptkeyres
PUBLIC 107260 0 xdr_cryptkeyarg
PUBLIC 1072b0 0 xdr_cryptkeyarg2
PUBLIC 107310 0 xdr_netnamestr
PUBLIC 107330 0 xdr_keybuf
PUBLIC 107350 0 xdr_keystatus
PUBLIC 107370 0 netname2host
PUBLIC 107410 0 netname2user
PUBLIC 107520 0 host2netname
PUBLIC 107740 0 user2netname
PUBLIC 107850 0 getnetname
PUBLIC 1079f0 0 rtime
PUBLIC 107c20 0 authdes_getucred
PUBLIC 108640 0 clntunix_create
PUBLIC 109370 0 svcunixfd_create
PUBLIC 1097c0 0 svcunix_create
PUBLIC 109c10 0 xdr_int64_t
PUBLIC 109cd0 0 xdr_uint64_t
PUBLIC 109d90 0 xdr_int32_t
PUBLIC 109dd0 0 xdr_uint32_t
PUBLIC 109e10 0 xdr_int16_t
PUBLIC 109e80 0 xdr_uint16_t
PUBLIC 109ef0 0 xdr_int8_t
PUBLIC 109f60 0 xdr_uint8_t
PUBLIC 10a0c0 0 passwd2des
PUBLIC 10a110 0 xdecrypt
PUBLIC 10a210 0 xencrypt
PUBLIC 10a3a0 0 ecb_crypt
PUBLIC 10a3c0 0 cbc_crypt
PUBLIC 10afb0 0 des_setparity
PUBLIC 10e3f0 0 isastream
PUBLIC 10e410 0 getmsg
PUBLIC 10e430 0 getpmsg
PUBLIC 10e460 0 putmsg
PUBLIC 10e480 0 putpmsg
PUBLIC 10e4b0 0 fattach
PUBLIC 10e4d0 0 fdetach
PUBLIC 10e5a0 0 posix_openpt
PUBLIC 10e6b0 0 getpt
PUBLIC 10e6e0 0 grantpt
PUBLIC 10ebb0 0 unlockpt
PUBLIC 10ef10 0 ptsname_r
PUBLIC 10ef30 0 ptsname
PUBLIC 10ef60 0 getutent
PUBLIC 10f160 0 setutent
PUBLIC 10f1d0 0 getutent_r
PUBLIC 10f250 0 pututline
PUBLIC 10f2c0 0 endutent
PUBLIC 10f430 0 getutid
PUBLIC 10f490 0 getutline
PUBLIC 10f4f0 0 getutid_r
PUBLIC 10f5f0 0 getutline_r
PUBLIC 110740 0 utmpname
PUBLIC 110880 0 updwtmp
PUBLIC 110980 0 setutxent
PUBLIC 110990 0 getutxent
PUBLIC 1109a0 0 endutxent
PUBLIC 1109b0 0 getutxid
PUBLIC 1109c0 0 getutxline
PUBLIC 1109d0 0 pututxline
PUBLIC 1109e0 0 utmpxname
PUBLIC 1109f0 0 updwtmpx
PUBLIC 110a00 0 getutmp
PUBLIC 110a70 0 dl_iterate_phdr
PUBLIC 110cc0 0 _dl_addr
PUBLIC 111000 0 _dl_mcount_wrapper_check
PUBLIC 111040 0 _dl_mcount_wrapper
PUBLIC 111180 0 __libc_dlclose
PUBLIC 1111b0 0 __libc_dlsym
PUBLIC 111210 0 __libc_dlopen_mode
PUBLIC 1117a0 0 _dl_sym
PUBLIC 1117b0 0 _dl_vsym
PUBLIC 1118a0 0 __libc_dl_error_tsd
PUBLIC 111990 0 realpath
PUBLIC 1119c0 0 sched_getaffinity
PUBLIC 1119d0 0 sched_setaffinity
PUBLIC 1119e0 0 regexec
PUBLIC 111dd0 0 nftw64
PUBLIC 111df0 0 pthread_cond_broadcast
PUBLIC 111e20 0 pthread_cond_destroy
PUBLIC 111e50 0 pthread_cond_init
PUBLIC 111e80 0 pthread_cond_signal
PUBLIC 111eb0 0 pthread_cond_wait
PUBLIC 111ee0 0 pthread_cond_timedwait
PUBLIC 111f50 0 __nss_next
PUBLIC 111f60 0 __nss_group_lookup
PUBLIC 111f70 0 __nss_passwd_lookup
PUBLIC 111fb0 0 __nss_hosts_lookup
PUBLIC 136380 0 __libc_freeres
PUBLIC 136990 0 __libc_thread_freeres
STACK CFI INIT 1eaf0 90 .cfa: $rsp 16 + .ra: .cfa -8 + ^
STACK CFI 1eaf6 .cfa: $rsp 24 +
STACK CFI INIT 1eb80 2 .cfa: $rsp 8 + .ra: .cfa -8 + ^
STACK CFI INIT 1eb90 9 .cfa: $rsp 8 + .ra: .cfa -8 + ^
STACK CFI 1eb94 .cfa: $rsp 16 +
STACK CFI INIT 1eba0 210 .cfa: $rsp 8 + .ra: .cfa -8 + ^
STACK CFI 1ebac $rbp: .cfa -32 + ^ $rbx: .cfa -40 + ^
STACK CFI 1ebba .cfa: $rsp 80 +
STACK CFI 1ebc7 $r12: .cfa -24 + ^ $r13: .cfa -16 + ^
STACK CFI INIT 1edb0 1c7 .cfa: $rsp 8 + .ra: .cfa -8 + ^
STACK CFI 1edbd $rbp: .cfa -40 + ^ $rbx: .cfa -48 + ^
STACK CFI 1edd3 .cfa: $rsp 192 +
STACK CFI 1edf1 $r12: .cfa -32 + ^ $r13: .cfa -24 + ^ $r14: .cfa -16 + ^
STACK CFI INIT 1ef80 8 .cfa: $rsp 8 + .ra: .cfa -8 + ^
STACK CFI INIT 1ef90 8 .cfa: $rsp 8 + .ra: .cfa -8 + ^
STACK CFI INIT 1efa0 16 .cfa: $rsp 8 + .ra: .cfa -8 + ^
STACK CFI INIT 1efc0 10 .cfa: $rsp 8 + .ra: .cfa -8 + ^
STACK CFI 1efc4 .cfa: $rsp 16 +
STACK CFI INIT 1efd0 c3 .cfa: $rsp 8 + .ra: .cfa -8 + ^
STACK CFI 1efe3 $r12: .cfa -16 + ^ $rbp: .cfa -24 + ^ $rbx: .cfa -32 + ^
STACK CFI 1efea .cfa: $rsp 176 +
STACK CFI INIT 1f0a0 32 .cfa: $rsp 8 + .ra: .cfa -8 + ^
STACK CFI 1f0a4 .cfa: $rsp 16 +
STACK CFI INIT 1f0e0 7b .cfa: $rsp 8 + .ra: .cfa -8 + ^
STACK CFI 1f0fa $rbp: .cfa -16 + ^ $rbx: .cfa -24 + ^ .cfa: $rsp 32 +
STACK CFI INIT 1f160 52 .cfa: $rsp 8 + .ra: .cfa -8 + ^
STACK CFI 1f164 .cfa: $rsp 64 +
STACK CFI INIT 1f1c0 2e .cfa: $rsp 8 + .ra: .cfa -8 + ^
STACK CFI 1f1c4 .cfa: $rsp 32 +
STACK CFI INIT 1f1f0 1f2 .cfa: $rsp 8 + .ra: .cfa -8 + ^
STACK CFI 1f1f3 $rbx: .cfa -16 + ^ .cfa: $rsp 16 +
STACK CFI INIT 1f3f0 17 .cfa: $rsp 8 + .ra: .cfa -8 + ^
STACK CFI INIT 1f410 11 .cfa: $rsp 8 + .ra: .cfa -8 + ^
STACK CFI INIT 1f430 aa .cfa: $rsp 8 + .ra: .cfa -8 + ^
STACK CFI INIT 1f4e0 218 .cfa: $rsp 8 + .ra: .cfa -8 + ^
STACK CFI 1f4e1 .cfa: $rsp 16 +
STACK CFI 1f4e4 $rbp: .cfa -16 + ^ .cfa: $rbp 16 +
STACK CFI 1f4e9 $r15: .cfa -24 + ^
STACK CFI 1f4f2 $r12: .cfa -48 + ^ $r13: .cfa -40 + ^ $r14: .cfa -32 + ^
STACK CFI 1f4f7 $rbx: .cfa -56 + ^
STACK CFI INIT 1f700 1a9 .cfa: $rsp 8 + .ra: .cfa -8 + ^
STACK CFI 1f70d $rbp: .cfa -48 + ^ $rbx: .cfa -56 + ^
STACK CFI 1f71a $r12: .cfa -40 + ^ $r14: .cfa -24 + ^
STACK CFI 1f728 .cfa: $rsp 80 +
STACK CFI 1f734 $r13: .cfa -32 + ^ $r15: .cfa -16 + ^
STACK CFI INIT 1f8b0 2d .cfa: $rsp 8 + .ra: .cfa -8 + ^
STACK CFI 1f8b4 .cfa: $rsp 16 +
STACK CFI INIT 1f8e0 812 .cfa: $rsp 8 + .ra: .cfa -8 + ^
STACK CFI 1f8e1 .cfa: $rsp 16 +
STACK CFI 1f8e4 $rbp: .cfa -16 + ^ .cfa: $rbp 16 +
STACK CFI 1f908 $r12: .cfa -48 + ^ $r13: .cfa -40 + ^ $r14: .cfa -32 + ^ $r15: .cfa -24 + ^ $rbx: .cfa -56 + ^
STACK CFI INIT 20100 212 .cfa: $rsp 8 + .ra: .cfa -8 + ^
STACK CFI 20102 .cfa: $rsp 16 +
STACK CFI 2010a $r15: .cfa -16 + ^
STACK CFI 2010c .cfa: $rsp 24 +
STACK CFI 2010f $r14: .cfa -24 + ^
STACK CFI 20111 .cfa: $rsp 32 +
STACK CFI 20113 .cfa: $rsp 40 +
STACK CFI 20114 .cfa: $rsp 48 +
STACK CFI 20117 $r12: .cfa -40 + ^ $r13: .cfa -32 + ^ $rbp: .cfa -48 + ^
STACK CFI 20118 .cfa: $rsp 56 +
STACK CFI 2011b $rbx: .cfa -56 + ^
STACK CFI 2011f .cfa: $rsp 112 +
STACK CFI INIT 20320 a2 .cfa: $rsp 8 + .ra: .cfa -8 + ^
STACK CFI 20322 .cfa: $rsp 16 +
STACK CFI 20324 .cfa: $rsp 24 +
STACK CFI 20327 $r14: .cfa -24 + ^ $r15: .cfa -16 + ^
STACK CFI 20329 .cfa: $rsp 32 +
STACK CFI 2032d $r13: .cfa -32 + ^
STACK CFI 2032f .cfa: $rsp 40 +
STACK CFI 20330 .cfa: $rsp 48 +
STACK CFI 20331 .cfa: $rsp 56 +
STACK CFI 20335 .cfa: $rsp 64 +
STACK CFI 20339 $r12: .cfa -40 + ^ $rbp: .cfa -48 + ^ $rbx: .cfa -56 + ^
STACK CFI INIT 213c2 1f .cfa: $rsp -128 + .ra: $rip
STACK CFI 213d0 .cfa: $rsp 0 +
STACK CFI 213d4 .cfa: $rsp 128 +
STACK CFI 213dc .cfa: $rsp -128 +
STACK CFI INIT 213e1 1f .cfa: $rsp -128 + .ra: $rip
STACK CFI 213ef .cfa: $rsp 0 +
STACK CFI 213f3 .cfa: $rsp 128 +
STACK CFI 213fb .cfa: $rsp -128 +
STACK CFI INIT 21400 1f .cfa: $rsp -128 + .ra: $rip
STACK CFI 2140e .cfa: $rsp 0 +
STACK CFI 21412 .cfa: $rsp 128 +
STACK CFI 2141a .cfa: $rsp -128 +
STACK CFI INIT 2141f 1f .cfa: $rsp -128 + .ra: $rip
STACK CFI 2142d .cfa: $rsp 0 +
STACK CFI 21431 .cfa: $rsp 128 +
STACK CFI 21439 .cfa: $rsp -128 +
STACK CFI INIT 2143e 1f .cfa: $rsp -128 + .ra: $rip
STACK CFI 2144c .cfa: $rsp 0 +
STACK CFI 21450 .cfa: $rsp 128 +
STACK CFI 21458 .cfa: $rsp -128 +
STACK CFI INIT 2145d 1f .cfa: $rsp -128 + .ra: $rip
STACK CFI 2146b .cfa: $rsp 0 +
STACK CFI 2146f .cfa: $rsp 128 +
STACK CFI 21477 .cfa: $rsp -128 +
STACK CFI INIT 2147c 1f .cfa: $rsp -128 + .ra: $rip
STACK CFI 2148a .cfa: $rsp 0 +
STACK CFI 2148e .cfa: $rsp 128 +
STACK CFI 21496 .cfa: $rsp -128 +
STACK CFI INIT 203d0 8 .cfa: $rsp 8 + .ra: .cfa -8 + ^
STACK CFI INIT 203e0 8 .cfa: $rsp 8 + .ra: .cfa -8 + ^
STACK CFI INIT 135bd0 5a .cfa: $rsp 8 + .ra: .cfa -8 + ^
STACK CFI 135bd1 .cfa: $rsp 16 +
STACK CFI 135bd2 .cfa: $rsp 24 +
STACK CFI 135bd5 $rbp: .cfa -16 + ^ $rbx: .cfa -24 + ^
STACK CFI 135bd9 .cfa: $rsp 32 +
STACK CFI INIT 135c30 5d .cfa: $rsp 8 + .ra: .cfa -8 + ^
STACK CFI 135c34 .cfa: $rsp 16 +
STACK CFI INIT 135c90 d9 .cfa: $rsp 8 + .ra: .cfa -8 + ^
STACK CFI 135c92 .cfa: $rsp 16 +
STACK CFI 135c95 $r13: .cfa -16 + ^
STACK CFI 135c97 .cfa: $rsp 24 +
STACK CFI 135c98 .cfa: $rsp 32 +
STACK CFI 135c99 .cfa: $rsp 40 +
STACK CFI 135c9d .cfa: $rsp 48 +
STACK CFI 135ca8 $r12: .cfa -24 + ^ $rbp: .cfa -32 + ^ $rbx: .cfa -40 + ^
STACK CFI INIT 203f0 4f .cfa: $rsp 8 + .ra: .cfa -8 + ^
STACK CFI 203fd $rbp: .cfa -16 + ^ $rbx: .cfa -24 + ^
STACK CFI 20401 .cfa: $rsp 32 +
STACK CFI INIT 20440 b .cfa: $rsp 8 + .ra: .cfa -8 + ^
STACK CFI INIT 20450 34 .cfa: $rsp 8 + .ra: .cfa -8 + ^
STACK CFI 20454 .cfa: $rsp 32 +
STACK CFI INIT 20490 c1 .cfa: $rsp 8 + .ra: .cfa -8 + ^
STACK CFI 20491 .cfa: $rsp 16 +
STACK CFI 20494 $rbp: .cfa -16 + ^
STACK CFI 20495 .cfa: $rsp 24 +
STACK CFI 20498 $rbx: .cfa -24 + ^
STACK CFI 2049c .cfa: $rsp 48 +
STACK CFI INIT 20560 bd .cfa: $rsp 8 + .ra: .cfa -8 + ^
STACK CFI 2056e .cfa: $rsp 32 +
STACK CFI 20575 $rbp: .cfa -16 + ^ $rbx: .cfa -24 + ^
STACK CFI INIT 20620 a6 .cfa: $rsp 8 + .ra: .cfa -8 + ^
STACK CFI 20622 .cfa: $rsp 16 +
STACK CFI 20626 .cfa: $rsp 24 +
STACK CFI 20627 .cfa: $rsp 32 +
STACK CFI 2062a $r12: .cfa -24 + ^ $r13: .cfa -16 + ^ $rbp: .cfa -32 + ^
STACK CFI 2062b .cfa: $rsp 40 +
STACK CFI 2062e $rbx: .cfa -40 + ^
STACK CFI 20637 .cfa: $rsp 48 +
STACK CFI INIT 206d0 a70 .cfa: $rsp 8 + .ra: .cfa -8 + ^
STACK CFI 206d1 .cfa: $rsp 16 +
STACK CFI 206d7 $rbp: .cfa -16 + ^ .cfa: $rbp 16 +
STACK CFI 20743 $r12: .cfa -48 + ^ $r13: .cfa -40 + ^ $r14: .cfa -32 + ^ $r15: .cfa -24 + ^ $rbx: .cfa -56 + ^
STACK CFI INIT 21140 282 .cfa: $rsp 8 + .ra: .cfa -8 + ^
STACK CFI 2114d $rbp: .cfa -48 + ^ $rbx: .cfa -56 + ^
STACK CFI 21168 .cfa: $rsp 80 +
STACK CFI 21172 $r12: .cfa -40 + ^ $r13: .cfa -32 + ^ $r14: .cfa -24 + ^ $r15: .cfa -16 + ^
STACK CFI INIT 2220d 1f .cfa: $rsp -128 + .ra: $rip
STACK CFI 2221b .cfa: $rsp 0 +
STACK CFI 2221f .cfa: $rsp 128 +
STACK CFI 22227 .cfa: $rsp -128 +
STACK CFI INIT 2222c 1f .cfa: $rsp -128 + .ra: $rip
STACK CFI 2223a .cfa: $rsp 0 +
STACK CFI 2223e .cfa: $rsp 128 +
STACK CFI 22246 .cfa: $rsp -128 +
STACK CFI INIT 135d70 22 .cfa: $rsp 8 + .ra: .cfa -8 + ^
STACK CFI INIT 214a0 ec .cfa: $rsp 8 + .ra: .cfa -8 + ^
STACK CFI 214a2 .cfa: $rsp 16 +
STACK CFI 214a5 $r14: .cfa -16 + ^
STACK CFI 214a7 .cfa: $rsp 24 +
STACK CFI 214aa $r13: .cfa -24 + ^
STACK CFI 214ac .cfa: $rsp 32 +
STACK CFI 214ad .cfa: $rsp 40 +
STACK CFI 214b4 $r12: .cfa -32 + ^ $rbp: .cfa -40 + ^
STACK CFI 214b5 .cfa: $rsp 48 +
STACK CFI 214b7 $rbx: .cfa -48 + ^
STACK CFI INIT 21590 359 .cfa: $rsp 8 + .ra: .cfa -8 + ^
STACK CFI 21591 .cfa: $rsp 16 +
STACK CFI 21597 $rbp: .cfa -16 + ^ .cfa: $rbp 16 +
STACK CFI 215a3 $r12: .cfa -48 + ^ $r13: .cfa -40 + ^ $r14: .cfa -32 + ^ $r15: .cfa -24 + ^ $rbx: .cfa -56 + ^
STACK CFI INIT 218f0 b9 .cfa: $rsp 8 + .ra: .cfa -8 + ^
STACK CFI 218f2 .cfa: $rsp 16 +
STACK CFI 218f5 $r13: .cfa -16 + ^
STACK CFI 218f7 .cfa: $rsp 24 +
STACK CFI 218fa $r12: .cfa -24 + ^
STACK CFI 218fb .cfa: $rsp 32 +
STACK CFI 218fc .cfa: $rsp 40 +
STACK CFI 218ff $rbp: .cfa -32 + ^ $rbx: .cfa -40 + ^
STACK CFI 21903 .cfa: $rsp 48 +
STACK CFI INIT 219b0 3c5 .cfa: $rsp 8 + .ra: .cfa -8 + ^
STACK CFI 219b1 .cfa: $rsp 16 +
STACK CFI 219bb $rbp: .cfa -16 + ^ .cfa: $rbp 16 +
STACK CFI 219f8 $r12: .cfa -48 + ^ $r13: .cfa -40 + ^ $r14: .cfa -32 + ^ $r15: .cfa -24 + ^ $rbx: .cfa -56 + ^
STACK CFI INIT 21d80 48d .cfa: $rsp 8 + .ra: .cfa -8 + ^
STACK CFI 21d81 .cfa: $rsp 16 +
STACK CFI 21d84 $rbp: .cfa -16 + ^ .cfa: $rbp 16 +
STACK CFI 21db4 $r12: .cfa -48 + ^ $r13: .cfa -40 + ^ $r14: .cfa -32 + ^ $r15: .cfa -24 + ^ $rbx: .cfa -56 + ^
STACK CFI INIT 22250 da .cfa: $rsp 8 + .ra: .cfa -8 + ^
STACK CFI 22252 .cfa: $rsp 16 +
STACK CFI 22259 $r14: .cfa -16 + ^
STACK CFI 2225b .cfa: $rsp 24 +
STACK CFI 2225e $r13: .cfa -24 + ^
STACK CFI 22260 .cfa: $rsp 32 +
STACK CFI 22263 $r12: .cfa -32 + ^
STACK CFI 22264 .cfa: $rsp 40 +
STACK CFI 22267 $rbp: .cfa -40 + ^
STACK CFI 22268 .cfa: $rsp 48 +
STACK CFI 2226a $rbx: .cfa -48 + ^
STACK CFI INIT 22330 10 .cfa: $rsp 8 + .ra: .cfa -8 + ^
STACK CFI INIT 22340 8f2 .cfa: $rsp 8 + .ra: .cfa -8 + ^
STACK CFI 22342 .cfa: $rsp 16 +
STACK CFI 22348 $r15: .cfa -16 + ^
STACK CFI 22351 .cfa: $rsp 24 +
STACK CFI 22357 .cfa: $rsp 32 +
STACK CFI 22359 .cfa: $rsp 40 +
STACK CFI 2235c $r12: .cfa -40 + ^ $r13: .cfa -32 + ^ $r14: .cfa -24 + ^
STACK CFI 2235d .cfa: $rsp 48 +
STACK CFI 2235e .cfa: $rsp 56 +
STACK CFI 22365 .cfa: $rsp 240 +
STACK CFI 22388 $rbp: .cfa -48 + ^ $rbx: .cfa -56 + ^
STACK CFI INIT 22c40 5ca .cfa: $rsp 8 + .ra: .cfa -8 + ^
STACK CFI 22c42 .cfa: $rsp 16 +
STACK CFI 22c49 $r15: .cfa -16 + ^
STACK CFI 22c4e .cfa: $rsp 24 +
STACK CFI 22c54 .cfa: $rsp 32 +
STACK CFI 22c56 .cfa: $rsp 40 +
STACK CFI 22c57 .cfa: $rsp 48 +
STACK CFI 22c5a $r12: .cfa -40 + ^ $r13: .cfa -32 + ^ $r14: .cfa -24 + ^ $rbp: .cfa -48 + ^
STACK CFI 22c5b .cfa: $rsp 56 +
STACK CFI 22c62 .cfa: $rsp 192 +
STACK CFI 22c7c $rbx: .cfa -56 + ^
STACK CFI INIT 23210 dfa .cfa: $rsp 8 + .ra: .cfa -8 + ^
STACK CFI 23212 .cfa: $rsp 16 +
STACK CFI 23218 .cfa: $rsp 24 +
STACK CFI 2321b $r14: .cfa -24 + ^ $r15: .cfa -16 + ^
STACK CFI 23224 .cfa: $rsp 32 +
STACK CFI 23226 .cfa: $rsp 40 +
STACK CFI 23227 .cfa: $rsp 48 +
STACK CFI 2322a $r12: .cfa -40 + ^ $r13: .cfa -32 + ^ $rbp: .cfa -48 + ^
STACK CFI 2322b .cfa: $rsp 56 +
STACK CFI 23232 .cfa: $rsp 208 +
STACK CFI 23250 $rbx: .cfa -56 + ^
STACK CFI INIT 24010 be8 .cfa: $rsp 8 + .ra: .cfa -8 + ^
STACK CFI 24012 .cfa: $rsp 16 +
STACK CFI 24018 $r15: .cfa -16 + ^
STACK CFI 24021 .cfa: $rsp 24 +
STACK CFI 24027 .cfa: $rsp 32 +
STACK CFI 24029 .cfa: $rsp 40 +
STACK CFI 2402c $r12: .cfa -40 + ^ $r13: .cfa -32 + ^ $r14: .cfa -24 + ^
STACK CFI 2402d .cfa: $rsp 48 +
STACK CFI 2402e .cfa: $rsp 56 +
STACK CFI 24035 .cfa: $rsp 240 +
STACK CFI 24038 $rbp: .cfa -48 + ^ $rbx: .cfa -56 + ^
STACK CFI INIT 24c00 89e .cfa: $rsp 8 + .ra: .cfa -8 + ^
STACK CFI 24c02 .cfa: $rsp 16 +
STACK CFI 24c08 $r15: .cfa -16 + ^
STACK CFI 24c11 .cfa: $rsp 24 +
STACK CFI 24c17 .cfa: $rsp 32 +
STACK CFI 24c19 .cfa: $rsp 40 +
STACK CFI 24c1c $r12: .cfa -40 + ^ $r13: .cfa -32 + ^ $r14: .cfa -24 + ^
STACK CFI 24c1d .cfa: $rsp 48 +
STACK CFI 24c1e .cfa: $rsp 56 +
STACK CFI 24c25 .cfa: $rsp 240 +
STACK CFI 24c48 $rbp: .cfa -48 + ^ $rbx: .cfa -56 + ^
STACK CFI INIT 254a0 388 .cfa: $rsp 8 + .ra: .cfa -8 + ^
STACK CFI 254a2 .cfa: $rsp 16 +
STACK CFI 254a8 $r15: .cfa -16 + ^
STACK CFI 254ae .cfa: $rsp 24 +
STACK CFI 254b0 .cfa: $rsp 32 +
STACK CFI 254b2 .cfa: $rsp 40 +
STACK CFI 254b3 .cfa: $rsp 48 +
STACK CFI 254b6 $r12: .cfa -40 + ^ $r13: .cfa -32 + ^ $r14: .cfa -24 + ^ $rbp: .cfa -48 + ^
STACK CFI 254b7 .cfa: $rsp 56 +
STACK CFI 254bb .cfa: $rsp 176 +
STACK CFI 254e4 $rbx: .cfa -56 + ^
STACK CFI INIT 25830 4aa .cfa: $rsp 8 + .ra: .cfa -8 + ^
STACK CFI 25832 .cfa: $rsp 16 +
STACK CFI 25839 $r15: .cfa -16 + ^
STACK CFI 2583b .cfa: $rsp 24 +
STACK CFI 2583e $r14: .cfa -24 + ^
STACK CFI 25844 .cfa: $rsp 32 +
STACK CFI 25846 .cfa: $rsp 40 +
STACK CFI 25847 .cfa: $rsp 48 +
STACK CFI 25848 .cfa: $rsp 56 +
STACK CFI 2584c .cfa: $rsp 176 +
STACK CFI 25865 $r12: .cfa -40 + ^ $r13: .cfa -32 + ^ $rbp: .cfa -48 + ^ $rbx: .cfa -56 + ^
STACK CFI INIT 25ce0 900 .cfa: $rsp 8 + .ra: .cfa -8 + ^
STACK CFI 25ce2 .cfa: $rsp 16 +
STACK CFI 25ce8 $r15: .cfa -16 + ^
STACK CFI 25cf1 .cfa: $rsp 24 +
STACK CFI 25cf7 .cfa: $rsp 32 +
STACK CFI 25cf9 .cfa: $rsp 40 +
STACK CFI 25cfc $r12: .cfa -40 + ^ $r13: .cfa -32 + ^ $r14: .cfa -24 + ^
STACK CFI 25cfd .cfa: $rsp 48 +
STACK CFI 25cfe .cfa: $rsp 56 +
STACK CFI 25d05 .cfa: $rsp 240 +
STACK CFI 25d28 $rbp: .cfa -48 + ^ $rbx: .cfa -56 + ^
STACK CFI INIT 265e0 5c9 .cfa: $rsp 8 + .ra: .cfa -8 + ^
STACK CFI 265e2 .cfa: $rsp 16 +
STACK CFI 265e9 $r15: .cfa -16 + ^
STACK CFI 265ee .cfa: $rsp 24 +
STACK CFI 265f4 .cfa: $rsp 32 +
STACK CFI 265f6 .cfa: $rsp 40 +
STACK CFI 265f7 .cfa: $rsp 48 +
STACK CFI 265fa $r12: .cfa -40 + ^ $r13: .cfa -32 + ^ $r14: .cfa -24 + ^ $rbp: .cfa -48 + ^
STACK CFI 265fb .cfa: $rsp 56 +
STACK CFI 26602 .cfa: $rsp 192 +
STACK CFI 2661c $rbx: .cfa -56 + ^
STACK CFI INIT 26bb0 4bb .cfa: $rsp 8 + .ra: .cfa -8 + ^
STACK CFI 26bb2 .cfa: $rsp 16 +
STACK CFI 26bb8 $r15: .cfa -16 + ^
STACK CFI 26bba .cfa: $rsp 24 +
STACK CFI 26bbd $r14: .cfa -24 + ^
STACK CFI 26bc3 .cfa: $rsp 32 +
STACK CFI 26bc5 .cfa: $rsp 40 +
STACK CFI 26bc6 .cfa: $rsp 48 +
STACK CFI 26bc7 .cfa: $rsp 56 +
STACK CFI 26bcb .cfa: $rsp 176 +
STACK CFI 26bf1 $r12: .cfa -40 + ^ $r13: .cfa -32 + ^ $rbp: .cfa -48 + ^ $rbx: .cfa -56 + ^
STACK CFI INIT 27070 40f .cfa: $rsp 8 + .ra: .cfa -8 + ^
STACK CFI 27072 .cfa: $rsp 16 +
STACK CFI 27079 $r15: .cfa -16 + ^
STACK CFI 2707b .cfa: $rsp 24 +
STACK CFI 2707e $r14: .cfa -24 + ^
STACK CFI 27080 .cfa: $rsp 32 +
STACK CFI 27082 .cfa: $rsp 40 +
STACK CFI 27083 .cfa: $rsp 48 +
STACK CFI 27084 .cfa: $rsp 56 +
STACK CFI 27088 .cfa: $rsp 176 +
STACK CFI 270ab $r12: .cfa -40 + ^ $r13: .cfa -32 + ^ $rbp: .cfa -48 + ^ $rbx: .cfa -56 + ^
STACK CFI INIT 27480 3f4 .cfa: $rsp 8 + .ra: .cfa -8 + ^
STACK CFI 27482 .cfa: $rsp 16 +
STACK CFI 27489 $r15: .cfa -16 + ^
STACK CFI 2748b .cfa: $rsp 24 +
STACK CFI 2748d .cfa: $rsp 32 +
STACK CFI 2748f .cfa: $rsp 40 +
STACK CFI 27490 .cfa: $rsp 48 +
STACK CFI 27491 .cfa: $rsp 56 +
STACK CFI 27494 $r12: .cfa -40 + ^ $r13: .cfa -32 + ^ $r14: .cfa -24 + ^ $rbp: .cfa -48 + ^ $rbx: .cfa -56 + ^
STACK CFI 27498 .cfa: $rsp 176 +
STACK CFI INIT 28046 1f .cfa: $rsp -128 + .ra: $rip
STACK CFI 28054 .cfa: $rsp 0 +
STACK CFI 28058 .cfa: $rsp 128 +
STACK CFI 28060 .cfa: $rsp -128 +
STACK CFI INIT 28065 1f .cfa: $rsp -128 + .ra: $rip
STACK CFI 28073 .cfa: $rsp 0 +
STACK CFI 28077 .cfa: $rsp 128 +
STACK CFI 2807f .cfa: $rsp -128 +
STACK CFI INIT 27880 c0 .cfa: $rsp 8 + .ra: .cfa -8 + ^
STACK CFI 27881 .cfa: $rsp 16 +
STACK CFI 27884 $rbx: .cfa -16 + ^
STACK CFI INIT 27940 29c .cfa: $rsp 8 + .ra: .cfa -8 + ^
STACK CFI 2794d $rbp: .cfa -48 + ^ $rbx: .cfa -56 + ^
STACK CFI 27965 .cfa: $rsp 64 +
STACK CFI 2796f $r12: .cfa -40 + ^ $r13: .cfa -32 + ^ $r14: .cfa -24 + ^ $r15: .cfa -16 + ^
STACK CFI INIT 27be0 b .cfa: $rsp 8 + .ra: .cfa -8 + ^
STACK CFI INIT 27bf0 456 .cfa: $rsp 8 + .ra: .cfa -8 + ^
STACK CFI 27bf2 .cfa: $rsp 16 +
STACK CFI 27bf4 .cfa: $rsp 24 +
STACK CFI 27bf7 $r14: .cfa -24 + ^ $r15: .cfa -16 + ^
STACK CFI 27bf9 .cfa: $rsp 32 +
STACK CFI 27bfb .cfa: $rsp 40 +
STACK CFI 27bfc .cfa: $rsp 48 +
STACK CFI 27bfd .cfa: $rsp 56 +
STACK CFI 27c04 .cfa: $rsp 240 +
STACK CFI 27c2a $r12: .cfa -40 + ^ $r13: .cfa -32 + ^ $rbp: .cfa -48 + ^ $rbx: .cfa -56 + ^
STACK CFI INIT 28090 8 .cfa: $rsp 8 + .ra: .cfa -8 + ^
STACK CFI INIT 280a0 12 .cfa: $rsp 8 + .ra: .cfa -8 + ^
STACK CFI INIT 135da0 3a .cfa: $rsp 8 + .ra: .cfa -8 + ^
STACK CFI INIT 280c0 f5 .cfa: $rsp 8 + .ra: .cfa -8 + ^
STACK CFI 280c2 .cfa: $rsp 16 +
STACK CFI 280c4 .cfa: $rsp 24 +
STACK CFI 280c6 .cfa: $rsp 32 +
STACK CFI 280c9 $r13: .cfa -32 + ^ $r14: .cfa -24 + ^ $r15: .cfa -16 + ^
STACK CFI 280cb .cfa: $rsp 40 +
STACK CFI 280cc .cfa: $rsp 48 +
STACK CFI 280cd .cfa: $rsp 56 +
STACK CFI 280d1 .cfa: $rsp 96 +
STACK CFI 280e7 $r12: .cfa -40 + ^ $rbp: .cfa -48 + ^ $rbx: .cfa -56 + ^
STACK CFI INIT 281c0 7f .cfa: $rsp 8 + .ra: .cfa -8 + ^
STACK CFI 281cd $rbp: .cfa -24 + ^ $rbx: .cfa -32 + ^
STACK CFI 281d6 .cfa: $rsp 48 +
STACK CFI 281e4 $r12: .cfa -16 + ^
STACK CFI INIT 28240 106 .cfa: $rsp 8 + .ra: .cfa -8 + ^
STACK CFI 28241 .cfa: $rsp 16 +
STACK CFI 28244 $rbp: .cfa -16 + ^ .cfa: $rbp 16 +
STACK CFI 2824f $r12: .cfa -48 + ^ $rbx: .cfa -56 + ^
STACK CFI 2825a $r13: .cfa -40 + ^ $r14: .cfa -32 + ^
STACK CFI 28265 $r15: .cfa -24 + ^
STACK CFI INIT 28350 484 .cfa: $rsp 8 + .ra: .cfa -8 + ^
STACK CFI 2835d $rbp: .cfa -48 + ^ $rbx: .cfa -56 + ^
STACK CFI 28378 .cfa: $rsp 128 +
STACK CFI 2837f $r12: .cfa -40 + ^ $r13: .cfa -32 + ^ $r14: .cfa -24 + ^ $r15: .cfa -16 + ^
STACK CFI INIT 287e0 1d4 .cfa: $rsp 8 + .ra: .cfa -8 + ^
STACK CFI 287f8 $rbp: .cfa -16 + ^ $rbx: .cfa -24 + ^ .cfa: $rsp 176 +
STACK CFI INIT 135de0 27 .cfa: $rsp 8 + .ra: .cfa -8 + ^
STACK CFI 135de4 .cfa: $rsp 16 +
STACK CFI INIT 135e10 1b .cfa: $rsp 8 + .ra: .cfa -8 + ^
STACK CFI 135e11 .cfa: $rsp 16 +
STACK CFI 135e14 $rbx: .cfa -16 + ^
STACK CFI INIT 289c0 1a .cfa: $rsp 8 + .ra: .cfa -8 + ^
STACK CFI INIT 289e0 89 .cfa: $rsp 8 + .ra: .cfa -8 + ^
STACK CFI 289e4 .cfa: $rsp 16 +
STACK CFI 289e7 $rbx: .cfa -16 + ^
STACK CFI INIT 28a70 1df .cfa: $rsp 8 + .ra: .cfa -8 + ^
STACK CFI 28a71 .cfa: $rsp 16 +
STACK CFI 28a80 .cfa: $rsp 24 +
STACK CFI 28a84 .cfa: $rsp 48 +
STACK CFI 28a8e $rbp: .cfa -16 + ^ $rbx: .cfa -24 + ^
STACK CFI INIT 28c50 b .cfa: $rsp 8 + .ra: .cfa -8 + ^
STACK CFI INIT 28c60 15 .cfa: $rsp 8 + .ra: .cfa -8 + ^
STACK CFI INIT 28c80 59 .cfa: $rsp 8 + .ra: .cfa -8 + ^
STACK CFI 28c8c $rbx: .cfa -32 + ^
STACK CFI 28c94 $rbp: .cfa -24 + ^
STACK CFI 28c9d .cfa: $rsp 32 +
STACK CFI 28ca8 $r12: .cfa -16 + ^
STACK CFI INIT 135e30 104 .cfa: $rsp 8 + .ra: .cfa -8 + ^
STACK CFI 135e32 .cfa: $rsp 16 +
STACK CFI 135e39 $r15: .cfa -16 + ^
STACK CFI 135e3b .cfa: $rsp 24 +
STACK CFI 135e3d .cfa: $rsp 32 +
STACK CFI 135e43 $r13: .cfa -32 + ^ $r14: .cfa -24 + ^
STACK CFI 135e45 .cfa: $rsp 40 +
STACK CFI 135e48 $r12: .cfa -40 + ^
STACK CFI 135e49 .cfa: $rsp 48 +
STACK CFI 135e4a .cfa: $rsp 56 +
STACK CFI 135e4e .cfa: $rsp 80 +
STACK CFI 135e62 $rbp: .cfa -48 + ^ $rbx: .cfa -56 + ^
STACK CFI INIT 28ce0 232 .cfa: $rsp 8 + .ra: .cfa -8 + ^
STACK CFI 28ce2 .cfa: $rsp 16 +
STACK CFI 28ceb $r15: .cfa -16 + ^
STACK CFI 28ced .cfa: $rsp 24 +
STACK CFI 28cf0 $r14: .cfa -24 + ^
STACK CFI 28cf2 .cfa: $rsp 32 +
STACK CFI 28cf4 .cfa: $rsp 40 +
STACK CFI 28cf7 $r12: .cfa -40 + ^ $r13: .cfa -32 + ^
STACK CFI 28cf8 .cfa: $rsp 48 +
STACK CFI 28cfd $rbp: .cfa -48 + ^
STACK CFI 28cfe .cfa: $rsp 56 +
STACK CFI 28d00 $rbx: .cfa -56 + ^
STACK CFI 28d04 .cfa: $rsp 96 +
STACK CFI INIT 28f20 6c1 .cfa: $rsp 8 + .ra: .cfa -8 + ^
STACK CFI 28f21 .cfa: $rsp 16 +
STACK CFI 28f24 $rbp: .cfa -16 + ^ .cfa: $rbp 16 +
STACK CFI 28f2b $r14: .cfa -32 + ^ $r15: .cfa -24 + ^
STACK CFI 28f32 $r12: .cfa -48 + ^ $r13: .cfa -40 + ^
STACK CFI 28f36 $rbx: .cfa -56 + ^
STACK CFI INIT 295f0 aa .cfa: $rsp 8 + .ra: .cfa -8 + ^
STACK CFI INIT 296a0 5a .cfa: $rsp 8 + .ra: .cfa -8 + ^
STACK CFI INIT 29700 4de .cfa: $rsp 8 + .ra: .cfa -8 + ^
STACK CFI 29701 .cfa: $rsp 16 +
STACK CFI 29704 $rbp: .cfa -16 + ^ .cfa: $rbp 16 +
STACK CFI 2970f $r12: .cfa -48 + ^ $rbx: .cfa -56 + ^
STACK CFI 2971a $r13: .cfa -40 + ^ $r14: .cfa -32 + ^
STACK CFI 29737 $r15: .cfa -24 + ^
STACK CFI INIT 29be0 57 .cfa: $rsp 8 + .ra: .cfa -8 + ^
STACK CFI 29be1 .cfa: $rsp 16 +
STACK CFI 29be8 $rbx: .cfa -16 + ^
STACK CFI INIT 29c40 38c .cfa: $rsp 8 + .ra: .cfa -8 + ^
STACK CFI 29c42 .cfa: $rsp 16 +
STACK CFI 29c45 $r13: .cfa -16 + ^
STACK CFI 29c47 .cfa: $rsp 24 +
STACK CFI 29c48 .cfa: $rsp 32 +
STACK CFI 29c4b $r12: .cfa -24 + ^ $rbp: .cfa -32 + ^
STACK CFI 29c4c .cfa: $rsp 40 +
STACK CFI 29c4e $rbx: .cfa -40 + ^
STACK CFI 29c52 .cfa: $rsp 48 +
STACK CFI INIT 29fd0 2ac .cfa: $rsp 8 + .ra: .cfa -8 + ^
STACK CFI 29fd1 .cfa: $rsp 16 +
STACK CFI 29fd6 $rbp: .cfa -16 + ^ .cfa: $rbp 16 +
STACK CFI 29fe1 $r12: .cfa -48 + ^ $rbx: .cfa -56 + ^
STACK CFI 29fec $r13: .cfa -40 + ^ $r15: .cfa -24 + ^
STACK CFI 2a00b $r14: .cfa -32 + ^
STACK CFI INIT 135f40 107 .cfa: $rsp 8 + .ra: .cfa -8 + ^
STACK CFI 135f42 .cfa: $rsp 16 +
STACK CFI 135f44 .cfa: $rsp 24 +
STACK CFI 135f4b $r13: .cfa -24 + ^ $r14: .cfa -16 + ^
STACK CFI 135f4d .cfa: $rsp 32 +
STACK CFI 135f51 .cfa: $rsp 40 +
STACK CFI 135f52 .cfa: $rsp 48 +
STACK CFI 135f54 $r12: .cfa -32 + ^ $rbp: .cfa -40 + ^ $rbx: .cfa -48 + ^
STACK CFI INIT 2a280 548 .cfa: $rsp 8 + .ra: .cfa -8 + ^
STACK CFI 2a281 .cfa: $rsp 16 +
STACK CFI 2a284 $rbp: .cfa -16 + ^ .cfa: $rbp 16 +
STACK CFI 2a2a9 $r12: .cfa -48 + ^ $r13: .cfa -40 + ^ $r14: .cfa -32 + ^ $r15: .cfa -24 + ^ $rbx: .cfa -56 + ^
STACK CFI INIT 2a7d0 1be .cfa: $rsp 8 + .ra: .cfa -8 + ^
STACK CFI INIT 2a990 10 .cfa: $rsp 8 + .ra: .cfa -8 + ^
STACK CFI INIT 2a9a0 5b .cfa: $rsp 8 + .ra: .cfa -8 + ^
STACK CFI INIT 2aa00 6ad .cfa: $rsp 8 + .ra: .cfa -8 + ^
STACK CFI 2aa01 .cfa: $rsp 16 +
STACK CFI 2aa04 $rbp: .cfa -16 + ^ .cfa: $rbp 16 +
STACK CFI 2aa10 $r12: .cfa -48 + ^ $r13: .cfa -40 + ^ $r14: .cfa -32 + ^ $r15: .cfa -24 + ^ $rbx: .cfa -56 + ^
STACK CFI INIT 2b0b0 192 .cfa: $rsp 8 + .ra: .cfa -8 + ^
STACK CFI 2b0b2 .cfa: $rsp 16 +
STACK CFI 2b0bb .cfa: $rsp 24 +
STACK CFI 2b0c0 .cfa: $rsp 32 +
STACK CFI 2b0c1 .cfa: $rsp 40 +
STACK CFI 2b0c4 $r12: .cfa -32 + ^ $r13: .cfa -24 + ^ $r14: .cfa -16 + ^ $rbp: .cfa -40 + ^
STACK CFI 2b0c5 .cfa: $rsp 48 +
STACK CFI 2b0cb $rbx: .cfa -48 + ^
STACK CFI INIT 2b250 be .cfa: $rsp 8 + .ra: .cfa -8 + ^
STACK CFI 2b252 .cfa: $rsp 16 +
STACK CFI 2b25a .cfa: $rsp 24 +
STACK CFI 2b25e .cfa: $rsp 32 +
STACK CFI 2b261 $r12: .cfa -16 + ^ $rbp: .cfa -24 + ^ $rbx: .cfa -32 + ^
STACK CFI INIT 2b310 5f .cfa: $rsp 8 + .ra: .cfa -8 + ^
STACK CFI INIT 2b370 43 .cfa: $rsp 8 + .ra: .cfa -8 + ^
STACK CFI INIT 2b3c0 46 .cfa: $rsp 8 + .ra: .cfa -8 + ^
STACK CFI INIT 2b410 f6 .cfa: $rsp 8 + .ra: .cfa -8 + ^
STACK CFI INIT 2b510 17 .cfa: $rsp 8 + .ra: .cfa -8 + ^
STACK CFI INIT 2b530 14f .cfa: $rsp 8 + .ra: .cfa -8 + ^
STACK CFI 2b53d $r12: .cfa -40 + ^ $r13: .cfa -32 + ^
STACK CFI 2b558 .cfa: $rsp 128 +
STACK CFI 2b561 $r14: .cfa -24 + ^ $r15: .cfa -16 + ^ $rbp: .cfa -48 + ^ $rbx: .cfa -56 + ^
STACK CFI INIT 2b680 15f .cfa: $rsp 8 + .ra: .cfa -8 + ^
STACK CFI 2b68c $r12: .cfa -40 + ^ $rbx: .cfa -56 + ^
STACK CFI 2b699 $r15: .cfa -16 + ^ $rbp: .cfa -48 + ^
STACK CFI 2b6aa .cfa: $rsp 1152 +
STACK CFI 2b6c0 $r13: .cfa -32 + ^ $r14: .cfa -24 + ^
STACK CFI INIT 2b7e0 b .cfa: $rsp 8 + .ra: .cfa -8 + ^
STACK CFI 2b7e4 .cfa: $rsp 16 +
STACK CFI INIT 2b7f0 30 .cfa: $rsp 8 + .ra: .cfa -8 + ^
STACK CFI INIT 2b820 30 .cfa: $rsp 8 + .ra: .cfa -8 + ^
STACK CFI INIT 2b850 3b .cfa: $rsp 8 + .ra: .cfa -8 + ^
STACK CFI INIT 2b890 3b .cfa: $rsp 8 + .ra: .cfa -8 + ^
STACK CFI INIT 2b8d0 3b .cfa: $rsp 8 + .ra: .cfa -8 + ^
STACK CFI INIT 2b910 39 .cfa: $rsp 8 + .ra: .cfa -8 + ^
STACK CFI INIT 2b950 3b .cfa: $rsp 8 + .ra: .cfa -8 + ^
STACK CFI INIT 2b990 3b .cfa: $rsp 8 + .ra: .cfa -8 + ^
STACK CFI INIT 2b9d0 3b .cfa: $rsp 8 + .ra: .cfa -8 + ^
STACK CFI INIT 2ba10 3b .cfa: $rsp 8 + .ra: .cfa -8 + ^
STACK CFI INIT 2ba50 39 .cfa: $rsp 8 + .ra: .cfa -8 + ^
STACK CFI INIT 2ba90 3b .cfa: $rsp 8 + .ra: .cfa -8 + ^
STACK CFI INIT 2bad0 39 .cfa: $rsp 8 + .ra: .cfa -8 + ^
STACK CFI INIT 2bb10 1d .cfa: $rsp 8 + .ra: .cfa -8 + ^
STACK CFI INIT 2bb30 1d .cfa: $rsp 8 + .ra: .cfa -8 + ^
STACK CFI INIT 2bb50 6 .cfa: $rsp 8 + .ra: .cfa -8 + ^
STACK CFI INIT 2bb60 c .cfa: $rsp 8 + .ra: .cfa -8 + ^
STACK CFI INIT 2bb70 f .cfa: $rsp 8 + .ra: .cfa -8 + ^
STACK CFI INIT 2bb80 39 .cfa: $rsp 8 + .ra: .cfa -8 + ^
STACK CFI INIT 2bbc0 f .cfa: $rsp 8 + .ra: .cfa -8 + ^
STACK CFI INIT 2bbd0 11 .cfa: $rsp 8 + .ra: .cfa -8 + ^
STACK CFI INIT 2bbf0 f .cfa: $rsp 8 + .ra: .cfa -8 + ^
STACK CFI INIT 2bc00 11 .cfa: $rsp 8 + .ra: .cfa -8 + ^
STACK CFI INIT 2bc20 11 .cfa: $rsp 8 + .ra: .cfa -8 + ^
STACK CFI INIT 2bc40 11 .cfa: $rsp 8 + .ra: .cfa -8 + ^
STACK CFI INIT 2bc60 11 .cfa: $rsp 8 + .ra: .cfa -8 + ^
STACK CFI INIT 2bc80 f .cfa: $rsp 8 + .ra: .cfa -8 + ^
STACK CFI INIT 2bc90 11 .cfa: $rsp 8 + .ra: .cfa -8 + ^
STACK CFI INIT 2bcb0 11 .cfa: $rsp 8 + .ra: .cfa -8 + ^
STACK CFI INIT 2bcd0 11 .cfa: $rsp 8 + .ra: .cfa -8 + ^
STACK CFI INIT 2bcf0 b .cfa: $rsp 8 + .ra: .cfa -8 + ^
STACK CFI INIT 2bd00 b .cfa: $rsp 8 + .ra: .cfa -8 + ^
STACK CFI INIT 2bd10 20 .cfa: $rsp 8 + .ra: .cfa -8 + ^
STACK CFI INIT 2bd30 37 .cfa: $rsp 8 + .ra: .cfa -8 + ^
STACK CFI INIT 2bd70 37 .cfa: $rsp 8 + .ra: .cfa -8 + ^
STACK CFI INIT 2bdb0 37 .cfa: $rsp 8 + .ra: .cfa -8 + ^
STACK CFI INIT 2bdf0 3f6 .cfa: $rsp 8 + .ra: .cfa -8 + ^
STACK CFI 2bdfd $rbp: .cfa -48 + ^ $rbx: .cfa -56 + ^
STACK CFI 2be18 .cfa: $rsp 80 +
STACK CFI 2be1e $r12: .cfa -40 + ^ $r13: .cfa -32 + ^ $r14: .cfa -24 + ^ $r15: .cfa -16 + ^
STACK CFI INIT 2c1f0 1f .cfa: $rsp 8 + .ra: .cfa -8 + ^
STACK CFI 2c1f4 .cfa: $rsp 32 +
STACK CFI INIT 2c210 1f .cfa: $rsp 8 + .ra: .cfa -8 + ^
STACK CFI 2c214 .cfa: $rsp 32 +
STACK CFI INIT 2c230 f .cfa: $rsp 8 + .ra: .cfa -8 + ^
STACK CFI INIT 2c240 a .cfa: $rsp 8 + .ra: .cfa -8 + ^
STACK CFI INIT 2c250 f .cfa: $rsp 8 + .ra: .cfa -8 + ^
STACK CFI INIT 2da9e 1f .cfa: $rsp -128 + .ra: $rip
STACK CFI 2daac .cfa: $rsp 0 +
STACK CFI 2dab0 .cfa: $rsp 128 +
STACK CFI 2dab8 .cfa: $rsp -128 +
STACK CFI INIT 2dabd 1f .cfa: $rsp -128 + .ra: $rip
STACK CFI 2dacb .cfa: $rsp 0 +
STACK CFI 2dacf .cfa: $rsp 128 +
STACK CFI 2dad7 .cfa: $rsp -128 +
STACK CFI INIT 2dadc 1f .cfa: $rsp -128 + .ra: $rip
STACK CFI 2daea .cfa: $rsp 0 +
STACK CFI 2daee .cfa: $rsp 128 +
STACK CFI 2daf6 .cfa: $rsp -128 +
STACK CFI INIT 2dafb 1f .cfa: $rsp -128 + .ra: $rip
STACK CFI 2db09 .cfa: $rsp 0 +
STACK CFI 2db0d .cfa: $rsp 128 +
STACK CFI 2db15 .cfa: $rsp -128 +
STACK CFI INIT 2db1a 1f .cfa: $rsp -128 + .ra: $rip
STACK CFI 2db28 .cfa: $rsp 0 +
STACK CFI 2db2c .cfa: $rsp 128 +
STACK CFI 2db34 .cfa: $rsp -128 +
STACK CFI INIT 2db39 1f .cfa: $rsp -128 + .ra: $rip
STACK CFI 2db47 .cfa: $rsp 0 +
STACK CFI 2db4b .cfa: $rsp 128 +
STACK CFI 2db53 .cfa: $rsp -128 +
STACK CFI INIT 2c260 1df .cfa: $rsp 8 + .ra: .cfa -8 + ^
STACK CFI 2c268 $rbp: .cfa -24 + ^
STACK CFI 2c276 .cfa: $rsp 32 +
STACK CFI 2c27c $r12: .cfa -16 + ^ $rbx: .cfa -32 + ^
STACK CFI INIT 136050 b8 .cfa: $rsp 8 + .ra: .cfa -8 + ^
STACK CFI 136052 .cfa: $rsp 16 +
STACK CFI 136053 .cfa: $rsp 24 +
STACK CFI 13605a $r12: .cfa -16 + ^ $rbp: .cfa -24 + ^
STACK CFI 13605b .cfa: $rsp 32 +
STACK CFI 13605f $rbx: .cfa -32 + ^
STACK CFI INIT 2c440 76 .cfa: $rsp 8 + .ra: .cfa -8 + ^
STACK CFI 2c441 .cfa: $rsp 16 +
STACK CFI 2c444 $rbp: .cfa -16 + ^
STACK CFI 2c445 .cfa: $rsp 24 +
STACK CFI 2c448 $rbx: .cfa -24 + ^
STACK CFI 2c450 .cfa: $rsp 32 +
STACK CFI INIT 2c4c0 c39 .cfa: $rsp 8 + .ra: .cfa -8 + ^
STACK CFI 2c4c1 .cfa: $rsp 16 +
STACK CFI 2c4c4 $rbp: .cfa -16 + ^ .cfa: $rbp 16 +
STACK CFI 2c4fd $r12: .cfa -48 + ^ $r13: .cfa -40 + ^ $r14: .cfa -32 + ^ $r15: .cfa -24 + ^ $rbx: .cfa -56 + ^
STACK CFI INIT 2d100 75 .cfa: $rsp 8 + .ra: .cfa -8 + ^
STACK CFI 2d102 .cfa: $rsp 16 +
STACK CFI 2d104 .cfa: $rsp 24 +
STACK CFI 2d107 $r12: .cfa -24 + ^ $r13: .cfa -16 + ^
STACK CFI 2d108 .cfa: $rsp 32 +
STACK CFI 2d109 .cfa: $rsp 40 +
STACK CFI 2d10c $rbp: .cfa -32 + ^ $rbx: .cfa -40 + ^
STACK CFI 2d114 .cfa: $rsp 48 +
STACK CFI INIT 2d180 91e .cfa: $rsp 8 + .ra: .cfa -8 + ^
STACK CFI 2d181 .cfa: $rsp 16 +
STACK CFI 2d184 $rbp: .cfa -16 + ^ .cfa: $rbp 16 +
STACK CFI 2d1c6 $r12: .cfa -48 + ^ $r13: .cfa -40 + ^ $r14: .cfa -32 + ^ $r15: .cfa -24 + ^ $rbx: .cfa -56 + ^
STACK CFI INIT 2db60 10 .cfa: $rsp 8 + .ra: .cfa -8 + ^
STACK CFI INIT 2db70 b .cfa: $rsp 8 + .ra: .cfa -8 + ^
STACK CFI INIT 2db80 16 .cfa: $rsp 8 + .ra: .cfa -8 + ^
STACK CFI INIT 136110 49 .cfa: $rsp 8 + .ra: .cfa -8 + ^
STACK CFI 136111 .cfa: $rsp 16 +
STACK CFI 136112 .cfa: $rsp 24 +
STACK CFI 136116 .cfa: $rsp 32 +
STACK CFI 13611d $rbp: .cfa -16 + ^ $rbx: .cfa -24 + ^
STACK CFI INIT 2dba0 315 .cfa: $rsp 8 + .ra: .cfa -8 + ^
STACK CFI 2dba1 .cfa: $rsp 16 +
STACK CFI 2dba4 $rbp: .cfa -16 + ^ .cfa: $rbp 16 +
STACK CFI 2dbaf $r12: .cfa -48 + ^ $r13: .cfa -40 + ^
STACK CFI 2dbba $r14: .cfa -32 + ^ $r15: .cfa -24 + ^
STACK CFI 2dbdb $rbx: .cfa -56 + ^
STACK CFI INIT 2ef65 1f .cfa: $rsp -128 + .ra: $rip
STACK CFI 2ef73 .cfa: $rsp 0 +
STACK CFI 2ef77 .cfa: $rsp 128 +
STACK CFI 2ef7f .cfa: $rsp -128 +
STACK CFI INIT 2ef84 1f .cfa: $rsp -128 + .ra: $rip
STACK CFI 2ef92 .cfa: $rsp 0 +
STACK CFI 2ef96 .cfa: $rsp 128 +
STACK CFI 2ef9e .cfa: $rsp -128 +
STACK CFI INIT 136160 c6 .cfa: $rsp 8 + .ra: .cfa -8 + ^
STACK CFI 136162 .cfa: $rsp 16 +
STACK CFI 13616b .cfa: $rsp 24 +
STACK CFI 13616c .cfa: $rsp 32 +
STACK CFI 13616d .cfa: $rsp 40 +
STACK CFI 136170 $r12: .cfa -24 + ^ $r13: .cfa -16 + ^ $rbp: .cfa -32 + ^ $rbx: .cfa -40 + ^
STACK CFI 136174 .cfa: $rsp 48 +
STACK CFI INIT 2dec0 10a5 .cfa: $rsp 8 + .ra: .cfa -8 + ^
STACK CFI 2dec1 .cfa: $rsp 16 +
STACK CFI 2decd $rbp: .cfa -16 + ^ .cfa: $rbp 16 +
STACK CFI 2ded8 $r14: .cfa -32 + ^ $rbx: .cfa -56 + ^
STACK CFI 2def7 $r12: .cfa -48 + ^ $r13: .cfa -40 + ^ $r15: .cfa -24 + ^
STACK CFI INIT 2f59b 1f .cfa: $rsp -128 + .ra: $rip
STACK CFI 2f5a9 .cfa: $rsp 0 +
STACK CFI 2f5ad .cfa: $rsp 128 +
STACK CFI 2f5b5 .cfa: $rsp -128 +
STACK CFI INIT 2f5ba 1f .cfa: $rsp -128 + .ra: $rip
STACK CFI 2f5c8 .cfa: $rsp 0 +
STACK CFI 2f5cc .cfa: $rsp 128 +
STACK CFI 2f5d4 .cfa: $rsp -128 +
STACK CFI INIT 2efb0 49a .cfa: $rsp 8 + .ra: .cfa -8 + ^
STACK CFI 2efb1 .cfa: $rsp 16 +
STACK CFI 2efbe $rbp: .cfa -16 + ^ .cfa: $rbp 16 +
STACK CFI 2efda $r12: .cfa -48 + ^ $r13: .cfa -40 + ^ $r14: .cfa -32 + ^ $r15: .cfa -24 + ^ $rbx: .cfa -56 + ^
STACK CFI INIT 2f450 136 .cfa: $rsp 8 + .ra: .cfa -8 + ^
STACK CFI 2f451 .cfa: $rsp 16 +
STACK CFI 2f459 .cfa: $rsp 24 +
STACK CFI 2f45c $rbp: .cfa -16 + ^ $rbx: .cfa -24 + ^
STACK CFI 2f460 .cfa: $rsp 48 +
STACK CFI INIT 2f590 b .cfa: $rsp 8 + .ra: .cfa -8 + ^
STACK CFI INIT 2f5e0 131 .cfa: $rsp 8 + .ra: .cfa -8 + ^
STACK CFI 2f5e1 .cfa: $rsp 16 +
STACK CFI 2f5e2 .cfa: $rsp 24 +
STACK CFI 2f5e5 $rbp: .cfa -16 + ^ $rbx: .cfa -24 + ^
STACK CFI 2f5e9 .cfa: $rsp 32 +
STACK CFI INIT 2f720 1b5 .cfa: $rsp 8 + .ra: .cfa -8 + ^
STACK CFI 2f722 .cfa: $rsp 16 +
STACK CFI 2f72b $r12: .cfa -16 + ^
STACK CFI 2f72c .cfa: $rsp 24 +
STACK CFI 2f72f $rbp: .cfa -24 + ^
STACK CFI 2f730 .cfa: $rsp 32 +
STACK CFI 2f733 $rbx: .cfa -32 + ^
STACK CFI INIT 2f8e0 4bd .cfa: $rsp 8 + .ra: .cfa -8 + ^
STACK CFI 2f8e2 .cfa: $rsp 16 +
STACK CFI 2f8e4 .cfa: $rsp 24 +
STACK CFI 2f8e6 .cfa: $rsp 32 +
STACK CFI 2f8e9 $r13: .cfa -32 + ^ $r14: .cfa -24 + ^ $r15: .cfa -16 + ^
STACK CFI 2f8eb .cfa: $rsp 40 +
STACK CFI 2f8ec .cfa: $rsp 48 +
STACK CFI 2f8ed .cfa: $rsp 56 +
STACK CFI 2f8f4 .cfa: $rsp 192 +
STACK CFI 2f910 $r12: .cfa -40 + ^ $rbp: .cfa -48 + ^ $rbx: .cfa -56 + ^
STACK CFI INIT 2fda0 265 .cfa: $rsp 8 + .ra: .cfa -8 + ^
STACK CFI 2fda2 .cfa: $rsp 16 +
STACK CFI 2fda3 .cfa: $rsp 24 +
STACK CFI 2fda4 .cfa: $rsp 32 +
STACK CFI 2fda8 .cfa: $rsp 64 +
STACK CFI 2fdd2 $r12: .cfa -16 + ^ $rbp: .cfa -24 + ^ $rbx: .cfa -32 + ^
STACK CFI INIT 30010 52 .cfa: $rsp 8 + .ra: .cfa -8 + ^
STACK CFI 30014 .cfa: $rsp 16 +
STACK CFI 30017 $rbx: .cfa -16 + ^
STACK CFI INIT 30070 c7 .cfa: $rsp 8 + .ra: .cfa -8 + ^
STACK CFI 30072 .cfa: $rsp 16 +
STACK CFI 30075 $r13: .cfa -16 + ^
STACK CFI 30077 .cfa: $rsp 24 +
STACK CFI 3007a $r12: .cfa -24 + ^
STACK CFI 3007b .cfa: $rsp 32 +
STACK CFI 3007d $rbp: .cfa -32 + ^
STACK CFI 3007e .cfa: $rsp 40 +
STACK CFI 30080 $rbx: .cfa -40 + ^
STACK CFI 30084 .cfa: $rsp 48 +
STACK CFI INIT 30140 86f .cfa: $rsp 8 + .ra: .cfa -8 + ^
STACK CFI 30142 .cfa: $rsp 16 +
STACK CFI 30151 .cfa: $rsp 24 +
STACK CFI 30157 $r14: .cfa -24 + ^ $r15: .cfa -16 + ^
STACK CFI 30159 .cfa: $rsp 32 +
STACK CFI 30160 $r13: .cfa -32 + ^
STACK CFI 30162 .cfa: $rsp 40 +
STACK CFI 30163 .cfa: $rsp 48 +
STACK CFI 30164 .cfa: $rsp 56 +
STACK CFI 3016b .cfa: $rsp 2192 +
STACK CFI 30178 $r12: .cfa -40 + ^ $rbp: .cfa -48 + ^ $rbx: .cfa -56 + ^
STACK CFI INIT 309b0 107 .cfa: $rsp 8 + .ra: .cfa -8 + ^
STACK CFI 309b2 .cfa: $rsp 16 +
STACK CFI 309b4 .cfa: $rsp 24 +
STACK CFI 309b7 $r12: .cfa -24 + ^ $r13: .cfa -16 + ^
STACK CFI 309b8 .cfa: $rsp 32 +
STACK CFI 309bb $rbp: .cfa -32 + ^
STACK CFI 309bc .cfa: $rsp 40 +
STACK CFI 309bf $rbx: .cfa -40 + ^
STACK CFI 309c3 .cfa: $rsp 80 +
STACK CFI INIT 30ac0 34 .cfa: $rsp 8 + .ra: .cfa -8 + ^
STACK CFI INIT 30b00 94 .cfa: $rsp 8 + .ra: .cfa -8 + ^
STACK CFI 30b01 .cfa: $rsp 16 +
STACK CFI 30b09 .cfa: $rsp 24 +
STACK CFI 30b0b $rbp: .cfa -16 + ^ $rbx: .cfa -24 + ^
STACK CFI INIT 30ba0 67 .cfa: $rsp 8 + .ra: .cfa -8 + ^
STACK CFI 30ba5 .cfa: $rsp 16 +
STACK CFI 30ba8 $rbx: .cfa -16 + ^
STACK CFI INIT 30c10 235 .cfa: $rsp 8 + .ra: .cfa -8 + ^
STACK CFI 30c11 .cfa: $rsp 16 +
STACK CFI 30c14 $rbp: .cfa -16 + ^ .cfa: $rbp 16 +
STACK CFI 30c1e $r12: .cfa -40 + ^ $rbx: .cfa -48 + ^
STACK CFI 30c35 $r13: .cfa -32 + ^ $r14: .cfa -24 + ^
STACK CFI INIT 30e50 8b9 .cfa: $rsp 8 + .ra: .cfa -8 + ^
STACK CFI 30e51 .cfa: $rsp 16 +
STACK CFI 30e54 $rbp: .cfa -16 + ^ .cfa: $rbp 16 +
STACK CFI 30e60 $r12: .cfa -48 + ^ $r13: .cfa -40 + ^ $r14: .cfa -32 + ^ $r15: .cfa -24 + ^ $rbx: .cfa -56 + ^
STACK CFI INIT 31710 35 .cfa: $rsp 8 + .ra: .cfa -8 + ^
STACK CFI INIT 31750 24 .cfa: $rsp 8 + .ra: .cfa -8 + ^
STACK CFI INIT 31780 1d .cfa: $rsp 8 + .ra: .cfa -8 + ^
STACK CFI INIT 317a0 15 .cfa: $rsp 8 + .ra: .cfa -8 + ^
STACK CFI INIT 317c0 ea .cfa: $rsp 8 + .ra: .cfa -8 + ^
STACK CFI INIT 318b0 10a .cfa: $rsp 8 + .ra: .cfa -8 + ^
STACK CFI INIT 319c0 a2 .cfa: $rsp 8 + .ra: .cfa -8 + ^
STACK CFI INIT 31a70 86 .cfa: $rsp 8 + .ra: .cfa -8 + ^
STACK CFI 31a71 .cfa: $rsp 16 +
STACK CFI 31a77 $rbx: .cfa -16 + ^
STACK CFI 31a7b .cfa: $rsp 48 +
STACK CFI INIT 31b00 a .cfa: $rsp 8 + .ra: .cfa -8 + ^
STACK CFI INIT 31b10 23 .cfa: $rsp 8 + .ra: .cfa -8 + ^
STACK CFI INIT 31b40 15 .cfa: $rsp 8 + .ra: .cfa -8 + ^
STACK CFI INIT 31b60 12 .cfa: $rsp 8 + .ra: .cfa -8 + ^
STACK CFI INIT 31b80 12 .cfa: $rsp 8 + .ra: .cfa -8 + ^
STACK CFI INIT 31ba0 86 .cfa: $rsp 8 + .ra: .cfa -8 + ^
STACK CFI INIT 31c30 d7 .cfa: $rsp 8 + .ra: .cfa -8 + ^
STACK CFI INIT 31d10 66 .cfa: $rsp 8 + .ra: .cfa -8 + ^
STACK CFI INIT 31d80 82 .cfa: $rsp 8 + .ra: .cfa -8 + ^
STACK CFI 31d81 .cfa: $rsp 16 +
STACK CFI 31d86 $rbx: .cfa -16 + ^
STACK CFI 31d8a .cfa: $rsp 48 +
STACK CFI INIT 31e10 8 .cfa: $rsp 8 + .ra: .cfa -8 + ^
STACK CFI INIT 31e20 4e .cfa: $rsp 8 + .ra: .cfa -8 + ^
STACK CFI INIT 31e70 3f .cfa: $rsp 8 + .ra: .cfa -8 + ^
STACK CFI INIT 31eb0 f .cfa: $rsp 8 + .ra: .cfa -8 + ^
STACK CFI INIT 31ec0 1e .cfa: $rsp 8 + .ra: .cfa -8 + ^
STACK CFI INIT 31ee0 173 .cfa: $rsp 8 + .ra: .cfa -8 + ^
STACK CFI INIT 32060 11 .cfa: $rsp 8 + .ra: .cfa -8 + ^
STACK CFI INIT 32080 92 .cfa: $rsp 8 + .ra: .cfa -8 + ^
STACK CFI INIT 32120 86 .cfa: $rsp 8 + .ra: .cfa -8 + ^
STACK CFI 32121 .cfa: $rsp 16 +
STACK CFI 32123 $rbx: .cfa -16 + ^
STACK CFI 32127 .cfa: $rsp 64 +
STACK CFI INIT 321b0 1d .cfa: $rsp 8 + .ra: .cfa -8 + ^
STACK CFI INIT 321d0 1e .cfa: $rsp 8 + .ra: .cfa -8 + ^
STACK CFI INIT 321f0 57 .cfa: $rsp 8 + .ra: .cfa -8 + ^
STACK CFI INIT 32250 35 .cfa: $rsp 8 + .ra: .cfa -8 + ^
STACK CFI 32253 .cfa: $rsp 16 +
STACK CFI 32256 $rbx: .cfa -16 + ^
STACK CFI INIT 32290 a .cfa: $rsp 8 + .ra: .cfa -8 + ^
STACK CFI INIT 322a0 7 .cfa: $rsp 8 + .ra: .cfa -8 + ^
STACK CFI INIT 322b0 4a .cfa: $rsp 8 + .ra: .cfa -8 + ^
STACK CFI 322be .cfa: $rsp 32 +
STACK CFI 322c1 $rbp: .cfa -16 + ^ $rbx: .cfa -24 + ^
STACK CFI INIT 32300 50 .cfa: $rsp 8 + .ra: .cfa -8 + ^
STACK CFI 32333 $r12: .cfa 16 + ^ $r13: .cfa 24 + ^ $r14: .cfa 32 + ^ $r15: .cfa 40 + ^ $rbp: $r9 $rbx: .cfa 0 + ^ $rsp: $r8 .cfa: $rdi 0 + .ra: $rdx
STACK CFI INIT 32350 29 .cfa: $rsp 8 + .ra: .cfa -8 + ^
STACK CFI INIT 32380 b5 .cfa: $rsp 8 + .ra: .cfa -8 + ^
STACK CFI 32387 .cfa: $rsp 336 +
STACK CFI INIT 32440 66 .cfa: $rsp 8 + .ra: .cfa -8 + ^
STACK CFI INIT 324b0 24 .cfa: $rsp 8 + .ra: .cfa -8 + ^
STACK CFI INIT 324ef a .ra: $rip
STACK CFI INIT 32500 1f6 .cfa: $rsp 8 + .ra: .cfa -8 + ^
STACK CFI 32507 .cfa: $rsp 216 +
STACK CFI INIT 32700 1f .cfa: $rsp 8 + .ra: .cfa -8 + ^
STACK CFI INIT 32720 2a .cfa: $rsp 8 + .ra: .cfa -8 + ^
STACK CFI INIT 32750 25 .cfa: $rsp 8 + .ra: .cfa -8 + ^
STACK CFI INIT 32780 26 .cfa: $rsp 8 + .ra: .cfa -8 + ^
STACK CFI INIT 327b0 26 .cfa: $rsp 8 + .ra: .cfa -8 + ^
STACK CFI INIT 327e0 83 .cfa: $rsp 8 + .ra: .cfa -8 + ^
STACK CFI 327e4 .cfa: $rsp 32 +
STACK CFI INIT 32870 80 .cfa: $rsp 8 + .ra: .cfa -8 + ^
STACK CFI 32871 .cfa: $rsp 16 +
STACK CFI 32877 $rbx: .cfa -16 + ^
STACK CFI 3287b .cfa: $rsp 24 +
STACK CFI INIT 328f0 4a .cfa: $rsp 8 + .ra: .cfa -8 + ^
STACK CFI 328f1 .cfa: $rsp 16 +
STACK CFI 328f5 .cfa: $rsp 32 +
STACK CFI 328fb $rbx: .cfa -16 + ^
STACK CFI INIT 32940 57 .cfa: $rsp 8 + .ra: .cfa -8 + ^
STACK CFI 32947 .cfa: $rsp 272 +
STACK CFI INIT 329a0 5a .cfa: $rsp 8 + .ra: .cfa -8 + ^
STACK CFI 329a7 .cfa: $rsp 272 +
STACK CFI INIT 32a00 72 .cfa: $rsp 8 + .ra: .cfa -8 + ^
STACK CFI 32a01 .cfa: $rsp 16 +
STACK CFI 32a03 $rbp: .cfa -16 + ^
STACK CFI 32a04 .cfa: $rsp 24 +
STACK CFI 32a0b .cfa: $rsp 160 +
STACK CFI 32a0f $rbx: .cfa -24 + ^
STACK CFI INIT 32a80 46 .cfa: $rsp 8 + .ra: .cfa -8 + ^
STACK CFI 32a81 .cfa: $rsp 16 +
STACK CFI 32a85 .cfa: $rsp 32 +
STACK CFI 32a8b $rbx: .cfa -16 + ^
STACK CFI INIT 32ad0 a .cfa: $rsp 8 + .ra: .cfa -8 + ^
STACK CFI INIT 32ae0 7 .cfa: $rsp 8 + .ra: .cfa -8 + ^
STACK CFI INIT 32af0 eb .cfa: $rsp 8 + .ra: .cfa -8 + ^
STACK CFI 32af1 .cfa: $rsp 16 +
STACK CFI 32af6 $rbx: .cfa -16 + ^
STACK CFI 32afd .cfa: $rsp 336 +
STACK CFI INIT 32be0 5f .cfa: $rsp 8 + .ra: .cfa -8 + ^
STACK CFI 32be1 .cfa: $rsp 16 +
STACK CFI 32be4 $rbx: .cfa -16 + ^
STACK CFI 32bea .cfa: $rsp 80 +
STACK CFI INIT 32c40 25 .cfa: $rsp 8 + .ra: .cfa -8 + ^
STACK CFI INIT 32c70 cf .cfa: $rsp 8 + .ra: .cfa -8 + ^
STACK CFI 32c7d $r12: .cfa -16 + ^ $rbx: .cfa -32 + ^
STACK CFI 32c89 .cfa: $rsp 192 +
STACK CFI 32c90 $rbp: .cfa -24 + ^
STACK CFI INIT 32d40 20 .cfa: $rsp 8 + .ra: .cfa -8 + ^
STACK CFI INIT 32d60 1c .cfa: $rsp 8 + .ra: .cfa -8 + ^
STACK CFI INIT 32d80 1e .cfa: $rsp 8 + .ra: .cfa -8 + ^
STACK CFI INIT 32da0 24 .cfa: $rsp 8 + .ra: .cfa -8 + ^
STACK CFI INIT 32dd0 ac .cfa: $rsp 8 + .ra: .cfa -8 + ^
STACK CFI INIT 32e80 3c .cfa: $rsp 8 + .ra: .cfa -8 + ^
STACK CFI INIT 32ec0 3c .cfa: $rsp 8 + .ra: .cfa -8 + ^
STACK CFI INIT 32f00 44 .cfa: $rsp 8 + .ra: .cfa -8 + ^
STACK CFI INIT 32f50 14 .cfa: $rsp 8 + .ra: .cfa -8 + ^
STACK CFI INIT 32f70 7 .cfa: $rsp 8 + .ra: .cfa -8 + ^
STACK CFI INIT 32f80 8f .cfa: $rsp 8 + .ra: .cfa -8 + ^
STACK CFI 32f87 .cfa: $rsp 336 +
STACK CFI INIT 33010 45 .cfa: $rsp 8 + .ra: .cfa -8 + ^
STACK CFI INIT 33060 48 .cfa: $rsp 8 + .ra: .cfa -8 + ^
STACK CFI INIT 330b0 48 .cfa: $rsp 8 + .ra: .cfa -8 + ^
STACK CFI INIT 33100 7 .cfa: $rsp 8 + .ra: .cfa -8 + ^
STACK CFI INIT 33110 7 .cfa: $rsp 8 + .ra: .cfa -8 + ^
STACK CFI INIT 33120 46 .cfa: $rsp 8 + .ra: .cfa -8 + ^
STACK CFI INIT 33170 90 .cfa: $rsp 8 + .ra: .cfa -8 + ^
STACK CFI 33174 .cfa: $rsp 24 +
STACK CFI INIT 33200 58 .cfa: $rsp 8 + .ra: .cfa -8 + ^
STACK CFI 33201 .cfa: $rsp 16 +
STACK CFI 33205 .cfa: $rsp 48 +
STACK CFI 3320f $rbx: .cfa -16 + ^
STACK CFI INIT 33260 90 .cfa: $rsp 8 + .ra: .cfa -8 + ^
STACK CFI 33264 .cfa: $rsp 24 +
STACK CFI INIT 332f0 4a .cfa: $rsp 8 + .ra: .cfa -8 + ^
STACK CFI 332f1 .cfa: $rsp 16 +
STACK CFI 332f5 .cfa: $rsp 32 +
STACK CFI 332fb $rbx: .cfa -16 + ^
STACK CFI INIT 33340 a2 .cfa: $rsp 8 + .ra: .cfa -8 + ^
STACK CFI 3334c $rbp: .cfa -32 + ^ $rbx: .cfa -40 + ^
STACK CFI 3335d .cfa: $rsp 176 +
STACK CFI 3336d $r12: .cfa -24 + ^ $r13: .cfa -16 + ^
STACK CFI INIT 333f0 67 .cfa: $rsp 8 + .ra: .cfa -8 + ^
STACK CFI 33401 .cfa: $rsp 160 +
STACK CFI 33405 $rbp: .cfa -16 + ^ $rbx: .cfa -24 + ^
STACK CFI INIT 33460 67 .cfa: $rsp 8 + .ra: .cfa -8 + ^
STACK CFI 33471 .cfa: $rsp 160 +
STACK CFI 33475 $rbp: .cfa -16 + ^ $rbx: .cfa -24 + ^
STACK CFI INIT 334d0 44 .cfa: $rsp 8 + .ra: .cfa -8 + ^
STACK CFI 334d7 .cfa: $rsp 176 +
STACK CFI INIT 33520 195 .cfa: $rsp 8 + .ra: .cfa -8 + ^
STACK CFI 3352c $rbp: .cfa -24 + ^ $rbx: .cfa -32 + ^
STACK CFI 33538 .cfa: $rsp 608 +
STACK CFI 33542 $r12: .cfa -16 + ^
STACK CFI INIT 336c0 6b .cfa: $rsp 8 + .ra: .cfa -8 + ^
STACK CFI INIT 33730 6c .cfa: $rsp 8 + .ra: .cfa -8 + ^
STACK CFI 33731 .cfa: $rsp 16 +
STACK CFI 3373b $rbx: .cfa -16 + ^
STACK CFI INIT 337a0 8c .cfa: $rsp 8 + .ra: .cfa -8 + ^
STACK CFI 337b5 .cfa: $rsp 48 +
STACK CFI 337bb $r12: .cfa -16 + ^ $rbp: .cfa -24 + ^ $rbx: .cfa -32 + ^
STACK CFI INIT 33830 8c .cfa: $rsp 8 + .ra: .cfa -8 + ^
STACK CFI 33845 .cfa: $rsp 48 +
STACK CFI 3384b $r12: .cfa -16 + ^ $rbp: .cfa -24 + ^ $rbx: .cfa -32 + ^
STACK CFI INIT 338c0 ad .cfa: $rsp 8 + .ra: .cfa -8 + ^
STACK CFI INIT 33970 eb .cfa: $rsp 8 + .ra: .cfa -8 + ^
STACK CFI INIT 33a60 5c .cfa: $rsp 8 + .ra: .cfa -8 + ^
STACK CFI INIT 33ac0 64 .cfa: $rsp 8 + .ra: .cfa -8 + ^
STACK CFI INIT 33b30 4b0 .cfa: $rsp 8 + .ra: .cfa -8 + ^
STACK CFI 33b32 .cfa: $rsp 16 +
STACK CFI 33b37 .cfa: $rsp 24 +
STACK CFI 33b39 .cfa: $rsp 32 +
STACK CFI 33b3b .cfa: $rsp 40 +
STACK CFI 33b3c .cfa: $rsp 48 +
STACK CFI 33b3f $r12: .cfa -40 + ^ $r13: .cfa -32 + ^ $r14: .cfa -24 + ^ $r15: .cfa -16 + ^ $rbp: .cfa -48 + ^
STACK CFI 33b40 .cfa: $rsp 56 +
STACK CFI 33b43 $rbx: .cfa -56 + ^
STACK CFI 33b47 .cfa: $rsp 176 +
STACK CFI INIT 33fe0 103 .cfa: $rsp 8 + .ra: .cfa -8 + ^
STACK CFI INIT 340f0 103 .cfa: $rsp 8 + .ra: .cfa -8 + ^
STACK CFI INIT 34200 44 .cfa: $rsp 8 + .ra: .cfa -8 + ^
STACK CFI INIT 34250 397 .cfa: $rsp 8 + .ra: .cfa -8 + ^
STACK CFI 34251 .cfa: $rsp 16 +
STACK CFI 34254 $rbp: .cfa -16 + ^ .cfa: $rbp 16 +
STACK CFI 34259 $r15: .cfa -24 + ^
STACK CFI 3425e $r14: .cfa -32 + ^
STACK CFI 34265 $r12: .cfa -48 + ^ $r13: .cfa -40 + ^
STACK CFI 34269 $rbx: .cfa -56 + ^
STACK CFI INIT 345f0 119 .cfa: $rsp 8 + .ra: .cfa -8 + ^
STACK CFI 345f1 $rbx: .cfa -16 + ^ .cfa: $rsp 16 +
STACK CFI 34708 $rbx: $rbx .cfa: $rsp 8 +
STACK CFI INIT 34710 108 .cfa: $rsp 8 + .ra: .cfa -8 + ^
STACK CFI 34712 .cfa: $rsp 16 +
STACK CFI 34714 .cfa: $rsp 24 +
STACK CFI 34717 $r13: .cfa -24 + ^ $r14: .cfa -16 + ^
STACK CFI 34719 .cfa: $rsp 32 +
STACK CFI 3471c $r12: .cfa -32 + ^
STACK CFI 3471d .cfa: $rsp 40 +
STACK CFI 34720 $rbp: .cfa -40 + ^
STACK CFI 34721 .cfa: $rsp 48 +
STACK CFI 3472e $rbx: .cfa -48 + ^
STACK CFI INIT 34820 376 .cfa: $rsp 8 + .ra: .cfa -8 + ^
STACK CFI 34822 .cfa: $rsp 16 +
STACK CFI 34824 .cfa: $rsp 24 +
STACK CFI 34827 $r14: .cfa -24 + ^ $r15: .cfa -16 + ^
STACK CFI 34829 .cfa: $rsp 32 +
STACK CFI 3482c $r13: .cfa -32 + ^
STACK CFI 3482e .cfa: $rsp 40 +
STACK CFI 34831 $r12: .cfa -40 + ^
STACK CFI 34832 .cfa: $rsp 48 +
STACK CFI 34835 $rbp: .cfa -48 + ^
STACK CFI 34836 .cfa: $rsp 56 +
STACK CFI 3483a .cfa: $rsp 112 +
STACK CFI 3483f $rbx: .cfa -56 + ^
STACK CFI INIT 34ba0 117 .cfa: $rsp 8 + .ra: .cfa -8 + ^
STACK CFI 34ba2 .cfa: $rsp 16 +
STACK CFI 34ba5 $r15: .cfa -16 + ^
STACK CFI 34ba7 .cfa: $rsp 24 +
STACK CFI 34ba9 .cfa: $rsp 32 +
STACK CFI 34bac $r13: .cfa -32 + ^ $r14: .cfa -24 + ^
STACK CFI 34bae .cfa: $rsp 40 +
STACK CFI 34bb1 $r12: .cfa -40 + ^
STACK CFI 34bb2 .cfa: $rsp 48 +
STACK CFI 34bb5 $rbp: .cfa -48 + ^
STACK CFI 34bb6 .cfa: $rsp 56 +
STACK CFI 34bba .cfa: $rsp 64 +
STACK CFI 34bc7 $rbx: .cfa -56 + ^
STACK CFI INIT 34cc0 410 .cfa: $rsp 8 + .ra: .cfa -8 + ^
STACK CFI 34cc2 .cfa: $rsp 16 +
STACK CFI 34cc5 $r15: .cfa -16 + ^
STACK CFI 34cc7 .cfa: $rsp 24 +
STACK CFI 34cca $r14: .cfa -24 + ^
STACK CFI 34ccc .cfa: $rsp 32 +
STACK CFI 34ccf $r13: .cfa -32 + ^
STACK CFI 34cd1 .cfa: $rsp 40 +
STACK CFI 34cd4 $r12: .cfa -40 + ^
STACK CFI 34cd5 .cfa: $rsp 48 +
STACK CFI 34cd8 $rbp: .cfa -48 + ^
STACK CFI 34cd9 .cfa: $rsp 56 +
STACK CFI 34cdd .cfa: $rsp 128 +
STACK CFI 34ce2 $rbx: .cfa -56 + ^
STACK CFI INIT 350d0 81 .cfa: $rsp 8 + .ra: .cfa -8 + ^
STACK CFI 350d1 .cfa: $rsp 16 +
STACK CFI 350da $rbp: .cfa -16 + ^ .cfa: $rbp 16 +
STACK CFI INIT 35160 ad .cfa: $rsp 8 + .ra: .cfa -8 + ^
STACK CFI INIT 35210 eb .cfa: $rsp 8 + .ra: .cfa -8 + ^
STACK CFI INIT 35300 9c .cfa: $rsp 8 + .ra: .cfa -8 + ^
STACK CFI INIT 353a0 c5 .cfa: $rsp 8 + .ra: .cfa -8 + ^
STACK CFI 353a1 .cfa: $rsp 16 +
STACK CFI 353aa $rbx: .cfa -16 + ^
STACK CFI INIT 35470 24 .cfa: $rsp 8 + .ra: .cfa -8 + ^
STACK CFI INIT 354a0 3a .cfa: $rsp 8 + .ra: .cfa -8 + ^
STACK CFI INIT 354e0 3f .cfa: $rsp 8 + .ra: .cfa -8 + ^
STACK CFI INIT 35520 7 .cfa: $rsp 8 + .ra: .cfa -8 + ^
STACK CFI INIT 35530 15 .cfa: $rsp 8 + .ra: .cfa -8 + ^
STACK CFI 35534 .cfa: $rsp 16 +
STACK CFI INIT 35550 c .cfa: $rsp 8 + .ra: .cfa -8 + ^
STACK CFI INIT 35560 c .cfa: $rsp 8 + .ra: .cfa -8 + ^
STACK CFI INIT 357af 1f .cfa: $rsp -128 + .ra: $rip
STACK CFI 357bd .cfa: $rsp 0 +
STACK CFI 357c1 .cfa: $rsp 128 +
STACK CFI 357c9 .cfa: $rsp -128 +
STACK CFI INIT 357ce 1f .cfa: $rsp -128 + .ra: $rip
STACK CFI 357dc .cfa: $rsp 0 +
STACK CFI 357e0 .cfa: $rsp 128 +
STACK CFI 357e8 .cfa: $rsp -128 +
STACK CFI INIT 357ed 1f .cfa: $rsp -128 + .ra: $rip
STACK CFI 357fb .cfa: $rsp 0 +
STACK CFI 357ff .cfa: $rsp 128 +
STACK CFI 35807 .cfa: $rsp -128 +
STACK CFI INIT 35570 23f .cfa: $rsp 8 + .ra: .cfa -8 + ^
STACK CFI 35577 .cfa: $rsp 304 +
STACK CFI INIT 35810 83 .cfa: $rsp 8 + .ra: .cfa -8 + ^
STACK CFI 35812 .cfa: $rsp 16 +
STACK CFI 35815 $r15: .cfa -16 + ^
STACK CFI 35817 .cfa: $rsp 24 +
STACK CFI 3581a $r14: .cfa -24 + ^
STACK CFI 3581c .cfa: $rsp 32 +
STACK CFI 3581e .cfa: $rsp 40 +
STACK CFI 35821 $r12: .cfa -40 + ^ $r13: .cfa -32 + ^
STACK CFI 35822 .cfa: $rsp 48 +
STACK CFI 35825 $rbp: .cfa -48 + ^
STACK CFI 35826 .cfa: $rsp 56 +
STACK CFI 35829 $rbx: .cfa -56 + ^
STACK CFI 3582d .cfa: $rsp 80 +
STACK CFI INIT 358a0 498 .cfa: $rsp 8 + .ra: .cfa -8 + ^
STACK CFI 358a2 .cfa: $rsp 16 +
STACK CFI 358a4 .cfa: $rsp 24 +
STACK CFI 358a6 .cfa: $rsp 32 +
STACK CFI 358a9 $r13: .cfa -32 + ^ $r14: .cfa -24 + ^ $r15: .cfa -16 + ^
STACK CFI 358ab .cfa: $rsp 40 +
STACK CFI 358ac .cfa: $rsp 48 +
STACK CFI 358af $r12: .cfa -40 + ^ $rbp: .cfa -48 + ^
STACK CFI 358b0 .cfa: $rsp 56 +
STACK CFI 358b3 $rbx: .cfa -56 + ^
STACK CFI 358ba .cfa: $rsp 1152 +
STACK CFI INIT 35d40 32f .cfa: $rsp 8 + .ra: .cfa -8 + ^
STACK CFI 35d42 .cfa: $rsp 16 +
STACK CFI 35d44 .cfa: $rsp 24 +
STACK CFI 35d46 .cfa: $rsp 32 +
STACK CFI 35d48 .cfa: $rsp 40 +
STACK CFI 35d49 .cfa: $rsp 48 +
STACK CFI 35d4a .cfa: $rsp 56 +
STACK CFI 35d4e .cfa: $rsp 128 +
STACK CFI 35d67 $r12: .cfa -40 + ^ $r13: .cfa -32 + ^ $r14: .cfa -24 + ^ $r15: .cfa -16 + ^ $rbp: .cfa -48 + ^ $rbx: .cfa -56 + ^
STACK CFI INIT 36070 32b .cfa: $rsp 8 + .ra: .cfa -8 + ^
STACK CFI 36071 .cfa: $rsp 16 +
STACK CFI 36074 $rbp: .cfa -16 + ^ .cfa: $rbp 16 +
STACK CFI 3607b $r14: .cfa -32 + ^ $r15: .cfa -24 + ^
STACK CFI 36082 $r12: .cfa -48 + ^ $r13: .cfa -40 + ^
STACK CFI 36086 $rbx: .cfa -56 + ^
STACK CFI INIT 363a0 8 .cfa: $rsp 8 + .ra: .cfa -8 + ^
STACK CFI INIT 363b0 11a .cfa: $rsp 8 + .ra: .cfa -8 + ^
STACK CFI 363c7 $r12: .cfa -40 + ^ $r15: .cfa -16 + ^ $rbp: .cfa -48 + ^ $rbx: .cfa -56 + ^
STACK CFI 363d5 $r13: .cfa -32 + ^ $r14: .cfa -24 + ^ .cfa: $rsp 64 +
STACK CFI INIT 364d0 78 .cfa: $rsp 8 + .ra: .cfa -8 + ^
STACK CFI 364d1 .cfa: $rsp 16 +
STACK CFI 364d9 $rbp: .cfa -16 + ^ .cfa: $rbp 16 +
STACK CFI 364dd $rbx: .cfa -24 + ^
STACK CFI INIT 36be6 1f .cfa: $rsp -128 + .ra: $rip
STACK CFI 36bf4 .cfa: $rsp 0 +
STACK CFI 36bf8 .cfa: $rsp 128 +
STACK CFI 36c00 .cfa: $rsp -128 +
STACK CFI INIT 36c05 1f .cfa: $rsp -128 + .ra: $rip
STACK CFI 36c13 .cfa: $rsp 0 +
STACK CFI 36c17 .cfa: $rsp 128 +
STACK CFI 36c1f .cfa: $rsp -128 +
STACK CFI INIT 36c24 1f .cfa: $rsp -128 + .ra: $rip
STACK CFI 36c32 .cfa: $rsp 0 +
STACK CFI 36c36 .cfa: $rsp 128 +
STACK CFI 36c3e .cfa: $rsp -128 +
STACK CFI INIT 36c43 1f .cfa: $rsp -128 + .ra: $rip
STACK CFI 36c51 .cfa: $rsp 0 +
STACK CFI 36c55 .cfa: $rsp 128 +
STACK CFI 36c5d .cfa: $rsp -128 +
STACK CFI INIT 36c62 1f .cfa: $rsp -128 + .ra: $rip
STACK CFI 36c70 .cfa: $rsp 0 +
STACK CFI 36c74 .cfa: $rsp 128 +
STACK CFI 36c7c .cfa: $rsp -128 +
STACK CFI INIT 36c81 1f .cfa: $rsp -128 + .ra: $rip
STACK CFI 36c8f .cfa: $rsp 0 +
STACK CFI 36c93 .cfa: $rsp 128 +
STACK CFI 36c9b .cfa: $rsp -128 +
STACK CFI INIT 36ca0 1f .cfa: $rsp -128 + .ra: $rip
STACK CFI 36cae .cfa: $rsp 0 +
STACK CFI 36cb2 .cfa: $rsp 128 +
STACK CFI 36cba .cfa: $rsp -128 +
STACK CFI INIT 36cbf 1f .cfa: $rsp -128 + .ra: $rip
STACK CFI 36ccd .cfa: $rsp 0 +
STACK CFI 36cd1 .cfa: $rsp 128 +
STACK CFI 36cd9 .cfa: $rsp -128 +
STACK CFI INIT 36550 87 .cfa: $rsp 8 + .ra: .cfa -8 + ^
STACK CFI 36551 .cfa: $rsp 16 +
STACK CFI 36585 $rbx: .cfa -16 + ^
STACK CFI INIT 136230 2c .cfa: $rsp 8 + .ra: .cfa -8 + ^
STACK CFI 136234 .cfa: $rsp 16 +
STACK CFI INIT 365e0 11e .cfa: $rsp 8 + .ra: .cfa -8 + ^
STACK CFI 365e2 .cfa: $rsp 16 +
STACK CFI 365e4 .cfa: $rsp 24 +
STACK CFI 365e5 .cfa: $rsp 32 +
STACK CFI 365e6 .cfa: $rsp 40 +
STACK CFI 365e9 $r12: .cfa -24 + ^ $r13: .cfa -16 + ^ $rbp: .cfa -32 + ^ $rbx: .cfa -40 + ^
STACK CFI 365ed .cfa: $rsp 48 +
STACK CFI INIT 36700 453 .cfa: $rsp 8 + .ra: .cfa -8 + ^
STACK CFI 36701 .cfa: $rsp 16 +
STACK CFI 36704 $rbp: .cfa -16 + ^ .cfa: $rbp 16 +
STACK CFI 3670f $r12: .cfa -48 + ^ $r13: .cfa -40 + ^ $r14: .cfa -32 + ^ $r15: .cfa -24 + ^
STACK CFI 3671f $rbx: .cfa -56 + ^
STACK CFI INIT 36b60 86 .cfa: $rsp 8 + .ra: .cfa -8 + ^
STACK CFI 36b6d $rbp: .cfa -24 + ^ $rbx: .cfa -32 + ^
STACK CFI 36b76 .cfa: $rsp 32 +
STACK CFI 36b7f $r12: .cfa -16 + ^
STACK CFI INIT 36ce0 15 .cfa: $rsp 8 + .ra: .cfa -8 + ^
STACK CFI INIT 36d00 12e .cfa: $rsp 8 + .ra: .cfa -8 + ^
STACK CFI 36d02 .cfa: $rsp 16 +
STACK CFI 36d05 $r13: .cfa -16 + ^
STACK CFI 36d07 .cfa: $rsp 24 +
STACK CFI 36d08 .cfa: $rsp 32 +
STACK CFI 36d0b $r12: .cfa -24 + ^ $rbp: .cfa -32 + ^
STACK CFI 36d0c .cfa: $rsp 40 +
STACK CFI 36d0e $rbx: .cfa -40 + ^
STACK CFI 36d12 .cfa: $rsp 48 +
STACK CFI INIT 36e30 15 .cfa: $rsp 8 + .ra: .cfa -8 + ^
STACK CFI 36e3b .cfa: $rsp 16 +
STACK CFI INIT 36e50 59 .cfa: $rsp 8 + .ra: .cfa -8 + ^
STACK CFI 36e58 $rbx: .cfa -24 + ^
STACK CFI 36e68 .cfa: $rsp 32 +
STACK CFI 36e6b $rbp: .cfa -16 + ^
STACK CFI INIT 3708c 1f .cfa: $rsp -128 + .ra: $rip
STACK CFI 3709a .cfa: $rsp 0 +
STACK CFI 3709e .cfa: $rsp 128 +
STACK CFI 370a6 .cfa: $rsp -128 +
STACK CFI INIT 370ab 1f .cfa: $rsp -128 + .ra: $rip
STACK CFI 370b9 .cfa: $rsp 0 +
STACK CFI 370bd .cfa: $rsp 128 +
STACK CFI 370c5 .cfa: $rsp -128 +
STACK CFI INIT 36eb0 160 .cfa: $rsp 8 + .ra: .cfa -8 + ^
STACK CFI 36eb1 .cfa: $rsp 16 +
STACK CFI 36eb9 $rbx: .cfa -16 + ^
STACK CFI INIT 37010 65 .cfa: $rsp 8 + .ra: .cfa -8 + ^
STACK CFI 3701d $rbp: .cfa -24 + ^ $rbx: .cfa -32 + ^
STACK CFI 37029 .cfa: $rsp 32 +
STACK CFI 3702c $r12: .cfa -16 + ^
STACK CFI INIT 37080 c .cfa: $rsp 8 + .ra: .cfa -8 + ^
STACK CFI INIT 370d0 159 .cfa: $rsp 8 + .ra: .cfa -8 + ^
STACK CFI 370d2 .cfa: $rsp 16 +
STACK CFI 370d8 $r15: .cfa -16 + ^
STACK CFI 370da .cfa: $rsp 24 +
STACK CFI 370dc .cfa: $rsp 32 +
STACK CFI 370df $r13: .cfa -32 + ^ $r14: .cfa -24 + ^
STACK CFI 370e1 .cfa: $rsp 40 +
STACK CFI 370e2 .cfa: $rsp 48 +
STACK CFI 370e5 $r12: .cfa -40 + ^ $rbp: .cfa -48 + ^
STACK CFI 370e6 .cfa: $rsp 56 +
STACK CFI 370ea .cfa: $rsp 80 +
STACK CFI 370fa $rbx: .cfa -56 + ^
STACK CFI INIT 37230 12 .cfa: $rsp 8 + .ra: .cfa -8 + ^
STACK CFI 3723b .cfa: $rsp 16 +
STACK CFI INIT 37250 11 .cfa: $rsp 8 + .ra: .cfa -8 + ^
STACK CFI INIT 37270 c .cfa: $rsp 8 + .ra: .cfa -8 + ^
STACK CFI INIT 37280 11 .cfa: $rsp 8 + .ra: .cfa -8 + ^
STACK CFI INIT 372a0 11 .cfa: $rsp 8 + .ra: .cfa -8 + ^
STACK CFI INIT 372c0 23 .cfa: $rsp 8 + .ra: .cfa -8 + ^
STACK CFI INIT 372f0 28 .cfa: $rsp 8 + .ra: .cfa -8 + ^
STACK CFI INIT 37320 28 .cfa: $rsp 8 + .ra: .cfa -8 + ^
STACK CFI INIT 3752a 1f .cfa: $rsp -128 + .ra: $rip
STACK CFI 37538 .cfa: $rsp 0 +
STACK CFI 3753c .cfa: $rsp 128 +
STACK CFI 37544 .cfa: $rsp -128 +
STACK CFI INIT 37549 1f .cfa: $rsp -128 + .ra: $rip
STACK CFI 37557 .cfa: $rsp 0 +
STACK CFI 3755b .cfa: $rsp 128 +
STACK CFI 37563 .cfa: $rsp -128 +
STACK CFI INIT 37568 1f .cfa: $rsp -128 + .ra: $rip
STACK CFI 37576 .cfa: $rsp 0 +
STACK CFI 3757a .cfa: $rsp 128 +
STACK CFI 37582 .cfa: $rsp -128 +
STACK CFI INIT 37587 1f .cfa: $rsp -128 + .ra: $rip
STACK CFI 37595 .cfa: $rsp 0 +
STACK CFI 37599 .cfa: $rsp 128 +
STACK CFI 375a1 .cfa: $rsp -128 +
STACK CFI INIT 375a6 1f .cfa: $rsp -128 + .ra: $rip
STACK CFI 375b4 .cfa: $rsp 0 +
STACK CFI 375b8 .cfa: $rsp 128 +
STACK CFI 375c0 .cfa: $rsp -128 +
STACK CFI INIT 375c5 1f .cfa: $rsp -128 + .ra: $rip
STACK CFI 375d3 .cfa: $rsp 0 +
STACK CFI 375d7 .cfa: $rsp 128 +
STACK CFI 375df .cfa: $rsp -128 +
STACK CFI INIT 375e4 1f .cfa: $rsp -128 + .ra: $rip
STACK CFI 375f2 .cfa: $rsp 0 +
STACK CFI 375f6 .cfa: $rsp 128 +
STACK CFI 375fe .cfa: $rsp -128 +
STACK CFI INIT 37603 1f .cfa: $rsp -128 + .ra: $rip
STACK CFI 37611 .cfa: $rsp 0 +
STACK CFI 37615 .cfa: $rsp 128 +
STACK CFI 3761d .cfa: $rsp -128 +
STACK CFI INIT 37350 70 .cfa: $rsp 8 + .ra: .cfa -8 + ^
STACK CFI 37354 .cfa: $rsp 32 +
STACK CFI INIT 373c0 7c .cfa: $rsp 8 + .ra: .cfa -8 + ^
STACK CFI 373c1 .cfa: $rsp 16 +
STACK CFI 373f8 $rbx: .cfa -16 + ^
STACK CFI INIT 37440 7a .cfa: $rsp 8 + .ra: .cfa -8 + ^
STACK CFI 37441 .cfa: $rsp 16 +
STACK CFI 3747b $rbx: .cfa -16 + ^
STACK CFI INIT 374c0 6a .cfa: $rsp 8 + .ra: .cfa -8 + ^
STACK CFI 374c4 .cfa: $rsp 16 +
STACK CFI INIT 37630 e4 .cfa: $rsp 8 + .ra: .cfa -8 + ^
STACK CFI INIT 37720 9c .cfa: $rsp 8 + .ra: .cfa -8 + ^
STACK CFI INIT 377c0 f7 .cfa: $rsp 8 + .ra: .cfa -8 + ^
STACK CFI 377cd $rbp: .cfa -24 + ^ $rbx: .cfa -32 + ^
STACK CFI 377d6 .cfa: $rsp 48 +
STACK CFI 377db $r12: .cfa -16 + ^
STACK CFI INIT 378c0 135 .cfa: $rsp 8 + .ra: .cfa -8 + ^
STACK CFI 378cd $rbp: .cfa -32 + ^ $rbx: .cfa -40 + ^
STACK CFI 378db .cfa: $rsp 48 +
STACK CFI 378e7 $r12: .cfa -24 + ^ $r13: .cfa -16 + ^
STACK CFI INIT 37a00 e .cfa: $rsp 8 + .ra: .cfa -8 + ^
STACK CFI 37a04 .cfa: $rsp 16 +
STACK CFI INIT 37a10 50 .cfa: $rsp 8 + .ra: .cfa -8 + ^
STACK CFI INIT 37a60 23 .cfa: $rsp 8 + .ra: .cfa -8 + ^
STACK CFI 37a64 .cfa: $rsp 32 +
STACK CFI INIT 37a90 20 .cfa: $rsp 8 + .ra: .cfa -8 + ^
STACK CFI 37a94 .cfa: $rsp 32 +
STACK CFI INIT 37ab0 22 .cfa: $rsp 8 + .ra: .cfa -8 + ^
STACK CFI 37ab4 .cfa: $rsp 32 +
STACK CFI INIT 37ae0 1f .cfa: $rsp 8 + .ra: .cfa -8 + ^
STACK CFI 37ae4 .cfa: $rsp 32 +
STACK CFI INIT 37b00 22 .cfa: $rsp 8 + .ra: .cfa -8 + ^
STACK CFI 37b04 .cfa: $rsp 32 +
STACK CFI INIT 37b30 1f .cfa: $rsp 8 + .ra: .cfa -8 + ^
STACK CFI 37b34 .cfa: $rsp 32 +
STACK CFI INIT 37b50 c .cfa: $rsp 8 + .ra: .cfa -8 + ^
STACK CFI INIT 37b60 1c .cfa: $rsp 8 + .ra: .cfa -8 + ^
STACK CFI 37b6b .cfa: $rsp 16 +
STACK CFI INIT 37b80 c .cfa: $rsp 8 + .ra: .cfa -8 + ^
STACK CFI INIT 37b90 b .cfa: $rsp 8 + .ra: .cfa -8 + ^
STACK CFI INIT 37ba0 77 .cfa: $rsp 8 + .ra: .cfa -8 + ^
STACK CFI 37ba1 .cfa: $rsp 16 +
STACK CFI 37ba4 $rbp: .cfa -16 + ^
STACK CFI 37ba5 .cfa: $rsp 24 +
STACK CFI 37ba8 $rbx: .cfa -24 + ^
STACK CFI 37bac .cfa: $rsp 48 +
STACK CFI INIT 37c20 16 .cfa: $rsp 8 + .ra: .cfa -8 + ^
STACK CFI INIT 37c40 4e .cfa: $rsp 8 + .ra: .cfa -8 + ^
STACK CFI 37c4e .cfa: $rsp 32 +
STACK CFI 37c51 $rbp: .cfa -16 + ^ $rbx: .cfa -24 + ^
STACK CFI INIT 37c90 16 .cfa: $rsp 8 + .ra: .cfa -8 + ^
STACK CFI INIT 37cb0 48 .cfa: $rsp 8 + .ra: .cfa -8 + ^
STACK CFI 37cbe .cfa: $rsp 32 +
STACK CFI 37cc1 $rbp: .cfa -16 + ^ $rbx: .cfa -24 + ^
STACK CFI INIT 37d00 34 .cfa: $rsp 8 + .ra: .cfa -8 + ^
STACK CFI INIT 37d40 40 .cfa: $rsp 8 + .ra: .cfa -8 + ^
STACK CFI INIT 37d80 3c .cfa: $rsp 8 + .ra: .cfa -8 + ^
STACK CFI INIT 37dc0 74 .cfa: $rsp 8 + .ra: .cfa -8 + ^
STACK CFI INIT 37e40 12 .cfa: $rsp 8 + .ra: .cfa -8 + ^
STACK CFI INIT 37e60 10 .cfa: $rsp 8 + .ra: .cfa -8 + ^
STACK CFI INIT 37e70 12 .cfa: $rsp 8 + .ra: .cfa -8 + ^
STACK CFI INIT 37e90 10 .cfa: $rsp 8 + .ra: .cfa -8 + ^
STACK CFI INIT 37ea0 455 .cfa: $rsp 8 + .ra: .cfa -8 + ^
STACK CFI 37ea2 .cfa: $rsp 16 +
STACK CFI 37ea4 .cfa: $rsp 24 +
STACK CFI 37ea6 .cfa: $rsp 32 +
STACK CFI 37ea8 .cfa: $rsp 40 +
STACK CFI 37ea9 .cfa: $rsp 48 +
STACK CFI 37eaa .cfa: $rsp 56 +
STACK CFI 37ead $r12: .cfa -40 + ^ $r13: .cfa -32 + ^ $r14: .cfa -24 + ^ $r15: .cfa -16 + ^ $rbp: .cfa -48 + ^ $rbx: .cfa -56 + ^
STACK CFI 37eb1 .cfa: $rsp 96 +
STACK CFI INIT 38300 a .cfa: $rsp 8 + .ra: .cfa -8 + ^
STACK CFI INIT 38310 425 .cfa: $rsp 8 + .ra: .cfa -8 + ^
STACK CFI 38312 .cfa: $rsp 16 +
STACK CFI 38314 .cfa: $rsp 24 +
STACK CFI 38316 .cfa: $rsp 32 +
STACK CFI 38318 .cfa: $rsp 40 +
STACK CFI 38319 .cfa: $rsp 48 +
STACK CFI 3831a .cfa: $rsp 56 +
STACK CFI 3831d $r12: .cfa -40 + ^ $r13: .cfa -32 + ^ $r14: .cfa -24 + ^ $r15: .cfa -16 + ^ $rbp: .cfa -48 + ^ $rbx: .cfa -56 + ^
STACK CFI 38321 .cfa: $rsp 96 +
STACK CFI INIT 38740 a .cfa: $rsp 8 + .ra: .cfa -8 + ^
STACK CFI INIT 38750 12 .cfa: $rsp 8 + .ra: .cfa -8 + ^
STACK CFI INIT 38770 10 .cfa: $rsp 8 + .ra: .cfa -8 + ^
STACK CFI INIT 38780 12 .cfa: $rsp 8 + .ra: .cfa -8 + ^
STACK CFI INIT 387a0 10 .cfa: $rsp 8 + .ra: .cfa -8 + ^
STACK CFI INIT 387b0 12 .cfa: $rsp 8 + .ra: .cfa -8 + ^
STACK CFI INIT 387d0 10 .cfa: $rsp 8 + .ra: .cfa -8 + ^
STACK CFI INIT 387e0 309 .cfa: $rsp 8 + .ra: .cfa -8 + ^
STACK CFI 387e2 .cfa: $rsp 16 +
STACK CFI 387e8 $r15: .cfa -16 + ^
STACK CFI 387ea .cfa: $rsp 24 +
STACK CFI 387ec .cfa: $rsp 32 +
STACK CFI 387ee .cfa: $rsp 40 +
STACK CFI 387f1 $r12: .cfa -40 + ^ $r13: .cfa -32 + ^ $r14: .cfa -24 + ^
STACK CFI 387f2 .cfa: $rsp 48 +
STACK CFI 387f4 $rbp: .cfa -48 + ^
STACK CFI 387f5 .cfa: $rsp 56 +
STACK CFI 387f8 $rbx: .cfa -56 + ^
STACK CFI 387fc .cfa: $rsp 96 +
STACK CFI INIT 38af0 1dc .cfa: $rsp 8 + .ra: .cfa -8 + ^
STACK CFI 38afc $rbp: .cfa -32 + ^ $rbx: .cfa -40 + ^
STACK CFI 38b0a .cfa: $rsp 64 +
STACK CFI 38b14 $r12: .cfa -24 + ^ $r13: .cfa -16 + ^
STACK CFI INIT 38cd0 213c .cfa: $rsp 8 + .ra: .cfa -8 + ^
STACK CFI 38cd2 .cfa: $rsp 16 +
STACK CFI 38cd5 $r15: .cfa -16 + ^
STACK CFI 38cd7 .cfa: $rsp 24 +
STACK CFI 38cd9 .cfa: $rsp 32 +
STACK CFI 38cdb .cfa: $rsp 40 +
STACK CFI 38cdc .cfa: $rsp 48 +
STACK CFI 38cdd .cfa: $rsp 56 +
STACK CFI 38ce4 .cfa: $rsp 336 +
STACK CFI 38cfa $r12: .cfa -40 + ^ $r13: .cfa -32 + ^ $r14: .cfa -24 + ^ $rbp: .cfa -48 + ^ $rbx: .cfa -56 + ^
STACK CFI INIT 3ae10 a .cfa: $rsp 8 + .ra: .cfa -8 + ^
STACK CFI INIT 3ae20 309 .cfa: $rsp 8 + .ra: .cfa -8 + ^
STACK CFI 3ae22 .cfa: $rsp 16 +
STACK CFI 3ae28 $r15: .cfa -16 + ^
STACK CFI 3ae2a .cfa: $rsp 24 +
STACK CFI 3ae2c .cfa: $rsp 32 +
STACK CFI 3ae2e .cfa: $rsp 40 +
STACK CFI 3ae31 $r12: .cfa -40 + ^ $r13: .cfa -32 + ^ $r14: .cfa -24 + ^
STACK CFI 3ae32 .cfa: $rsp 48 +
STACK CFI 3ae34 $rbp: .cfa -48 + ^
STACK CFI 3ae35 .cfa: $rsp 56 +
STACK CFI 3ae38 $rbx: .cfa -56 + ^
STACK CFI 3ae3c .cfa: $rsp 96 +
STACK CFI INIT 3b130 1fd .cfa: $rsp 8 + .ra: .cfa -8 + ^
STACK CFI 3b13c $rbp: .cfa -32 + ^ $rbx: .cfa -40 + ^
STACK CFI 3b14a .cfa: $rsp 64 +
STACK CFI 3b157 $r12: .cfa -24 + ^ $r13: .cfa -16 + ^
STACK CFI INIT 3b330 21b1 .cfa: $rsp 8 + .ra: .cfa -8 + ^
STACK CFI 3b332 .cfa: $rsp 16 +
STACK CFI 3b335 $r15: .cfa -16 + ^
STACK CFI 3b337 .cfa: $rsp 24 +
STACK CFI 3b339 .cfa: $rsp 32 +
STACK CFI 3b33b .cfa: $rsp 40 +
STACK CFI 3b33c .cfa: $rsp 48 +
STACK CFI 3b33d .cfa: $rsp 56 +
STACK CFI 3b344 .cfa: $rsp 576 +
STACK CFI 3b35a $r12: .cfa -40 + ^ $r13: .cfa -32 + ^ $r14: .cfa -24 + ^ $rbp: .cfa -48 + ^ $rbx: .cfa -56 + ^
STACK CFI INIT 3d4f0 a .cfa: $rsp 8 + .ra: .cfa -8 + ^
STACK CFI INIT 3d500 312 .cfa: $rsp 8 + .ra: .cfa -8 + ^
STACK CFI 3d502 .cfa: $rsp 16 +
STACK CFI 3d508 $r15: .cfa -16 + ^
STACK CFI 3d50a .cfa: $rsp 24 +
STACK CFI 3d50c .cfa: $rsp 32 +
STACK CFI 3d50e .cfa: $rsp 40 +
STACK CFI 3d511 $r12: .cfa -40 + ^ $r13: .cfa -32 + ^ $r14: .cfa -24 + ^
STACK CFI 3d512 .cfa: $rsp 48 +
STACK CFI 3d514 $rbp: .cfa -48 + ^
STACK CFI 3d515 .cfa: $rsp 56 +
STACK CFI 3d518 $rbx: .cfa -56 + ^
STACK CFI 3d51c .cfa: $rsp 96 +
STACK CFI INIT 3d820 1ef .cfa: $rsp 8 + .ra: .cfa -8 + ^
STACK CFI 3d82d $rbp: .cfa -32 + ^ $rbx: .cfa -40 + ^
STACK CFI 3d83b .cfa: $rsp 64 +
STACK CFI 3d847 $r12: .cfa -24 + ^ $r13: .cfa -16 + ^
STACK CFI INIT 3da10 20f2 .cfa: $rsp 8 + .ra: .cfa -8 + ^
STACK CFI 3da12 .cfa: $rsp 16 +
STACK CFI 3da18 $r15: .cfa -16 + ^
STACK CFI 3da1a .cfa: $rsp 24 +
STACK CFI 3da1c .cfa: $rsp 32 +
STACK CFI 3da1e .cfa: $rsp 40 +
STACK CFI 3da1f .cfa: $rsp 48 +
STACK CFI 3da20 .cfa: $rsp 56 +
STACK CFI 3da27 .cfa: $rsp 4416 +
STACK CFI 3da38 $r12: .cfa -40 + ^ $r13: .cfa -32 + ^ $r14: .cfa -24 + ^ $rbp: .cfa -48 + ^ $rbx: .cfa -56 + ^
STACK CFI INIT 3fb10 a .cfa: $rsp 8 + .ra: .cfa -8 + ^
STACK CFI INIT 400b1 1f .cfa: $rsp -128 + .ra: $rip
STACK CFI 400bf .cfa: $rsp 0 +
STACK CFI 400c3 .cfa: $rsp 128 +
STACK CFI 400cb .cfa: $rsp -128 +
STACK CFI INIT 400d0 1f .cfa: $rsp -128 + .ra: $rip
STACK CFI 400de .cfa: $rsp 0 +
STACK CFI 400e2 .cfa: $rsp 128 +
STACK CFI 400ea .cfa: $rsp -128 +
STACK CFI INIT 400ef 1f .cfa: $rsp -128 + .ra: $rip
STACK CFI 400fd .cfa: $rsp 0 +
STACK CFI 40101 .cfa: $rsp 128 +
STACK CFI 40109 .cfa: $rsp -128 +
STACK CFI INIT 4010e 1f .cfa: $rsp -128 + .ra: $rip
STACK CFI 4011c .cfa: $rsp 0 +
STACK CFI 40120 .cfa: $rsp 128 +
STACK CFI 40128 .cfa: $rsp -128 +
STACK CFI INIT 4012d 1f .cfa: $rsp -128 + .ra: $rip
STACK CFI 4013b .cfa: $rsp 0 +
STACK CFI 4013f .cfa: $rsp 128 +
STACK CFI 40147 .cfa: $rsp -128 +
STACK CFI INIT 4014c 1f .cfa: $rsp -128 + .ra: $rip
STACK CFI 4015a .cfa: $rsp 0 +
STACK CFI 4015e .cfa: $rsp 128 +
STACK CFI 40166 .cfa: $rsp -128 +
STACK CFI INIT 4016b 1f .cfa: $rsp -128 + .ra: $rip
STACK CFI 40179 .cfa: $rsp 0 +
STACK CFI 4017d .cfa: $rsp 128 +
STACK CFI 40185 .cfa: $rsp -128 +
STACK CFI INIT 4018a 1f .cfa: $rsp -128 + .ra: $rip
STACK CFI 40198 .cfa: $rsp 0 +
STACK CFI 4019c .cfa: $rsp 128 +
STACK CFI 401a4 .cfa: $rsp -128 +
STACK CFI INIT 3fb20 458 .cfa: $rsp 8 + .ra: .cfa -8 + ^
STACK CFI 3fb22 .cfa: $rsp 16 +
STACK CFI 3fb27 $r12: .cfa -16 + ^
STACK CFI 3fb32 .cfa: $rsp 24 +
STACK CFI 3fb33 .cfa: $rsp 32 +
STACK CFI 3fb3a .cfa: $rsp 400 +
STACK CFI 3fb55 $rbp: .cfa -24 + ^ $rbx: .cfa -32 + ^
STACK CFI INIT 3ff80 61 .cfa: $rsp 8 + .ra: .cfa -8 + ^
STACK CFI 3ff81 .cfa: $rsp 16 +
STACK CFI 3ff85 .cfa: $rsp 32 +
STACK CFI 3ff8a $rbx: .cfa -16 + ^
STACK CFI INIT 3fff0 c1 .cfa: $rsp 8 + .ra: .cfa -8 + ^
STACK CFI 3fff1 .cfa: $rsp 16 +
STACK CFI 3fff3 $rbx: .cfa -16 + ^
STACK CFI INIT 401b0 4bf .cfa: $rsp 8 + .ra: .cfa -8 + ^
STACK CFI 401b1 .cfa: $rsp 16 +
STACK CFI 401b4 $rbp: .cfa -16 + ^ .cfa: $rbp 16 +
STACK CFI 401c0 $r12: .cfa -48 + ^ $r13: .cfa -40 + ^ $r14: .cfa -32 + ^ $r15: .cfa -24 + ^ $rbx: .cfa -56 + ^
STACK CFI INIT 40670 7 .cfa: $rsp 8 + .ra: .cfa -8 + ^
STACK CFI INIT 111990 21 .cfa: $rsp 8 + .ra: .cfa -8 + ^
STACK CFI INIT 40680 42 .cfa: $rsp 8 + .ra: .cfa -8 + ^
STACK CFI INIT 406d0 4d .cfa: $rsp 8 + .ra: .cfa -8 + ^
STACK CFI INIT 40720 104 .cfa: $rsp 8 + .ra: .cfa -8 + ^
STACK CFI 40722 .cfa: $rsp 16 +
STACK CFI 40724 .cfa: $rsp 24 +
STACK CFI 40726 .cfa: $rsp 32 +
STACK CFI 40728 .cfa: $rsp 40 +
STACK CFI 4072e $r12: .cfa -40 + ^ $r13: .cfa -32 + ^ $r14: .cfa -24 + ^ $r15: .cfa -16 + ^
STACK CFI 4072f .cfa: $rsp 48 +
STACK CFI 40732 $rbp: .cfa -48 + ^
STACK CFI 40733 .cfa: $rsp 56 +
STACK CFI 40737 .cfa: $rsp 96 +
STACK CFI 4074e $rbx: .cfa -56 + ^
STACK CFI INIT 40830 ae .cfa: $rsp 8 + .ra: .cfa -8 + ^
STACK CFI 40834 .cfa: $rsp 16 +
STACK CFI 40837 $rbx: .cfa -16 + ^
STACK CFI INIT 408e0 7 .cfa: $rsp 8 + .ra: .cfa -8 + ^
STACK CFI INIT 408f0 7 .cfa: $rsp 8 + .ra: .cfa -8 + ^
STACK CFI INIT 40900 a1 .cfa: $rsp 8 + .ra: .cfa -8 + ^
STACK CFI INIT 409b0 7d .cfa: $rsp 8 + .ra: .cfa -8 + ^
STACK CFI 409b1 .cfa: $rsp 16 +
STACK CFI 409cd .cfa: $rsp 8 +
STACK CFI 409e5 $r12: .cfa 72 + ^ $r13: .cfa 80 + ^ $r14: .cfa 88 + ^ $r15: .cfa 96 + ^ $rbp: .cfa 120 + ^ $rbx: .cfa 128 + ^ $rsp: .cfa 160 + ^ .cfa: $rdi 0 + .ra: .cfa 168 + ^
STACK CFI INIT 40a2d 18 .cfa: $rsp 8 + .ra: .cfa -8 + ^
STACK CFI INIT 40a50 1f6 .cfa: $rsp 8 + .ra: .cfa -8 + ^
STACK CFI 40a51 .cfa: $rsp 16 +
STACK CFI 40a71 $rbx: .cfa -16 + ^
STACK CFI INIT 40c50 105 .cfa: $rsp 8 + .ra: .cfa -8 + ^
STACK CFI INIT 40d60 99 .cfa: $rsp 8 + .ra: .cfa -8 + ^
STACK CFI 40d67 .cfa: $rsp 224 +
STACK CFI INIT 40e00 1196 .cfa: $rsp 8 + .ra: .cfa -8 + ^
STACK CFI 40e02 .cfa: $rsp 16 +
STACK CFI 40e15 .cfa: $rsp 24 +
STACK CFI 40e1a $r14: .cfa -24 + ^ $r15: .cfa -16 + ^
STACK CFI 40e1c .cfa: $rsp 32 +
STACK CFI 40e1f $r13: .cfa -32 + ^
STACK CFI 40e21 .cfa: $rsp 40 +
STACK CFI 40e22 .cfa: $rsp 48 +
STACK CFI 40e23 .cfa: $rsp 56 +
STACK CFI 40e26 $r12: .cfa -40 + ^ $rbp: .cfa -48 + ^ $rbx: .cfa -56 + ^
STACK CFI 40e2d .cfa: $rsp 576 +
STACK CFI INIT 41fa0 88 .cfa: $rsp 8 + .ra: .cfa -8 + ^
STACK CFI 41fa1 .cfa: $rsp 16 +
STACK CFI 41fac $rbx: .cfa -16 + ^
STACK CFI 41fba .cfa: $rsp 224 +
STACK CFI INIT 42030 8b .cfa: $rsp 8 + .ra: .cfa -8 + ^
STACK CFI 42034 .cfa: $rsp 16 +
STACK CFI 42036 $rbx: .cfa -16 + ^
STACK CFI INIT 420c0 26 .cfa: $rsp 8 + .ra: .cfa -8 + ^
STACK CFI 420c4 .cfa: $rsp 48 +
STACK CFI INIT 420f0 8b .cfa: $rsp 8 + .ra: .cfa -8 + ^
STACK CFI 420f4 .cfa: $rsp 16 +
STACK CFI 420f6 $rbx: .cfa -16 + ^
STACK CFI INIT 42180 26 .cfa: $rsp 8 + .ra: .cfa -8 + ^
STACK CFI 42184 .cfa: $rsp 48 +
STACK CFI INIT 421b0 64 .cfa: $rsp 8 + .ra: .cfa -8 + ^
STACK CFI 421b4 .cfa: $rsp 16 +
STACK CFI 421b6 $rbx: .cfa -16 + ^
STACK CFI INIT 42220 7 .cfa: $rsp 8 + .ra: .cfa -8 + ^
STACK CFI INIT 42230 7 .cfa: $rsp 8 + .ra: .cfa -8 + ^
STACK CFI INIT 42240 b7 .cfa: $rsp 8 + .ra: .cfa -8 + ^
STACK CFI 4224c $rbp: .cfa -48 + ^ $rbx: .cfa -56 + ^
STACK CFI 42259 $r12: .cfa -40 + ^ $r13: .cfa -32 + ^
STACK CFI 42267 .cfa: $rsp 64 +
STACK CFI 4226a $r14: .cfa -24 + ^ $r15: .cfa -16 + ^
STACK CFI INIT 42300 57 .cfa: $rsp 8 + .ra: .cfa -8 + ^
STACK CFI 42301 .cfa: $rsp 16 +
STACK CFI 4231a .cfa: $rsp 32 +
STACK CFI 42326 $rbx: .cfa -16 + ^
STACK CFI INIT 42bb8 1f .cfa: $rsp -128 + .ra: $rip
STACK CFI 42bc6 .cfa: $rsp 0 +
STACK CFI 42bca .cfa: $rsp 128 +
STACK CFI 42bd2 .cfa: $rsp -128 +
STACK CFI INIT 42bd7 1f .cfa: $rsp -128 + .ra: $rip
STACK CFI 42be5 .cfa: $rsp 0 +
STACK CFI 42be9 .cfa: $rsp 128 +
STACK CFI 42bf1 .cfa: $rsp -128 +
STACK CFI INIT 42bf6 1f .cfa: $rsp -128 + .ra: $rip
STACK CFI 42c04 .cfa: $rsp 0 +
STACK CFI 42c08 .cfa: $rsp 128 +
STACK CFI 42c10 .cfa: $rsp -128 +
STACK CFI INIT 42c15 1f .cfa: $rsp -128 + .ra: $rip
STACK CFI 42c23 .cfa: $rsp 0 +
STACK CFI 42c27 .cfa: $rsp 128 +
STACK CFI 42c2f .cfa: $rsp -128 +
STACK CFI INIT 136260 32 .cfa: $rsp 8 + .ra: .cfa -8 + ^
STACK CFI 136268 .cfa: $rsp 16 +
STACK CFI 13626d $rbx: .cfa -16 + ^
STACK CFI INIT 42360 ad .cfa: $rsp 8 + .ra: .cfa -8 + ^
STACK CFI 42361 .cfa: $rsp 16 +
STACK CFI 42363 $rbx: .cfa -16 + ^
STACK CFI 42367 .cfa: $rsp 32 +
STACK CFI INIT 42410 77 .cfa: $rsp 8 + .ra: .cfa -8 + ^
STACK CFI 42414 .cfa: $rsp 16 +
STACK CFI INIT 42490 20a .cfa: $rsp 8 + .ra: .cfa -8 + ^
STACK CFI 42492 .cfa: $rsp 16 +
STACK CFI 4249b .cfa: $rsp 24 +
STACK CFI 4249c .cfa: $rsp 32 +
STACK CFI 4249d .cfa: $rsp 40 +
STACK CFI 424a1 $r12: .cfa -24 + ^ $r13: .cfa -16 + ^ $rbp: .cfa -32 + ^ $rbx: .cfa -40 + ^ .cfa: $rsp 64 +
STACK CFI INIT 426a0 518 .cfa: $rsp 8 + .ra: .cfa -8 + ^
STACK CFI 426ad $r12: .cfa -40 + ^ $rbp: .cfa -48 + ^
STACK CFI 426cb .cfa: $rsp 192 +
STACK CFI 426d2 $r13: .cfa -32 + ^ $r14: .cfa -24 + ^ $r15: .cfa -16 + ^ $rbx: .cfa -56 + ^
STACK CFI INIT 42c40 261 .cfa: $rsp 8 + .ra: .cfa -8 + ^
STACK CFI 42c42 .cfa: $rsp 16 +
STACK CFI 42c4a .cfa: $rsp 24 +
STACK CFI 42c4c .cfa: $rsp 32 +
STACK CFI 42c4e .cfa: $rsp 40 +
STACK CFI 42c4f .cfa: $rsp 48 +
STACK CFI 42c50 .cfa: $rsp 56 +
STACK CFI 42c5b $r12: .cfa -40 + ^ $r13: .cfa -32 + ^ $r14: .cfa -24 + ^ $r15: .cfa -16 + ^ $rbp: .cfa -48 + ^ $rbx: .cfa -56 + ^
STACK CFI INIT 42eb0 164 .cfa: $rsp 8 + .ra: .cfa -8 + ^
STACK CFI 42eb4 .cfa: $rsp 16 +
STACK CFI 42eb9 $rbx: .cfa -16 + ^
STACK CFI INIT 43020 17 .cfa: $rsp 8 + .ra: .cfa -8 + ^
STACK CFI 43024 .cfa: $rsp 0 +
STACK CFI INIT 43040 23 .cfa: $rsp 8 + .ra: .cfa -8 + ^
STACK CFI INIT 43070 94 .cfa: $rsp 8 + .ra: .cfa -8 + ^
STACK CFI 43071 .cfa: $rsp 16 +
STACK CFI 43074 $rbx: .cfa -16 + ^
STACK CFI 4307b .cfa: $rsp 1104 +
STACK CFI INIT 43110 cb .cfa: $rsp 8 + .ra: .cfa -8 + ^
STACK CFI INIT 431e0 58 .cfa: $rsp 8 + .ra: .cfa -8 + ^
STACK CFI 431e1 .cfa: $rsp 16 +
STACK CFI 431e4 $rbp: .cfa -16 + ^
STACK CFI 431e5 .cfa: $rsp 24 +
STACK CFI 431e9 .cfa: $rsp 64 +
STACK CFI 431ee $rbx: .cfa -24 + ^
STACK CFI INIT 48dd1 1b .cfa: $rsp -128 + .ra: $rip
STACK CFI 48ddb .cfa: $rsp 0 +
STACK CFI 48ddf .cfa: $rsp 128 +
STACK CFI 48de7 .cfa: $rsp -128 +
STACK CFI INIT 48dec 1b .cfa: $rsp -128 + .ra: $rip
STACK CFI 48df6 .cfa: $rsp 0 +
STACK CFI 48dfa .cfa: $rsp 128 +
STACK CFI 48e02 .cfa: $rsp -128 +
STACK CFI INIT 48e07 1b .cfa: $rsp -128 + .ra: $rip
STACK CFI 48e11 .cfa: $rsp 0 +
STACK CFI 48e15 .cfa: $rsp 128 +
STACK CFI 48e1d .cfa: $rsp -128 +
STACK CFI INIT 48e22 18 .cfa: $rsp -128 + .ra: $rip
STACK CFI 48e2c .cfa: $rsp 0 +
STACK CFI 48e30 .cfa: $rsp 128 +
STACK CFI 48e38 .cfa: $rsp -128 +
STACK CFI INIT 43240 ce .cfa: $rsp 8 + .ra: .cfa -8 + ^
STACK CFI 43248 $rbx: .cfa -40 + ^
STACK CFI 4325b .cfa: $rsp 48 +
STACK CFI 4325f $r12: .cfa -24 + ^ $r13: .cfa -16 + ^ $rbp: .cfa -32 + ^
STACK CFI INIT 43310 12d .cfa: $rsp 8 + .ra: .cfa -8 + ^
STACK CFI 43311 .cfa: $rsp 16 +
STACK CFI 43314 $rbp: .cfa -16 + ^ .cfa: $rbp 16 +
STACK CFI 43319 $r15: .cfa -24 + ^
STACK CFI 43322 $r12: .cfa -48 + ^ $r13: .cfa -40 + ^ $r14: .cfa -32 + ^
STACK CFI 43326 $rbx: .cfa -56 + ^
STACK CFI INIT 43440 231 .cfa: $rsp 8 + .ra: .cfa -8 + ^
STACK CFI 43441 .cfa: $rsp 16 +
STACK CFI 43444 $rbp: .cfa -16 + ^ .cfa: $rbp 16 +
STACK CFI 4344f $r12: .cfa -48 + ^ $r13: .cfa -40 + ^ $r14: .cfa -32 + ^ $r15: .cfa -24 + ^
STACK CFI 43453 $rbx: .cfa -56 + ^
STACK CFI INIT 43680 5525 .cfa: $rsp 8 + .ra: .cfa -8 + ^
STACK CFI 43681 .cfa: $rsp 16 +
STACK CFI 43684 $rbp: .cfa -16 + ^ .cfa: $rbp 16 +
STACK CFI 4368f $r13: .cfa -40 + ^ $rbx: .cfa -56 + ^
STACK CFI 4369a $r14: .cfa -32 + ^ $r15: .cfa -24 + ^
STACK CFI 436c7 $r12: .cfa -48 + ^
STACK CFI INIT 48bb0 221 .cfa: $rsp 8 + .ra: .cfa -8 + ^
STACK CFI 48bbd $rbp: .cfa -32 + ^ $rbx: .cfa -40 + ^
STACK CFI 48bce .cfa: $rsp 8528 +
STACK CFI 48bdc $r12: .cfa -24 + ^ $r13: .cfa -16 + ^
STACK CFI INIT 48e40 15 .cfa: $rsp 8 + .ra: .cfa -8 + ^
STACK CFI INIT 48e60 3f .cfa: $rsp 8 + .ra: .cfa -8 + ^
STACK CFI INIT 48ea0 169 .cfa: $rsp 8 + .ra: .cfa -8 + ^
STACK CFI 48ea1 .cfa: $rsp 16 +
STACK CFI 48ea2 .cfa: $rsp 24 +
STACK CFI 48ea5 $rbp: .cfa -16 + ^ $rbx: .cfa -24 + ^
STACK CFI 48ea9 .cfa: $rsp 32 +
STACK CFI INIT 49010 231 .cfa: $rsp 8 + .ra: .cfa -8 + ^
STACK CFI 49011 .cfa: $rsp 16 +
STACK CFI 49014 $rbp: .cfa -16 + ^ .cfa: $rbp 16 +
STACK CFI 4901f $r12: .cfa -48 + ^ $r13: .cfa -40 + ^ $r14: .cfa -32 + ^ $r15: .cfa -24 + ^
STACK CFI 49023 $rbx: .cfa -56 + ^
STACK CFI INIT 49250 2764 .cfa: $rsp 8 + .ra: .cfa -8 + ^
STACK CFI 49251 .cfa: $rsp 16 +
STACK CFI 49254 $rbp: .cfa -16 + ^ .cfa: $rbp 16 +
STACK CFI 4925f $r12: .cfa -48 + ^ $r13: .cfa -40 + ^ $r14: .cfa -32 + ^ $r15: .cfa -24 + ^
STACK CFI 49263 $rbx: .cfa -56 + ^
STACK CFI INIT 4bab5 1f .cfa: $rsp -128 + .ra: $rip
STACK CFI 4bac3 .cfa: $rsp 0 +
STACK CFI 4bac7 .cfa: $rsp 128 +
STACK CFI 4bacf .cfa: $rsp -128 +
STACK CFI INIT 4bad4 1f .cfa: $rsp -128 + .ra: $rip
STACK CFI 4bae2 .cfa: $rsp 0 +
STACK CFI 4bae6 .cfa: $rsp 128 +
STACK CFI 4baee .cfa: $rsp -128 +
STACK CFI INIT 4b9c0 ed .cfa: $rsp 8 + .ra: .cfa -8 + ^
STACK CFI 4b9c1 .cfa: $rsp 16 +
STACK CFI 4b9c4 $rbp: .cfa -16 + ^
STACK CFI 4b9c5 .cfa: $rsp 24 +
STACK CFI 4b9c7 $rbx: .cfa -24 + ^
STACK CFI 4b9cb .cfa: $rsp 48 +
STACK CFI INIT 4bab0 5 .cfa: $rsp 8 + .ra: .cfa -8 + ^
STACK CFI INIT 4bb00 10b .cfa: $rsp 8 + .ra: .cfa -8 + ^
STACK CFI 4bb02 .cfa: $rsp 16 +
STACK CFI 4bb04 .cfa: $rsp 24 +
STACK CFI 4bb06 .cfa: $rsp 32 +
STACK CFI 4bb09 $r13: .cfa -32 + ^ $r14: .cfa -24 + ^ $r15: .cfa -16 + ^
STACK CFI 4bb0b .cfa: $rsp 40 +
STACK CFI 4bb0c .cfa: $rsp 48 +
STACK CFI 4bb0f $r12: .cfa -40 + ^ $rbp: .cfa -48 + ^
STACK CFI 4bb15 .cfa: $rsp 56 +
STACK CFI 4bb19 .cfa: $rsp 144 +
STACK CFI 4bb22 $rbx: .cfa -56 + ^
STACK CFI INIT 4bc10 1a25 .cfa: $rsp 8 + .ra: .cfa -8 + ^
STACK CFI 4bc12 .cfa: $rsp 16 +
STACK CFI 4bc14 .cfa: $rsp 24 +
STACK CFI 4bc16 .cfa: $rsp 32 +
STACK CFI 4bc19 $r13: .cfa -32 + ^ $r14: .cfa -24 + ^ $r15: .cfa -16 + ^
STACK CFI 4bc1b .cfa: $rsp 40 +
STACK CFI 4bc1c .cfa: $rsp 48 +
STACK CFI 4bc1f $r12: .cfa -40 + ^ $rbp: .cfa -48 + ^
STACK CFI 4bc20 .cfa: $rsp 56 +
STACK CFI 4bc27 .cfa: $rsp 480 +
STACK CFI 4bc2c $rbx: .cfa -56 + ^
STACK CFI INIT 4d96f 1f .cfa: $rsp -128 + .ra: $rip
STACK CFI 4d97d .cfa: $rsp 0 +
STACK CFI 4d981 .cfa: $rsp 128 +
STACK CFI 4d989 .cfa: $rsp -128 +
STACK CFI INIT 4d98e 1f .cfa: $rsp -128 + .ra: $rip
STACK CFI 4d99c .cfa: $rsp 0 +
STACK CFI 4d9a0 .cfa: $rsp 128 +
STACK CFI 4d9a8 .cfa: $rsp -128 +
STACK CFI INIT 4d640 e2 .cfa: $rsp 8 + .ra: .cfa -8 + ^
STACK CFI 4d642 .cfa: $rsp 16 +
STACK CFI 4d64e .cfa: $rsp 24 +
STACK CFI 4d650 .cfa: $rsp 32 +
STACK CFI 4d651 .cfa: $rsp 40 +
STACK CFI 4d652 .cfa: $rsp 48 +
STACK CFI 4d663 $r12: .cfa -32 + ^ $r13: .cfa -24 + ^ $r14: .cfa -16 + ^ $rbp: .cfa -40 + ^ $rbx: .cfa -48 + ^
STACK CFI INIT 4d730 ca .cfa: $rsp 8 + .ra: .cfa -8 + ^
STACK CFI 4d732 .cfa: $rsp 16 +
STACK CFI 4d73b .cfa: $rsp 24 +
STACK CFI 4d73c .cfa: $rsp 32 +
STACK CFI 4d73d .cfa: $rsp 40 +
STACK CFI 4d740 $r12: .cfa -24 + ^ $r13: .cfa -16 + ^ $rbp: .cfa -32 + ^ $rbx: .cfa -40 + ^
STACK CFI INIT 1362a0 5b .cfa: $rsp 8 + .ra: .cfa -8 + ^
STACK CFI 1362a1 .cfa: $rsp 16 +
STACK CFI 1362a2 .cfa: $rsp 24 +
STACK CFI 1362a6 .cfa: $rsp 32 +
STACK CFI 1362b2 $rbp: .cfa -16 + ^ $rbx: .cfa -24 + ^
STACK CFI INIT 4d800 16f .cfa: $rsp 8 + .ra: .cfa -8 + ^
STACK CFI 4d802 .cfa: $rsp 16 +
STACK CFI 4d803 .cfa: $rsp 24 +
STACK CFI 4d804 .cfa: $rsp 32 +
STACK CFI 4d809 $r12: .cfa -16 + ^ $rbp: .cfa -24 + ^ $rbx: .cfa -32 + ^
STACK CFI INIT 4da73 1f .cfa: $rsp -128 + .ra: $rip
STACK CFI 4da81 .cfa: $rsp 0 +
STACK CFI 4da85 .cfa: $rsp 128 +
STACK CFI 4da8d .cfa: $rsp -128 +
STACK CFI INIT 4da92 1f .cfa: $rsp -128 + .ra: $rip
STACK CFI 4daa0 .cfa: $rsp 0 +
STACK CFI 4daa4 .cfa: $rsp 128 +
STACK CFI 4daac .cfa: $rsp -128 +
STACK CFI INIT 4d9b0 c3 .cfa: $rsp 8 + .ra: .cfa -8 + ^
STACK CFI 4d9b1 .cfa: $rsp 16 +
STACK CFI 4d9b9 $rbx: .cfa -16 + ^
STACK CFI INIT 4dac0 1f .cfa: $rsp 8 + .ra: .cfa -8 + ^
STACK CFI INIT 4dae0 86d .cfa: $rsp 8 + .ra: .cfa -8 + ^
STACK CFI 4dae2 .cfa: $rsp 16 +
STACK CFI 4dae4 .cfa: $rsp 24 +
STACK CFI 4dae6 .cfa: $rsp 32 +
STACK CFI 4dae8 .cfa: $rsp 40 +
STACK CFI 4daeb $r12: .cfa -40 + ^ $r13: .cfa -32 + ^ $r14: .cfa -24 + ^ $r15: .cfa -16 + ^
STACK CFI 4daec .cfa: $rsp 48 +
STACK CFI 4daed .cfa: $rsp 56 +
STACK CFI 4daf0 $rbp: .cfa -48 + ^ $rbx: .cfa -56 + ^
STACK CFI 4daf7 .cfa: $rsp 192 +
STACK CFI INIT 4e350 90 .cfa: $rsp 8 + .ra: .cfa -8 + ^
STACK CFI 4e357 .cfa: $rsp 224 +
STACK CFI INIT 4e3e0 a2 .cfa: $rsp 8 + .ra: .cfa -8 + ^
STACK CFI 4e3e7 .cfa: $rsp 224 +
STACK CFI INIT 4e490 8b .cfa: $rsp 8 + .ra: .cfa -8 + ^
STACK CFI 4e497 .cfa: $rsp 224 +
STACK CFI INIT 4e520 90 .cfa: $rsp 8 + .ra: .cfa -8 + ^
STACK CFI 4e527 .cfa: $rsp 224 +
STACK CFI INIT 4e5b0 90 .cfa: $rsp 8 + .ra: .cfa -8 + ^
STACK CFI 4e5b7 .cfa: $rsp 224 +
STACK CFI INIT 4e640 90 .cfa: $rsp 8 + .ra: .cfa -8 + ^
STACK CFI 4e647 .cfa: $rsp 224 +
STACK CFI INIT 56b97 1b .cfa: $rsp -128 + .ra: $rip
STACK CFI 56ba1 .cfa: $rsp 0 +
STACK CFI 56ba5 .cfa: $rsp 128 +
STACK CFI 56bad .cfa: $rsp -128 +
STACK CFI INIT 56bb2 1b .cfa: $rsp -128 + .ra: $rip
STACK CFI 56bbc .cfa: $rsp 0 +
STACK CFI 56bc0 .cfa: $rsp 128 +
STACK CFI 56bc8 .cfa: $rsp -128 +
STACK CFI INIT 4e6d0 84b7 .cfa: $rsp 8 + .ra: .cfa -8 + ^
STACK CFI 4e6d1 .cfa: $rsp 16 +
STACK CFI 4e6d4 $rbp: .cfa -16 + ^ .cfa: $rbp 16 +
STACK CFI 4e6df $r12: .cfa -48 + ^ $r13: .cfa -40 + ^ $r14: .cfa -32 + ^ $r15: .cfa -24 + ^
STACK CFI 4e6e3 $rbx: .cfa -56 + ^
STACK CFI INIT 56b90 7 .cfa: $rsp 8 + .ra: .cfa -8 + ^
STACK CFI INIT 56bd0 90 .cfa: $rsp 8 + .ra: .cfa -8 + ^
STACK CFI 56bd7 .cfa: $rsp 224 +
STACK CFI INIT 56c60 a4 .cfa: $rsp 8 + .ra: .cfa -8 + ^
STACK CFI 56c67 .cfa: $rsp 224 +
STACK CFI INIT 56d10 90 .cfa: $rsp 8 + .ra: .cfa -8 + ^
STACK CFI 56d17 .cfa: $rsp 224 +
STACK CFI INIT 56da0 8c .cfa: $rsp 8 + .ra: .cfa -8 + ^
STACK CFI 56dad $rbp: .cfa -24 + ^ $rbx: .cfa -32 + ^
STACK CFI 56db9 .cfa: $rsp 1056 +
STACK CFI 56dc3 $r12: .cfa -16 + ^
STACK CFI INIT 56e30 e6 .cfa: $rsp 8 + .ra: .cfa -8 + ^
STACK CFI 56e3d $rbp: .cfa -24 + ^ $rbx: .cfa -32 + ^
STACK CFI 56e46 .cfa: $rsp 48 +
STACK CFI 56e65 $r12: .cfa -16 + ^
STACK CFI INIT 56f20 101 .cfa: $rsp 8 + .ra: .cfa -8 + ^
STACK CFI 56f2d $r12: .cfa -16 + ^ $rbx: .cfa -32 + ^
STACK CFI 56f36 .cfa: $rsp 48 +
STACK CFI 56f3e $rbp: .cfa -24 + ^
STACK CFI INIT 57030 8b .cfa: $rsp 8 + .ra: .cfa -8 + ^
STACK CFI 57048 .cfa: $rsp 4128 +
STACK CFI 57055 $rbp: .cfa -16 + ^ $rbx: .cfa -24 + ^
STACK CFI INIT 570c0 83 .cfa: $rsp 8 + .ra: .cfa -8 + ^
STACK CFI 570c1 .cfa: $rsp 16 +
STACK CFI 570c9 $rbp: .cfa -16 + ^
STACK CFI 570ca .cfa: $rsp 24 +
STACK CFI 570ce .cfa: $rsp 64 +
STACK CFI 570d4 $rbx: .cfa -24 + ^
STACK CFI INIT 57150 43 .cfa: $rsp 8 + .ra: .cfa -8 + ^
STACK CFI 57154 .cfa: $rsp 16 +
STACK CFI 57157 $rbx: .cfa -16 + ^
STACK CFI INIT 571a0 52 .cfa: $rsp 8 + .ra: .cfa -8 + ^
STACK CFI 571a1 .cfa: $rsp 16 +
STACK CFI 571b9 .cfa: $rsp 4112 +
STACK CFI 571bc $rbx: .cfa -16 + ^
STACK CFI INIT 57200 36f .cfa: $rsp 8 + .ra: .cfa -8 + ^
STACK CFI 57202 .cfa: $rsp 16 +
STACK CFI 57204 .cfa: $rsp 24 +
STACK CFI 57206 .cfa: $rsp 32 +
STACK CFI 57208 .cfa: $rsp 40 +
STACK CFI 5720b $r12: .cfa -40 + ^ $r13: .cfa -32 + ^ $r14: .cfa -24 + ^ $r15: .cfa -16 + ^
STACK CFI 5720c .cfa: $rsp 48 +
STACK CFI 5720e $rbp: .cfa -48 + ^
STACK CFI 5720f .cfa: $rsp 56 +
STACK CFI 57216 .cfa: $rsp 288 +
STACK CFI 5722c $rbx: .cfa -56 + ^
STACK CFI INIT 57570 3b .cfa: $rsp 8 + .ra: .cfa -8 + ^
STACK CFI 57577 .cfa: $rsp 160 +
STACK CFI INIT 575b0 190 .cfa: $rsp 8 + .ra: .cfa -8 + ^
STACK CFI 575b2 .cfa: $rsp 16 +
STACK CFI 575b4 .cfa: $rsp 24 +
STACK CFI 575b6 .cfa: $rsp 32 +
STACK CFI 575b9 $r13: .cfa -32 + ^ $r14: .cfa -24 + ^ $r15: .cfa -16 + ^
STACK CFI 575bb .cfa: $rsp 40 +
STACK CFI 575be $r12: .cfa -40 + ^
STACK CFI 575bf .cfa: $rsp 48 +
STACK CFI 575c2 $rbp: .cfa -48 + ^
STACK CFI 575c3 .cfa: $rsp 56 +
STACK CFI 575c6 $rbx: .cfa -56 + ^
STACK CFI 575ca .cfa: $rsp 80 +
STACK CFI INIT 57740 d .cfa: $rsp 8 + .ra: .cfa -8 + ^
STACK CFI INIT 57750 31 .cfa: $rsp 8 + .ra: .cfa -8 + ^
STACK CFI 57754 .cfa: $rsp 32 +
STACK CFI INIT 57790 2a .cfa: $rsp 8 + .ra: .cfa -8 + ^
STACK CFI 57794 .cfa: $rsp 32 +
STACK CFI INIT 577c0 3c .cfa: $rsp 8 + .ra: .cfa -8 + ^
STACK CFI 577c1 .cfa: $rsp 16 +
STACK CFI 577c4 $rbx: .cfa -16 + ^
STACK CFI INIT 57800 25 .cfa: $rsp 8 + .ra: .cfa -8 + ^
STACK CFI INIT 57830 2a .cfa: $rsp 8 + .ra: .cfa -8 + ^
STACK CFI INIT 578a6 18 .cfa: $rsp -128 + .ra: $rip
STACK CFI 578b0 .cfa: $rsp 0 +
STACK CFI 578b4 .cfa: $rsp 128 +
STACK CFI 578bc .cfa: $rsp -128 +
STACK CFI INIT 57860 46 .cfa: $rsp 8 + .ra: .cfa -8 + ^
STACK CFI INIT 578c0 68 .cfa: $rsp 8 + .ra: .cfa -8 + ^
STACK CFI INIT 57962 18 .cfa: $rsp -128 + .ra: $rip
STACK CFI 5796c .cfa: $rsp 0 +
STACK CFI 57970 .cfa: $rsp 128 +
STACK CFI 57978 .cfa: $rsp -128 +
STACK CFI INIT 57930 32 .cfa: $rsp 8 + .ra: .cfa -8 + ^
STACK CFI INIT 57b09 1b .cfa: $rsp -128 + .ra: $rip
STACK CFI 57b13 .cfa: $rsp 0 +
STACK CFI 57b17 .cfa: $rsp 128 +
STACK CFI 57b1f .cfa: $rsp -128 +
STACK CFI INIT 57b24 1b .cfa: $rsp -128 + .ra: $rip
STACK CFI 57b2e .cfa: $rsp 0 +
STACK CFI 57b32 .cfa: $rsp 128 +
STACK CFI 57b3a .cfa: $rsp -128 +
STACK CFI INIT 57b3f 18 .cfa: $rsp -128 + .ra: $rip
STACK CFI 57b49 .cfa: $rsp 0 +
STACK CFI 57b4d .cfa: $rsp 128 +
STACK CFI 57b55 .cfa: $rsp -128 +
STACK CFI INIT 57980 189 .cfa: $rsp 8 + .ra: .cfa -8 + ^
STACK CFI 57981 .cfa: $rsp 16 +
STACK CFI 5798b .cfa: $rsp 224 +
STACK CFI 579ed $rbx: .cfa -16 + ^
STACK CFI INIT 57c67 1b .cfa: $rsp -128 + .ra: $rip
STACK CFI 57c71 .cfa: $rsp 0 +
STACK CFI 57c75 .cfa: $rsp 128 +
STACK CFI 57c7d .cfa: $rsp -128 +
STACK CFI INIT 57c82 1b .cfa: $rsp -128 + .ra: $rip
STACK CFI 57c8c .cfa: $rsp 0 +
STACK CFI 57c90 .cfa: $rsp 128 +
STACK CFI 57c98 .cfa: $rsp -128 +
STACK CFI INIT 57c9d 18 .cfa: $rsp -128 + .ra: $rip
STACK CFI 57ca7 .cfa: $rsp 0 +
STACK CFI 57cab .cfa: $rsp 128 +
STACK CFI 57cb3 .cfa: $rsp -128 +
STACK CFI INIT 57b60 107 .cfa: $rsp 8 + .ra: .cfa -8 + ^
STACK CFI 57b61 .cfa: $rsp 16 +
STACK CFI 57b68 .cfa: $rsp 24 +
STACK CFI 57b6c .cfa: $rsp 32 +
STACK CFI 57b76 $rbp: .cfa -16 + ^ $rbx: .cfa -24 + ^
STACK CFI INIT 57e37 1b .cfa: $rsp -128 + .ra: $rip
STACK CFI 57e41 .cfa: $rsp 0 +
STACK CFI 57e45 .cfa: $rsp 128 +
STACK CFI 57e4d .cfa: $rsp -128 +
STACK CFI INIT 57e52 1b .cfa: $rsp -128 + .ra: $rip
STACK CFI 57e5c .cfa: $rsp 0 +
STACK CFI 57e60 .cfa: $rsp 128 +
STACK CFI 57e68 .cfa: $rsp -128 +
STACK CFI INIT 57e6d 18 .cfa: $rsp -128 + .ra: $rip
STACK CFI 57e77 .cfa: $rsp 0 +
STACK CFI 57e7b .cfa: $rsp 128 +
STACK CFI 57e83 .cfa: $rsp -128 +
STACK CFI INIT 57cc0 177 .cfa: $rsp 8 + .ra: .cfa -8 + ^
STACK CFI 57cc1 .cfa: $rsp 16 +
STACK CFI 57cc7 $rbx: .cfa -16 + ^
STACK CFI 57cce .cfa: $rsp 224 +
STACK CFI INIT 57f80 1b .cfa: $rsp -128 + .ra: $rip
STACK CFI 57f8a .cfa: $rsp 0 +
STACK CFI 57f8e .cfa: $rsp 128 +
STACK CFI 57f96 .cfa: $rsp -128 +
STACK CFI INIT 57f9b 18 .cfa: $rsp -128 + .ra: $rip
STACK CFI 57fa5 .cfa: $rsp 0 +
STACK CFI 57fa9 .cfa: $rsp 128 +
STACK CFI 57fb1 .cfa: $rsp -128 +
STACK CFI INIT 57fb3 18 .cfa: $rsp -128 + .ra: $rip
STACK CFI 57fbd .cfa: $rsp 0 +
STACK CFI 57fc1 .cfa: $rsp 128 +
STACK CFI 57fc9 .cfa: $rsp -128 +
STACK CFI INIT 57e90 f0 .cfa: $rsp 8 + .ra: .cfa -8 + ^
STACK CFI 57e91 .cfa: $rsp 16 +
STACK CFI 57e98 $rbx: .cfa -16 + ^
STACK CFI INIT 57fd0 90 .cfa: $rsp 8 + .ra: .cfa -8 + ^
STACK CFI 57fd7 .cfa: $rsp 224 +
STACK CFI INIT 58060 a2 .cfa: $rsp 8 + .ra: .cfa -8 + ^
STACK CFI 5807e .cfa: $rsp 288 +
STACK CFI 58081 $r12: .cfa -24 + ^ $r13: .cfa -16 + ^ $rbp: .cfa -32 + ^ $rbx: .cfa -40 + ^
STACK CFI INIT 58110 5cf .cfa: $rsp 8 + .ra: .cfa -8 + ^
STACK CFI 5812e $r12: .cfa -40 + ^ $r13: .cfa -32 + ^ $rbp: .cfa -48 + ^ $rbx: .cfa -56 + ^
STACK CFI 5813f .cfa: $rsp 576 +
STACK CFI 5814a $r14: .cfa -24 + ^ $r15: .cfa -16 + ^
STACK CFI INIT 5dede 1b .cfa: $rsp -128 + .ra: $rip
STACK CFI 5dee8 .cfa: $rsp 0 +
STACK CFI 5deec .cfa: $rsp 128 +
STACK CFI 5def4 .cfa: $rsp -128 +
STACK CFI INIT 5def9 1b .cfa: $rsp -128 + .ra: $rip
STACK CFI 5df03 .cfa: $rsp 0 +
STACK CFI 5df07 .cfa: $rsp 128 +
STACK CFI 5df0f .cfa: $rsp -128 +
STACK CFI INIT 5df14 1b .cfa: $rsp -128 + .ra: $rip
STACK CFI 5df1e .cfa: $rsp 0 +
STACK CFI 5df22 .cfa: $rsp 128 +
STACK CFI 5df2a .cfa: $rsp -128 +
STACK CFI INIT 5df2f 18 .cfa: $rsp -128 + .ra: $rip
STACK CFI 5df39 .cfa: $rsp 0 +
STACK CFI 5df3d .cfa: $rsp 128 +
STACK CFI 5df45 .cfa: $rsp -128 +
STACK CFI INIT 586e0 fa .cfa: $rsp 8 + .ra: .cfa -8 + ^
STACK CFI 586e8 $rbx: .cfa -40 + ^
STACK CFI 586fb .cfa: $rsp 48 +
STACK CFI 58704 $r12: .cfa -24 + ^ $r13: .cfa -16 + ^ $rbp: .cfa -32 + ^
STACK CFI INIT 587e0 dd .cfa: $rsp 8 + .ra: .cfa -8 + ^
STACK CFI 587e1 .cfa: $rsp 16 +
STACK CFI 587e4 $rbp: .cfa -16 + ^ .cfa: $rbp 16 +
STACK CFI 587eb $r14: .cfa -32 + ^ $r15: .cfa -24 + ^
STACK CFI 587f2 $r12: .cfa -48 + ^ $r13: .cfa -40 + ^
STACK CFI 587f6 $rbx: .cfa -56 + ^
STACK CFI INIT 588c0 139 .cfa: $rsp 8 + .ra: .cfa -8 + ^
STACK CFI 588c1 .cfa: $rsp 16 +
STACK CFI 588c4 $rbp: .cfa -16 + ^ .cfa: $rbp 16 +
STACK CFI 588cb $r14: .cfa -32 + ^ $r15: .cfa -24 + ^
STACK CFI 588d2 $r12: .cfa -48 + ^ $r13: .cfa -40 + ^
STACK CFI 588e9 $rbx: .cfa -56 + ^
STACK CFI INIT 58a00 52ac .cfa: $rsp 8 + .ra: .cfa -8 + ^
STACK CFI 58a01 .cfa: $rsp 16 +
STACK CFI 58a04 $rbp: .cfa -16 + ^ .cfa: $rbp 16 +
STACK CFI 58a0f $r12: .cfa -48 + ^ $rbx: .cfa -56 + ^
STACK CFI 58a1a $r13: .cfa -40 + ^ $r14: .cfa -32 + ^
STACK CFI 58a2c $r15: .cfa -24 + ^
STACK CFI INIT 5dcb0 22e .cfa: $rsp 8 + .ra: .cfa -8 + ^
STACK CFI 5dcbd $rbp: .cfa -32 + ^ $rbx: .cfa -40 + ^
STACK CFI 5dcca $r12: .cfa -24 + ^ $r13: .cfa -16 + ^
STACK CFI 5dcd1 .cfa: $rsp 33424 +
STACK CFI INIT 66ab7 1b .cfa: $rsp -128 + .ra: $rip
STACK CFI 66ac1 .cfa: $rsp 0 +
STACK CFI 66ac5 .cfa: $rsp 128 +
STACK CFI 66acd .cfa: $rsp -128 +
STACK CFI INIT 66ad2 1b .cfa: $rsp -128 + .ra: $rip
STACK CFI 66adc .cfa: $rsp 0 +
STACK CFI 66ae0 .cfa: $rsp 128 +
STACK CFI 66ae8 .cfa: $rsp -128 +
STACK CFI INIT 5df50 8b5c .cfa: $rsp 8 + .ra: .cfa -8 + ^
STACK CFI 5df51 .cfa: $rsp 16 +
STACK CFI 5df54 $rbp: .cfa -16 + ^ .cfa: $rbp 16 +
STACK CFI 5df59 $r15: .cfa -24 + ^
STACK CFI 5df65 $r12: .cfa -48 + ^ $r13: .cfa -40 + ^ $r14: .cfa -32 + ^
STACK CFI 5df69 $rbx: .cfa -56 + ^
STACK CFI INIT 66ab0 7 .cfa: $rsp 8 + .ra: .cfa -8 + ^
STACK CFI INIT 66af0 71d .cfa: $rsp 8 + .ra: .cfa -8 + ^
STACK CFI 66af2 .cfa: $rsp 16 +
STACK CFI 66af5 $r12: .cfa -16 + ^
STACK CFI 66af6 .cfa: $rsp 24 +
STACK CFI 66af7 .cfa: $rsp 32 +
STACK CFI 66afa $rbp: .cfa -24 + ^ $rbx: .cfa -32 + ^
STACK CFI 66b02 .cfa: $rsp 48 +
STACK CFI INIT 67210 171 .cfa: $rsp 8 + .ra: .cfa -8 + ^
STACK CFI 67211 .cfa: $rsp 16 +
STACK CFI 67217 $rbp: .cfa -16 + ^ .cfa: $rbp 16 +
STACK CFI 6721e $r13: .cfa -32 + ^ $r14: .cfa -24 + ^
STACK CFI 67224 $r12: .cfa -40 + ^ $rbx: .cfa -48 + ^
STACK CFI INIT 67390 6d7 .cfa: $rsp 8 + .ra: .cfa -8 + ^
STACK CFI 67392 .cfa: $rsp 16 +
STACK CFI 67399 $r12: .cfa -16 + ^
STACK CFI 6739a .cfa: $rsp 24 +
STACK CFI 6739b .cfa: $rsp 32 +
STACK CFI 6739e $rbp: .cfa -24 + ^ $rbx: .cfa -32 + ^
STACK CFI 673a2 .cfa: $rsp 48 +
STACK CFI INIT 67a70 102 .cfa: $rsp 8 + .ra: .cfa -8 + ^
STACK CFI 67a71 .cfa: $rsp 16 +
STACK CFI 67a72 .cfa: $rsp 24 +
STACK CFI 67a75 $rbp: .cfa -16 + ^ $rbx: .cfa -24 + ^
STACK CFI 67a7c .cfa: $rsp 176 +
STACK CFI INIT 67d86 1b .cfa: $rsp -128 + .ra: $rip
STACK CFI 67d90 .cfa: $rsp 0 +
STACK CFI 67d94 .cfa: $rsp 128 +
STACK CFI 67d9c .cfa: $rsp -128 +
STACK CFI INIT 67da1 1f .cfa: $rsp -128 + .ra: $rip
STACK CFI 67daf .cfa: $rsp 0 +
STACK CFI 67db3 .cfa: $rsp 128 +
STACK CFI 67dbb .cfa: $rsp -128 +
STACK CFI INIT 67dc0 1f .cfa: $rsp -128 + .ra: $rip
STACK CFI 67dce .cfa: $rsp 0 +
STACK CFI 67dd2 .cfa: $rsp 128 +
STACK CFI 67dda .cfa: $rsp -128 +
STACK CFI INIT 67ddf 1b .cfa: $rsp -128 + .ra: $rip
STACK CFI 67de9 .cfa: $rsp 0 +
STACK CFI 67ded .cfa: $rsp 128 +
STACK CFI 67df5 .cfa: $rsp -128 +
STACK CFI INIT 67dfa 1b .cfa: $rsp -128 + .ra: $rip
STACK CFI 67e04 .cfa: $rsp 0 +
STACK CFI 67e08 .cfa: $rsp 128 +
STACK CFI 67e10 .cfa: $rsp -128 +
STACK CFI INIT 67b80 206 .cfa: $rsp 8 + .ra: .cfa -8 + ^
STACK CFI 67b82 .cfa: $rsp 16 +
STACK CFI 67b83 .cfa: $rsp 24 +
STACK CFI 67b84 .cfa: $rsp 32 +
STACK CFI 67b89 $r12: .cfa -16 + ^ $rbp: .cfa -24 + ^ $rbx: .cfa -32 + ^
STACK CFI INIT 67e20 242 .cfa: $rsp 8 + .ra: .cfa -8 + ^
STACK CFI 67e2c $rbp: .cfa -32 + ^ $rbx: .cfa -40 + ^
STACK CFI 67e3a .cfa: $rsp 48 +
STACK CFI 67e45 $r12: .cfa -24 + ^ $r13: .cfa -16 + ^
STACK CFI INIT 68167 1b .cfa: $rsp -128 + .ra: $rip
STACK CFI 68171 .cfa: $rsp 0 +
STACK CFI 68175 .cfa: $rsp 128 +
STACK CFI 6817d .cfa: $rsp -128 +
STACK CFI INIT 68182 1b .cfa: $rsp -128 + .ra: $rip
STACK CFI 6818c .cfa: $rsp 0 +
STACK CFI 68190 .cfa: $rsp 128 +
STACK CFI 68198 .cfa: $rsp -128 +
STACK CFI INIT 6819d 18 .cfa: $rsp -128 + .ra: $rip
STACK CFI 681a7 .cfa: $rsp 0 +
STACK CFI 681ab .cfa: $rsp 128 +
STACK CFI 681b3 .cfa: $rsp -128 +
STACK CFI INIT 68070 f7 .cfa: $rsp 8 + .ra: .cfa -8 + ^
STACK CFI 68074 .cfa: $rsp 16 +
STACK CFI 68077 $rbx: .cfa -16 + ^
STACK CFI INIT 68365 1b .cfa: $rsp -128 + .ra: $rip
STACK CFI 6836f .cfa: $rsp 0 +
STACK CFI 68373 .cfa: $rsp 128 +
STACK CFI 6837b .cfa: $rsp -128 +
STACK CFI INIT 68380 1b .cfa: $rsp -128 + .ra: $rip
STACK CFI 6838a .cfa: $rsp 0 +
STACK CFI 6838e .cfa: $rsp 128 +
STACK CFI 68396 .cfa: $rsp -128 +
STACK CFI INIT 6839b 18 .cfa: $rsp -128 + .ra: $rip
STACK CFI 683a5 .cfa: $rsp 0 +
STACK CFI 683a9 .cfa: $rsp 128 +
STACK CFI 683b1 .cfa: $rsp -128 +
STACK CFI INIT 681c0 1a5 .cfa: $rsp 8 + .ra: .cfa -8 + ^
STACK CFI 681c1 .cfa: $rsp 16 +
STACK CFI 681c4 $rbp: .cfa -16 + ^
STACK CFI 681c5 .cfa: $rsp 24 +
STACK CFI 681c8 $rbx: .cfa -24 + ^
STACK CFI 681cc .cfa: $rsp 32 +
STACK CFI INIT 6854a 1b .cfa: $rsp -128 + .ra: $rip
STACK CFI 68554 .cfa: $rsp 0 +
STACK CFI 68558 .cfa: $rsp 128 +
STACK CFI 68560 .cfa: $rsp -128 +
STACK CFI INIT 68565 1b .cfa: $rsp -128 + .ra: $rip
STACK CFI 6856f .cfa: $rsp 0 +
STACK CFI 68573 .cfa: $rsp 128 +
STACK CFI 6857b .cfa: $rsp -128 +
STACK CFI INIT 68580 18 .cfa: $rsp -128 + .ra: $rip
STACK CFI 6858a .cfa: $rsp 0 +
STACK CFI 6858e .cfa: $rsp 128 +
STACK CFI 68596 .cfa: $rsp -128 +
STACK CFI INIT 683c0 18a .cfa: $rsp 8 + .ra: .cfa -8 + ^
STACK CFI 683d6 .cfa: $rsp 32 +
STACK CFI 683db $r12: .cfa -16 + ^ $rbp: .cfa -24 + ^ $rbx: .cfa -32 + ^
STACK CFI INIT 685a0 3f .cfa: $rsp 8 + .ra: .cfa -8 + ^
STACK CFI INIT 685e0 db .cfa: $rsp 8 + .ra: .cfa -8 + ^
STACK CFI 685ed $rbp: .cfa -32 + ^ $rbx: .cfa -40 + ^
STACK CFI 685fb .cfa: $rsp 48 +
STACK CFI 685fe $r12: .cfa -24 + ^ $r13: .cfa -16 + ^
STACK CFI INIT 686c0 a .cfa: $rsp 8 + .ra: .cfa -8 + ^
STACK CFI INIT 686d0 20 .cfa: $rsp 8 + .ra: .cfa -8 + ^
STACK CFI INIT 686f0 40 .cfa: $rsp 8 + .ra: .cfa -8 + ^
STACK CFI 686fe .cfa: $rsp 32 +
STACK CFI 68708 $rbp: .cfa -16 + ^ $rbx: .cfa -24 + ^
STACK CFI INIT 68730 42 .cfa: $rsp 8 + .ra: .cfa -8 + ^
STACK CFI 68734 .cfa: $rsp 32 +
STACK CFI INIT 68780 1a .cfa: $rsp 8 + .ra: .cfa -8 + ^
STACK CFI INIT 687a0 c0 .cfa: $rsp 8 + .ra: .cfa -8 + ^
STACK CFI 687ac $rbp: .cfa -48 + ^ $rbx: .cfa -56 + ^
STACK CFI 687c6 .cfa: $rsp 80 +
STACK CFI 687ce $r12: .cfa -40 + ^ $r13: .cfa -32 + ^ $r14: .cfa -24 + ^ $r15: .cfa -16 + ^
STACK CFI INIT 68860 fa .cfa: $rsp 8 + .ra: .cfa -8 + ^
STACK CFI 6886d $r12: .cfa -16 + ^ $rbx: .cfa -32 + ^
STACK CFI 68876 .cfa: $rsp 64 +
STACK CFI 68881 $rbp: .cfa -24 + ^
STACK CFI INIT 68960 10 .cfa: $rsp 8 + .ra: .cfa -8 + ^
STACK CFI INIT 68ac3 1b .cfa: $rsp -128 + .ra: $rip
STACK CFI 68acd .cfa: $rsp 0 +
STACK CFI 68ad1 .cfa: $rsp 128 +
STACK CFI 68ad9 .cfa: $rsp -128 +
STACK CFI INIT 68ade 1b .cfa: $rsp -128 + .ra: $rip
STACK CFI 68ae8 .cfa: $rsp 0 +
STACK CFI 68aec .cfa: $rsp 128 +
STACK CFI 68af4 .cfa: $rsp -128 +
STACK CFI INIT 68af9 18 .cfa: $rsp -128 + .ra: $rip
STACK CFI 68b03 .cfa: $rsp 0 +
STACK CFI 68b07 .cfa: $rsp 128 +
STACK CFI 68b0f .cfa: $rsp -128 +
STACK CFI INIT 68970 153 .cfa: $rsp 8 + .ra: .cfa -8 + ^
STACK CFI 6897d $rbp: .cfa -24 + ^ $rbx: .cfa -32 + ^
STACK CFI 68986 .cfa: $rsp 32 +
STACK CFI 68989 $r12: .cfa -16 + ^
STACK CFI INIT 68c6d 1b .cfa: $rsp -128 + .ra: $rip
STACK CFI 68c77 .cfa: $rsp 0 +
STACK CFI 68c7b .cfa: $rsp 128 +
STACK CFI 68c83 .cfa: $rsp -128 +
STACK CFI INIT 68c88 1b .cfa: $rsp -128 + .ra: $rip
STACK CFI 68c92 .cfa: $rsp 0 +
STACK CFI 68c96 .cfa: $rsp 128 +
STACK CFI 68c9e .cfa: $rsp -128 +
STACK CFI INIT 68ca3 18 .cfa: $rsp -128 + .ra: $rip
STACK CFI 68cad .cfa: $rsp 0 +
STACK CFI 68cb1 .cfa: $rsp 128 +
STACK CFI 68cb9 .cfa: $rsp -128 +
STACK CFI INIT 68b20 14d .cfa: $rsp 8 + .ra: .cfa -8 + ^
STACK CFI 68b28 $r12: .cfa -24 + ^
STACK CFI 68b3f .cfa: $rsp 48 +
STACK CFI 68b45 $r13: .cfa -16 + ^ $rbp: .cfa -32 + ^ $rbx: .cfa -40 + ^
STACK CFI INIT 68e15 1b .cfa: $rsp -128 + .ra: $rip
STACK CFI 68e1f .cfa: $rsp 0 +
STACK CFI 68e23 .cfa: $rsp 128 +
STACK CFI 68e2b .cfa: $rsp -128 +
STACK CFI INIT 68e30 1b .cfa: $rsp -128 + .ra: $rip
STACK CFI 68e3a .cfa: $rsp 0 +
STACK CFI 68e3e .cfa: $rsp 128 +
STACK CFI 68e46 .cfa: $rsp -128 +
STACK CFI INIT 68e4b 18 .cfa: $rsp -128 + .ra: $rip
STACK CFI 68e55 .cfa: $rsp 0 +
STACK CFI 68e59 .cfa: $rsp 128 +
STACK CFI 68e61 .cfa: $rsp -128 +
STACK CFI INIT 68cc0 155 .cfa: $rsp 8 + .ra: .cfa -8 + ^
STACK CFI 68cc1 .cfa: $rsp 16 +
STACK CFI 68cc4 $rbp: .cfa -16 + ^
STACK CFI 68cc5 .cfa: $rsp 24 +
STACK CFI 68cc8 $rbx: .cfa -24 + ^
STACK CFI 68ccc .cfa: $rsp 32 +
STACK CFI INIT 68fa8 1b .cfa: $rsp -128 + .ra: $rip
STACK CFI 68fb2 .cfa: $rsp 0 +
STACK CFI 68fb6 .cfa: $rsp 128 +
STACK CFI 68fbe .cfa: $rsp -128 +
STACK CFI INIT 68fc3 1b .cfa: $rsp -128 + .ra: $rip
STACK CFI 68fcd .cfa: $rsp 0 +
STACK CFI 68fd1 .cfa: $rsp 128 +
STACK CFI 68fd9 .cfa: $rsp -128 +
STACK CFI INIT 68fde 18 .cfa: $rsp -128 + .ra: $rip
STACK CFI 68fe8 .cfa: $rsp 0 +
STACK CFI 68fec .cfa: $rsp 128 +
STACK CFI 68ff4 .cfa: $rsp -128 +
STACK CFI INIT 68e70 138 .cfa: $rsp 8 + .ra: .cfa -8 + ^
STACK CFI 68e71 .cfa: $rsp 16 +
STACK CFI 68e78 $rbx: .cfa -16 + ^
STACK CFI INIT 6918a 1b .cfa: $rsp -128 + .ra: $rip
STACK CFI 69194 .cfa: $rsp 0 +
STACK CFI 69198 .cfa: $rsp 128 +
STACK CFI 691a0 .cfa: $rsp -128 +
STACK CFI INIT 691a5 18 .cfa: $rsp -128 + .ra: $rip
STACK CFI 691af .cfa: $rsp 0 +
STACK CFI 691b3 .cfa: $rsp 128 +
STACK CFI 691bb .cfa: $rsp -128 +
STACK CFI INIT 691bd 18 .cfa: $rsp -128 + .ra: $rip
STACK CFI 691c7 .cfa: $rsp 0 +
STACK CFI 691cb .cfa: $rsp 128 +
STACK CFI 691d3 .cfa: $rsp -128 +
STACK CFI INIT 69000 18a .cfa: $rsp 8 + .ra: .cfa -8 + ^
STACK CFI 69008 $r13: .cfa -16 + ^
STACK CFI 6901f .cfa: $rsp 48 +
STACK CFI 69025 $r12: .cfa -24 + ^ $rbp: .cfa -32 + ^ $rbx: .cfa -40 + ^
STACK CFI INIT 6947c 1b .cfa: $rsp -128 + .ra: $rip
STACK CFI 69486 .cfa: $rsp 0 +
STACK CFI 6948a .cfa: $rsp 128 +
STACK CFI 69492 .cfa: $rsp -128 +
STACK CFI INIT 69497 1b .cfa: $rsp -128 + .ra: $rip
STACK CFI 694a1 .cfa: $rsp 0 +
STACK CFI 694a5 .cfa: $rsp 128 +
STACK CFI 694ad .cfa: $rsp -128 +
STACK CFI INIT 694b2 18 .cfa: $rsp -128 + .ra: $rip
STACK CFI 694bc .cfa: $rsp 0 +
STACK CFI 694c0 .cfa: $rsp 128 +
STACK CFI 694c8 .cfa: $rsp -128 +
STACK CFI INIT 691e0 29c .cfa: $rsp 8 + .ra: .cfa -8 + ^
STACK CFI 691e2 .cfa: $rsp 16 +
STACK CFI 691e4 .cfa: $rsp 24 +
STACK CFI 691e6 .cfa: $rsp 32 +
STACK CFI 691e8 .cfa: $rsp 40 +
STACK CFI 691eb $r12: .cfa -40 + ^ $r13: .cfa -32 + ^ $r14: .cfa -24 + ^ $r15: .cfa -16 + ^
STACK CFI 691ec .cfa: $rsp 48 +
STACK CFI 691ed .cfa: $rsp 56 +
STACK CFI 691f0 $rbp: .cfa -48 + ^ $rbx: .cfa -56 + ^
STACK CFI 691f4 .cfa: $rsp 96 +
STACK CFI INIT 694d0 8 .cfa: $rsp 8 + .ra: .cfa -8 + ^
STACK CFI INIT 694e0 18f .cfa: $rsp 8 + .ra: .cfa -8 + ^
STACK CFI 694e2 .cfa: $rsp 16 +
STACK CFI 694e4 .cfa: $rsp 24 +
STACK CFI 694e6 .cfa: $rsp 32 +
STACK CFI 694e8 .cfa: $rsp 40 +
STACK CFI 694eb $r12: .cfa -40 + ^ $r13: .cfa -32 + ^ $r14: .cfa -24 + ^ $r15: .cfa -16 + ^
STACK CFI 694ec .cfa: $rsp 48 +
STACK CFI 694ef $rbp: .cfa -48 + ^
STACK CFI 694f0 .cfa: $rsp 56 +
STACK CFI 694f3 $rbx: .cfa -56 + ^
STACK CFI 694f7 .cfa: $rsp 96 +
STACK CFI INIT 69810 1b .cfa: $rsp -128 + .ra: $rip
STACK CFI 6981a .cfa: $rsp 0 +
STACK CFI 6981e .cfa: $rsp 128 +
STACK CFI 69826 .cfa: $rsp -128 +
STACK CFI INIT 6982b 1b .cfa: $rsp -128 + .ra: $rip
STACK CFI 69835 .cfa: $rsp 0 +
STACK CFI 69839 .cfa: $rsp 128 +
STACK CFI 69841 .cfa: $rsp -128 +
STACK CFI INIT 69846 18 .cfa: $rsp -128 + .ra: $rip
STACK CFI 69850 .cfa: $rsp 0 +
STACK CFI 69854 .cfa: $rsp 128 +
STACK CFI 6985c .cfa: $rsp -128 +
STACK CFI INIT 69670 1a0 .cfa: $rsp 8 + .ra: .cfa -8 + ^
STACK CFI 6967d $rbp: .cfa -24 + ^ $rbx: .cfa -32 + ^
STACK CFI 69686 .cfa: $rsp 32 +
STACK CFI 69696 $r12: .cfa -16 + ^
STACK CFI INIT 69860 bd .cfa: $rsp 8 + .ra: .cfa -8 + ^
STACK CFI 69862 .cfa: $rsp 16 +
STACK CFI 69865 $r15: .cfa -16 + ^
STACK CFI 69867 .cfa: $rsp 24 +
STACK CFI 6986e $r14: .cfa -24 + ^
STACK CFI 69870 .cfa: $rsp 32 +
STACK CFI 69873 $r13: .cfa -32 + ^
STACK CFI 69875 .cfa: $rsp 40 +
STACK CFI 69876 .cfa: $rsp 48 +
STACK CFI 69877 .cfa: $rsp 56 +
STACK CFI 6987b .cfa: $rsp 80 +
STACK CFI 69880 $r12: .cfa -40 + ^ $rbp: .cfa -48 + ^ $rbx: .cfa -56 + ^
STACK CFI INIT 69fb8 1f .cfa: $rsp -128 + .ra: $rip
STACK CFI 69fc6 .cfa: $rsp 0 +
STACK CFI 69fca .cfa: $rsp 128 +
STACK CFI 69fd2 .cfa: $rsp -128 +
STACK CFI INIT 69fd7 1f .cfa: $rsp -128 + .ra: $rip
STACK CFI 69fe5 .cfa: $rsp 0 +
STACK CFI 69fe9 .cfa: $rsp 128 +
STACK CFI 69ff1 .cfa: $rsp -128 +
STACK CFI INIT 69ff6 1f .cfa: $rsp -128 + .ra: $rip
STACK CFI 6a004 .cfa: $rsp 0 +
STACK CFI 6a008 .cfa: $rsp 128 +
STACK CFI 6a010 .cfa: $rsp -128 +
STACK CFI INIT 6a015 1f .cfa: $rsp -128 + .ra: $rip
STACK CFI 6a023 .cfa: $rsp 0 +
STACK CFI 6a027 .cfa: $rsp 128 +
STACK CFI 6a02f .cfa: $rsp -128 +
STACK CFI INIT 6a034 1f .cfa: $rsp -128 + .ra: $rip
STACK CFI 6a042 .cfa: $rsp 0 +
STACK CFI 6a046 .cfa: $rsp 128 +
STACK CFI 6a04e .cfa: $rsp -128 +
STACK CFI INIT 69920 44 .cfa: $rsp 8 + .ra: .cfa -8 + ^
STACK CFI INIT 69970 1d1 .cfa: $rsp 8 + .ra: .cfa -8 + ^
STACK CFI 69972 .cfa: $rsp 16 +
STACK CFI 69973 .cfa: $rsp 24 +
STACK CFI 69974 .cfa: $rsp 32 +
STACK CFI 69977 $r12: .cfa -16 + ^ $rbp: .cfa -24 + ^ $rbx: .cfa -32 + ^
STACK CFI 6997b .cfa: $rsp 80 +
STACK CFI INIT 69b50 3c3 .cfa: $rsp 8 + .ra: .cfa -8 + ^
STACK CFI 69b69 $r14: .cfa -24 + ^ $r15: .cfa -16 + ^ $rbp: .cfa -48 + ^ $rbx: .cfa -56 + ^
STACK CFI 69b77 .cfa: $rsp 128 +
STACK CFI 69b87 $r12: .cfa -40 + ^ $r13: .cfa -32 + ^
STACK CFI INIT 69f20 98 .cfa: $rsp 8 + .ra: .cfa -8 + ^
STACK CFI 69f2d $rbp: .cfa -24 + ^ $rbx: .cfa -32 + ^
STACK CFI 69f3b .cfa: $rsp 32 +
STACK CFI 69f3e $r12: .cfa -16 + ^
STACK CFI INIT 6a212 1b .cfa: $rsp -128 + .ra: $rip
STACK CFI 6a21c .cfa: $rsp 0 +
STACK CFI 6a220 .cfa: $rsp 128 +
STACK CFI 6a228 .cfa: $rsp -128 +
STACK CFI INIT 6a22d 1b .cfa: $rsp -128 + .ra: $rip
STACK CFI 6a237 .cfa: $rsp 0 +
STACK CFI 6a23b .cfa: $rsp 128 +
STACK CFI 6a243 .cfa: $rsp -128 +
STACK CFI INIT 6a248 18 .cfa: $rsp -128 + .ra: $rip
STACK CFI 6a252 .cfa: $rsp 0 +
STACK CFI 6a256 .cfa: $rsp 128 +
STACK CFI 6a25e .cfa: $rsp -128 +
STACK CFI INIT 6a060 1b2 .cfa: $rsp 8 + .ra: .cfa -8 + ^
STACK CFI 6a06d $rbp: .cfa -24 + ^ $rbx: .cfa -32 + ^
STACK CFI 6a076 $r12: .cfa -16 + ^ .cfa: $rsp 32 +
STACK CFI INIT 6a434 1b .cfa: $rsp -128 + .ra: $rip
STACK CFI 6a43e .cfa: $rsp 0 +
STACK CFI 6a442 .cfa: $rsp 128 +
STACK CFI 6a44a .cfa: $rsp -128 +
STACK CFI INIT 6a44f 18 .cfa: $rsp -128 + .ra: $rip
STACK CFI 6a459 .cfa: $rsp 0 +
STACK CFI 6a45d .cfa: $rsp 128 +
STACK CFI 6a465 .cfa: $rsp -128 +
STACK CFI INIT 6a467 18 .cfa: $rsp -128 + .ra: $rip
STACK CFI 6a471 .cfa: $rsp 0 +
STACK CFI 6a475 .cfa: $rsp 128 +
STACK CFI 6a47d .cfa: $rsp -128 +
STACK CFI INIT 6a260 e0 .cfa: $rsp 8 + .ra: .cfa -8 + ^
STACK CFI 6a261 .cfa: $rsp 16 +
STACK CFI 6a264 $rbx: .cfa -16 + ^
STACK CFI 6a268 .cfa: $rsp 48 +
STACK CFI INIT 6a340 f4 .cfa: $rsp 8 + .ra: .cfa -8 + ^
STACK CFI 6a341 .cfa: $rsp 16 +
STACK CFI 6a348 .cfa: $rsp 24 +
STACK CFI 6a34b $rbp: .cfa -16 + ^ $rbx: .cfa -24 + ^
STACK CFI 6a34f .cfa: $rsp 32 +
STACK CFI INIT 6a5e4 1b .cfa: $rsp -128 + .ra: $rip
STACK CFI 6a5ee .cfa: $rsp 0 +
STACK CFI 6a5f2 .cfa: $rsp 128 +
STACK CFI 6a5fa .cfa: $rsp -128 +
STACK CFI INIT 6a5ff 18 .cfa: $rsp -128 + .ra: $rip
STACK CFI 6a609 .cfa: $rsp 0 +
STACK CFI 6a60d .cfa: $rsp 128 +
STACK CFI 6a615 .cfa: $rsp -128 +
STACK CFI INIT 6a617 18 .cfa: $rsp -128 + .ra: $rip
STACK CFI 6a621 .cfa: $rsp 0 +
STACK CFI 6a625 .cfa: $rsp 128 +
STACK CFI 6a62d .cfa: $rsp -128 +
STACK CFI INIT 6a480 76 .cfa: $rsp 8 + .ra: .cfa -8 + ^
STACK CFI 6a48d $rbp: .cfa -24 + ^ $rbx: .cfa -32 + ^
STACK CFI 6a496 .cfa: $rsp 32 +
STACK CFI 6a4a2 $r12: .cfa -16 + ^
STACK CFI INIT 6a500 e4 .cfa: $rsp 8 + .ra: .cfa -8 + ^
STACK CFI 6a501 .cfa: $rsp 16 +
STACK CFI 6a508 $rbx: .cfa -16 + ^
STACK CFI INIT 6a772 1c .cfa: $rsp -128 + .ra: $rip
STACK CFI 6a77d .cfa: $rsp 0 +
STACK CFI 6a781 .cfa: $rsp 128 +
STACK CFI 6a789 .cfa: $rsp -128 +
STACK CFI INIT 6a78e 1b .cfa: $rsp -128 + .ra: $rip
STACK CFI 6a798 .cfa: $rsp 0 +
STACK CFI 6a79c .cfa: $rsp 128 +
STACK CFI 6a7a4 .cfa: $rsp -128 +
STACK CFI INIT 6a7a9 18 .cfa: $rsp -128 + .ra: $rip
STACK CFI 6a7b3 .cfa: $rsp 0 +
STACK CFI 6a7b7 .cfa: $rsp 128 +
STACK CFI 6a7bf .cfa: $rsp -128 +
STACK CFI INIT 6a630 142 .cfa: $rsp 8 + .ra: .cfa -8 + ^
STACK CFI 6a63d $r12: .cfa -16 + ^ $rbx: .cfa -32 + ^
STACK CFI 6a646 .cfa: $rsp 32 +
STACK CFI 6a650 $rbp: .cfa -24 + ^
STACK CFI INIT 6a977 1b .cfa: $rsp -128 + .ra: $rip
STACK CFI 6a981 .cfa: $rsp 0 +
STACK CFI 6a985 .cfa: $rsp 128 +
STACK CFI 6a98d .cfa: $rsp -128 +
STACK CFI INIT 6a992 1b .cfa: $rsp -128 + .ra: $rip
STACK CFI 6a99c .cfa: $rsp 0 +
STACK CFI 6a9a0 .cfa: $rsp 128 +
STACK CFI 6a9a8 .cfa: $rsp -128 +
STACK CFI INIT 6a9ad 18 .cfa: $rsp -128 + .ra: $rip
STACK CFI 6a9b7 .cfa: $rsp 0 +
STACK CFI 6a9bb .cfa: $rsp 128 +
STACK CFI 6a9c3 .cfa: $rsp -128 +
STACK CFI INIT 6a7d0 1a7 .cfa: $rsp 8 + .ra: .cfa -8 + ^
STACK CFI 6a7d1 .cfa: $rsp 16 +
STACK CFI 6a7d8 .cfa: $rsp 24 +
STACK CFI 6a7db $rbp: .cfa -16 + ^ $rbx: .cfa -24 + ^
STACK CFI 6a7df .cfa: $rsp 32 +
STACK CFI INIT 6aa73 18 .cfa: $rsp -128 + .ra: $rip
STACK CFI 6aa7d .cfa: $rsp 0 +
STACK CFI 6aa81 .cfa: $rsp 128 +
STACK CFI 6aa89 .cfa: $rsp -128 +
STACK CFI INIT 6aa8b 18 .cfa: $rsp -128 + .ra: $rip
STACK CFI 6aa95 .cfa: $rsp 0 +
STACK CFI 6aa99 .cfa: $rsp 128 +
STACK CFI 6aaa1 .cfa: $rsp -128 +
STACK CFI INIT 6a9d0 a3 .cfa: $rsp 8 + .ra: .cfa -8 + ^
STACK CFI 6a9d4 .cfa: $rsp 16 +
STACK CFI 6a9d9 $rbx: .cfa -16 + ^
STACK CFI INIT 6aab0 c0 .cfa: $rsp 8 + .ra: .cfa -8 + ^
STACK CFI 6aabd $r12: .cfa -24 + ^ $rbp: .cfa -32 + ^
STACK CFI 6aace .cfa: $rsp 288 +
STACK CFI 6aad9 $r13: .cfa -16 + ^ $rbx: .cfa -40 + ^
STACK CFI INIT 6ab70 9d .cfa: $rsp 8 + .ra: .cfa -8 + ^
STACK CFI 6ab8e .cfa: $rsp 288 +
STACK CFI 6ab91 $r12: .cfa -24 + ^ $r13: .cfa -16 + ^ $rbp: .cfa -32 + ^ $rbx: .cfa -40 + ^
STACK CFI INIT 6ad1e 1b .cfa: $rsp -128 + .ra: $rip
STACK CFI 6ad28 .cfa: $rsp 0 +
STACK CFI 6ad2c .cfa: $rsp 128 +
STACK CFI 6ad34 .cfa: $rsp -128 +
STACK CFI INIT 6ad39 1b .cfa: $rsp -128 + .ra: $rip
STACK CFI 6ad43 .cfa: $rsp 0 +
STACK CFI 6ad47 .cfa: $rsp 128 +
STACK CFI 6ad4f .cfa: $rsp -128 +
STACK CFI INIT 6ad54 18 .cfa: $rsp -128 + .ra: $rip
STACK CFI 6ad5e .cfa: $rsp 0 +
STACK CFI 6ad62 .cfa: $rsp 128 +
STACK CFI 6ad6a .cfa: $rsp -128 +
STACK CFI INIT 6ac10 10e .cfa: $rsp 8 + .ra: .cfa -8 + ^
STACK CFI 6ac18 .cfa: $rsp 16 +
STACK CFI 6ac22 $rbx: .cfa -16 + ^
STACK CFI INIT 6ad70 2d .cfa: $rsp 8 + .ra: .cfa -8 + ^
STACK CFI INIT 6ada0 20 .cfa: $rsp 8 + .ra: .cfa -8 + ^
STACK CFI INIT 6adc0 3 .cfa: $rsp 8 + .ra: .cfa -8 + ^
STACK CFI INIT 6add0 8 .cfa: $rsp 8 + .ra: .cfa -8 + ^
STACK CFI INIT 6ade0 d4 .cfa: $rsp 8 + .ra: .cfa -8 + ^
STACK CFI 6aded $r13: .cfa -24 + ^ $rbx: .cfa -48 + ^
STACK CFI 6adfa $r14: .cfa -16 + ^ $rbp: .cfa -40 + ^
STACK CFI 6ae03 .cfa: $rsp 80 +
STACK CFI 6ae0b $r12: .cfa -32 + ^
STACK CFI INIT 6aec0 be .cfa: $rsp 8 + .ra: .cfa -8 + ^
STACK CFI 6aecd $r13: .cfa -16 + ^ $rbx: .cfa -40 + ^
STACK CFI 6aedb .cfa: $rsp 80 +
STACK CFI 6aee2 $r12: .cfa -24 + ^ $rbp: .cfa -32 + ^
STACK CFI INIT 6af80 e6 .cfa: $rsp 8 + .ra: .cfa -8 + ^
STACK CFI 6af8d $r13: .cfa -24 + ^ $rbx: .cfa -48 + ^
STACK CFI 6af9a $r14: .cfa -16 + ^ $rbp: .cfa -40 + ^
STACK CFI 6afa3 .cfa: $rsp 80 +
STACK CFI 6afb1 $r12: .cfa -32 + ^
STACK CFI INIT 6b070 b8 .cfa: $rsp 8 + .ra: .cfa -8 + ^
STACK CFI 6b071 .cfa: $rsp 16 +
STACK CFI 6b078 $rbp: .cfa -16 + ^ .cfa: $rbp 16 +
STACK CFI 6b083 $r13: .cfa -40 + ^ $r14: .cfa -32 + ^
STACK CFI 6b0a2 $r12: .cfa -48 + ^ $r15: .cfa -24 + ^ $rbx: .cfa -56 + ^
STACK CFI INIT 6b130 272 .cfa: $rsp 8 + .ra: .cfa -8 + ^
STACK CFI 6b14a .cfa: $rsp 80 +
STACK CFI 6b150 $r12: .cfa -24 + ^ $r13: .cfa -16 + ^ $rbp: .cfa -32 + ^ $rbx: .cfa -40 + ^
STACK CFI INIT 6b43d 18 .cfa: $rsp -128 + .ra: $rip
STACK CFI 6b447 .cfa: $rsp 0 +
STACK CFI 6b44b .cfa: $rsp 128 +
STACK CFI 6b453 .cfa: $rsp -128 +
STACK CFI INIT 6b455 18 .cfa: $rsp -128 + .ra: $rip
STACK CFI 6b45f .cfa: $rsp 0 +
STACK CFI 6b463 .cfa: $rsp 128 +
STACK CFI 6b46b .cfa: $rsp -128 +
STACK CFI INIT 6b3b0 8d .cfa: $rsp 8 + .ra: .cfa -8 + ^
STACK CFI INIT 6b509 18 .cfa: $rsp -128 + .ra: $rip
STACK CFI 6b513 .cfa: $rsp 0 +
STACK CFI 6b517 .cfa: $rsp 128 +
STACK CFI 6b51f .cfa: $rsp -128 +
STACK CFI INIT 6b521 18 .cfa: $rsp -128 + .ra: $rip
STACK CFI 6b52b .cfa: $rsp 0 +
STACK CFI 6b52f .cfa: $rsp 128 +
STACK CFI 6b537 .cfa: $rsp -128 +
STACK CFI INIT 6b470 99 .cfa: $rsp 8 + .ra: .cfa -8 + ^
STACK CFI INIT 6b5d9 18 .cfa: $rsp -128 + .ra: $rip
STACK CFI 6b5e3 .cfa: $rsp 0 +
STACK CFI 6b5e7 .cfa: $rsp 128 +
STACK CFI 6b5ef .cfa: $rsp -128 +
STACK CFI INIT 6b5f1 18 .cfa: $rsp -128 + .ra: $rip
STACK CFI 6b5fb .cfa: $rsp 0 +
STACK CFI 6b5ff .cfa: $rsp 128 +
STACK CFI 6b607 .cfa: $rsp -128 +
STACK CFI INIT 6b540 99 .cfa: $rsp 8 + .ra: .cfa -8 + ^
STACK CFI INIT 6b610 24 .cfa: $rsp 8 + .ra: .cfa -8 + ^
STACK CFI INIT 6b73d 1b .cfa: $rsp -128 + .ra: $rip
STACK CFI 6b747 .cfa: $rsp 0 +
STACK CFI 6b74b .cfa: $rsp 128 +
STACK CFI 6b753 .cfa: $rsp -128 +
STACK CFI INIT 6b758 1b .cfa: $rsp -128 + .ra: $rip
STACK CFI 6b762 .cfa: $rsp 0 +
STACK CFI 6b766 .cfa: $rsp 128 +
STACK CFI 6b76e .cfa: $rsp -128 +
STACK CFI INIT 6b773 18 .cfa: $rsp -128 + .ra: $rip
STACK CFI 6b77d .cfa: $rsp 0 +
STACK CFI 6b781 .cfa: $rsp 128 +
STACK CFI 6b789 .cfa: $rsp -128 +
STACK CFI INIT 6b640 fd .cfa: $rsp 8 + .ra: .cfa -8 + ^
STACK CFI 6b641 .cfa: $rsp 16 +
STACK CFI 6b64b $rbx: .cfa -16 + ^
STACK CFI INIT 6b9ee 1b .cfa: $rsp -128 + .ra: $rip
STACK CFI 6b9f8 .cfa: $rsp 0 +
STACK CFI 6b9fc .cfa: $rsp 128 +
STACK CFI 6ba04 .cfa: $rsp -128 +
STACK CFI INIT 6ba09 1b .cfa: $rsp -128 + .ra: $rip
STACK CFI 6ba13 .cfa: $rsp 0 +
STACK CFI 6ba17 .cfa: $rsp 128 +
STACK CFI 6ba1f .cfa: $rsp -128 +
STACK CFI INIT 6ba24 18 .cfa: $rsp -128 + .ra: $rip
STACK CFI 6ba2e .cfa: $rsp 0 +
STACK CFI 6ba32 .cfa: $rsp 128 +
STACK CFI 6ba3a .cfa: $rsp -128 +
STACK CFI INIT 6b790 25e .cfa: $rsp 8 + .ra: .cfa -8 + ^
STACK CFI 6b79c $rbp: .cfa -40 + ^ $rbx: .cfa -48 + ^
STACK CFI 6b7b5 .cfa: $rsp 192 +
STACK CFI 6b7ba $r12: .cfa -32 + ^ $r13: .cfa -24 + ^ $r14: .cfa -16 + ^
STACK CFI INIT 6bb2e 1b .cfa: $rsp -128 + .ra: $rip
STACK CFI 6bb38 .cfa: $rsp 0 +
STACK CFI 6bb3c .cfa: $rsp 128 +
STACK CFI 6bb44 .cfa: $rsp -128 +
STACK CFI INIT 6bb49 18 .cfa: $rsp -128 + .ra: $rip
STACK CFI 6bb53 .cfa: $rsp 0 +
STACK CFI 6bb57 .cfa: $rsp 128 +
STACK CFI 6bb5f .cfa: $rsp -128 +
STACK CFI INIT 6bb61 18 .cfa: $rsp -128 + .ra: $rip
STACK CFI 6bb6b .cfa: $rsp 0 +
STACK CFI 6bb6f .cfa: $rsp 128 +
STACK CFI 6bb77 .cfa: $rsp -128 +
STACK CFI INIT 6ba40 ee .cfa: $rsp 8 + .ra: .cfa -8 + ^
STACK CFI 6ba41 .cfa: $rsp 16 +
STACK CFI 6ba48 $rbx: .cfa -16 + ^
STACK CFI INIT 6bc70 1b .cfa: $rsp -128 + .ra: $rip
STACK CFI 6bc7a .cfa: $rsp 0 +
STACK CFI 6bc7e .cfa: $rsp 128 +
STACK CFI 6bc86 .cfa: $rsp -128 +
STACK CFI INIT 6bc8b 1b .cfa: $rsp -128 + .ra: $rip
STACK CFI 6bc95 .cfa: $rsp 0 +
STACK CFI 6bc99 .cfa: $rsp 128 +
STACK CFI 6bca1 .cfa: $rsp -128 +
STACK CFI INIT 6bca6 18 .cfa: $rsp -128 + .ra: $rip
STACK CFI 6bcb0 .cfa: $rsp 0 +
STACK CFI 6bcb4 .cfa: $rsp 128 +
STACK CFI 6bcbc .cfa: $rsp -128 +
STACK CFI INIT 6bb80 f0 .cfa: $rsp 8 + .ra: .cfa -8 + ^
STACK CFI 6bb81 .cfa: $rsp 16 +
STACK CFI 6bb88 $rbx: .cfa -16 + ^
STACK CFI INIT 6bdc1 1b .cfa: $rsp -128 + .ra: $rip
STACK CFI 6bdcb .cfa: $rsp 0 +
STACK CFI 6bdcf .cfa: $rsp 128 +
STACK CFI 6bdd7 .cfa: $rsp -128 +
STACK CFI INIT 6bddc 1b .cfa: $rsp -128 + .ra: $rip
STACK CFI 6bde6 .cfa: $rsp 0 +
STACK CFI 6bdea .cfa: $rsp 128 +
STACK CFI 6bdf2 .cfa: $rsp -128 +
STACK CFI INIT 6bdf7 18 .cfa: $rsp -128 + .ra: $rip
STACK CFI 6be01 .cfa: $rsp 0 +
STACK CFI 6be05 .cfa: $rsp 128 +
STACK CFI 6be0d .cfa: $rsp -128 +
STACK CFI INIT 6bcc0 101 .cfa: $rsp 8 + .ra: .cfa -8 + ^
STACK CFI 6bcc8 .cfa: $rsp 16 +
STACK CFI 6bccf $rbx: .cfa -16 + ^
STACK CFI INIT 6be10 e1 .cfa: $rsp 8 + .ra: .cfa -8 + ^
STACK CFI 6be1d $rbp: .cfa -32 + ^ $rbx: .cfa -40 + ^
STACK CFI 6be30 .cfa: $rsp 64 +
STACK CFI 6be33 $r12: .cfa -24 + ^ $r13: .cfa -16 + ^
STACK CFI INIT 6bf00 46 .cfa: $rsp 8 + .ra: .cfa -8 + ^
STACK CFI 6bf09 .cfa: $rsp 16 +
STACK CFI 6bf0c $rbx: .cfa -16 + ^
STACK CFI INIT 6bf50 6d .cfa: $rsp 8 + .ra: .cfa -8 + ^
STACK CFI 6bf51 .cfa: $rsp 16 +
STACK CFI 6bf52 .cfa: $rsp 24 +
STACK CFI 6bf55 $rbp: .cfa -16 + ^ $rbx: .cfa -24 + ^
STACK CFI 6bf59 .cfa: $rsp 32 +
STACK CFI INIT 6bfc0 5 .cfa: $rsp 8 + .ra: .cfa -8 + ^
STACK CFI INIT 6c0cd 1b .cfa: $rsp -128 + .ra: $rip
STACK CFI 6c0d7 .cfa: $rsp 0 +
STACK CFI 6c0db .cfa: $rsp 128 +
STACK CFI 6c0e3 .cfa: $rsp -128 +
STACK CFI INIT 6c0e8 1b .cfa: $rsp -128 + .ra: $rip
STACK CFI 6c0f2 .cfa: $rsp 0 +
STACK CFI 6c0f6 .cfa: $rsp 128 +
STACK CFI 6c0fe .cfa: $rsp -128 +
STACK CFI INIT 6c103 18 .cfa: $rsp -128 + .ra: $rip
STACK CFI 6c10d .cfa: $rsp 0 +
STACK CFI 6c111 .cfa: $rsp 128 +
STACK CFI 6c119 .cfa: $rsp -128 +
STACK CFI INIT 6bfd0 fd .cfa: $rsp 8 + .ra: .cfa -8 + ^
STACK CFI 6bfd1 .cfa: $rsp 16 +
STACK CFI 6bfdb $rbx: .cfa -16 + ^
STACK CFI INIT 6c204 1b .cfa: $rsp -128 + .ra: $rip
STACK CFI 6c20e .cfa: $rsp 0 +
STACK CFI 6c212 .cfa: $rsp 128 +
STACK CFI 6c21a .cfa: $rsp -128 +
STACK CFI INIT 6c21f 18 .cfa: $rsp -128 + .ra: $rip
STACK CFI 6c229 .cfa: $rsp 0 +
STACK CFI 6c22d .cfa: $rsp 128 +
STACK CFI 6c235 .cfa: $rsp -128 +
STACK CFI INIT 6c237 18 .cfa: $rsp -128 + .ra: $rip
STACK CFI 6c241 .cfa: $rsp 0 +
STACK CFI 6c245 .cfa: $rsp 128 +
STACK CFI 6c24d .cfa: $rsp -128 +
STACK CFI INIT 6c120 e4 .cfa: $rsp 8 + .ra: .cfa -8 + ^
STACK CFI 6c121 .cfa: $rsp 16 +
STACK CFI 6c128 $rbx: .cfa -16 + ^
STACK CFI INIT 6c250 a .cfa: $rsp 8 + .ra: .cfa -8 + ^
STACK CFI INIT 6c260 e .cfa: $rsp 8 + .ra: .cfa -8 + ^
STACK CFI INIT 6c270 187 .cfa: $rsp 8 + .ra: .cfa -8 + ^
STACK CFI 6c27d $rbp: .cfa -40 + ^ $rbx: .cfa -48 + ^
STACK CFI 6c298 .cfa: $rsp 288 +
STACK CFI 6c29e $r12: .cfa -32 + ^ $r13: .cfa -24 + ^ $r14: .cfa -16 + ^
STACK CFI INIT 6c400 152 .cfa: $rsp 8 + .ra: .cfa -8 + ^
STACK CFI 6c422 .cfa: $rsp 608 +
STACK CFI 6c42a $r12: .cfa -24 + ^ $r13: .cfa -16 + ^ $rbp: .cfa -32 + ^ $rbx: .cfa -40 + ^
STACK CFI INIT 6c560 14 .cfa: $rsp 8 + .ra: .cfa -8 + ^
STACK CFI INIT 6c580 7a .cfa: $rsp 8 + .ra: .cfa -8 + ^
STACK CFI 6c591 $rbp: .cfa -32 + ^ $rbx: .cfa -40 + ^
STACK CFI 6c59f .cfa: $rsp 48 +
STACK CFI 6c5a9 $r12: .cfa -24 + ^ $r13: .cfa -16 + ^
STACK CFI INIT 6c600 e1 .cfa: $rsp 8 + .ra: .cfa -8 + ^
STACK CFI 6c60d $rbp: .cfa -40 + ^ $rbx: .cfa -48 + ^
STACK CFI 6c61a $r12: .cfa -32 + ^ $r13: .cfa -24 + ^
STACK CFI 6c626 .cfa: $rsp 352 +
STACK CFI 6c630 $r14: .cfa -16 + ^
STACK CFI INIT 6c6f0 d6 .cfa: $rsp 8 + .ra: .cfa -8 + ^
STACK CFI 6c6fd $r12: .cfa -32 + ^ $rbp: .cfa -40 + ^
STACK CFI 6c713 .cfa: $rsp 48 +
STACK CFI 6c71a $r13: .cfa -24 + ^ $r14: .cfa -16 + ^ $rbx: .cfa -48 + ^
STACK CFI INIT 6c7d0 a8 .cfa: $rsp 8 + .ra: .cfa -8 + ^
STACK CFI 6c7dd $r12: .cfa -16 + ^ $rbp: .cfa -24 + ^
STACK CFI 6c7e6 .cfa: $rsp 32 +
STACK CFI 6c7f3 $rbx: .cfa -32 + ^
STACK CFI INIT 6c880 1ba .cfa: $rsp 8 + .ra: .cfa -8 + ^
STACK CFI 6c88d $r12: .cfa -40 + ^ $rbx: .cfa -56 + ^
STACK CFI 6c8aa .cfa: $rsp 304 +
STACK CFI 6c8b3 $r13: .cfa -32 + ^ $r14: .cfa -24 + ^ $r15: .cfa -16 + ^ $rbp: .cfa -48 + ^
STACK CFI INIT 6ca40 90 .cfa: $rsp 8 + .ra: .cfa -8 + ^
STACK CFI 6ca47 .cfa: $rsp 224 +
STACK CFI INIT 6cad0 5 .cfa: $rsp 8 + .ra: .cfa -8 + ^
STACK CFI INIT 6cbce 1b .cfa: $rsp -128 + .ra: $rip
STACK CFI 6cbd8 .cfa: $rsp 0 +
STACK CFI 6cbdc .cfa: $rsp 128 +
STACK CFI 6cbe4 .cfa: $rsp -128 +
STACK CFI INIT 6cbe9 18 .cfa: $rsp -128 + .ra: $rip
STACK CFI 6cbf3 .cfa: $rsp 0 +
STACK CFI 6cbf7 .cfa: $rsp 128 +
STACK CFI 6cbff .cfa: $rsp -128 +
STACK CFI INIT 6cc01 18 .cfa: $rsp -128 + .ra: $rip
STACK CFI 6cc0b .cfa: $rsp 0 +
STACK CFI 6cc0f .cfa: $rsp 128 +
STACK CFI 6cc17 .cfa: $rsp -128 +
STACK CFI INIT 6cae0 ee .cfa: $rsp 8 + .ra: .cfa -8 + ^
STACK CFI 6cae1 .cfa: $rsp 16 +
STACK CFI 6cae8 $rbx: .cfa -16 + ^
STACK CFI INIT 6cd58 1b .cfa: $rsp -128 + .ra: $rip
STACK CFI 6cd62 .cfa: $rsp 0 +
STACK CFI 6cd66 .cfa: $rsp 128 +
STACK CFI 6cd6e .cfa: $rsp -128 +
STACK CFI INIT 6cd73 1b .cfa: $rsp -128 + .ra: $rip
STACK CFI 6cd7d .cfa: $rsp 0 +
STACK CFI 6cd81 .cfa: $rsp 128 +
STACK CFI 6cd89 .cfa: $rsp -128 +
STACK CFI INIT 6cd8e 18 .cfa: $rsp -128 + .ra: $rip
STACK CFI 6cd98 .cfa: $rsp 0 +
STACK CFI 6cd9c .cfa: $rsp 128 +
STACK CFI 6cda4 .cfa: $rsp -128 +
STACK CFI INIT 6cc20 138 .cfa: $rsp 8 + .ra: .cfa -8 + ^
STACK CFI 6cc21 .cfa: $rsp 16 +
STACK CFI 6cc28 $rbx: .cfa -16 + ^
STACK CFI INIT 6d00e 1b .cfa: $rsp -128 + .ra: $rip
STACK CFI 6d018 .cfa: $rsp 0 +
STACK CFI 6d01c .cfa: $rsp 128 +
STACK CFI 6d024 .cfa: $rsp -128 +
STACK CFI INIT 6d029 1b .cfa: $rsp -128 + .ra: $rip
STACK CFI 6d033 .cfa: $rsp 0 +
STACK CFI 6d037 .cfa: $rsp 128 +
STACK CFI 6d03f .cfa: $rsp -128 +
STACK CFI INIT 6d044 18 .cfa: $rsp -128 + .ra: $rip
STACK CFI 6d04e .cfa: $rsp 0 +
STACK CFI 6d052 .cfa: $rsp 128 +
STACK CFI 6d05a .cfa: $rsp -128 +
STACK CFI INIT 6cdb0 25e .cfa: $rsp 8 + .ra: .cfa -8 + ^
STACK CFI 6cdbc $rbp: .cfa -40 + ^ $rbx: .cfa -48 + ^
STACK CFI 6cdd5 .cfa: $rsp 192 +
STACK CFI 6cdda $r12: .cfa -32 + ^ $r13: .cfa -24 + ^ $r14: .cfa -16 + ^
STACK CFI INIT 6d060 29 .cfa: $rsp 8 + .ra: .cfa -8 + ^
STACK CFI INIT 6d090 2b .cfa: $rsp 8 + .ra: .cfa -8 + ^
STACK CFI INIT 6d0c0 8 .cfa: $rsp 8 + .ra: .cfa -8 + ^
STACK CFI INIT 6d0d0 c .cfa: $rsp 8 + .ra: .cfa -8 + ^
STACK CFI INIT 6d0e0 c .cfa: $rsp 8 + .ra: .cfa -8 + ^
STACK CFI INIT 6d0f0 8 .cfa: $rsp 8 + .ra: .cfa -8 + ^
STACK CFI INIT 6d100 67 .cfa: $rsp 8 + .ra: .cfa -8 + ^
STACK CFI 6d107 .cfa: $rsp 16 +
STACK CFI 6d10a $rbx: .cfa -16 + ^
STACK CFI INIT 6d170 29 .cfa: $rsp 8 + .ra: .cfa -8 + ^
STACK CFI INIT 6d1a0 2e .cfa: $rsp 8 + .ra: .cfa -8 + ^
STACK CFI INIT 6d1d0 412 .cfa: $rsp 8 + .ra: .cfa -8 + ^
STACK CFI 6d1d1 .cfa: $rsp 16 +
STACK CFI 6d1d7 $rbp: .cfa -16 + ^ .cfa: $rbp 16 +
STACK CFI 6d2a3 $r12: .cfa -48 + ^ $r13: .cfa -40 + ^ $r14: .cfa -32 + ^ $r15: .cfa -24 + ^ $rbx: .cfa -56 + ^
STACK CFI INIT 6d5f0 20 .cfa: $rsp 8 + .ra: .cfa -8 + ^
STACK CFI 6d5f1 .cfa: $rsp 16 +
STACK CFI 6d5f4 $rbx: .cfa -16 + ^
STACK CFI INIT 6d610 61 .cfa: $rsp 8 + .ra: .cfa -8 + ^
STACK CFI INIT 6d680 1f .cfa: $rsp 8 + .ra: .cfa -8 + ^
STACK CFI 6d681 .cfa: $rsp 16 +
STACK CFI 6d687 $rbx: .cfa -16 + ^
STACK CFI INIT 6d6a0 198 .cfa: $rsp 8 + .ra: .cfa -8 + ^
STACK CFI 6d6ad $r12: .cfa -24 + ^ $rbx: .cfa -40 + ^
STACK CFI 6d6bb .cfa: $rsp 112 +
STACK CFI 6d6c4 $r13: .cfa -16 + ^ $rbp: .cfa -32 + ^
STACK CFI INIT 6d840 c2 .cfa: $rsp 8 + .ra: .cfa -8 + ^
STACK CFI 6d84d $rbp: .cfa -24 + ^ $rbx: .cfa -32 + ^
STACK CFI 6d856 .cfa: $rsp 32 +
STACK CFI 6d860 $r12: .cfa -16 + ^
STACK CFI INIT 6d910 5e .cfa: $rsp 8 + .ra: .cfa -8 + ^
STACK CFI 6d911 .cfa: $rsp 16 +
STACK CFI 6d914 $rbp: .cfa -16 + ^
STACK CFI 6d915 .cfa: $rsp 24 +
STACK CFI 6d918 $rbx: .cfa -24 + ^
STACK CFI 6d91f .cfa: $rsp 32 +
STACK CFI INIT 6d970 4 .cfa: $rsp 8 + .ra: .cfa -8 + ^
STACK CFI INIT 6d980 9 .cfa: $rsp 8 + .ra: .cfa -8 + ^
STACK CFI INIT 6d990 9 .cfa: $rsp 8 + .ra: .cfa -8 + ^
STACK CFI INIT 6d9a0 29 .cfa: $rsp 8 + .ra: .cfa -8 + ^
STACK CFI INIT 6d9d0 1b .cfa: $rsp 8 + .ra: .cfa -8 + ^
STACK CFI INIT 6d9f0 22 .cfa: $rsp 8 + .ra: .cfa -8 + ^
STACK CFI INIT 6da20 29 .cfa: $rsp 8 + .ra: .cfa -8 + ^
STACK CFI 6da24 .cfa: $rsp 16 +
STACK CFI INIT 6da50 29 .cfa: $rsp 8 + .ra: .cfa -8 + ^
STACK CFI INIT 6db71 1b .cfa: $rsp -128 + .ra: $rip
STACK CFI 6db7b .cfa: $rsp 0 +
STACK CFI 6db7f .cfa: $rsp 128 +
STACK CFI 6db87 .cfa: $rsp -128 +
STACK CFI INIT 6db8c 1b .cfa: $rsp -128 + .ra: $rip
STACK CFI 6db96 .cfa: $rsp 0 +
STACK CFI 6db9a .cfa: $rsp 128 +
STACK CFI 6dba2 .cfa: $rsp -128 +
STACK CFI INIT 6dba7 18 .cfa: $rsp -128 + .ra: $rip
STACK CFI 6dbb1 .cfa: $rsp 0 +
STACK CFI 6dbb5 .cfa: $rsp 128 +
STACK CFI 6dbbd .cfa: $rsp -128 +
STACK CFI INIT 6da80 f1 .cfa: $rsp 8 + .ra: .cfa -8 + ^
STACK CFI 6da81 .cfa: $rsp 16 +
STACK CFI 6da88 $rbx: .cfa -16 + ^
STACK CFI INIT 6dbc0 5d .cfa: $rsp 8 + .ra: .cfa -8 + ^
STACK CFI 6dbc8 $r12: .cfa -16 + ^
STACK CFI 6dbda .cfa: $rsp 32 +
STACK CFI 6dbdd $rbp: .cfa -24 + ^ $rbx: .cfa -32 + ^
STACK CFI INIT 6dc20 92 .cfa: $rsp 8 + .ra: .cfa -8 + ^
STACK CFI 6dc28 $r12: .cfa -16 + ^
STACK CFI 6dc3a .cfa: $rsp 32 +
STACK CFI 6dc3d $rbp: .cfa -24 + ^ $rbx: .cfa -32 + ^
STACK CFI INIT 6dcc0 b1 .cfa: $rsp 8 + .ra: .cfa -8 + ^
STACK CFI 6dccd $rbp: .cfa -24 + ^ $rbx: .cfa -32 + ^
STACK CFI 6dcd6 .cfa: $rsp 32 +
STACK CFI 6dce1 $r12: .cfa -16 + ^
STACK CFI INIT 6dd80 77 .cfa: $rsp 8 + .ra: .cfa -8 + ^
STACK CFI 6dd8d $rbp: .cfa -24 + ^ $rbx: .cfa -32 + ^
STACK CFI 6dd96 .cfa: $rsp 32 +
STACK CFI 6dd99 $r12: .cfa -16 + ^
STACK CFI INIT 6de00 8b .cfa: $rsp 8 + .ra: .cfa -8 + ^
STACK CFI 6de01 .cfa: $rsp 16 +
STACK CFI 6de04 $rbp: .cfa -16 + ^
STACK CFI 6de05 .cfa: $rsp 24 +
STACK CFI 6de09 .cfa: $rsp 32 +
STACK CFI 6de12 $rbx: .cfa -24 + ^
STACK CFI INIT 6de90 bd .cfa: $rsp 8 + .ra: .cfa -8 + ^
STACK CFI 6de92 .cfa: $rsp 16 +
STACK CFI 6de95 $r15: .cfa -16 + ^
STACK CFI 6de97 .cfa: $rsp 24 +
STACK CFI 6de9e $r14: .cfa -24 + ^
STACK CFI 6dea0 .cfa: $rsp 32 +
STACK CFI 6dea3 $r13: .cfa -32 + ^
STACK CFI 6dea5 .cfa: $rsp 40 +
STACK CFI 6dea6 .cfa: $rsp 48 +
STACK CFI 6dea7 .cfa: $rsp 56 +
STACK CFI 6deab .cfa: $rsp 128 +
STACK CFI 6deb0 $r12: .cfa -40 + ^ $rbp: .cfa -48 + ^ $rbx: .cfa -56 + ^
STACK CFI INIT 6df50 8b .cfa: $rsp 8 + .ra: .cfa -8 + ^
STACK CFI 6df57 .cfa: $rsp 224 +
STACK CFI INIT 6dfe0 80 .cfa: $rsp 8 + .ra: .cfa -8 + ^
STACK CFI 6dff1 $rbp: .cfa -32 + ^ $rbx: .cfa -40 + ^
STACK CFI 6dfff .cfa: $rsp 48 +
STACK CFI 6e00c $r12: .cfa -24 + ^ $r13: .cfa -16 + ^
STACK CFI INIT 6e060 f9 .cfa: $rsp 8 + .ra: .cfa -8 + ^
STACK CFI 6e06d $rbp: .cfa -40 + ^ $rbx: .cfa -48 + ^
STACK CFI 6e086 .cfa: $rsp 880 +
STACK CFI 6e08c $r12: .cfa -32 + ^ $r13: .cfa -24 + ^ $r14: .cfa -16 + ^
STACK CFI INIT 6e160 a5 .cfa: $rsp 8 + .ra: .cfa -8 + ^
STACK CFI 6e182 .cfa: $rsp 624 +
STACK CFI 6e18a $r12: .cfa -24 + ^ $r13: .cfa -16 + ^ $rbp: .cfa -32 + ^ $rbx: .cfa -40 + ^
STACK CFI INIT 6e210 90 .cfa: $rsp 8 + .ra: .cfa -8 + ^
STACK CFI 6e217 .cfa: $rsp 224 +
STACK CFI INIT 6e2a0 35 .cfa: $rsp 8 + .ra: .cfa -8 + ^
STACK CFI INIT 6e2e0 31 .cfa: $rsp 8 + .ra: .cfa -8 + ^
STACK CFI INIT 6e320 31 .cfa: $rsp 8 + .ra: .cfa -8 + ^
STACK CFI INIT 6e360 28 .cfa: $rsp 8 + .ra: .cfa -8 + ^
STACK CFI 6e368 .cfa: $rsp 16 +
STACK CFI 6e36b $rbx: .cfa -16 + ^
STACK CFI INIT 6e390 4c .cfa: $rsp 8 + .ra: .cfa -8 + ^
STACK CFI 6e391 .cfa: $rsp 16 +
STACK CFI 6e39b $rbx: .cfa -16 + ^
STACK CFI INIT 6e3e0 7d .cfa: $rsp 8 + .ra: .cfa -8 + ^
STACK CFI 6e3e8 .cfa: $rsp 16 +
STACK CFI 6e3eb $rbx: .cfa -16 + ^
STACK CFI INIT 6e460 42 .cfa: $rsp 8 + .ra: .cfa -8 + ^
STACK CFI 6e461 .cfa: $rsp 16 +
STACK CFI 6e46b $rbx: .cfa -16 + ^
STACK CFI INIT 6e4b0 42 .cfa: $rsp 8 + .ra: .cfa -8 + ^
STACK CFI 6e4b8 .cfa: $rsp 16 +
STACK CFI 6e4bb $rbx: .cfa -16 + ^
STACK CFI INIT 6e500 44 .cfa: $rsp 8 + .ra: .cfa -8 + ^
STACK CFI INIT 6e550 76 .cfa: $rsp 8 + .ra: .cfa -8 + ^
STACK CFI 6e551 .cfa: $rsp 16 +
STACK CFI 6e554 $rbx: .cfa -16 + ^
STACK CFI 6e558 .cfa: $rsp 32 +
STACK CFI INIT 6e5d0 44 .cfa: $rsp 8 + .ra: .cfa -8 + ^
STACK CFI INIT 6e620 97 .cfa: $rsp 8 + .ra: .cfa -8 + ^
STACK CFI 6e621 .cfa: $rsp 16 +
STACK CFI 6e62a .cfa: $rsp 32 +
STACK CFI 6e62e $rbx: .cfa -16 + ^
STACK CFI INIT 6e6c0 22 .cfa: $rsp 8 + .ra: .cfa -8 + ^
STACK CFI INIT 6e6f0 41 .cfa: $rsp 8 + .ra: .cfa -8 + ^
STACK CFI 6e6f1 .cfa: $rsp 16 +
STACK CFI 6e6f6 $rbx: .cfa -16 + ^
STACK CFI INIT 6e740 47 .cfa: $rsp 8 + .ra: .cfa -8 + ^
STACK CFI 6e741 .cfa: $rsp 16 +
STACK CFI 6e74c $rbx: .cfa -16 + ^
STACK CFI INIT 6e790 47 .cfa: $rsp 8 + .ra: .cfa -8 + ^
STACK CFI 6e79e .cfa: $rsp 32 +
STACK CFI 6e7a7 $rbp: .cfa -16 + ^ $rbx: .cfa -24 + ^
STACK CFI INIT 6e7e0 e5 .cfa: $rsp 8 + .ra: .cfa -8 + ^
STACK CFI 6e7e2 .cfa: $rsp 16 +
STACK CFI 6e7e7 $r15: .cfa -16 + ^
STACK CFI 6e7e9 .cfa: $rsp 24 +
STACK CFI 6e7ec $r14: .cfa -24 + ^
STACK CFI 6e7ee .cfa: $rsp 32 +
STACK CFI 6e7f0 .cfa: $rsp 40 +
STACK CFI 6e7f1 .cfa: $rsp 48 +
STACK CFI 6e7f4 $r12: .cfa -40 + ^ $r13: .cfa -32 + ^ $rbp: .cfa -48 + ^
STACK CFI 6e7f5 .cfa: $rsp 56 +
STACK CFI 6e7f8 $rbx: .cfa -56 + ^
STACK CFI 6e7fc .cfa: $rsp 64 +
STACK CFI INIT 6e8d0 20d .cfa: $rsp 8 + .ra: .cfa -8 + ^
STACK CFI 6e8dd $rbp: .cfa -48 + ^ $rbx: .cfa -56 + ^
STACK CFI 6e8f8 $r12: .cfa -40 + ^ $r13: .cfa -32 + ^ $r14: .cfa -24 + ^ $r15: .cfa -16 + ^ .cfa: $rsp 80 +
STACK CFI INIT 6eae0 10a .cfa: $rsp 8 + .ra: .cfa -8 + ^
STACK CFI 6eae1 .cfa: $rsp 16 +
STACK CFI 6eaeb $rbx: .cfa -16 + ^
STACK CFI INIT 6ebf0 c6 .cfa: $rsp 8 + .ra: .cfa -8 + ^
STACK CFI 6ebf2 .cfa: $rsp 16 +
STACK CFI 6ebf5 $r14: .cfa -16 + ^
STACK CFI 6ebf7 .cfa: $rsp 24 +
STACK CFI 6ebf9 .cfa: $rsp 32 +
STACK CFI 6ebfc $r12: .cfa -32 + ^ $r13: .cfa -24 + ^
STACK CFI 6ebfd .cfa: $rsp 40 +
STACK CFI 6ec00 $rbp: .cfa -40 + ^
STACK CFI 6ec01 .cfa: $rsp 48 +
STACK CFI 6ec04 $rbx: .cfa -48 + ^
STACK CFI INIT 6ecc0 11a .cfa: $rsp 8 + .ra: .cfa -8 + ^
STACK CFI 6ecc1 .cfa: $rsp 16 +
STACK CFI 6eccb $rbx: .cfa -16 + ^
STACK CFI INIT 6ede0 199 .cfa: $rsp 8 + .ra: .cfa -8 + ^
STACK CFI 6edec $rbp: .cfa -48 + ^ $rbx: .cfa -56 + ^
STACK CFI 6ee07 .cfa: $rsp 64 +
STACK CFI 6ee1a $r12: .cfa -40 + ^ $r13: .cfa -32 + ^ $r14: .cfa -24 + ^ $r15: .cfa -16 + ^
STACK CFI INIT 6ef80 a5 .cfa: $rsp 8 + .ra: .cfa -8 + ^
STACK CFI 6ef8e .cfa: $rsp 48 +
STACK CFI 6ef98 $rbp: .cfa -16 + ^ $rbx: .cfa -24 + ^
STACK CFI INIT 6f030 98 .cfa: $rsp 8 + .ra: .cfa -8 + ^
STACK CFI 6f031 .cfa: $rsp 16 +
STACK CFI 6f03b $rbx: .cfa -16 + ^
STACK CFI INIT 6f0d0 4f .cfa: $rsp 8 + .ra: .cfa -8 + ^
STACK CFI INIT 6f120 1d .cfa: $rsp 8 + .ra: .cfa -8 + ^
STACK CFI INIT 6f140 3a .cfa: $rsp 8 + .ra: .cfa -8 + ^
STACK CFI 6f141 .cfa: $rsp 16 +
STACK CFI 6f14b $rbx: .cfa -16 + ^
STACK CFI INIT 6f180 15 .cfa: $rsp 8 + .ra: .cfa -8 + ^
STACK CFI INIT 6f1a0 243 .cfa: $rsp 8 + .ra: .cfa -8 + ^
STACK CFI 6f1b9 $r12: .cfa -40 + ^ $r14: .cfa -24 + ^ $rbp: .cfa -48 + ^ $rbx: .cfa -56 + ^
STACK CFI 6f1c7 .cfa: $rsp 96 +
STACK CFI 6f1da $r13: .cfa -32 + ^ $r15: .cfa -16 + ^
STACK CFI INIT 6f3f0 1e0 .cfa: $rsp 8 + .ra: .cfa -8 + ^
STACK CFI 6f3fd $rbp: .cfa -32 + ^ $rbx: .cfa -40 + ^
STACK CFI 6f40b .cfa: $rsp 64 +
STACK CFI 6f413 $r12: .cfa -24 + ^ $r13: .cfa -16 + ^
STACK CFI INIT 6f5d0 1ef .cfa: $rsp 8 + .ra: .cfa -8 + ^
STACK CFI 6f5dc $rbp: .cfa -48 + ^ $rbx: .cfa -56 + ^
STACK CFI 6f5e9 $r12: .cfa -40 + ^ $r13: .cfa -32 + ^
STACK CFI 6f5f7 .cfa: $rsp 80 +
STACK CFI 6f607 $r14: .cfa -24 + ^ $r15: .cfa -16 + ^
STACK CFI INIT 6f7c0 be .cfa: $rsp 8 + .ra: .cfa -8 + ^
STACK CFI 6f7cd $rbp: .cfa -32 + ^ $rbx: .cfa -40 + ^
STACK CFI 6f7db .cfa: $rsp 48 +
STACK CFI 6f7e4 $r12: .cfa -24 + ^ $r13: .cfa -16 + ^
STACK CFI INIT 70bbe 1b .cfa: $rsp -128 + .ra: $rip
STACK CFI 70bc8 .cfa: $rsp 0 +
STACK CFI 70bcc .cfa: $rsp 128 +
STACK CFI 70bd4 .cfa: $rsp -128 +
STACK CFI INIT 70bd9 1b .cfa: $rsp -128 + .ra: $rip
STACK CFI 70be3 .cfa: $rsp 0 +
STACK CFI 70be7 .cfa: $rsp 128 +
STACK CFI 70bef .cfa: $rsp -128 +
STACK CFI INIT 70bf4 1b .cfa: $rsp -128 + .ra: $rip
STACK CFI 70bfe .cfa: $rsp 0 +
STACK CFI 70c02 .cfa: $rsp 128 +
STACK CFI 70c0a .cfa: $rsp -128 +
STACK CFI INIT 6f880 32 .cfa: $rsp 8 + .ra: .cfa -8 + ^
STACK CFI 6f881 .cfa: $rsp 16 +
STACK CFI 6f884 $rbx: .cfa -16 + ^
STACK CFI INIT 6f8c0 145 .cfa: $rsp 8 + .ra: .cfa -8 + ^
STACK CFI 6f8c1 .cfa: $rsp 16 +
STACK CFI 6f8c2 .cfa: $rsp 24 +
STACK CFI 6f8c5 $rbp: .cfa -16 + ^ $rbx: .cfa -24 + ^
STACK CFI 6f8c9 .cfa: $rsp 64 +
STACK CFI INIT 6fa10 198 .cfa: $rsp 8 + .ra: .cfa -8 + ^
STACK CFI 6fa29 $r12: .cfa -40 + ^ $r13: .cfa -32 + ^ $rbp: .cfa -48 + ^ $rbx: .cfa -56 + ^
STACK CFI 6fa37 .cfa: $rsp 64 +
STACK CFI 6fa42 $r14: .cfa -24 + ^ $r15: .cfa -16 + ^
STACK CFI INIT 6fbb0 4ec .cfa: $rsp 8 + .ra: .cfa -8 + ^
STACK CFI 6fbbd $rbp: .cfa -48 + ^ $rbx: .cfa -56 + ^
STACK CFI 6fbca $r12: .cfa -40 + ^ $r13: .cfa -32 + ^
STACK CFI 6fbdb .cfa: $rsp 208 +
STACK CFI 6fbe5 $r14: .cfa -24 + ^ $r15: .cfa -16 + ^
STACK CFI INIT 700a0 15a .cfa: $rsp 8 + .ra: .cfa -8 + ^
STACK CFI 700ad $rbp: .cfa -24 + ^ $rbx: .cfa -32 + ^
STACK CFI 700b6 .cfa: $rsp 32 +
STACK CFI 700ca $r12: .cfa -16 + ^
STACK CFI INIT 70200 272 .cfa: $rsp 8 + .ra: .cfa -8 + ^
STACK CFI 70201 .cfa: $rsp 16 +
STACK CFI 70203 $rbp: .cfa -16 + ^
STACK CFI 70204 .cfa: $rsp 24 +
STACK CFI 70207 $rbx: .cfa -24 + ^
STACK CFI 7020b .cfa: $rsp 32 +
STACK CFI INIT 70480 5d2 .cfa: $rsp 8 + .ra: .cfa -8 + ^
STACK CFI 70482 .cfa: $rsp 16 +
STACK CFI 70484 .cfa: $rsp 24 +
STACK CFI 70486 .cfa: $rsp 32 +
STACK CFI 70488 .cfa: $rsp 40 +
STACK CFI 70489 .cfa: $rsp 48 +
STACK CFI 7048a .cfa: $rsp 56 +
STACK CFI 7048d $r12: .cfa -40 + ^ $r13: .cfa -32 + ^ $r14: .cfa -24 + ^ $r15: .cfa -16 + ^ $rbp: .cfa -48 + ^ $rbx: .cfa -56 + ^
STACK CFI 70491 .cfa: $rsp 128 +
STACK CFI INIT 70a60 15e .cfa: $rsp 8 + .ra: .cfa -8 + ^
STACK CFI 70a6d $rbp: .cfa -48 + ^ $rbx: .cfa -56 + ^
STACK CFI 70a7a $r12: .cfa -40 + ^ $r13: .cfa -32 + ^
STACK CFI 70a88 .cfa: $rsp 112 +
STACK CFI 70a9b $r14: .cfa -24 + ^ $r15: .cfa -16 + ^
STACK CFI INIT 70c10 e2 .cfa: $rsp 8 + .ra: .cfa -8 + ^
STACK CFI 70c1d $rbp: .cfa -32 + ^ $rbx: .cfa -40 + ^
STACK CFI 70c2a $r12: .cfa -24 + ^ $r13: .cfa -16 + ^
STACK CFI 70c2e .cfa: $rsp 48 +
STACK CFI INIT 70d00 5d .cfa: $rsp 8 + .ra: .cfa -8 + ^
STACK CFI 70d08 .cfa: $rsp 16 +
STACK CFI 70d0b $rbx: .cfa -16 + ^
STACK CFI INIT 70d60 82 .cfa: $rsp 8 + .ra: .cfa -8 + ^
STACK CFI 70d61 .cfa: $rsp 16 +
STACK CFI 70d62 .cfa: $rsp 24 +
STACK CFI 70d65 $rbp: .cfa -16 + ^ $rbx: .cfa -24 + ^
STACK CFI 70d69 .cfa: $rsp 32 +
STACK CFI INIT 70f16 1b .cfa: $rsp -128 + .ra: $rip
STACK CFI 70f20 .cfa: $rsp 0 +
STACK CFI 70f24 .cfa: $rsp 128 +
STACK CFI 70f2c .cfa: $rsp -128 +
STACK CFI INIT 70f31 1b .cfa: $rsp -128 + .ra: $rip
STACK CFI 70f3b .cfa: $rsp 0 +
STACK CFI 70f3f .cfa: $rsp 128 +
STACK CFI 70f47 .cfa: $rsp -128 +
STACK CFI INIT 70f4c 18 .cfa: $rsp -128 + .ra: $rip
STACK CFI 70f56 .cfa: $rsp 0 +
STACK CFI 70f5a .cfa: $rsp 128 +
STACK CFI 70f62 .cfa: $rsp -128 +
STACK CFI INIT 70df0 126 .cfa: $rsp 8 + .ra: .cfa -8 + ^
STACK CFI 70df1 .cfa: $rsp 16 +
STACK CFI 70df3 $rbp: .cfa -16 + ^
STACK CFI 70df4 .cfa: $rsp 24 +
STACK CFI 70df7 $rbx: .cfa -24 + ^
STACK CFI 70dfb .cfa: $rsp 32 +
STACK CFI INIT 70f70 74 .cfa: $rsp 8 + .ra: .cfa -8 + ^
STACK CFI 70f78 $rbx: .cfa -24 + ^
STACK CFI 70f86 .cfa: $rsp 32 +
STACK CFI 70f88 $rbp: .cfa -16 + ^
STACK CFI INIT 710e9 1b .cfa: $rsp -128 + .ra: $rip
STACK CFI 710f3 .cfa: $rsp 0 +
STACK CFI 710f7 .cfa: $rsp 128 +
STACK CFI 710ff .cfa: $rsp -128 +
STACK CFI INIT 71104 1b .cfa: $rsp -128 + .ra: $rip
STACK CFI 7110e .cfa: $rsp 0 +
STACK CFI 71112 .cfa: $rsp 128 +
STACK CFI 7111a .cfa: $rsp -128 +
STACK CFI INIT 7111f 18 .cfa: $rsp -128 + .ra: $rip
STACK CFI 71129 .cfa: $rsp 0 +
STACK CFI 7112d .cfa: $rsp 128 +
STACK CFI 71135 .cfa: $rsp -128 +
STACK CFI INIT 70ff0 f9 .cfa: $rsp 8 + .ra: .cfa -8 + ^
STACK CFI 70ff1 .cfa: $rsp 16 +
STACK CFI 70ff8 $rbx: .cfa -16 + ^
STACK CFI INIT 71140 24 .cfa: $rsp 8 + .ra: .cfa -8 + ^
STACK CFI INIT 7127a 1b .cfa: $rsp -128 + .ra: $rip
STACK CFI 71284 .cfa: $rsp 0 +
STACK CFI 71288 .cfa: $rsp 128 +
STACK CFI 71290 .cfa: $rsp -128 +
STACK CFI INIT 71295 1b .cfa: $rsp -128 + .ra: $rip
STACK CFI 7129f .cfa: $rsp 0 +
STACK CFI 712a3 .cfa: $rsp 128 +
STACK CFI 712ab .cfa: $rsp -128 +
STACK CFI INIT 712b0 18 .cfa: $rsp -128 + .ra: $rip
STACK CFI 712ba .cfa: $rsp 0 +
STACK CFI 712be .cfa: $rsp 128 +
STACK CFI 712c6 .cfa: $rsp -128 +
STACK CFI INIT 71170 10a .cfa: $rsp 8 + .ra: .cfa -8 + ^
STACK CFI 71178 .cfa: $rsp 16 +
STACK CFI 7117f $rbx: .cfa -16 + ^
STACK CFI INIT 712d0 2b .cfa: $rsp 8 + .ra: .cfa -8 + ^
STACK CFI INIT 7148d 1b .cfa: $rsp -128 + .ra: $rip
STACK CFI 71497 .cfa: $rsp 0 +
STACK CFI 7149b .cfa: $rsp 128 +
STACK CFI 714a3 .cfa: $rsp -128 +
STACK CFI INIT 714a8 1b .cfa: $rsp -128 + .ra: $rip
STACK CFI 714b2 .cfa: $rsp 0 +
STACK CFI 714b6 .cfa: $rsp 128 +
STACK CFI 714be .cfa: $rsp -128 +
STACK CFI INIT 714c3 18 .cfa: $rsp -128 + .ra: $rip
STACK CFI 714cd .cfa: $rsp 0 +
STACK CFI 714d1 .cfa: $rsp 128 +
STACK CFI 714d9 .cfa: $rsp -128 +
STACK CFI INIT 71300 18d .cfa: $rsp 8 + .ra: .cfa -8 + ^
STACK CFI 71316 .cfa: $rsp 32 +
STACK CFI 7131b $r12: .cfa -16 + ^ $rbp: .cfa -24 + ^ $rbx: .cfa -32 + ^
STACK CFI INIT 714e0 b4 .cfa: $rsp 8 + .ra: .cfa -8 + ^
STACK CFI 714ed $rbp: .cfa -24 + ^ $rbx: .cfa -32 + ^
STACK CFI 714f6 .cfa: $rsp 32 +
STACK CFI 71501 $r12: .cfa -16 + ^
STACK CFI INIT 716e0 1b .cfa: $rsp -128 + .ra: $rip
STACK CFI 716ea .cfa: $rsp 0 +
STACK CFI 716ee .cfa: $rsp 128 +
STACK CFI 716f6 .cfa: $rsp -128 +
STACK CFI INIT 716fb 1b .cfa: $rsp -128 + .ra: $rip
STACK CFI 71705 .cfa: $rsp 0 +
STACK CFI 71709 .cfa: $rsp 128 +
STACK CFI 71711 .cfa: $rsp -128 +
STACK CFI INIT 71716 18 .cfa: $rsp -128 + .ra: $rip
STACK CFI 71720 .cfa: $rsp 0 +
STACK CFI 71724 .cfa: $rsp 128 +
STACK CFI 7172c .cfa: $rsp -128 +
STACK CFI INIT 715a0 140 .cfa: $rsp 8 + .ra: .cfa -8 + ^
STACK CFI 715ad $rbp: .cfa -24 + ^ $rbx: .cfa -32 + ^
STACK CFI 715b6 .cfa: $rsp 32 +
STACK CFI 715b9 $r12: .cfa -16 + ^
STACK CFI INIT 71730 6d .cfa: $rsp 8 + .ra: .cfa -8 + ^
STACK CFI 7173d $rbp: .cfa -24 + ^ $rbx: .cfa -32 + ^
STACK CFI 71746 .cfa: $rsp 32 +
STACK CFI 71749 $r12: .cfa -16 + ^
STACK CFI INIT 717a0 1d0 .cfa: $rsp 8 + .ra: .cfa -8 + ^
STACK CFI 717a2 .cfa: $rsp 16 +
STACK CFI 717a4 .cfa: $rsp 24 +
STACK CFI 717a6 .cfa: $rsp 32 +
STACK CFI 717a8 .cfa: $rsp 40 +
STACK CFI 717ab $r12: .cfa -40 + ^ $r13: .cfa -32 + ^ $r14: .cfa -24 + ^ $r15: .cfa -16 + ^
STACK CFI 717ac .cfa: $rsp 48 +
STACK CFI 717af $rbp: .cfa -48 + ^
STACK CFI 717b0 .cfa: $rsp 56 +
STACK CFI 717b3 $rbx: .cfa -56 + ^
STACK CFI 717b7 .cfa: $rsp 96 +
STACK CFI INIT 71970 8 .cfa: $rsp 8 + .ra: .cfa -8 + ^
STACK CFI INIT 71a32 1b .cfa: $rsp -128 + .ra: $rip
STACK CFI 71a3c .cfa: $rsp 0 +
STACK CFI 71a40 .cfa: $rsp 128 +
STACK CFI 71a48 .cfa: $rsp -128 +
STACK CFI INIT 71a4d 18 .cfa: $rsp -128 + .ra: $rip
STACK CFI 71a57 .cfa: $rsp 0 +
STACK CFI 71a5b .cfa: $rsp 128 +
STACK CFI 71a63 .cfa: $rsp -128 +
STACK CFI INIT 71980 b2 .cfa: $rsp 8 + .ra: .cfa -8 + ^
STACK CFI 71981 .cfa: $rsp 16 +
STACK CFI 71983 $rbp: .cfa -16 + ^
STACK CFI 71984 .cfa: $rsp 24 +
STACK CFI 71987 $rbx: .cfa -24 + ^
STACK CFI 7198b .cfa: $rsp 32 +
STACK CFI INIT 71b74 1b .cfa: $rsp -128 + .ra: $rip
STACK CFI 71b7e .cfa: $rsp 0 +
STACK CFI 71b82 .cfa: $rsp 128 +
STACK CFI 71b8a .cfa: $rsp -128 +
STACK CFI INIT 71b8f 1b .cfa: $rsp -128 + .ra: $rip
STACK CFI 71b99 .cfa: $rsp 0 +
STACK CFI 71b9d .cfa: $rsp 128 +
STACK CFI 71ba5 .cfa: $rsp -128 +
STACK CFI INIT 71baa 18 .cfa: $rsp -128 + .ra: $rip
STACK CFI 71bb4 .cfa: $rsp 0 +
STACK CFI 71bb8 .cfa: $rsp 128 +
STACK CFI 71bc0 .cfa: $rsp -128 +
STACK CFI INIT 71a70 104 .cfa: $rsp 8 + .ra: .cfa -8 + ^
STACK CFI 71a71 .cfa: $rsp 16 +
STACK CFI 71a7b $rbx: .cfa -16 + ^
STACK CFI INIT 71bd0 30 .cfa: $rsp 8 + .ra: .cfa -8 + ^
STACK CFI INIT 71d15 1b .cfa: $rsp -128 + .ra: $rip
STACK CFI 71d1f .cfa: $rsp 0 +
STACK CFI 71d23 .cfa: $rsp 128 +
STACK CFI 71d2b .cfa: $rsp -128 +
STACK CFI INIT 71d30 1b .cfa: $rsp -128 + .ra: $rip
STACK CFI 71d3a .cfa: $rsp 0 +
STACK CFI 71d3e .cfa: $rsp 128 +
STACK CFI 71d46 .cfa: $rsp -128 +
STACK CFI INIT 71d4b 18 .cfa: $rsp -128 + .ra: $rip
STACK CFI 71d55 .cfa: $rsp 0 +
STACK CFI 71d59 .cfa: $rsp 128 +
STACK CFI 71d61 .cfa: $rsp -128 +
STACK CFI INIT 71c00 115 .cfa: $rsp 8 + .ra: .cfa -8 + ^
STACK CFI 71c08 .cfa: $rsp 16 +
STACK CFI 71c12 $rbx: .cfa -16 + ^
STACK CFI INIT 71d70 35 .cfa: $rsp 8 + .ra: .cfa -8 + ^
STACK CFI INIT 71db0 90 .cfa: $rsp 8 + .ra: .cfa -8 + ^
STACK CFI 71db7 .cfa: $rsp 224 +
STACK CFI INIT 71e40 15 .cfa: $rsp 8 + .ra: .cfa -8 + ^
STACK CFI INIT 71e60 a2 .cfa: $rsp 8 + .ra: .cfa -8 + ^
STACK CFI 71e67 .cfa: $rsp 224 +
STACK CFI INIT 71f10 a4 .cfa: $rsp 8 + .ra: .cfa -8 + ^
STACK CFI 71f17 .cfa: $rsp 224 +
STACK CFI INIT 71fc0 90 .cfa: $rsp 8 + .ra: .cfa -8 + ^
STACK CFI 71fc7 .cfa: $rsp 224 +
STACK CFI INIT 72050 14 .cfa: $rsp 8 + .ra: .cfa -8 + ^
STACK CFI INIT 72167 1b .cfa: $rsp -128 + .ra: $rip
STACK CFI 72171 .cfa: $rsp 0 +
STACK CFI 72175 .cfa: $rsp 128 +
STACK CFI 7217d .cfa: $rsp -128 +
STACK CFI INIT 72182 18 .cfa: $rsp -128 + .ra: $rip
STACK CFI 7218c .cfa: $rsp 0 +
STACK CFI 72190 .cfa: $rsp 128 +
STACK CFI 72198 .cfa: $rsp -128 +
STACK CFI INIT 72070 f7 .cfa: $rsp 8 + .ra: .cfa -8 + ^
STACK CFI 72074 .cfa: $rsp 16 +
STACK CFI 7207c $rbx: .cfa -16 + ^
STACK CFI INIT 74077 1b .cfa: $rsp -128 + .ra: $rip
STACK CFI 74081 .cfa: $rsp 0 +
STACK CFI 74085 .cfa: $rsp 128 +
STACK CFI 7408d .cfa: $rsp -128 +
STACK CFI INIT 74092 1b .cfa: $rsp -128 + .ra: $rip
STACK CFI 7409c .cfa: $rsp 0 +
STACK CFI 740a0 .cfa: $rsp 128 +
STACK CFI 740a8 .cfa: $rsp -128 +
STACK CFI INIT 740ad 1b .cfa: $rsp -128 + .ra: $rip
STACK CFI 740b7 .cfa: $rsp 0 +
STACK CFI 740bb .cfa: $rsp 128 +
STACK CFI 740c3 .cfa: $rsp -128 +
STACK CFI INIT 721a0 8a .cfa: $rsp 8 + .ra: .cfa -8 + ^
STACK CFI 721ad $rbp: .cfa -24 + ^ $rbx: .cfa -32 + ^
STACK CFI 721b6 .cfa: $rsp 32 +
STACK CFI 721bc $r12: .cfa -16 + ^
STACK CFI INIT 72230 f9 .cfa: $rsp 8 + .ra: .cfa -8 + ^
STACK CFI 72231 .cfa: $rsp 16 +
STACK CFI 72234 $rbp: .cfa -16 + ^
STACK CFI 72235 .cfa: $rsp 24 +
STACK CFI 72238 $rbx: .cfa -24 + ^
STACK CFI 7223c .cfa: $rsp 32 +
STACK CFI INIT 72330 29 .cfa: $rsp 8 + .ra: .cfa -8 + ^
STACK CFI 72338 .cfa: $rsp 16 +
STACK CFI 7233b $rbx: .cfa -16 + ^
STACK CFI INIT 72360 5a .cfa: $rsp 8 + .ra: .cfa -8 + ^
STACK CFI 72361 .cfa: $rsp 16 +
STACK CFI 72368 $rbx: .cfa -16 + ^
STACK CFI INIT 723c0 8 .cfa: $rsp 8 + .ra: .cfa -8 + ^
STACK CFI INIT 723d0 153 .cfa: $rsp 8 + .ra: .cfa -8 + ^
STACK CFI 723e1 .cfa: $rsp 176 +
STACK CFI 723eb $rbp: .cfa -16 + ^ $rbx: .cfa -24 + ^
STACK CFI INIT 72530 49 .cfa: $rsp 8 + .ra: .cfa -8 + ^
STACK CFI 7253d $rbp: .cfa -24 + ^ $rbx: .cfa -32 + ^
STACK CFI 72546 .cfa: $rsp 32 +
STACK CFI 7254c $r12: .cfa -16 + ^
STACK CFI INIT 72580 1a .cfa: $rsp 8 + .ra: .cfa -8 + ^
STACK CFI 72581 .cfa: $rsp 16 +
STACK CFI 72584 $rbx: .cfa -16 + ^
STACK CFI INIT 725a0 1be .cfa: $rsp 8 + .ra: .cfa -8 + ^
STACK CFI 725a1 .cfa: $rsp 16 +
STACK CFI 725a2 .cfa: $rsp 24 +
STACK CFI 725a5 $rbp: .cfa -16 + ^ $rbx: .cfa -24 + ^
STACK CFI 725ac .cfa: $rsp 176 +
STACK CFI INIT 72760 116 .cfa: $rsp 8 + .ra: .cfa -8 + ^
STACK CFI 7276d $r12: .cfa -40 + ^ $rbp: .cfa -48 + ^
STACK CFI 72788 .cfa: $rsp 64 +
STACK CFI 7278c $r13: .cfa -32 + ^ $r14: .cfa -24 + ^ $r15: .cfa -16 + ^ $rbx: .cfa -56 + ^
STACK CFI INIT 72880 47 .cfa: $rsp 8 + .ra: .cfa -8 + ^
STACK CFI 72881 .cfa: $rsp 16 +
STACK CFI 72888 $rbx: .cfa -16 + ^
STACK CFI INIT 728d0 1a9 .cfa: $rsp 8 + .ra: .cfa -8 + ^
STACK CFI 728d2 .cfa: $rsp 16 +
STACK CFI 728d5 $r14: .cfa -16 + ^
STACK CFI 728d7 .cfa: $rsp 24 +
STACK CFI 728da $r13: .cfa -24 + ^
STACK CFI 728dc .cfa: $rsp 32 +
STACK CFI 728dd .cfa: $rsp 40 +
STACK CFI 728de .cfa: $rsp 48 +
STACK CFI 728e6 $r12: .cfa -32 + ^ $rbp: .cfa -40 + ^ $rbx: .cfa -48 + ^
STACK CFI INIT 72a80 131 .cfa: $rsp 8 + .ra: .cfa -8 + ^
STACK CFI 72a8d $r12: .cfa -24 + ^ $rbx: .cfa -40 + ^
STACK CFI 72a9b .cfa: $rsp 48 +
STACK CFI 72aa3 $r13: .cfa -16 + ^ $rbp: .cfa -32 + ^
STACK CFI INIT 72bc0 217 .cfa: $rsp 8 + .ra: .cfa -8 + ^
STACK CFI 72bd9 $r12: .cfa -40 + ^ $r13: .cfa -32 + ^ $rbp: .cfa -48 + ^ $rbx: .cfa -56 + ^
STACK CFI 72be7 .cfa: $rsp 64 +
STACK CFI 72bf6 $r14: .cfa -24 + ^ $r15: .cfa -16 + ^
STACK CFI INIT 72de0 26 .cfa: $rsp 8 + .ra: .cfa -8 + ^
STACK CFI 72de4 .cfa: $rsp 16 +
STACK CFI 72de7 $rbx: .cfa -16 + ^
STACK CFI INIT 72e10 9c .cfa: $rsp 8 + .ra: .cfa -8 + ^
STACK CFI 72e12 .cfa: $rsp 16 +
STACK CFI 72e17 $r13: .cfa -16 + ^
STACK CFI 72e19 .cfa: $rsp 24 +
STACK CFI 72e1c $r12: .cfa -24 + ^
STACK CFI 72e1d .cfa: $rsp 32 +
STACK CFI 72e20 $rbp: .cfa -32 + ^
STACK CFI 72e21 .cfa: $rsp 40 +
STACK CFI 72e24 $rbx: .cfa -40 + ^
STACK CFI 72e28 .cfa: $rsp 48 +
STACK CFI INIT 72eb0 8 .cfa: $rsp 8 + .ra: .cfa -8 + ^
STACK CFI INIT 72ec0 2d .cfa: $rsp 8 + .ra: .cfa -8 + ^
STACK CFI 72ec1 .cfa: $rsp 16 +
STACK CFI 72ec4 $rbx: .cfa -16 + ^
STACK CFI INIT 72ef0 10 .cfa: $rsp 8 + .ra: .cfa -8 + ^
STACK CFI INIT 72f00 23 .cfa: $rsp 8 + .ra: .cfa -8 + ^
STACK CFI 72f04 .cfa: $rsp 16 +
STACK CFI INIT 72f30 22f .cfa: $rsp 8 + .ra: .cfa -8 + ^
STACK CFI 72f31 .cfa: $rsp 16 +
STACK CFI 72f32 .cfa: $rsp 24 +
STACK CFI 72f35 $rbp: .cfa -16 + ^ $rbx: .cfa -24 + ^
STACK CFI 72f39 .cfa: $rsp 32 +
STACK CFI INIT 73160 3e1 .cfa: $rsp 8 + .ra: .cfa -8 + ^
STACK CFI 7316d $rbp: .cfa -40 + ^ $rbx: .cfa -48 + ^
STACK CFI 73186 .cfa: $rsp 192 +
STACK CFI 73191 $r12: .cfa -32 + ^ $r13: .cfa -24 + ^ $r14: .cfa -16 + ^
STACK CFI INIT 73550 bf .cfa: $rsp 8 + .ra: .cfa -8 + ^
STACK CFI 73551 .cfa: $rsp 16 +
STACK CFI 73558 $rbx: .cfa -16 + ^
STACK CFI INIT 73610 235 .cfa: $rsp 8 + .ra: .cfa -8 + ^
STACK CFI 7361d $rbp: .cfa -24 + ^ $rbx: .cfa -32 + ^
STACK CFI 73626 .cfa: $rsp 32 +
STACK CFI 73632 $r12: .cfa -16 + ^
STACK CFI INIT 73850 37 .cfa: $rsp 8 + .ra: .cfa -8 + ^
STACK CFI 73851 .cfa: $rsp 16 +
STACK CFI 73854 $rbx: .cfa -16 + ^
STACK CFI INIT 73890 5d .cfa: $rsp 8 + .ra: .cfa -8 + ^
STACK CFI 7389f .cfa: $rsp 16 +
STACK CFI 738a2 $rbx: .cfa -16 + ^
STACK CFI INIT 738f0 ca .cfa: $rsp 8 + .ra: .cfa -8 + ^
STACK CFI 738f8 $rbx: .cfa -32 + ^
STACK CFI 73906 .cfa: $rsp 32 +
STACK CFI 73910 $r12: .cfa -16 + ^ $rbp: .cfa -24 + ^
STACK CFI INIT 739c0 487 .cfa: $rsp 8 + .ra: .cfa -8 + ^
STACK CFI 739c1 .cfa: $rsp 16 +
STACK CFI 739c4 $rbp: .cfa -16 + ^ .cfa: $rbp 16 +
STACK CFI 739cf $r12: .cfa -48 + ^ $r13: .cfa -40 + ^ $r14: .cfa -32 + ^ $r15: .cfa -24 + ^
STACK CFI 739d3 $rbx: .cfa -56 + ^
STACK CFI INIT 73e50 3c .cfa: $rsp 8 + .ra: .cfa -8 + ^
STACK CFI 73e5e .cfa: $rsp 32 +
STACK CFI 73e6b $rbp: .cfa -16 + ^ $rbx: .cfa -24 + ^
STACK CFI INIT 73e90 72 .cfa: $rsp 8 + .ra: .cfa -8 + ^
STACK CFI 73e91 .cfa: $rsp 16 +
STACK CFI 73e98 $rbx: .cfa -16 + ^
STACK CFI INIT 73f10 167 .cfa: $rsp 8 + .ra: .cfa -8 + ^
STACK CFI 73f12 .cfa: $rsp 16 +
STACK CFI 73f18 $r12: .cfa -16 + ^
STACK CFI 73f19 .cfa: $rsp 24 +
STACK CFI 73f1a .cfa: $rsp 32 +
STACK CFI 73f21 $rbp: .cfa -24 + ^ $rbx: .cfa -32 + ^
STACK CFI INIT 75c47 1b .cfa: $rsp -128 + .ra: $rip
STACK CFI 75c51 .cfa: $rsp 0 +
STACK CFI 75c55 .cfa: $rsp 128 +
STACK CFI 75c5d .cfa: $rsp -128 +
STACK CFI INIT 75c62 1f .cfa: $rsp -128 + .ra: $rip
STACK CFI 75c70 .cfa: $rsp 0 +
STACK CFI 75c74 .cfa: $rsp 128 +
STACK CFI 75c7c .cfa: $rsp -128 +
STACK CFI INIT 75c81 1f .cfa: $rsp -128 + .ra: $rip
STACK CFI 75c8f .cfa: $rsp 0 +
STACK CFI 75c93 .cfa: $rsp 128 +
STACK CFI 75c9b .cfa: $rsp -128 +
STACK CFI INIT 75ca0 1b .cfa: $rsp -128 + .ra: $rip
STACK CFI 75caa .cfa: $rsp 0 +
STACK CFI 75cae .cfa: $rsp 128 +
STACK CFI 75cb6 .cfa: $rsp -128 +
STACK CFI INIT 75cbb 1f .cfa: $rsp -128 + .ra: $rip
STACK CFI 75cc9 .cfa: $rsp 0 +
STACK CFI 75ccd .cfa: $rsp 128 +
STACK CFI 75cd5 .cfa: $rsp -128 +
STACK CFI INIT 75cda 1b .cfa: $rsp -128 + .ra: $rip
STACK CFI 75ce4 .cfa: $rsp 0 +
STACK CFI 75ce8 .cfa: $rsp 128 +
STACK CFI 75cf0 .cfa: $rsp -128 +
STACK CFI INIT 75cf5 1f .cfa: $rsp -128 + .ra: $rip
STACK CFI 75d03 .cfa: $rsp 0 +
STACK CFI 75d07 .cfa: $rsp 128 +
STACK CFI 75d0f .cfa: $rsp -128 +
STACK CFI INIT 75d14 1b .cfa: $rsp -128 + .ra: $rip
STACK CFI 75d1e .cfa: $rsp 0 +
STACK CFI 75d22 .cfa: $rsp 128 +
STACK CFI 75d2a .cfa: $rsp -128 +
STACK CFI INIT 75d2f 1f .cfa: $rsp -128 + .ra: $rip
STACK CFI 75d3d .cfa: $rsp 0 +
STACK CFI 75d41 .cfa: $rsp 128 +
STACK CFI 75d49 .cfa: $rsp -128 +
STACK CFI INIT 75d4e 1b .cfa: $rsp -128 + .ra: $rip
STACK CFI 75d58 .cfa: $rsp 0 +
STACK CFI 75d5c .cfa: $rsp 128 +
STACK CFI 75d64 .cfa: $rsp -128 +
STACK CFI INIT 75d69 1f .cfa: $rsp -128 + .ra: $rip
STACK CFI 75d77 .cfa: $rsp 0 +
STACK CFI 75d7b .cfa: $rsp 128 +
STACK CFI 75d83 .cfa: $rsp -128 +
STACK CFI INIT 75d88 1b .cfa: $rsp -128 + .ra: $rip
STACK CFI 75d92 .cfa: $rsp 0 +
STACK CFI 75d96 .cfa: $rsp 128 +
STACK CFI 75d9e .cfa: $rsp -128 +
STACK CFI INIT 75da3 1b .cfa: $rsp -128 + .ra: $rip
STACK CFI 75dad .cfa: $rsp 0 +
STACK CFI 75db1 .cfa: $rsp 128 +
STACK CFI 75db9 .cfa: $rsp -128 +
STACK CFI INIT 75dbe 1f .cfa: $rsp -128 + .ra: $rip
STACK CFI 75dcc .cfa: $rsp 0 +
STACK CFI 75dd0 .cfa: $rsp 128 +
STACK CFI 75dd8 .cfa: $rsp -128 +
STACK CFI INIT 75ddd 1f .cfa: $rsp -128 + .ra: $rip
STACK CFI 75deb .cfa: $rsp 0 +
STACK CFI 75def .cfa: $rsp 128 +
STACK CFI 75df7 .cfa: $rsp -128 +
STACK CFI INIT 75dfc 1b .cfa: $rsp -128 + .ra: $rip
STACK CFI 75e06 .cfa: $rsp 0 +
STACK CFI 75e0a .cfa: $rsp 128 +
STACK CFI 75e12 .cfa: $rsp -128 +
STACK CFI INIT 75e17 1b .cfa: $rsp -128 + .ra: $rip
STACK CFI 75e21 .cfa: $rsp 0 +
STACK CFI 75e25 .cfa: $rsp 128 +
STACK CFI 75e2d .cfa: $rsp -128 +
STACK CFI INIT 75e32 1f .cfa: $rsp -128 + .ra: $rip
STACK CFI 75e40 .cfa: $rsp 0 +
STACK CFI 75e44 .cfa: $rsp 128 +
STACK CFI 75e4c .cfa: $rsp -128 +
STACK CFI INIT 75e51 1f .cfa: $rsp -128 + .ra: $rip
STACK CFI 75e5f .cfa: $rsp 0 +
STACK CFI 75e63 .cfa: $rsp 128 +
STACK CFI 75e6b .cfa: $rsp -128 +
STACK CFI INIT 75e70 1f .cfa: $rsp -128 + .ra: $rip
STACK CFI 75e7e .cfa: $rsp 0 +
STACK CFI 75e82 .cfa: $rsp 128 +
STACK CFI 75e8a .cfa: $rsp -128 +
STACK CFI INIT 75e8f 1b .cfa: $rsp -128 + .ra: $rip
STACK CFI 75e99 .cfa: $rsp 0 +
STACK CFI 75e9d .cfa: $rsp 128 +
STACK CFI 75ea5 .cfa: $rsp -128 +
STACK CFI INIT 740d0 8e .cfa: $rsp 8 + .ra: .cfa -8 + ^
STACK CFI INIT 74160 247 .cfa: $rsp 8 + .ra: .cfa -8 + ^
STACK CFI 74161 .cfa: $rsp 16 +
STACK CFI 74162 .cfa: $rsp 24 +
STACK CFI 74165 $rbp: .cfa -16 + ^ $rbx: .cfa -24 + ^
STACK CFI 74169 .cfa: $rsp 64 +
STACK CFI INIT 743b0 1e9 .cfa: $rsp 8 + .ra: .cfa -8 + ^
STACK CFI 743b1 .cfa: $rsp 16 +
STACK CFI 743b2 .cfa: $rsp 24 +
STACK CFI 743b5 $rbp: .cfa -16 + ^ $rbx: .cfa -24 + ^
STACK CFI 743b9 .cfa: $rsp 64 +
STACK CFI INIT 745a0 25 .cfa: $rsp 8 + .ra: .cfa -8 + ^
STACK CFI INIT 745d0 2b .cfa: $rsp 8 + .ra: .cfa -8 + ^
STACK CFI INIT 74600 2b .cfa: $rsp 8 + .ra: .cfa -8 + ^
STACK CFI INIT 74630 72 .cfa: $rsp 8 + .ra: .cfa -8 + ^
STACK CFI 74639 .cfa: $rsp 16 +
STACK CFI 7463c $rbx: .cfa -16 + ^
STACK CFI INIT 746b0 21 .cfa: $rsp 8 + .ra: .cfa -8 + ^
STACK CFI INIT 746e0 4a .cfa: $rsp 8 + .ra: .cfa -8 + ^
STACK CFI 746e1 .cfa: $rsp 16 +
STACK CFI 746e9 $rbx: .cfa -16 + ^
STACK CFI INIT 74730 6 .cfa: $rsp 8 + .ra: .cfa -8 + ^
STACK CFI INIT 74740 24 .cfa: $rsp 8 + .ra: .cfa -8 + ^
STACK CFI 74748 .cfa: $rsp 16 +
STACK CFI 7474b $rbx: .cfa -16 + ^
STACK CFI INIT 74770 d .cfa: $rsp 8 + .ra: .cfa -8 + ^
STACK CFI INIT 74780 c4 .cfa: $rsp 8 + .ra: .cfa -8 + ^
STACK CFI 7478d $rbp: .cfa -24 + ^ $rbx: .cfa -32 + ^
STACK CFI 74796 .cfa: $rsp 32 +
STACK CFI 747a3 $r12: .cfa -16 + ^
STACK CFI INIT 74850 11 .cfa: $rsp 8 + .ra: .cfa -8 + ^
STACK CFI INIT 74870 a3 .cfa: $rsp 8 + .ra: .cfa -8 + ^
STACK CFI INIT 74920 c7 .cfa: $rsp 8 + .ra: .cfa -8 + ^
STACK CFI 7492c $rbp: .cfa -32 + ^ $rbx: .cfa -40 + ^
STACK CFI 7493a .cfa: $rsp 48 +
STACK CFI 74940 $r12: .cfa -24 + ^ $r13: .cfa -16 + ^
STACK CFI INIT 749f0 f .cfa: $rsp 8 + .ra: .cfa -8 + ^
STACK CFI INIT 74a00 3 .cfa: $rsp 8 + .ra: .cfa -8 + ^
STACK CFI INIT 74a10 8 .cfa: $rsp 8 + .ra: .cfa -8 + ^
STACK CFI INIT 74a20 42 .cfa: $rsp 8 + .ra: .cfa -8 + ^
STACK CFI 74a21 .cfa: $rsp 16 +
STACK CFI 74a28 $rbx: .cfa -16 + ^
STACK CFI INIT 74a70 36 .cfa: $rsp 8 + .ra: .cfa -8 + ^
STACK CFI 74a79 .cfa: $rsp 16 +
STACK CFI 74a7c $rbx: .cfa -16 + ^
STACK CFI INIT 74ab0 3c .cfa: $rsp 8 + .ra: .cfa -8 + ^
STACK CFI INIT 74af0 287 .cfa: $rsp 8 + .ra: .cfa -8 + ^
STACK CFI 74af2 .cfa: $rsp 16 +
STACK CFI 74af4 .cfa: $rsp 24 +
STACK CFI 74af6 .cfa: $rsp 32 +
STACK CFI 74af8 .cfa: $rsp 40 +
STACK CFI 74af9 .cfa: $rsp 48 +
STACK CFI 74afa .cfa: $rsp 56 +
STACK CFI 74afc $r12: .cfa -40 + ^ $r13: .cfa -32 + ^ $r14: .cfa -24 + ^ $r15: .cfa -16 + ^ $rbp: .cfa -48 + ^ $rbx: .cfa -56 + ^
STACK CFI 74b00 .cfa: $rsp 96 +
STACK CFI INIT 74d80 a .cfa: $rsp 8 + .ra: .cfa -8 + ^
STACK CFI INIT 74d90 247 .cfa: $rsp 8 + .ra: .cfa -8 + ^
STACK CFI 74d92 .cfa: $rsp 16 +
STACK CFI 74d94 .cfa: $rsp 24 +
STACK CFI 74d96 .cfa: $rsp 32 +
STACK CFI 74d98 .cfa: $rsp 40 +
STACK CFI 74d99 .cfa: $rsp 48 +
STACK CFI 74d9a .cfa: $rsp 56 +
STACK CFI 74d9e .cfa: $rsp 96 +
STACK CFI 74da5 $r12: .cfa -40 + ^ $r13: .cfa -32 + ^ $r14: .cfa -24 + ^ $r15: .cfa -16 + ^ $rbp: .cfa -48 + ^ $rbx: .cfa -56 + ^
STACK CFI INIT 74fe0 5e .cfa: $rsp 8 + .ra: .cfa -8 + ^
STACK CFI 74fe1 .cfa: $rsp 16 +
STACK CFI 74fe4 $rbx: .cfa -16 + ^
STACK CFI 74fe8 .cfa: $rsp 32 +
STACK CFI INIT 75040 3f .cfa: $rsp 8 + .ra: .cfa -8 + ^
STACK CFI INIT 75080 7 .cfa: $rsp 8 + .ra: .cfa -8 + ^
STACK CFI INIT 75090 33 .cfa: $rsp 8 + .ra: .cfa -8 + ^
STACK CFI INIT 750d0 87 .cfa: $rsp 8 + .ra: .cfa -8 + ^
STACK CFI 750d1 .cfa: $rsp 16 +
STACK CFI 750da .cfa: $rsp 32 +
STACK CFI 750de $rbx: .cfa -16 + ^
STACK CFI INIT 75160 22 .cfa: $rsp 8 + .ra: .cfa -8 + ^
STACK CFI INIT 75190 8 .cfa: $rsp 8 + .ra: .cfa -8 + ^
STACK CFI INIT 751a0 6 .cfa: $rsp 8 + .ra: .cfa -8 + ^
STACK CFI INIT 751b0 8 .cfa: $rsp 8 + .ra: .cfa -8 + ^
STACK CFI INIT 751c0 3 .cfa: $rsp 8 + .ra: .cfa -8 + ^
STACK CFI INIT 751d0 6 .cfa: $rsp 8 + .ra: .cfa -8 + ^
STACK CFI INIT 751e0 2 .cfa: $rsp 8 + .ra: .cfa -8 + ^
STACK CFI INIT 751f0 8 .cfa: $rsp 8 + .ra: .cfa -8 + ^
STACK CFI INIT 75200 3 .cfa: $rsp 8 + .ra: .cfa -8 + ^
STACK CFI INIT 75210 5 .cfa: $rsp 8 + .ra: .cfa -8 + ^
STACK CFI INIT 75220 4 .cfa: $rsp 8 + .ra: .cfa -8 + ^
STACK CFI INIT 75230 4e .cfa: $rsp 8 + .ra: .cfa -8 + ^
STACK CFI INIT 75280 44 .cfa: $rsp 8 + .ra: .cfa -8 + ^
STACK CFI INIT 752d0 20 .cfa: $rsp 8 + .ra: .cfa -8 + ^
STACK CFI INIT 136300 60 .cfa: $rsp 8 + .ra: .cfa -8 + ^
STACK CFI 136304 .cfa: $rsp 16 +
STACK CFI INIT 752f0 74 .cfa: $rsp 8 + .ra: .cfa -8 + ^
STACK CFI 752fd $rbp: .cfa -16 + ^ $rbx: .cfa -24 + ^
STACK CFI 75301 .cfa: $rsp 48 +
STACK CFI INIT 75370 7c .cfa: $rsp 8 + .ra: .cfa -8 + ^
STACK CFI 75371 .cfa: $rsp 16 +
STACK CFI 75374 $rbx: .cfa -16 + ^
STACK CFI INIT 753f0 33 .cfa: $rsp 8 + .ra: .cfa -8 + ^
STACK CFI 753f1 .cfa: $rsp 16 +
STACK CFI 753f6 $rbx: .cfa -16 + ^
STACK CFI INIT 75430 bf .cfa: $rsp 8 + .ra: .cfa -8 + ^
STACK CFI 75432 .cfa: $rsp 16 +
STACK CFI 7543a $r14: .cfa -16 + ^
STACK CFI 7543c .cfa: $rsp 24 +
STACK CFI 7543e .cfa: $rsp 32 +
STACK CFI 75441 $r12: .cfa -32 + ^ $r13: .cfa -24 + ^
STACK CFI 75442 .cfa: $rsp 40 +
STACK CFI 75445 $rbp: .cfa -40 + ^
STACK CFI 75446 .cfa: $rsp 48 +
STACK CFI 75449 $rbx: .cfa -48 + ^
STACK CFI INIT 754f0 196 .cfa: $rsp 8 + .ra: .cfa -8 + ^
STACK CFI 754fd $rbp: .cfa -48 + ^ $rbx: .cfa -56 + ^
STACK CFI 75518 $r12: .cfa -40 + ^ $r13: .cfa -32 + ^ $r14: .cfa -24 + ^ $r15: .cfa -16 + ^ .cfa: $rsp 80 +
STACK CFI INIT 75690 15f .cfa: $rsp 8 + .ra: .cfa -8 + ^
STACK CFI 7569c $rbp: .cfa -48 + ^ $rbx: .cfa -56 + ^
STACK CFI 756b7 .cfa: $rsp 64 +
STACK CFI 756c4 $r12: .cfa -40 + ^ $r13: .cfa -32 + ^ $r14: .cfa -24 + ^ $r15: .cfa -16 + ^
STACK CFI INIT 757f0 c2 .cfa: $rsp 8 + .ra: .cfa -8 + ^
STACK CFI 757f1 .cfa: $rsp 16 +
STACK CFI 757fa $rbx: .cfa -16 + ^
STACK CFI INIT 758c0 b8 .cfa: $rsp 8 + .ra: .cfa -8 + ^
STACK CFI 758c1 .cfa: $rsp 16 +
STACK CFI 758ca $rbx: .cfa -16 + ^
STACK CFI INIT 75980 ac .cfa: $rsp 8 + .ra: .cfa -8 + ^
STACK CFI 75982 .cfa: $rsp 16 +
STACK CFI 75985 $r14: .cfa -16 + ^
STACK CFI 75987 .cfa: $rsp 24 +
STACK CFI 7598a $r13: .cfa -24 + ^
STACK CFI 7598c .cfa: $rsp 32 +
STACK CFI 7598d .cfa: $rsp 40 +
STACK CFI 75990 $r12: .cfa -32 + ^ $rbp: .cfa -40 + ^
STACK CFI 75991 .cfa: $rsp 48 +
STACK CFI 75994 $rbx: .cfa -48 + ^
STACK CFI INIT 75a30 1d0 .cfa: $rsp 8 + .ra: .cfa -8 + ^
STACK CFI 75a32 .cfa: $rsp 16 +
STACK CFI 75a36 .cfa: $rsp 24 +
STACK CFI 75a38 .cfa: $rsp 32 +
STACK CFI 75a3a .cfa: $rsp 40 +
STACK CFI 75a3b .cfa: $rsp 48 +
STACK CFI 75a3c .cfa: $rsp 56 +
STACK CFI 75a40 $r12: .cfa -40 + ^ $r13: .cfa -32 + ^ $r14: .cfa -24 + ^ $r15: .cfa -16 + ^ $rbp: .cfa -48 + ^ $rbx: .cfa -56 + ^ .cfa: $rsp 64 +
STACK CFI INIT 75c00 47 .cfa: $rsp 8 + .ra: .cfa -8 + ^
STACK CFI 75c01 .cfa: $rsp 16 +
STACK CFI 75c0c $rbx: .cfa -16 + ^
STACK CFI INIT 75eb0 44 .cfa: $rsp 8 + .ra: .cfa -8 + ^
STACK CFI INIT 75f00 12 .cfa: $rsp 8 + .ra: .cfa -8 + ^
STACK CFI INIT 75f20 2b .cfa: $rsp 8 + .ra: .cfa -8 + ^
STACK CFI 75f21 .cfa: $rsp 16 +
STACK CFI 75f24 $rbx: .cfa -16 + ^
STACK CFI INIT 75f50 15 .cfa: $rsp 8 + .ra: .cfa -8 + ^
STACK CFI INIT 75f70 1ba .cfa: $rsp 8 + .ra: .cfa -8 + ^
STACK CFI 75f89 $r12: .cfa -40 + ^ $r14: .cfa -24 + ^ $rbp: .cfa -48 + ^ $rbx: .cfa -56 + ^
STACK CFI 75f97 .cfa: $rsp 80 +
STACK CFI 75fad $r13: .cfa -32 + ^ $r15: .cfa -16 + ^
STACK CFI INIT 76130 197 .cfa: $rsp 8 + .ra: .cfa -8 + ^
STACK CFI 7613d $rbp: .cfa -32 + ^ $rbx: .cfa -40 + ^
STACK CFI 7614b .cfa: $rsp 64 +
STACK CFI 76153 $r12: .cfa -24 + ^ $r13: .cfa -16 + ^
STACK CFI INIT 762d0 1ae .cfa: $rsp 8 + .ra: .cfa -8 + ^
STACK CFI 762dd $rbp: .cfa -48 + ^ $rbx: .cfa -56 + ^
STACK CFI 762ea $r12: .cfa -40 + ^ $r13: .cfa -32 + ^
STACK CFI 762f8 .cfa: $rsp 80 +
STACK CFI 76307 $r14: .cfa -24 + ^ $r15: .cfa -16 + ^
STACK CFI INIT 76480 ae .cfa: $rsp 8 + .ra: .cfa -8 + ^
STACK CFI 7648d $rbp: .cfa -32 + ^ $rbx: .cfa -40 + ^
STACK CFI 7649b .cfa: $rsp 48 +
STACK CFI 764a4 $r12: .cfa -24 + ^ $r13: .cfa -16 + ^
STACK CFI INIT 76530 1d .cfa: $rsp 8 + .ra: .cfa -8 + ^
STACK CFI 76538 .cfa: $rsp 16 +
STACK CFI 7653e $rbx: .cfa -16 + ^
STACK CFI INIT 76550 12 .cfa: $rsp 8 + .ra: .cfa -8 + ^
STACK CFI INIT 7d1b4 1b .cfa: $rsp -128 + .ra: $rip
STACK CFI 7d1be .cfa: $rsp 0 +
STACK CFI 7d1c2 .cfa: $rsp 128 +
STACK CFI 7d1ca .cfa: $rsp -128 +
STACK CFI INIT 7d1cf 1f .cfa: $rsp -128 + .ra: $rip
STACK CFI 7d1dd .cfa: $rsp 0 +
STACK CFI 7d1e1 .cfa: $rsp 128 +
STACK CFI 7d1e9 .cfa: $rsp -128 +
STACK CFI INIT 7d1ee 1b .cfa: $rsp -128 + .ra: $rip
STACK CFI 7d1f8 .cfa: $rsp 0 +
STACK CFI 7d1fc .cfa: $rsp 128 +
STACK CFI 7d204 .cfa: $rsp -128 +
STACK CFI INIT 7d209 1f .cfa: $rsp -128 + .ra: $rip
STACK CFI 7d217 .cfa: $rsp 0 +
STACK CFI 7d21b .cfa: $rsp 128 +
STACK CFI 7d223 .cfa: $rsp -128 +
STACK CFI INIT 7d228 1f .cfa: $rsp -128 + .ra: $rip
STACK CFI 7d236 .cfa: $rsp 0 +
STACK CFI 7d23a .cfa: $rsp 128 +
STACK CFI 7d242 .cfa: $rsp -128 +
STACK CFI INIT 7d247 1f .cfa: $rsp -128 + .ra: $rip
STACK CFI 7d255 .cfa: $rsp 0 +
STACK CFI 7d259 .cfa: $rsp 128 +
STACK CFI 7d261 .cfa: $rsp -128 +
STACK CFI INIT 7d266 1f .cfa: $rsp -128 + .ra: $rip
STACK CFI 7d274 .cfa: $rsp 0 +
STACK CFI 7d278 .cfa: $rsp 128 +
STACK CFI 7d280 .cfa: $rsp -128 +
STACK CFI INIT 7d285 1f .cfa: $rsp -128 + .ra: $rip
STACK CFI 7d293 .cfa: $rsp 0 +
STACK CFI 7d297 .cfa: $rsp 128 +
STACK CFI 7d29f .cfa: $rsp -128 +
STACK CFI INIT 7d2a4 1f .cfa: $rsp -128 + .ra: $rip
STACK CFI 7d2b2 .cfa: $rsp 0 +
STACK CFI 7d2b6 .cfa: $rsp 128 +
STACK CFI 7d2be .cfa: $rsp -128 +
STACK CFI INIT 7d2c3 1f .cfa: $rsp -128 + .ra: $rip
STACK CFI 7d2d1 .cfa: $rsp 0 +
STACK CFI 7d2d5 .cfa: $rsp 128 +
STACK CFI 7d2dd .cfa: $rsp -128 +
STACK CFI INIT 7d2e2 1b .cfa: $rsp -128 + .ra: $rip
STACK CFI 7d2ec .cfa: $rsp 0 +
STACK CFI 7d2f0 .cfa: $rsp 128 +
STACK CFI 7d2f8 .cfa: $rsp -128 +
STACK CFI INIT 7d2fd 1b .cfa: $rsp -128 + .ra: $rip
STACK CFI 7d307 .cfa: $rsp 0 +
STACK CFI 7d30b .cfa: $rsp 128 +
STACK CFI 7d313 .cfa: $rsp -128 +
STACK CFI INIT 7d318 1f .cfa: $rsp -128 + .ra: $rip
STACK CFI 7d326 .cfa: $rsp 0 +
STACK CFI 7d32a .cfa: $rsp 128 +
STACK CFI 7d332 .cfa: $rsp -128 +
STACK CFI INIT 7d337 1f .cfa: $rsp -128 + .ra: $rip
STACK CFI 7d345 .cfa: $rsp 0 +
STACK CFI 7d349 .cfa: $rsp 128 +
STACK CFI 7d351 .cfa: $rsp -128 +
STACK CFI INIT 7d356 1f .cfa: $rsp -128 + .ra: $rip
STACK CFI 7d364 .cfa: $rsp 0 +
STACK CFI 7d368 .cfa: $rsp 128 +
STACK CFI 7d370 .cfa: $rsp -128 +
STACK CFI INIT 7d375 1f .cfa: $rsp -128 + .ra: $rip
STACK CFI 7d383 .cfa: $rsp 0 +
STACK CFI 7d387 .cfa: $rsp 128 +
STACK CFI 7d38f .cfa: $rsp -128 +
STACK CFI INIT 7d394 1b .cfa: $rsp -128 + .ra: $rip
STACK CFI 7d39e .cfa: $rsp 0 +
STACK CFI 7d3a2 .cfa: $rsp 128 +
STACK CFI 7d3aa .cfa: $rsp -128 +
STACK CFI INIT 7d3af 1b .cfa: $rsp -128 + .ra: $rip
STACK CFI 7d3b9 .cfa: $rsp 0 +
STACK CFI 7d3bd .cfa: $rsp 128 +
STACK CFI 7d3c5 .cfa: $rsp -128 +
STACK CFI INIT 7d3ca 1f .cfa: $rsp -128 + .ra: $rip
STACK CFI 7d3d8 .cfa: $rsp 0 +
STACK CFI 7d3dc .cfa: $rsp 128 +
STACK CFI 7d3e4 .cfa: $rsp -128 +
STACK CFI INIT 7d3e9 1f .cfa: $rsp -128 + .ra: $rip
STACK CFI 7d3f7 .cfa: $rsp 0 +
STACK CFI 7d3fb .cfa: $rsp 128 +
STACK CFI 7d403 .cfa: $rsp -128 +
STACK CFI INIT 7d408 1b .cfa: $rsp -128 + .ra: $rip
STACK CFI 7d412 .cfa: $rsp 0 +
STACK CFI 7d416 .cfa: $rsp 128 +
STACK CFI 7d41e .cfa: $rsp -128 +
STACK CFI INIT 7d423 1f .cfa: $rsp -128 + .ra: $rip
STACK CFI 7d431 .cfa: $rsp 0 +
STACK CFI 7d435 .cfa: $rsp 128 +
STACK CFI 7d43d .cfa: $rsp -128 +
STACK CFI INIT 7d442 1f .cfa: $rsp -128 + .ra: $rip
STACK CFI 7d450 .cfa: $rsp 0 +
STACK CFI 7d454 .cfa: $rsp 128 +
STACK CFI 7d45c .cfa: $rsp -128 +
STACK CFI INIT 7d461 1f .cfa: $rsp -128 + .ra: $rip
STACK CFI 7d46f .cfa: $rsp 0 +
STACK CFI 7d473 .cfa: $rsp 128 +
STACK CFI 7d47b .cfa: $rsp -128 +
STACK CFI INIT 7d480 1f .cfa: $rsp -128 + .ra: $rip
STACK CFI 7d48e .cfa: $rsp 0 +
STACK CFI 7d492 .cfa: $rsp 128 +
STACK CFI 7d49a .cfa: $rsp -128 +
STACK CFI INIT 7d49f 1f .cfa: $rsp -128 + .ra: $rip
STACK CFI 7d4ad .cfa: $rsp 0 +
STACK CFI 7d4b1 .cfa: $rsp 128 +
STACK CFI 7d4b9 .cfa: $rsp -128 +
STACK CFI INIT 7d4be 1f .cfa: $rsp -128 + .ra: $rip
STACK CFI 7d4cc .cfa: $rsp 0 +
STACK CFI 7d4d0 .cfa: $rsp 128 +
STACK CFI 7d4d8 .cfa: $rsp -128 +
STACK CFI INIT 7d4dd 1b .cfa: $rsp -128 + .ra: $rip
STACK CFI 7d4e7 .cfa: $rsp 0 +
STACK CFI 7d4eb .cfa: $rsp 128 +
STACK CFI 7d4f3 .cfa: $rsp -128 +
STACK CFI INIT 7d4f8 1b .cfa: $rsp -128 + .ra: $rip
STACK CFI 7d502 .cfa: $rsp 0 +
STACK CFI 7d506 .cfa: $rsp 128 +
STACK CFI 7d50e .cfa: $rsp -128 +
STACK CFI INIT 7d513 1b .cfa: $rsp -128 + .ra: $rip
STACK CFI 7d51d .cfa: $rsp 0 +
STACK CFI 7d521 .cfa: $rsp 128 +
STACK CFI 7d529 .cfa: $rsp -128 +
STACK CFI INIT 7d52e 1f .cfa: $rsp -128 + .ra: $rip
STACK CFI 7d53c .cfa: $rsp 0 +
STACK CFI 7d540 .cfa: $rsp 128 +
STACK CFI 7d548 .cfa: $rsp -128 +
STACK CFI INIT 7d54d 1f .cfa: $rsp -128 + .ra: $rip
STACK CFI 7d55b .cfa: $rsp 0 +
STACK CFI 7d55f .cfa: $rsp 128 +
STACK CFI 7d567 .cfa: $rsp -128 +
STACK CFI INIT 7d56c 1b .cfa: $rsp -128 + .ra: $rip
STACK CFI 7d576 .cfa: $rsp 0 +
STACK CFI 7d57a .cfa: $rsp 128 +
STACK CFI 7d582 .cfa: $rsp -128 +
STACK CFI INIT 7d587 1f .cfa: $rsp -128 + .ra: $rip
STACK CFI 7d595 .cfa: $rsp 0 +
STACK CFI 7d599 .cfa: $rsp 128 +
STACK CFI 7d5a1 .cfa: $rsp -128 +
STACK CFI INIT 7d5a6 1b .cfa: $rsp -128 + .ra: $rip
STACK CFI 7d5b0 .cfa: $rsp 0 +
STACK CFI 7d5b4 .cfa: $rsp 128 +
STACK CFI 7d5bc .cfa: $rsp -128 +
STACK CFI INIT 7d5c1 1b .cfa: $rsp -128 + .ra: $rip
STACK CFI 7d5cb .cfa: $rsp 0 +
STACK CFI 7d5cf .cfa: $rsp 128 +
STACK CFI 7d5d7 .cfa: $rsp -128 +
STACK CFI INIT 7d5dc 1f .cfa: $rsp -128 + .ra: $rip
STACK CFI 7d5ea .cfa: $rsp 0 +
STACK CFI 7d5ee .cfa: $rsp 128 +
STACK CFI 7d5f6 .cfa: $rsp -128 +
STACK CFI INIT 7d5fb 1f .cfa: $rsp -128 + .ra: $rip
STACK CFI 7d609 .cfa: $rsp 0 +
STACK CFI 7d60d .cfa: $rsp 128 +
STACK CFI 7d615 .cfa: $rsp -128 +
STACK CFI INIT 7d61a 1b .cfa: $rsp -128 + .ra: $rip
STACK CFI 7d624 .cfa: $rsp 0 +
STACK CFI 7d628 .cfa: $rsp 128 +
STACK CFI 7d630 .cfa: $rsp -128 +
STACK CFI INIT 7d635 1b .cfa: $rsp -128 + .ra: $rip
STACK CFI 7d63f .cfa: $rsp 0 +
STACK CFI 7d643 .cfa: $rsp 128 +
STACK CFI 7d64b .cfa: $rsp -128 +
STACK CFI INIT 7d650 1f .cfa: $rsp -128 + .ra: $rip
STACK CFI 7d65e .cfa: $rsp 0 +
STACK CFI 7d662 .cfa: $rsp 128 +
STACK CFI 7d66a .cfa: $rsp -128 +
STACK CFI INIT 7d66f 1f .cfa: $rsp -128 + .ra: $rip
STACK CFI 7d67d .cfa: $rsp 0 +
STACK CFI 7d681 .cfa: $rsp 128 +
STACK CFI 7d689 .cfa: $rsp -128 +
STACK CFI INIT 7d68e 1b .cfa: $rsp -128 + .ra: $rip
STACK CFI 7d698 .cfa: $rsp 0 +
STACK CFI 7d69c .cfa: $rsp 128 +
STACK CFI 7d6a4 .cfa: $rsp -128 +
STACK CFI INIT 7d6a9 1b .cfa: $rsp -128 + .ra: $rip
STACK CFI 7d6b3 .cfa: $rsp 0 +
STACK CFI 7d6b7 .cfa: $rsp 128 +
STACK CFI 7d6bf .cfa: $rsp -128 +
STACK CFI INIT 7d6c4 1b .cfa: $rsp -128 + .ra: $rip
STACK CFI 7d6ce .cfa: $rsp 0 +
STACK CFI 7d6d2 .cfa: $rsp 128 +
STACK CFI 7d6da .cfa: $rsp -128 +
STACK CFI INIT 7d6df 1c .cfa: $rsp -128 + .ra: $rip
STACK CFI 7d6ea .cfa: $rsp 0 +
STACK CFI 7d6ee .cfa: $rsp 128 +
STACK CFI 7d6f6 .cfa: $rsp -128 +
STACK CFI INIT 7d6fb 1c .cfa: $rsp -128 + .ra: $rip
STACK CFI 7d706 .cfa: $rsp 0 +
STACK CFI 7d70a .cfa: $rsp 128 +
STACK CFI 7d712 .cfa: $rsp -128 +
STACK CFI INIT 7d717 1f .cfa: $rsp -128 + .ra: $rip
STACK CFI 7d725 .cfa: $rsp 0 +
STACK CFI 7d729 .cfa: $rsp 128 +
STACK CFI 7d731 .cfa: $rsp -128 +
STACK CFI INIT 7d736 1f .cfa: $rsp -128 + .ra: $rip
STACK CFI 7d744 .cfa: $rsp 0 +
STACK CFI 7d748 .cfa: $rsp 128 +
STACK CFI 7d750 .cfa: $rsp -128 +
STACK CFI INIT 7d755 1f .cfa: $rsp -128 + .ra: $rip
STACK CFI 7d763 .cfa: $rsp 0 +
STACK CFI 7d767 .cfa: $rsp 128 +
STACK CFI 7d76f .cfa: $rsp -128 +
STACK CFI INIT 7d774 1c .cfa: $rsp -128 + .ra: $rip
STACK CFI 7d77f .cfa: $rsp 0 +
STACK CFI 7d783 .cfa: $rsp 128 +
STACK CFI 7d78b .cfa: $rsp -128 +
STACK CFI INIT 7d790 1f .cfa: $rsp -128 + .ra: $rip
STACK CFI 7d79e .cfa: $rsp 0 +
STACK CFI 7d7a2 .cfa: $rsp 128 +
STACK CFI 7d7aa .cfa: $rsp -128 +
STACK CFI INIT 7d7af 1f .cfa: $rsp -128 + .ra: $rip
STACK CFI 7d7bd .cfa: $rsp 0 +
STACK CFI 7d7c1 .cfa: $rsp 128 +
STACK CFI 7d7c9 .cfa: $rsp -128 +
STACK CFI INIT 7d7ce 1f .cfa: $rsp -128 + .ra: $rip
STACK CFI 7d7dc .cfa: $rsp 0 +
STACK CFI 7d7e0 .cfa: $rsp 128 +
STACK CFI 7d7e8 .cfa: $rsp -128 +
STACK CFI INIT 7d7ed 1f .cfa: $rsp -128 + .ra: $rip
STACK CFI 7d7fb .cfa: $rsp 0 +
STACK CFI 7d7ff .cfa: $rsp 128 +
STACK CFI 7d807 .cfa: $rsp -128 +
STACK CFI INIT 7d80c 1c .cfa: $rsp -128 + .ra: $rip
STACK CFI 7d817 .cfa: $rsp 0 +
STACK CFI 7d81b .cfa: $rsp 128 +
STACK CFI 7d823 .cfa: $rsp -128 +
STACK CFI INIT 7d828 1c .cfa: $rsp -128 + .ra: $rip
STACK CFI 7d833 .cfa: $rsp 0 +
STACK CFI 7d837 .cfa: $rsp 128 +
STACK CFI 7d83f .cfa: $rsp -128 +
STACK CFI INIT 7d844 1f .cfa: $rsp -128 + .ra: $rip
STACK CFI 7d852 .cfa: $rsp 0 +
STACK CFI 7d856 .cfa: $rsp 128 +
STACK CFI 7d85e .cfa: $rsp -128 +
STACK CFI INIT 7d863 1f .cfa: $rsp -128 + .ra: $rip
STACK CFI 7d871 .cfa: $rsp 0 +
STACK CFI 7d875 .cfa: $rsp 128 +
STACK CFI 7d87d .cfa: $rsp -128 +
STACK CFI INIT 7d882 1f .cfa: $rsp -128 + .ra: $rip
STACK CFI 7d890 .cfa: $rsp 0 +
STACK CFI 7d894 .cfa: $rsp 128 +
STACK CFI 7d89c .cfa: $rsp -128 +
STACK CFI INIT 7d8a1 1c .cfa: $rsp -128 + .ra: $rip
STACK CFI 7d8ac .cfa: $rsp 0 +
STACK CFI 7d8b0 .cfa: $rsp 128 +
STACK CFI 7d8b8 .cfa: $rsp -128 +
STACK CFI INIT 7d8bd 1b .cfa: $rsp -128 + .ra: $rip
STACK CFI 7d8c7 .cfa: $rsp 0 +
STACK CFI 7d8cb .cfa: $rsp 128 +
STACK CFI 7d8d3 .cfa: $rsp -128 +
STACK CFI INIT 7d8d8 1b .cfa: $rsp -128 + .ra: $rip
STACK CFI 7d8e2 .cfa: $rsp 0 +
STACK CFI 7d8e6 .cfa: $rsp 128 +
STACK CFI 7d8ee .cfa: $rsp -128 +
STACK CFI INIT 7d8f3 1b .cfa: $rsp -128 + .ra: $rip
STACK CFI 7d8fd .cfa: $rsp 0 +
STACK CFI 7d901 .cfa: $rsp 128 +
STACK CFI 7d909 .cfa: $rsp -128 +
STACK CFI INIT 7d90e 1b .cfa: $rsp -128 + .ra: $rip
STACK CFI 7d918 .cfa: $rsp 0 +
STACK CFI 7d91c .cfa: $rsp 128 +
STACK CFI 7d924 .cfa: $rsp -128 +
STACK CFI INIT 7d929 1b .cfa: $rsp -128 + .ra: $rip
STACK CFI 7d933 .cfa: $rsp 0 +
STACK CFI 7d937 .cfa: $rsp 128 +
STACK CFI 7d93f .cfa: $rsp -128 +
STACK CFI INIT 7d944 1b .cfa: $rsp -128 + .ra: $rip
STACK CFI 7d94e .cfa: $rsp 0 +
STACK CFI 7d952 .cfa: $rsp 128 +
STACK CFI 7d95a .cfa: $rsp -128 +
STACK CFI INIT 7d95f 1f .cfa: $rsp -128 + .ra: $rip
STACK CFI 7d96d .cfa: $rsp 0 +
STACK CFI 7d971 .cfa: $rsp 128 +
STACK CFI 7d979 .cfa: $rsp -128 +
STACK CFI INIT 7d97e 1f .cfa: $rsp -128 + .ra: $rip
STACK CFI 7d98c .cfa: $rsp 0 +
STACK CFI 7d990 .cfa: $rsp 128 +
STACK CFI 7d998 .cfa: $rsp -128 +
STACK CFI INIT 7d99d 1f .cfa: $rsp -128 + .ra: $rip
STACK CFI 7d9ab .cfa: $rsp 0 +
STACK CFI 7d9af .cfa: $rsp 128 +
STACK CFI 7d9b7 .cfa: $rsp -128 +
STACK CFI INIT 7d9bc 1f .cfa: $rsp -128 + .ra: $rip
STACK CFI 7d9ca .cfa: $rsp 0 +
STACK CFI 7d9ce .cfa: $rsp 128 +
STACK CFI 7d9d6 .cfa: $rsp -128 +
STACK CFI INIT 76570 11b .cfa: $rsp 8 + .ra: .cfa -8 + ^
STACK CFI 76577 .cfa: $rsp 16 +
STACK CFI 7657f $rbx: .cfa -16 + ^
STACK CFI INIT 76690 b6 .cfa: $rsp 8 + .ra: .cfa -8 + ^
STACK CFI INIT 76750 78 .cfa: $rsp 8 + .ra: .cfa -8 + ^
STACK CFI INIT 767d0 3 .cfa: $rsp 8 + .ra: .cfa -8 + ^
STACK CFI INIT 767e0 6b .cfa: $rsp 8 + .ra: .cfa -8 + ^
STACK CFI INIT 76850 9a .cfa: $rsp 8 + .ra: .cfa -8 + ^
STACK CFI INIT 768f0 31 .cfa: $rsp 8 + .ra: .cfa -8 + ^
STACK CFI INIT 76930 ca .cfa: $rsp 8 + .ra: .cfa -8 + ^
STACK CFI 7693d $r14: .cfa -16 + ^ $rbp: .cfa -40 + ^
STACK CFI 76950 .cfa: $rsp 48 +
STACK CFI 76958 $r12: .cfa -32 + ^ $r13: .cfa -24 + ^ $rbx: .cfa -48 + ^
STACK CFI INIT 76a00 2b8 .cfa: $rsp 8 + .ra: .cfa -8 + ^
STACK CFI 76a0e .cfa: $rsp 48 +
STACK CFI 76a18 $rbp: .cfa -16 + ^ $rbx: .cfa -24 + ^
STACK CFI INIT 76cc0 e0 .cfa: $rsp 8 + .ra: .cfa -8 + ^
STACK CFI 76cc7 $rbp: .cfa -24 + ^
STACK CFI 76cd7 .cfa: $rsp 64 +
STACK CFI 76cdd $r12: .cfa -16 + ^ $rbx: .cfa -32 + ^
STACK CFI INIT 76da0 169 .cfa: $rsp 8 + .ra: .cfa -8 + ^
STACK CFI 76db8 .cfa: $rsp 48 +
STACK CFI 76dbf $r12: .cfa -24 + ^ $r13: .cfa -16 + ^ $rbp: .cfa -32 + ^ $rbx: .cfa -40 + ^
STACK CFI INIT 76f10 7c .cfa: $rsp 8 + .ra: .cfa -8 + ^
STACK CFI 76f14 .cfa: $rsp 48 +
STACK CFI INIT 76f90 463 .cfa: $rsp 8 + .ra: .cfa -8 + ^
STACK CFI 76f92 .cfa: $rsp 16 +
STACK CFI 76f97 .cfa: $rsp 24 +
STACK CFI 76f99 .cfa: $rsp 32 +
STACK CFI 76f9b .cfa: $rsp 40 +
STACK CFI 76f9c .cfa: $rsp 48 +
STACK CFI 76f9d .cfa: $rsp 56 +
STACK CFI 76fa1 .cfa: $rsp 96 +
STACK CFI 76faf $r12: .cfa -40 + ^ $r13: .cfa -32 + ^ $r14: .cfa -24 + ^ $r15: .cfa -16 + ^ $rbp: .cfa -48 + ^ $rbx: .cfa -56 + ^
STACK CFI INIT 77400 19a .cfa: $rsp 8 + .ra: .cfa -8 + ^
STACK CFI 77401 .cfa: $rsp 16 +
STACK CFI 77403 $rbp: .cfa -16 + ^
STACK CFI 77404 .cfa: $rsp 24 +
STACK CFI 77406 $rbx: .cfa -24 + ^
STACK CFI 7740a .cfa: $rsp 32 +
STACK CFI INIT 775a0 3e3 .cfa: $rsp 8 + .ra: .cfa -8 + ^
STACK CFI 775a2 .cfa: $rsp 16 +
STACK CFI 775a4 .cfa: $rsp 24 +
STACK CFI 775a5 .cfa: $rsp 32 +
STACK CFI 775a6 .cfa: $rsp 40 +
STACK CFI 775aa .cfa: $rsp 96 +
STACK CFI 775b6 $r12: .cfa -24 + ^ $r13: .cfa -16 + ^ $rbp: .cfa -32 + ^ $rbx: .cfa -40 + ^
STACK CFI INIT 77990 5 .cfa: $rsp 8 + .ra: .cfa -8 + ^
STACK CFI INIT 779a0 10b .cfa: $rsp 8 + .ra: .cfa -8 + ^
STACK CFI 779a1 .cfa: $rsp 16 +
STACK CFI 779a5 .cfa: $rsp 24 +
STACK CFI 779a9 .cfa: $rsp 48 +
STACK CFI 779b6 $rbp: .cfa -16 + ^ $rbx: .cfa -24 + ^
STACK CFI INIT 77ab0 87 .cfa: $rsp 8 + .ra: .cfa -8 + ^
STACK CFI 77ab1 .cfa: $rsp 16 +
STACK CFI 77ab4 $rbx: .cfa -16 + ^
STACK CFI 77ab8 .cfa: $rsp 64 +
STACK CFI INIT 77b40 513 .cfa: $rsp 8 + .ra: .cfa -8 + ^
STACK CFI 77b4d $rbp: .cfa -48 + ^ $rbx: .cfa -56 + ^
STACK CFI 77b65 .cfa: $rsp 64 +
STACK CFI 77b6f $r12: .cfa -40 + ^ $r13: .cfa -32 + ^ $r14: .cfa -24 + ^ $r15: .cfa -16 + ^
STACK CFI INIT 78060 c5 .cfa: $rsp 8 + .ra: .cfa -8 + ^
STACK CFI 78061 .cfa: $rsp 16 +
STACK CFI 78062 .cfa: $rsp 24 +
STACK CFI 78065 $rbp: .cfa -16 + ^ $rbx: .cfa -24 + ^
STACK CFI 78069 .cfa: $rsp 32 +
STACK CFI INIT 78130 913 .cfa: $rsp 8 + .ra: .cfa -8 + ^
STACK CFI 78132 .cfa: $rsp 16 +
STACK CFI 78134 .cfa: $rsp 24 +
STACK CFI 78136 .cfa: $rsp 32 +
STACK CFI 78138 .cfa: $rsp 40 +
STACK CFI 7813b $r12: .cfa -40 + ^ $r13: .cfa -32 + ^ $r14: .cfa -24 + ^ $r15: .cfa -16 + ^
STACK CFI 7813c .cfa: $rsp 48 +
STACK CFI 7813d .cfa: $rsp 56 +
STACK CFI 78140 $rbp: .cfa -48 + ^ $rbx: .cfa -56 + ^
STACK CFI 78144 .cfa: $rsp 112 +
STACK CFI INIT 78a50 b9 .cfa: $rsp 8 + .ra: .cfa -8 + ^
STACK CFI 78a54 .cfa: $rsp 16 +
STACK CFI 78a56 $rbx: .cfa -16 + ^
STACK CFI INIT 78b10 ea .cfa: $rsp 8 + .ra: .cfa -8 + ^
STACK CFI 78b14 .cfa: $rsp 16 +
STACK CFI 78b17 $rbx: .cfa -16 + ^
STACK CFI INIT 78c00 2be .cfa: $rsp 8 + .ra: .cfa -8 + ^
STACK CFI 78c02 .cfa: $rsp 16 +
STACK CFI 78c04 .cfa: $rsp 24 +
STACK CFI 78c06 .cfa: $rsp 32 +
STACK CFI 78c08 .cfa: $rsp 40 +
STACK CFI 78c09 .cfa: $rsp 48 +
STACK CFI 78c0a .cfa: $rsp 56 +
STACK CFI 78c0e .cfa: $rsp 112 +
STACK CFI 78c20 $r12: .cfa -40 + ^ $r13: .cfa -32 + ^ $r14: .cfa -24 + ^ $r15: .cfa -16 + ^ $rbp: .cfa -48 + ^ $rbx: .cfa -56 + ^
STACK CFI INIT 78ec0 1d5 .cfa: $rsp 8 + .ra: .cfa -8 + ^
STACK CFI 78ecd $r12: .cfa -24 + ^ $rbx: .cfa -40 + ^
STACK CFI 78ee1 $r13: .cfa -16 + ^ $rbp: .cfa -32 + ^ .cfa: $rsp 48 +
STACK CFI INIT 790a0 299 .cfa: $rsp 8 + .ra: .cfa -8 + ^
STACK CFI 790a4 .cfa: $rsp 16 +
STACK CFI 790aa $rbx: .cfa -16 + ^
STACK CFI INIT 79340 13ef .cfa: $rsp 8 + .ra: .cfa -8 + ^
STACK CFI 79342 .cfa: $rsp 16 +
STACK CFI 79344 .cfa: $rsp 24 +
STACK CFI 79346 .cfa: $rsp 32 +
STACK CFI 79348 .cfa: $rsp 40 +
STACK CFI 79349 .cfa: $rsp 48 +
STACK CFI 7934c $r12: .cfa -40 + ^ $r13: .cfa -32 + ^ $r14: .cfa -24 + ^ $r15: .cfa -16 + ^ $rbp: .cfa -48 + ^
STACK CFI 7934d .cfa: $rsp 56 +
STACK CFI 79351 .cfa: $rsp 144 +
STACK CFI 79360 $rbx: .cfa -56 + ^
STACK CFI INIT 7a730 9a .cfa: $rsp 8 + .ra: .cfa -8 + ^
STACK CFI 7a735 .cfa: $rsp 16 +
STACK CFI 7a738 $rbx: .cfa -16 + ^
STACK CFI INIT 7a7d0 29b .cfa: $rsp 8 + .ra: .cfa -8 + ^
STACK CFI 7a7dd $r14: .cfa -24 + ^ $rbp: .cfa -48 + ^
STACK CFI 7a7f8 .cfa: $rsp 64 +
STACK CFI 7a802 $r12: .cfa -40 + ^ $r13: .cfa -32 + ^ $r15: .cfa -16 + ^ $rbx: .cfa -56 + ^
STACK CFI INIT 7aa70 123 .cfa: $rsp 8 + .ra: .cfa -8 + ^
STACK CFI 7aa7d $rbp: .cfa -24 + ^ $rbx: .cfa -32 + ^
STACK CFI 7aa86 .cfa: $rsp 32 +
STACK CFI 7aa93 $r12: .cfa -16 + ^
STACK CFI INIT 7aba0 3e7 .cfa: $rsp 8 + .ra: .cfa -8 + ^
STACK CFI 7aba2 .cfa: $rsp 16 +
STACK CFI 7aba5 $r15: .cfa -16 + ^
STACK CFI 7abae .cfa: $rsp 24 +
STACK CFI 7abb1 $r14: .cfa -24 + ^
STACK CFI 7abb3 .cfa: $rsp 32 +
STACK CFI 7abb5 .cfa: $rsp 40 +
STACK CFI 7abb6 .cfa: $rsp 48 +
STACK CFI 7abb7 .cfa: $rsp 56 +
STACK CFI 7abbe .cfa: $rsp 4480 +
STACK CFI 7abcf $r12: .cfa -40 + ^ $r13: .cfa -32 + ^ $rbp: .cfa -48 + ^ $rbx: .cfa -56 + ^
STACK CFI INIT 7af90 11f .cfa: $rsp 8 + .ra: .cfa -8 + ^
STACK CFI 7af92 .cfa: $rsp 16 +
STACK CFI 7af98 .cfa: $rsp 24 +
STACK CFI 7af99 .cfa: $rsp 32 +
STACK CFI 7af9d .cfa: $rsp 144 +
STACK CFI 7afa5 $r12: .cfa -16 + ^ $rbp: .cfa -24 + ^ $rbx: .cfa -32 + ^
STACK CFI INIT 7b0b0 453 .cfa: $rsp 8 + .ra: .cfa -8 + ^
STACK CFI 7b0c0 $r13: .cfa -32 + ^
STACK CFI 7b0e0 .cfa: $rsp 64 +
STACK CFI 7b0ed $r12: .cfa -40 + ^ $r14: .cfa -24 + ^ $r15: .cfa -16 + ^ $rbp: .cfa -48 + ^ $rbx: .cfa -56 + ^
STACK CFI INIT 7b510 2a3 .cfa: $rsp 8 + .ra: .cfa -8 + ^
STACK CFI 7b51d $r12: .cfa -40 + ^ $rbp: .cfa -48 + ^
STACK CFI 7b535 .cfa: $rsp 64 +
STACK CFI 7b543 $r13: .cfa -32 + ^ $r14: .cfa -24 + ^ $r15: .cfa -16 + ^ $rbx: .cfa -56 + ^
STACK CFI INIT 7b7c0 273 .cfa: $rsp 8 + .ra: .cfa -8 + ^
STACK CFI 7b7cd $r12: .cfa -32 + ^ $rbx: .cfa -48 + ^
STACK CFI 7b7e0 .cfa: $rsp 48 +
STACK CFI 7b7f0 $r13: .cfa -24 + ^ $r14: .cfa -16 + ^ $rbp: .cfa -40 + ^
STACK CFI INIT 7ba40 d3 .cfa: $rsp 8 + .ra: .cfa -8 + ^
STACK CFI 7ba48 .cfa: $rsp 16 +
STACK CFI 7ba54 $rbx: .cfa -16 + ^
STACK CFI INIT 7bb20 257 .cfa: $rsp 8 + .ra: .cfa -8 + ^
STACK CFI 7bb2d $r12: .cfa -24 + ^ $rbx: .cfa -40 + ^
STACK CFI 7bb3b .cfa: $rsp 48 +
STACK CFI 7bb4e $r13: .cfa -16 + ^ $rbp: .cfa -32 + ^
STACK CFI INIT 7bd80 b9 .cfa: $rsp 8 + .ra: .cfa -8 + ^
STACK CFI 7bd88 .cfa: $rsp 16 +
STACK CFI 7bd8b $rbx: .cfa -16 + ^
STACK CFI INIT 7be40 20 .cfa: $rsp 8 + .ra: .cfa -8 + ^
STACK CFI 7be48 .cfa: $rsp 16 +
STACK CFI 7be4b $rbx: .cfa -16 + ^
STACK CFI INIT 7be60 1c5 .cfa: $rsp 8 + .ra: .cfa -8 + ^
STACK CFI 7be61 .cfa: $rsp 16 +
STACK CFI 7be66 $rbx: .cfa -16 + ^
STACK CFI INIT 7c030 29f .cfa: $rsp 8 + .ra: .cfa -8 + ^
STACK CFI 7c03d $r12: .cfa -32 + ^ $rbx: .cfa -48 + ^
STACK CFI 7c053 .cfa: $rsp 48 +
STACK CFI 7c066 $r13: .cfa -24 + ^ $r14: .cfa -16 + ^ $rbp: .cfa -40 + ^
STACK CFI INIT 7c2d0 40 .cfa: $rsp 8 + .ra: .cfa -8 + ^
STACK CFI 7c2de .cfa: $rsp 32 +
STACK CFI 7c2e8 $rbp: .cfa -16 + ^ $rbx: .cfa -24 + ^
STACK CFI INIT 7c310 63 .cfa: $rsp 8 + .ra: .cfa -8 + ^
STACK CFI 7c311 .cfa: $rsp 16 +
STACK CFI 7c314 $rbx: .cfa -16 + ^
STACK CFI INIT 7c380 1ba .cfa: $rsp 8 + .ra: .cfa -8 + ^
STACK CFI 7c382 .cfa: $rsp 16 +
STACK CFI 7c384 .cfa: $rsp 24 +
STACK CFI 7c386 .cfa: $rsp 32 +
STACK CFI 7c388 .cfa: $rsp 40 +
STACK CFI 7c389 .cfa: $rsp 48 +
STACK CFI 7c38a .cfa: $rsp 56 +
STACK CFI 7c38e .cfa: $rsp 144 +
STACK CFI 7c39c $r12: .cfa -40 + ^ $r13: .cfa -32 + ^ $r14: .cfa -24 + ^ $r15: .cfa -16 + ^ $rbp: .cfa -48 + ^ $rbx: .cfa -56 + ^
STACK CFI INIT 7c540 471 .cfa: $rsp 8 + .ra: .cfa -8 + ^
STACK CFI 7c54d $rbp: .cfa -48 + ^ $rbx: .cfa -56 + ^
STACK CFI 7c55a $r13: .cfa -32 + ^ $r14: .cfa -24 + ^
STACK CFI 7c568 .cfa: $rsp 64 +
STACK CFI 7c57c $r12: .cfa -40 + ^ $r15: .cfa -16 + ^
STACK CFI INIT 7c9c0 1a4 .cfa: $rsp 8 + .ra: .cfa -8 + ^
STACK CFI 7c9cd $r13: .cfa -32 + ^ $r14: .cfa -24 + ^
STACK CFI 7c9da $r15: .cfa -16 + ^ $rbx: .cfa -56 + ^
STACK CFI 7c9e8 .cfa: $rsp 64 +
STACK CFI 7c9f3 $r12: .cfa -40 + ^ $rbp: .cfa -48 + ^
STACK CFI INIT 7cb70 340 .cfa: $rsp 8 + .ra: .cfa -8 + ^
STACK CFI 7cb7d $r12: .cfa -40 + ^ $rbp: .cfa -48 + ^
STACK CFI 7cb98 .cfa: $rsp 64 +
STACK CFI 7cbab $r13: .cfa -32 + ^ $r14: .cfa -24 + ^ $r15: .cfa -16 + ^ $rbx: .cfa -56 + ^
STACK CFI INIT 7ceb0 4e .cfa: $rsp 8 + .ra: .cfa -8 + ^
STACK CFI 7cebe .cfa: $rsp 32 +
STACK CFI 7cec8 $rbp: .cfa -16 + ^ $rbx: .cfa -24 + ^
STACK CFI INIT 7cf00 2b4 .cfa: $rsp 8 + .ra: .cfa -8 + ^
STACK CFI 7cf0d $r12: .cfa -40 + ^ $rbx: .cfa -56 + ^
STACK CFI 7cf28 .cfa: $rsp 112 +
STACK CFI 7cf32 $r13: .cfa -32 + ^ $r14: .cfa -24 + ^ $r15: .cfa -16 + ^ $rbp: .cfa -48 + ^
STACK CFI INIT 7d9e0 1b .cfa: $rsp 8 + .ra: .cfa -8 + ^
STACK CFI 7d9e4 .cfa: $rsp 16 +
STACK CFI INIT 7da00 90 .cfa: $rsp 8 + .ra: .cfa -8 + ^
STACK CFI 7da04 .cfa: $rsp 32 +
STACK CFI INIT 7da90 3d .cfa: $rsp 8 + .ra: .cfa -8 + ^
STACK CFI 7da91 .cfa: $rsp 16 +
STACK CFI 7da98 $rbx: .cfa -16 + ^
STACK CFI INIT 7dad0 19 .cfa: $rsp 8 + .ra: .cfa -8 + ^
STACK CFI INIT 7daf0 d6 .cfa: $rsp 8 + .ra: .cfa -8 + ^
STACK CFI 7daf4 .cfa: $rsp 16 +
STACK CFI INIT 7dbd0 1c .cfa: $rsp 8 + .ra: .cfa -8 + ^
STACK CFI 7dbd4 .cfa: $rsp 16 +
STACK CFI INIT 7dbf0 116 .cfa: $rsp 8 + .ra: .cfa -8 + ^
STACK CFI 7dbf1 .cfa: $rsp 16 +
STACK CFI 7dbf4 $rbp: .cfa -16 + ^
STACK CFI 7dbf5 .cfa: $rsp 24 +
STACK CFI 7dbf9 .cfa: $rsp 48 +
STACK CFI 7dc09 $rbx: .cfa -24 + ^
STACK CFI INIT 7dd10 12c .cfa: $rsp 8 + .ra: .cfa -8 + ^
STACK CFI 7dd1d $r12: .cfa -16 + ^ $rbx: .cfa -32 + ^
STACK CFI 7dd26 .cfa: $rsp 32 +
STACK CFI 7dd37 $rbp: .cfa -24 + ^
STACK CFI INIT 7de40 28f .cfa: $rsp 8 + .ra: .cfa -8 + ^
STACK CFI 7de4d $r13: .cfa -32 + ^ $rbx: .cfa -56 + ^
STACK CFI 7de5a $r14: .cfa -24 + ^ $rbp: .cfa -48 + ^
STACK CFI 7de68 .cfa: $rsp 80 +
STACK CFI 7de74 $r12: .cfa -40 + ^ $r15: .cfa -16 + ^
STACK CFI INIT 7e0d0 14f .cfa: $rsp 8 + .ra: .cfa -8 + ^
STACK CFI 7e0dd $rbp: .cfa -24 + ^ $rbx: .cfa -32 + ^
STACK CFI 7e0e6 .cfa: $rsp 48 +
STACK CFI 7e0f4 $r12: .cfa -16 + ^
STACK CFI INIT 7e220 c5 .cfa: $rsp 8 + .ra: .cfa -8 + ^
STACK CFI 7e224 .cfa: $rsp 16 +
STACK CFI INIT 7ebb0 1f .cfa: $rsp -128 + .ra: $rip
STACK CFI 7ebbe .cfa: $rsp 0 +
STACK CFI 7ebc2 .cfa: $rsp 128 +
STACK CFI 7ebca .cfa: $rsp -128 +
STACK CFI INIT 7ebcf 1f .cfa: $rsp -128 + .ra: $rip
STACK CFI 7ebdd .cfa: $rsp 0 +
STACK CFI 7ebe1 .cfa: $rsp 128 +
STACK CFI 7ebe9 .cfa: $rsp -128 +
STACK CFI INIT 7ebee 1f .cfa: $rsp -128 + .ra: $rip
STACK CFI 7ebfc .cfa: $rsp 0 +
STACK CFI 7ec00 .cfa: $rsp 128 +
STACK CFI 7ec08 .cfa: $rsp -128 +
STACK CFI INIT 7ec0d 1f .cfa: $rsp -128 + .ra: $rip
STACK CFI 7ec1b .cfa: $rsp 0 +
STACK CFI 7ec1f .cfa: $rsp 128 +
STACK CFI 7ec27 .cfa: $rsp -128 +
STACK CFI INIT 7ec2c 1f .cfa: $rsp -128 + .ra: $rip
STACK CFI 7ec3a .cfa: $rsp 0 +
STACK CFI 7ec3e .cfa: $rsp 128 +
STACK CFI 7ec46 .cfa: $rsp -128 +
STACK CFI INIT 7ec4b 1f .cfa: $rsp -128 + .ra: $rip
STACK CFI 7ec59 .cfa: $rsp 0 +
STACK CFI 7ec5d .cfa: $rsp 128 +
STACK CFI 7ec65 .cfa: $rsp -128 +
STACK CFI INIT 7ec6a 1f .cfa: $rsp -128 + .ra: $rip
STACK CFI 7ec78 .cfa: $rsp 0 +
STACK CFI 7ec7c .cfa: $rsp 128 +
STACK CFI 7ec84 .cfa: $rsp -128 +
STACK CFI INIT 7ec89 1f .cfa: $rsp -128 + .ra: $rip
STACK CFI 7ec97 .cfa: $rsp 0 +
STACK CFI 7ec9b .cfa: $rsp 128 +
STACK CFI 7eca3 .cfa: $rsp -128 +
STACK CFI INIT 7eca8 1f .cfa: $rsp -128 + .ra: $rip
STACK CFI 7ecb6 .cfa: $rsp 0 +
STACK CFI 7ecba .cfa: $rsp 128 +
STACK CFI 7ecc2 .cfa: $rsp -128 +
STACK CFI INIT 7ecc7 1f .cfa: $rsp -128 + .ra: $rip
STACK CFI 7ecd5 .cfa: $rsp 0 +
STACK CFI 7ecd9 .cfa: $rsp 128 +
STACK CFI 7ece1 .cfa: $rsp -128 +
STACK CFI INIT 7e2f0 2 .cfa: $rsp 8 + .ra: .cfa -8 + ^
STACK CFI INIT 7e300 86 .cfa: $rsp 8 + .ra: .cfa -8 + ^
STACK CFI 7e304 .cfa: $rsp 16 +
STACK CFI INIT 7e390 1aa .cfa: $rsp 8 + .ra: .cfa -8 + ^
STACK CFI 7e39e .cfa: $rsp 32 +
STACK CFI 7e3a8 $rbp: .cfa -16 + ^ $rbx: .cfa -24 + ^
STACK CFI INIT 136360 12 .cfa: $rsp 8 + .ra: .cfa -8 + ^
STACK CFI INIT 7e540 12c .cfa: $rsp 8 + .ra: .cfa -8 + ^
STACK CFI 7e541 .cfa: $rsp 16 +
STACK CFI 7e544 $rbp: .cfa -16 + ^ .cfa: $rbp 16 +
STACK CFI 7e54f $r12: .cfa -32 + ^ $rbx: .cfa -40 + ^
STACK CFI 7e560 $r13: .cfa -24 + ^
STACK CFI INIT 7e670 123 .cfa: $rsp 8 + .ra: .cfa -8 + ^
STACK CFI 7e67d $rbp: .cfa -40 + ^ $rbx: .cfa -48 + ^
STACK CFI 7e692 $r12: .cfa -32 + ^ $r13: .cfa -24 + ^ $r14: .cfa -16 + ^
STACK CFI 7e696 .cfa: $rsp 48 +
STACK CFI INIT 7e7a0 ed .cfa: $rsp 8 + .ra: .cfa -8 + ^
STACK CFI 7e7ad $r12: .cfa -24 + ^ $rbp: .cfa -32 + ^
STACK CFI 7e7be .cfa: $rsp 48 +
STACK CFI 7e7f9 $r13: .cfa -16 + ^ $rbx: .cfa -40 + ^
STACK CFI INIT 7e890 142 .cfa: $rsp 8 + .ra: .cfa -8 + ^
STACK CFI 7e89d $rbp: .cfa -32 + ^ $rbx: .cfa -40 + ^
STACK CFI 7e8ab .cfa: $rsp 48 +
STACK CFI 7e8b7 $r12: .cfa -24 + ^ $r13: .cfa -16 + ^
STACK CFI INIT 7e9e0 1d0 .cfa: $rsp 8 + .ra: .cfa -8 + ^
STACK CFI 7e9ed $r12: .cfa -40 + ^ $rbp: .cfa -48 + ^
STACK CFI 7e9fa $r13: .cfa -32 + ^ $rbx: .cfa -56 + ^
STACK CFI 7ea0b .cfa: $rsp 80 +
STACK CFI 7ea4d $r14: .cfa -24 + ^ $r15: .cfa -16 + ^
STACK CFI INIT 7ecf0 bd .cfa: $rsp 8 + .ra: .cfa -8 + ^
STACK CFI 7ecfd $rbp: .cfa -24 + ^ $rbx: .cfa -32 + ^
STACK CFI 7ed06 .cfa: $rsp 48 +
STACK CFI 7ed15 $r12: .cfa -16 + ^
STACK CFI INIT 7edb0 b5 .cfa: $rsp 8 + .ra: .cfa -8 + ^
STACK CFI 7edb2 .cfa: $rsp 16 +
STACK CFI 7edb8 $r12: .cfa -16 + ^
STACK CFI 7edb9 .cfa: $rsp 24 +
STACK CFI 7edc0 $rbp: .cfa -24 + ^
STACK CFI 7edc1 .cfa: $rsp 32 +
STACK CFI 7edc4 $rbx: .cfa -32 + ^
STACK CFI 7edcd .cfa: $rsp 48 +
STACK CFI INIT 7ee70 182 .cfa: $rsp 8 + .ra: .cfa -8 + ^
STACK CFI 7ee72 .cfa: $rsp 16 +
STACK CFI 7ee77 .cfa: $rsp 24 +
STACK CFI 7ee78 .cfa: $rsp 32 +
STACK CFI 7ee79 .cfa: $rsp 40 +
STACK CFI 7ee7c $r12: .cfa -24 + ^ $r13: .cfa -16 + ^ $rbp: .cfa -32 + ^ $rbx: .cfa -40 + ^
STACK CFI 7ee80 .cfa: $rsp 64 +
STACK CFI INIT 7f000 36 .cfa: $rsp 8 + .ra: .cfa -8 + ^
STACK CFI INIT 7f040 1f .cfa: $rsp 8 + .ra: .cfa -8 + ^
STACK CFI INIT 7f060 3d .cfa: $rsp 8 + .ra: .cfa -8 + ^
STACK CFI 7f072 .cfa: $rsp 16 +
STACK CFI INIT 7f0a0 7d .cfa: $rsp 8 + .ra: .cfa -8 + ^
STACK CFI 7f0a2 .cfa: $rsp 16 +
STACK CFI 7f0a5 $r12: .cfa -16 + ^
STACK CFI 7f0a6 .cfa: $rsp 24 +
STACK CFI 7f0a7 .cfa: $rsp 32 +
STACK CFI 7f0ae $rbp: .cfa -24 + ^ $rbx: .cfa -32 + ^
STACK CFI INIT 136380 78 .cfa: $rsp 8 + .ra: .cfa -8 + ^
STACK CFI 136381 .cfa: $rsp 16 +
STACK CFI 136389 .cfa: $rsp 24 +
STACK CFI 13638d .cfa: $rsp 32 +
STACK CFI 136398 $rbp: .cfa -16 + ^ $rbx: .cfa -24 + ^
STACK CFI INIT 136990 32 .cfa: $rsp 8 + .ra: .cfa -8 + ^
STACK CFI 136991 .cfa: $rsp 16 +
STACK CFI 136998 $rbp: .cfa -16 + ^
STACK CFI 136999 .cfa: $rsp 24 +
STACK CFI 1369a0 $rbx: .cfa -24 + ^
STACK CFI 1369a4 .cfa: $rsp 32 +
STACK CFI INIT 7f120 1bc .cfa: $rsp 8 + .ra: .cfa -8 + ^
STACK CFI INIT 7f2e0 29 .cfa: $rsp 8 + .ra: .cfa -8 + ^
STACK CFI INIT 112020 a5 .cfa: $rsp 8 + .ra: .cfa -8 + ^
STACK CFI INIT 7f310 7c .cfa: $rsp 8 + .ra: .cfa -8 + ^
STACK CFI INIT 7f390 3c .cfa: $rsp 8 + .ra: .cfa -8 + ^
STACK CFI INIT 1120d0 e99 .cfa: $rsp 8 + .ra: .cfa -8 + ^
STACK CFI INIT 7f3d0 1439 .cfa: $rsp 8 + .ra: .cfa -8 + ^
STACK CFI INIT 80810 10 .cfa: $rsp 8 + .ra: .cfa -8 + ^
STACK CFI INIT 80820 29 .cfa: $rsp 8 + .ra: .cfa -8 + ^
STACK CFI INIT 119ca0 a0f .cfa: $rsp 8 + .ra: .cfa -8 + ^
STACK CFI INIT 80850 dc .cfa: $rsp 8 + .ra: .cfa -8 + ^
STACK CFI INIT 80930 29 .cfa: $rsp 8 + .ra: .cfa -8 + ^
STACK CFI INIT 80960 97 .cfa: $rsp 8 + .ra: .cfa -8 + ^
STACK CFI 8096d .cfa: $rsp 264 +
STACK CFI 809f3 .cfa: $rsp 8 +
STACK CFI INIT 80a00 118 .cfa: $rsp 8 + .ra: .cfa -8 + ^
STACK CFI INIT 80b20 57 .cfa: $rsp 8 + .ra: .cfa -8 + ^
STACK CFI 80b2e .cfa: $rsp 32 +
STACK CFI 80b31 $rbp: .cfa -16 + ^ $rbx: .cfa -24 + ^
STACK CFI INIT 80b80 61 .cfa: $rsp 8 + .ra: .cfa -8 + ^
STACK CFI 80b8e .cfa: $rsp 32 +
STACK CFI 80b91 $rbp: .cfa -16 + ^ $rbx: .cfa -24 + ^
STACK CFI INIT 80bf0 b9 .cfa: $rsp 8 + .ra: .cfa -8 + ^
STACK CFI 80c07 .cfa: $rsp 32 +
STACK CFI 80c09 $r12: .cfa -16 + ^ $rbp: .cfa -24 + ^ $rbx: .cfa -32 + ^
STACK CFI INIT 80cb0 11a .cfa: $rsp 8 + .ra: .cfa -8 + ^
STACK CFI 80cbd $rbp: .cfa -48 + ^ $rbx: .cfa -56 + ^
STACK CFI 80cd8 .cfa: $rsp 96 +
STACK CFI 80cdc $r12: .cfa -40 + ^ $r13: .cfa -32 + ^ $r14: .cfa -24 + ^ $r15: .cfa -16 + ^
STACK CFI INIT 80dd0 3d .cfa: $rsp 8 + .ra: .cfa -8 + ^
STACK CFI INIT 80e10 dd .cfa: $rsp 8 + .ra: .cfa -8 + ^
STACK CFI INIT 80ef0 6d .cfa: $rsp 8 + .ra: .cfa -8 + ^
STACK CFI INIT 80f60 99 .cfa: $rsp 8 + .ra: .cfa -8 + ^
STACK CFI INIT 81000 3c .cfa: $rsp 8 + .ra: .cfa -8 + ^
STACK CFI INIT 112f70 11b9 .cfa: $rsp 8 + .ra: .cfa -8 + ^
STACK CFI INIT 81040 1849 .cfa: $rsp 8 + .ra: .cfa -8 + ^
STACK CFI INIT 82890 29 .cfa: $rsp 8 + .ra: .cfa -8 + ^
STACK CFI INIT 11a6c0 f6b .cfa: $rsp 8 + .ra: .cfa -8 + ^
STACK CFI INIT 828c0 29 .cfa: $rsp 8 + .ra: .cfa -8 + ^
STACK CFI INIT 114130 19a .cfa: $rsp 8 + .ra: .cfa -8 + ^
STACK CFI INIT 828f0 9f .cfa: $rsp 8 + .ra: .cfa -8 + ^
STACK CFI INIT 82990 29 .cfa: $rsp 8 + .ra: .cfa -8 + ^
STACK CFI INIT 829c0 9c .cfa: $rsp 8 + .ra: .cfa -8 + ^
STACK CFI 829cd .cfa: $rsp 264 +
STACK CFI 82a53 .cfa: $rsp 8 +
STACK CFI INIT 82a60 55 .cfa: $rsp 8 + .ra: .cfa -8 + ^
STACK CFI 82a64 .cfa: $rsp 16 +
STACK CFI INIT 82ac0 20a .cfa: $rsp 8 + .ra: .cfa -8 + ^
STACK CFI 82acc $rbp: .cfa -24 + ^ $rbx: .cfa -32 + ^
STACK CFI 82ad5 .cfa: $rsp 32 +
STACK CFI 82ae3 $r12: .cfa -16 + ^
STACK CFI INIT 82cd0 42 .cfa: $rsp 8 + .ra: .cfa -8 + ^
STACK CFI 82cd4 .cfa: $rsp 16 +
STACK CFI INIT 82d20 29 .cfa: $rsp 8 + .ra: .cfa -8 + ^
STACK CFI INIT 82d50 97 .cfa: $rsp 8 + .ra: .cfa -8 + ^
STACK CFI 82d5d .cfa: $rsp 264 +
STACK CFI 82de3 .cfa: $rsp 8 +
STACK CFI INIT 1142d0 675 .cfa: $rsp 8 + .ra: .cfa -8 + ^
STACK CFI 1142d2 .cfa: $rsp 16 +
STACK CFI 1142da .cfa: $rsp 24 +
STACK CFI 1142dc .cfa: $rsp 32 +
STACK CFI 1142e0 .cfa: $rsp 40 +
STACK CFI 1142e1 .cfa: $rsp 48 +
STACK CFI 1142e2 .cfa: $rsp 56 +
STACK CFI 1142e8 $r12: .cfa -40 + ^ $r13: .cfa -32 + ^ $r14: .cfa -24 + ^ $r15: .cfa -16 + ^ $rbp: .cfa -48 + ^ $rbx: .cfa -56 + ^
STACK CFI INIT 82df0 f1 .cfa: $rsp 8 + .ra: .cfa -8 + ^
STACK CFI 82dfa .cfa: $rsp 264 +
STACK CFI 82ed5 .cfa: $rsp 8 +
STACK CFI INIT 82ef0 eb .cfa: $rsp 8 + .ra: .cfa -8 + ^
STACK CFI 82efa .cfa: $rsp 264 +
STACK CFI 82fd3 .cfa: $rsp 8 +
STACK CFI INIT 82fe0 10 .cfa: $rsp 8 + .ra: .cfa -8 + ^
STACK CFI INIT 82ff0 75 .cfa: $rsp 8 + .ra: .cfa -8 + ^
STACK CFI INIT 83070 29 .cfa: $rsp 8 + .ra: .cfa -8 + ^
STACK CFI INIT 830a0 400 .cfa: $rsp 8 + .ra: .cfa -8 + ^
STACK CFI INIT 834a0 47 .cfa: $rsp 8 + .ra: .cfa -8 + ^
STACK CFI 834a4 .cfa: $rsp 16 +
STACK CFI INIT 834f0 197 .cfa: $rsp 8 + .ra: .cfa -8 + ^
STACK CFI 834f2 .cfa: $rsp 16 +
STACK CFI 834fa .cfa: $rsp 24 +
STACK CFI 83500 $r13: .cfa -24 + ^ $r14: .cfa -16 + ^
STACK CFI 83502 .cfa: $rsp 32 +
STACK CFI 83505 $r12: .cfa -32 + ^
STACK CFI 83506 .cfa: $rsp 40 +
STACK CFI 83507 .cfa: $rsp 48 +
STACK CFI 8350a $rbp: .cfa -40 + ^ $rbx: .cfa -48 + ^
STACK CFI INIT 83690 29 .cfa: $rsp 8 + .ra: .cfa -8 + ^
STACK CFI INIT 836c0 9 .cfa: $rsp 8 + .ra: .cfa -8 + ^
STACK CFI INIT 836d0 b10 .cfa: $rsp 8 + .ra: .cfa -8 + ^
STACK CFI INIT 841e0 3c .cfa: $rsp 8 + .ra: .cfa -8 + ^
STACK CFI INIT 84220 9 .cfa: $rsp 8 + .ra: .cfa -8 + ^
STACK CFI INIT 84230 452 .cfa: $rsp 8 + .ra: .cfa -8 + ^
STACK CFI 843c4 $r14: .cfa -16 + ^
STACK CFI 843c9 $r13: .cfa -24 + ^
STACK CFI 843ce $r12: .cfa -32 + ^
STACK CFI 843d3 $rbx: .cfa -40 + ^
STACK CFI 8455b $rbx: $rbx
STACK CFI 84560 $r12: $r12
STACK CFI 84565 $r13: $r13
STACK CFI 8456a $r14: $r14
STACK CFI 845a2 $r14: .cfa -16 + ^
STACK CFI 845a7 $r13: .cfa -24 + ^
STACK CFI 845ac $r12: .cfa -32 + ^
STACK CFI 8466b $r12: $r12
STACK CFI 84670 $r13: $r13
STACK CFI 84675 $r14: $r14
STACK CFI INIT 84690 8 .cfa: $rsp 8 + .ra: .cfa -8 + ^
STACK CFI INIT 846a0 29 .cfa: $rsp 8 + .ra: .cfa -8 + ^
STACK CFI INIT 846c9 a .cfa: $rsp 8 + .ra: .cfa -8 + ^
STACK CFI INIT 846d3 a .cfa: $rsp 8 + .ra: .cfa -8 + ^
STACK CFI INIT 846e0 f .cfa: $rsp 8 + .ra: .cfa -8 + ^
STACK CFI INIT 846f0 11 .cfa: $rsp 8 + .ra: .cfa -8 + ^
STACK CFI INIT 84710 29 .cfa: $rsp 8 + .ra: .cfa -8 + ^
STACK CFI INIT 11b640 b03 .cfa: $rsp 8 + .ra: .cfa -8 + ^
STACK CFI INIT 84740 dc .cfa: $rsp 8 + .ra: .cfa -8 + ^
STACK CFI INIT 84820 29 .cfa: $rsp 8 + .ra: .cfa -8 + ^
STACK CFI INIT 11c160 10d6 .cfa: $rsp 8 + .ra: .cfa -8 + ^
STACK CFI INIT 84850 3c .cfa: $rsp 8 + .ra: .cfa -8 + ^
STACK CFI INIT 84890 3c .cfa: $rsp 8 + .ra: .cfa -8 + ^
STACK CFI INIT 114950 10 .cfa: $rsp 8 + .ra: .cfa -8 + ^
STACK CFI INIT 114960 1c86 .cfa: $rsp 8 + .ra: .cfa -8 + ^
STACK CFI INIT 848d0 10 .cfa: $rsp 8 + .ra: .cfa -8 + ^
STACK CFI INIT 848e0 2226 .cfa: $rsp 8 + .ra: .cfa -8 + ^
STACK CFI INIT 86b10 3c .cfa: $rsp 8 + .ra: .cfa -8 + ^
STACK CFI INIT 86b50 3c .cfa: $rsp 8 + .ra: .cfa -8 + ^
STACK CFI INIT 1165f0 10 .cfa: $rsp 8 + .ra: .cfa -8 + ^
STACK CFI INIT 116600 2096 .cfa: $rsp 8 + .ra: .cfa -8 + ^
STACK CFI INIT 86b90 10 .cfa: $rsp 8 + .ra: .cfa -8 + ^
STACK CFI INIT 86ba0 2636 .cfa: $rsp 8 + .ra: .cfa -8 + ^
STACK CFI INIT 891e0 33 .cfa: $rsp 8 + .ra: .cfa -8 + ^
STACK CFI INIT 89220 3c .cfa: $rsp 8 + .ra: .cfa -8 + ^
STACK CFI INIT 89260 9 .cfa: $rsp 8 + .ra: .cfa -8 + ^
STACK CFI INIT 89270 465 .cfa: $rsp 8 + .ra: .cfa -8 + ^
STACK CFI 89414 $r14: .cfa -24 + ^
STACK CFI 89419 $r13: .cfa -32 + ^
STACK CFI 8941e $r12: .cfa -40 + ^
STACK CFI 89423 $rbx: .cfa -48 + ^
STACK CFI 895ab $rbx: $rbx
STACK CFI 895b0 $r12: $r12
STACK CFI 895b5 $r13: $r13
STACK CFI 895ba $r14: $r14
STACK CFI 895f2 $r14: .cfa -24 + ^
STACK CFI 895f7 $r13: .cfa -32 + ^
STACK CFI 895fc $r12: .cfa -40 + ^
STACK CFI 896bb $r12: $r12
STACK CFI 896c0 $r13: $r13
STACK CFI 896c5 $r14: $r14
STACK CFI INIT 896e0 135 .cfa: $rsp 8 + .ra: .cfa -8 + ^
STACK CFI INIT 89820 126 .cfa: $rsp 8 + .ra: .cfa -8 + ^
STACK CFI 89827 .cfa: $rsp 16 +
STACK CFI 8983c .cfa: $rsp 24 +
STACK CFI 89849 $rbp: .cfa -16 + ^ $rbx: .cfa -24 + ^
STACK CFI INIT 89950 18b .cfa: $rsp 8 + .ra: .cfa -8 + ^
STACK CFI INIT 89ae0 17b .cfa: $rsp 8 + .ra: .cfa -8 + ^
STACK CFI 89b1b $r12: .cfa -24 + ^ $r13: .cfa -16 + ^ $rbp: .cfa -32 + ^ $rbx: .cfa -40 + ^
STACK CFI INIT 89c60 86 .cfa: $rsp 8 + .ra: .cfa -8 + ^
STACK CFI 89c6e .cfa: $rsp 32 +
STACK CFI 89c71 $rbp: .cfa -16 + ^ $rbx: .cfa -24 + ^
STACK CFI INIT 1186a0 89b .cfa: $rsp 8 + .ra: .cfa -8 + ^
STACK CFI 1186a2 .cfa: $rsp 16 +
STACK CFI 1186aa .cfa: $rsp 24 +
STACK CFI 1186ac .cfa: $rsp 32 +
STACK CFI 1186b0 .cfa: $rsp 40 +
STACK CFI 1186b1 .cfa: $rsp 48 +
STACK CFI 1186b2 .cfa: $rsp 56 +
STACK CFI 1186b8 $r12: .cfa -40 + ^ $r13: .cfa -32 + ^ $r14: .cfa -24 + ^ $r15: .cfa -16 + ^ $rbp: .cfa -48 + ^ $rbx: .cfa -56 + ^
STACK CFI INIT 89cf0 35 .cfa: $rsp 8 + .ra: .cfa -8 + ^
STACK CFI INIT 89d30 dd .cfa: $rsp 8 + .ra: .cfa -8 + ^
STACK CFI 89d32 .cfa: $rsp 16 +
STACK CFI 89d34 .cfa: $rsp 24 +
STACK CFI 89d36 .cfa: $rsp 32 +
STACK CFI 89d37 .cfa: $rsp 40 +
STACK CFI 89d38 .cfa: $rsp 48 +
STACK CFI 89d3b $r12: .cfa -32 + ^ $r13: .cfa -24 + ^ $r14: .cfa -16 + ^ $rbp: .cfa -40 + ^ $rbx: .cfa -48 + ^
STACK CFI 89d3f .cfa: $rsp 64 +
STACK CFI INIT 89e10 1f .cfa: $rsp 8 + .ra: .cfa -8 + ^
STACK CFI INIT 89e30 f9 .cfa: $rsp 8 + .ra: .cfa -8 + ^
STACK CFI 89e31 .cfa: $rsp 16 +
STACK CFI 89e42 .cfa: $rsp 24 +
STACK CFI 89e47 $rbp: .cfa -16 + ^ $rbx: .cfa -24 + ^
STACK CFI INIT 89f30 341 .cfa: $rsp 8 + .ra: .cfa -8 + ^
STACK CFI 89f32 .cfa: $rsp 16 +
STACK CFI 89f35 $r15: .cfa -16 + ^
STACK CFI 89f3a .cfa: $rsp 24 +
STACK CFI 89f3c .cfa: $rsp 32 +
STACK CFI 89f3e .cfa: $rsp 40 +
STACK CFI 89f41 $r12: .cfa -40 + ^ $r13: .cfa -32 + ^ $r14: .cfa -24 + ^
STACK CFI 89f42 .cfa: $rsp 48 +
STACK CFI 89f45 $rbp: .cfa -48 + ^
STACK CFI 89f49 .cfa: $rsp 56 +
STACK CFI 89f4c $rbx: .cfa -56 + ^
STACK CFI 89f53 .cfa: $rsp 2176 +
STACK CFI INIT 8a280 335 .cfa: $rsp 8 + .ra: .cfa -8 + ^
STACK CFI 8a28d $rbp: .cfa -48 + ^ $rbx: .cfa -56 + ^
STACK CFI 8a29a $r13: .cfa -32 + ^ $r14: .cfa -24 + ^
STACK CFI 8a2a8 .cfa: $rsp 128 +
STACK CFI 8a2b6 $r12: .cfa -40 + ^ $r15: .cfa -16 + ^
STACK CFI INIT 8a5c0 29 .cfa: $rsp 8 + .ra: .cfa -8 + ^
STACK CFI INIT 118f40 53 .cfa: $rsp 8 + .ra: .cfa -8 + ^
STACK CFI INIT 8a5f0 4c .cfa: $rsp 8 + .ra: .cfa -8 + ^
STACK CFI INIT 8a640 6f .cfa: $rsp 8 + .ra: .cfa -8 + ^
STACK CFI INIT 8a6b0 89 .cfa: $rsp 8 + .ra: .cfa -8 + ^
STACK CFI 8a6bd $rbp: .cfa -48 + ^ $rbx: .cfa -56 + ^
STACK CFI 8a6d7 $r12: .cfa -40 + ^ $r13: .cfa -32 + ^ $r14: .cfa -24 + ^ $r15: .cfa -16 + ^
STACK CFI 8a6db .cfa: $rsp 64 +
STACK CFI INIT 8a740 48 .cfa: $rsp 8 + .ra: .cfa -8 + ^
STACK CFI 8a74d $rbp: .cfa -24 + ^ $rbx: .cfa -32 + ^
STACK CFI 8a759 .cfa: $rsp 32 +
STACK CFI 8a75f $r12: .cfa -16 + ^
STACK CFI INIT 8a790 39 .cfa: $rsp 8 + .ra: .cfa -8 + ^
STACK CFI 8a792 .cfa: $rsp 16 +
STACK CFI 8a795 $r12: .cfa -16 + ^
STACK CFI 8a799 .cfa: $rsp 24 +
STACK CFI 8a79c $rbp: .cfa -24 + ^
STACK CFI 8a79d .cfa: $rsp 32 +
STACK CFI 8a7a0 $rbx: .cfa -32 + ^
STACK CFI INIT 8a7d0 8f .cfa: $rsp 8 + .ra: .cfa -8 + ^
STACK CFI 8a7d2 .cfa: $rsp 16 +
STACK CFI 8a7d4 .cfa: $rsp 24 +
STACK CFI 8a7d7 $r13: .cfa -24 + ^ $r14: .cfa -16 + ^
STACK CFI 8a7d9 .cfa: $rsp 32 +
STACK CFI 8a7dc $r12: .cfa -32 + ^
STACK CFI 8a7dd .cfa: $rsp 40 +
STACK CFI 8a7de .cfa: $rsp 48 +
STACK CFI 8a7e1 $rbp: .cfa -40 + ^ $rbx: .cfa -48 + ^
STACK CFI INIT 8a860 103 .cfa: $rsp 8 + .ra: .cfa -8 + ^
STACK CFI 8a86d $rbp: .cfa -40 + ^ $rbx: .cfa -48 + ^
STACK CFI 8a882 .cfa: $rsp 48 +
STACK CFI 8a885 $r12: .cfa -32 + ^ $r13: .cfa -24 + ^ $r14: .cfa -16 + ^
STACK CFI INIT 8a970 41 .cfa: $rsp 8 + .ra: .cfa -8 + ^
STACK CFI 8a974 .cfa: $rsp 16 +
STACK CFI 8a979 $rbx: .cfa -16 + ^
STACK CFI INIT 8a9c0 83 .cfa: $rsp 8 + .ra: .cfa -8 + ^
STACK CFI 8a9cd $rbp: .cfa -24 + ^ $rbx: .cfa -32 + ^
STACK CFI 8a9d6 .cfa: $rsp 32 +
STACK CFI 8a9dc $r12: .cfa -16 + ^
STACK CFI INIT 8aa50 42 .cfa: $rsp 8 + .ra: .cfa -8 + ^
STACK CFI 8aa52 .cfa: $rsp 16 +
STACK CFI 8aa58 $r12: .cfa -16 + ^
STACK CFI 8aa59 .cfa: $rsp 24 +
STACK CFI 8aa5c $rbp: .cfa -24 + ^
STACK CFI 8aa5d .cfa: $rsp 32 +
STACK CFI 8aa60 $rbx: .cfa -32 + ^
STACK CFI INIT 8aaa0 162 .cfa: $rsp 8 + .ra: .cfa -8 + ^
STACK CFI 8aaad $rbp: .cfa -48 + ^ $rbx: .cfa -56 + ^
STACK CFI 8aac8 .cfa: $rsp 96 +
STACK CFI 8aace $r12: .cfa -40 + ^ $r13: .cfa -32 + ^ $r14: .cfa -24 + ^ $r15: .cfa -16 + ^
STACK CFI INIT 8ac10 43 .cfa: $rsp 8 + .ra: .cfa -8 + ^
STACK CFI 8ac12 .cfa: $rsp 16 +
STACK CFI 8ac18 $r12: .cfa -16 + ^
STACK CFI 8ac19 .cfa: $rsp 24 +
STACK CFI 8ac1c $rbp: .cfa -24 + ^
STACK CFI 8ac1d .cfa: $rsp 32 +
STACK CFI 8ac20 $rbx: .cfa -32 + ^
STACK CFI INIT 8ac60 d6 .cfa: $rsp 8 + .ra: .cfa -8 + ^
STACK CFI 8ac6d $rbp: .cfa -40 + ^ $rbx: .cfa -48 + ^
STACK CFI 8ac83 .cfa: $rsp 48 +
STACK CFI 8ac89 $r12: .cfa -32 + ^ $r13: .cfa -24 + ^ $r14: .cfa -16 + ^
STACK CFI INIT 8ad40 a3 .cfa: $rsp 8 + .ra: .cfa -8 + ^
STACK CFI 8ad4d $rbp: .cfa -48 + ^ $rbx: .cfa -56 + ^
STACK CFI 8ad67 $r12: .cfa -40 + ^ $r13: .cfa -32 + ^ $r14: .cfa -24 + ^ $r15: .cfa -16 + ^
STACK CFI 8ad6b .cfa: $rsp 64 +
STACK CFI INIT 8adf0 322 .cfa: $rsp 8 + .ra: .cfa -8 + ^
STACK CFI 8adf2 .cfa: $rsp 16 +
STACK CFI 8adf4 .cfa: $rsp 24 +
STACK CFI 8adf6 .cfa: $rsp 32 +
STACK CFI 8adf8 .cfa: $rsp 40 +
STACK CFI 8adf9 .cfa: $rsp 48 +
STACK CFI 8adfa .cfa: $rsp 56 +
STACK CFI 8adfd $r12: .cfa -40 + ^ $r13: .cfa -32 + ^ $r14: .cfa -24 + ^ $r15: .cfa -16 + ^ $rbp: .cfa -48 + ^ $rbx: .cfa -56 + ^
STACK CFI 8ae04 .cfa: $rsp 192 +
STACK CFI INIT 8b120 1e .cfa: $rsp 8 + .ra: .cfa -8 + ^
STACK CFI 8b121 .cfa: $rsp 16 +
STACK CFI 8b129 $rbx: .cfa -16 + ^
STACK CFI INIT 8b140 e91 .cfa: $rsp 8 + .ra: .cfa -8 + ^
STACK CFI 8b141 .cfa: $rsp 16 +
STACK CFI 8b144 $rbp: .cfa -16 + ^ .cfa: $rbp 16 +
STACK CFI 8b149 $r15: .cfa -24 + ^
STACK CFI 8b153 $r12: .cfa -48 + ^ $r13: .cfa -40 + ^ $r14: .cfa -32 + ^ $rbx: .cfa -56 + ^
STACK CFI INIT 8bfe0 66 .cfa: $rsp 8 + .ra: .cfa -8 + ^
STACK CFI INIT 8c050 ad3 .cfa: $rsp 8 + .ra: .cfa -8 + ^
STACK CFI 8c051 .cfa: $rsp 16 +
STACK CFI 8c054 $rbp: .cfa -16 + ^ .cfa: $rbp 16 +
STACK CFI 8c05f $r12: .cfa -48 + ^ $r13: .cfa -40 + ^ $r14: .cfa -32 + ^ $r15: .cfa -24 + ^
STACK CFI 8c063 $rbx: .cfa -56 + ^
STACK CFI INIT 8cb30 c2 .cfa: $rsp 8 + .ra: .cfa -8 + ^
STACK CFI 8cb31 .cfa: $rsp 16 +
STACK CFI 8cb35 .cfa: $rsp 24 +
STACK CFI 8cb44 $rbp: .cfa -16 + ^ $rbx: .cfa -24 + ^
STACK CFI INIT 8cc00 9e .cfa: $rsp 8 + .ra: .cfa -8 + ^
STACK CFI INIT 8cca0 9f .cfa: $rsp 8 + .ra: .cfa -8 + ^
STACK CFI INIT 8cd40 35 .cfa: $rsp 8 + .ra: .cfa -8 + ^
STACK CFI INIT 8cd80 45 .cfa: $rsp 8 + .ra: .cfa -8 + ^
STACK CFI INIT 8cdd0 4d .cfa: $rsp 8 + .ra: .cfa -8 + ^
STACK CFI INIT 8ce20 1e .cfa: $rsp 8 + .ra: .cfa -8 + ^
STACK CFI INIT 8ce40 1a .cfa: $rsp 8 + .ra: .cfa -8 + ^
STACK CFI INIT 8ce60 22 .cfa: $rsp 8 + .ra: .cfa -8 + ^
STACK CFI INIT 8ce90 42 .cfa: $rsp 8 + .ra: .cfa -8 + ^
STACK CFI INIT 8cee0 52 .cfa: $rsp 8 + .ra: .cfa -8 + ^
STACK CFI INIT 8cf40 65 .cfa: $rsp 8 + .ra: .cfa -8 + ^
STACK CFI INIT 8cfb0 64 .cfa: $rsp 8 + .ra: .cfa -8 + ^
STACK CFI INIT 8d020 6c .cfa: $rsp 8 + .ra: .cfa -8 + ^
STACK CFI INIT 8d090 4b .cfa: $rsp 8 + .ra: .cfa -8 + ^
STACK CFI 8d09e .cfa: $rsp 32 +
STACK CFI 8d0a1 $rbp: .cfa -16 + ^ $rbx: .cfa -24 + ^
STACK CFI INIT 8d0e0 111 .cfa: $rsp 8 + .ra: .cfa -8 + ^
STACK CFI INIT 8d200 90 .cfa: $rsp 8 + .ra: .cfa -8 + ^
STACK CFI 8d20d $rbp: .cfa -24 + ^ $rbx: .cfa -32 + ^
STACK CFI 8d216 .cfa: $rsp 32 +
STACK CFI 8d21d $r12: .cfa -16 + ^
STACK CFI INIT 1369d0 20 .cfa: $rsp 8 + .ra: .cfa -8 + ^
STACK CFI 1369d4 .cfa: $rsp 16 +
STACK CFI INIT 8d290 4d .cfa: $rsp 8 + .ra: .cfa -8 + ^
STACK CFI 8d29e .cfa: $rsp 32 +
STACK CFI 8d2a1 $rbp: .cfa -16 + ^ $rbx: .cfa -24 + ^
STACK CFI INIT 8d2e0 cf .cfa: $rsp 8 + .ra: .cfa -8 + ^
STACK CFI 8d2ed $r12: .cfa -16 + ^ $rbx: .cfa -32 + ^
STACK CFI 8d2f6 .cfa: $rsp 48 +
STACK CFI 8d2fa $rbp: .cfa -24 + ^
STACK CFI INIT 8d3b0 91 .cfa: $rsp 8 + .ra: .cfa -8 + ^
STACK CFI INIT 8d450 33 .cfa: $rsp 8 + .ra: .cfa -8 + ^
STACK CFI INIT 8d490 71 .cfa: $rsp 8 + .ra: .cfa -8 + ^
STACK CFI 8d492 .cfa: $rsp 16 +
STACK CFI 8d496 .cfa: $rsp 24 +
STACK CFI 8d499 $r13: .cfa -24 + ^ $r14: .cfa -16 + ^
STACK CFI 8d49b .cfa: $rsp 32 +
STACK CFI 8d49e $r12: .cfa -32 + ^
STACK CFI 8d49f .cfa: $rsp 40 +
STACK CFI 8d4a0 .cfa: $rsp 48 +
STACK CFI 8d4a3 $rbp: .cfa -40 + ^ $rbx: .cfa -48 + ^
STACK CFI INIT 8d510 af .cfa: $rsp 8 + .ra: .cfa -8 + ^
STACK CFI 8d512 .cfa: $rsp 16 +
STACK CFI 8d517 $r15: .cfa -16 + ^
STACK CFI 8d519 .cfa: $rsp 24 +
STACK CFI 8d51b .cfa: $rsp 32 +
STACK CFI 8d51e $r13: .cfa -32 + ^ $r14: .cfa -24 + ^
STACK CFI 8d520 .cfa: $rsp 40 +
STACK CFI 8d523 $r12: .cfa -40 + ^
STACK CFI 8d524 .cfa: $rsp 48 +
STACK CFI 8d527 $rbp: .cfa -48 + ^
STACK CFI 8d528 .cfa: $rsp 56 +
STACK CFI 8d52b $rbx: .cfa -56 + ^
STACK CFI 8d52f .cfa: $rsp 80 +
STACK CFI INIT 8d5c0 4f .cfa: $rsp 8 + .ra: .cfa -8 + ^
STACK CFI 8d5cd $rbp: .cfa -16 + ^ $rbx: .cfa -24 + ^
STACK CFI 8d5d1 .cfa: $rsp 32 +
STACK CFI INIT 8d610 120 .cfa: $rsp 8 + .ra: .cfa -8 + ^
STACK CFI 8d61d $rbp: .cfa -48 + ^ $rbx: .cfa -56 + ^
STACK CFI 8d62a $r12: .cfa -40 + ^ $r14: .cfa -24 + ^
STACK CFI 8d638 .cfa: $rsp 96 +
STACK CFI 8d63e $r13: .cfa -32 + ^ $r15: .cfa -16 + ^
STACK CFI INIT 8d730 d4 .cfa: $rsp 8 + .ra: .cfa -8 + ^
STACK CFI INIT 8d810 c2 .cfa: $rsp 8 + .ra: .cfa -8 + ^
STACK CFI INIT 11d240 1259 .cfa: $rsp 8 + .ra: .cfa -8 + ^
STACK CFI INIT 11e4a0 1759 .cfa: $rsp 8 + .ra: .cfa -8 + ^
STACK CFI INIT 118fa0 3c .cfa: $rsp 8 + .ra: .cfa -8 + ^
STACK CFI INIT 134290 163e .cfa: $rsp 8 + .ra: .cfa -8 + ^
STACK CFI INIT 11fc00 9 .cfa: $rsp 8 + .ra: .cfa -8 + ^
STACK CFI INIT 11fc10 29b6 .cfa: $rsp 8 + .ra: .cfa -8 + ^
STACK CFI INIT 1225d0 9 .cfa: $rsp 8 + .ra: .cfa -8 + ^
STACK CFI INIT 1225e0 29b6 .cfa: $rsp 8 + .ra: .cfa -8 + ^
STACK CFI INIT 124fa0 9 .cfa: $rsp 8 + .ra: .cfa -8 + ^
STACK CFI INIT 124fb0 2b67 .cfa: $rsp 8 + .ra: .cfa -8 + ^
STACK CFI INIT 127b20 9 .cfa: $rsp 8 + .ra: .cfa -8 + ^
STACK CFI INIT 127b30 2ab6 .cfa: $rsp 8 + .ra: .cfa -8 + ^
STACK CFI INIT 12a5f0 9 .cfa: $rsp 8 + .ra: .cfa -8 + ^
STACK CFI INIT 12a600 2ab6 .cfa: $rsp 8 + .ra: .cfa -8 + ^
STACK CFI INIT 12d0c0 9 .cfa: $rsp 8 + .ra: .cfa -8 + ^
STACK CFI INIT 12d0d0 2b06 .cfa: $rsp 8 + .ra: .cfa -8 + ^
STACK CFI INIT 118fe0 87c .cfa: $rsp 8 + .ra: .cfa -8 + ^
STACK CFI 118fe2 .cfa: $rsp 16 +
STACK CFI 118fe6 .cfa: $rsp 24 +
STACK CFI 118fe8 .cfa: $rsp 32 +
STACK CFI 118fea .cfa: $rsp 40 +
STACK CFI 118feb .cfa: $rsp 48 +
STACK CFI 118fec .cfa: $rsp 56 +
STACK CFI 118ff0 .cfa: $rsp 152 +
STACK CFI 119000 $r12: .cfa -40 + ^ $r13: .cfa -32 + ^ $r14: .cfa -24 + ^ $r15: .cfa -16 + ^ $rbp: .cfa -48 + ^ $rbx: .cfa -56 + ^
STACK CFI INIT 12fbe0 10 .cfa: $rsp 8 + .ra: .cfa -8 + ^
STACK CFI INIT 12fbf0 2136 .cfa: $rsp 8 + .ra: .cfa -8 + ^
STACK CFI INIT 131d30 10 .cfa: $rsp 8 + .ra: .cfa -8 + ^
STACK CFI INIT 131d40 2546 .cfa: $rsp 8 + .ra: .cfa -8 + ^
STACK CFI INIT 119860 9a .cfa: $rsp 8 + .ra: .cfa -8 + ^
STACK CFI INIT 1358d0 2fc .cfa: $rsp 8 + .ra: .cfa -8 + ^
STACK CFI INIT 8d8e0 9 .cfa: $rsp 8 + .ra: .cfa -8 + ^
STACK CFI INIT 8d8f0 550 .cfa: $rsp 8 + .ra: .cfa -8 + ^
STACK CFI INIT 119900 14c .cfa: $rsp 8 + .ra: .cfa -8 + ^
STACK CFI INIT 119a50 117 .cfa: $rsp 8 + .ra: .cfa -8 + ^
STACK CFI INIT 119b70 115 .cfa: $rsp 8 + .ra: .cfa -8 + ^
STACK CFI INIT 8de40 f9 .cfa: $rsp 8 + .ra: .cfa -8 + ^
STACK CFI 8de41 .cfa: $rsp 16 +
STACK CFI 8de52 .cfa: $rsp 24 +
STACK CFI 8de57 $rbp: .cfa -16 + ^ $rbx: .cfa -24 + ^
STACK CFI INIT 8df40 37 .cfa: $rsp 8 + .ra: .cfa -8 + ^
STACK CFI 8df44 .cfa: $rsp 16 +
STACK CFI INIT 8df80 3f2 .cfa: $rsp 8 + .ra: .cfa -8 + ^
STACK CFI 8df82 .cfa: $rsp 16 +
STACK CFI 8df84 .cfa: $rsp 24 +
STACK CFI 8df86 .cfa: $rsp 32 +
STACK CFI 8df89 $r13: .cfa -32 + ^ $r14: .cfa -24 + ^ $r15: .cfa -16 + ^
STACK CFI 8df8b .cfa: $rsp 40 +
STACK CFI 8df8e $r12: .cfa -40 + ^
STACK CFI 8df92 .cfa: $rsp 48 +
STACK CFI 8df95 $rbp: .cfa -48 + ^
STACK CFI 8df99 .cfa: $rsp 56 +
STACK CFI 8df9c $rbx: .cfa -56 + ^
STACK CFI 8dfa3 .cfa: $rsp 2208 +
STACK CFI INIT 8e380 3fe .cfa: $rsp 8 + .ra: .cfa -8 + ^
STACK CFI 8e382 .cfa: $rsp 16 +
STACK CFI 8e384 .cfa: $rsp 24 +
STACK CFI 8e386 .cfa: $rsp 32 +
STACK CFI 8e388 .cfa: $rsp 40 +
STACK CFI 8e38b $r12: .cfa -40 + ^ $r13: .cfa -32 + ^ $r14: .cfa -24 + ^ $r15: .cfa -16 + ^
STACK CFI 8e38c .cfa: $rsp 48 +
STACK CFI 8e38d .cfa: $rsp 56 +
STACK CFI 8e390 $rbp: .cfa -48 + ^ $rbx: .cfa -56 + ^
STACK CFI 8e394 .cfa: $rsp 144 +
STACK CFI INIT 8e780 37 .cfa: $rsp 8 + .ra: .cfa -8 + ^
STACK CFI 8e784 .cfa: $rsp 16 +
STACK CFI INIT 8e7c0 335 .cfa: $rsp 8 + .ra: .cfa -8 + ^
STACK CFI 8e7c2 .cfa: $rsp 16 +
STACK CFI 8e7d4 .cfa: $rsp 24 +
STACK CFI 8e7d6 .cfa: $rsp 32 +
STACK CFI 8e7dc $r13: .cfa -32 + ^ $r14: .cfa -24 + ^ $r15: .cfa -16 + ^
STACK CFI 8e7de .cfa: $rsp 40 +
STACK CFI 8e7df .cfa: $rsp 48 +
STACK CFI 8e7e0 .cfa: $rsp 56 +
STACK CFI 8e7f7 $r12: .cfa -40 + ^ $rbp: .cfa -48 + ^ $rbx: .cfa -56 + ^
STACK CFI INIT 8eb00 88f .cfa: $rsp 8 + .ra: .cfa -8 + ^
STACK CFI 8eb02 .cfa: $rsp 16 +
STACK CFI 8eb04 .cfa: $rsp 24 +
STACK CFI 8eb06 .cfa: $rsp 32 +
STACK CFI 8eb08 .cfa: $rsp 40 +
STACK CFI 8eb0b $r12: .cfa -40 + ^ $r13: .cfa -32 + ^ $r14: .cfa -24 + ^ $r15: .cfa -16 + ^
STACK CFI 8eb0c .cfa: $rsp 48 +
STACK CFI 8eb0f $rbp: .cfa -48 + ^
STACK CFI 8eb13 .cfa: $rsp 56 +
STACK CFI 8eb16 $rbx: .cfa -56 + ^
STACK CFI 8eb1d .cfa: $rsp 2208 +
STACK CFI INIT 8f390 7d2 .cfa: $rsp 8 + .ra: .cfa -8 + ^
STACK CFI 8f392 .cfa: $rsp 16 +
STACK CFI 8f394 .cfa: $rsp 24 +
STACK CFI 8f397 $r14: .cfa -24 + ^ $r15: .cfa -16 + ^
STACK CFI 8f399 .cfa: $rsp 32 +
STACK CFI 8f39b .cfa: $rsp 40 +
STACK CFI 8f39c .cfa: $rsp 48 +
STACK CFI 8f39f $r12: .cfa -40 + ^ $r13: .cfa -32 + ^ $rbp: .cfa -48 + ^
STACK CFI 8f3a0 .cfa: $rsp 56 +
STACK CFI 8f3a4 .cfa: $rsp 160 +
STACK CFI 8f3ad $rbx: .cfa -56 + ^
STACK CFI INIT 8fb70 10 .cfa: $rsp 8 + .ra: .cfa -8 + ^
STACK CFI INIT 8fb80 1b2 .cfa: $rsp 8 + .ra: .cfa -8 + ^
STACK CFI 8fb81 .cfa: $rsp 16 +
STACK CFI 8fb86 $rbx: .cfa -16 + ^
STACK CFI INIT 8fd40 292 .cfa: $rsp 8 + .ra: .cfa -8 + ^
STACK CFI 8fd42 .cfa: $rsp 16 +
STACK CFI 8fd45 $r15: .cfa -16 + ^
STACK CFI 8fd47 .cfa: $rsp 24 +
STACK CFI 8fd4a $r14: .cfa -24 + ^
STACK CFI 8fd4c .cfa: $rsp 32 +
STACK CFI 8fd4f $r13: .cfa -32 + ^
STACK CFI 8fd51 .cfa: $rsp 40 +
STACK CFI 8fd52 .cfa: $rsp 48 +
STACK CFI 8fd53 .cfa: $rsp 56 +
STACK CFI 8fd55 $r12: .cfa -40 + ^ $rbp: .cfa -48 + ^ $rbx: .cfa -56 + ^
STACK CFI 8fd59 .cfa: $rsp 80 +
STACK CFI INIT 8ffe0 f7 .cfa: $rsp 8 + .ra: .cfa -8 + ^
STACK CFI 8ffe2 .cfa: $rsp 16 +
STACK CFI 8ffe6 .cfa: $rsp 24 +
STACK CFI 8ffe8 .cfa: $rsp 32 +
STACK CFI 8ffea .cfa: $rsp 40 +
STACK CFI 8ffeb .cfa: $rsp 48 +
STACK CFI 8ffed $r12: .cfa -40 + ^ $r13: .cfa -32 + ^ $r14: .cfa -24 + ^ $r15: .cfa -16 + ^ $rbp: .cfa -48 + ^
STACK CFI 8ffee .cfa: $rsp 56 +
STACK CFI 8fff2 .cfa: $rsp 96 +
STACK CFI 8fffb $rbx: .cfa -56 + ^
STACK CFI INIT 900e0 2f6 .cfa: $rsp 8 + .ra: .cfa -8 + ^
STACK CFI 900f3 .cfa: $rsp 32 +
STACK CFI 900fd $r12: .cfa -16 + ^ $rbp: .cfa -24 + ^ $rbx: .cfa -32 + ^
STACK CFI INIT 903e0 5f .cfa: $rsp 8 + .ra: .cfa -8 + ^
STACK CFI 903e4 .cfa: $rsp 32 +
STACK CFI INIT 90440 32 .cfa: $rsp 8 + .ra: .cfa -8 + ^
STACK CFI INIT 90480 43 .cfa: $rsp 8 + .ra: .cfa -8 + ^
STACK CFI INIT 904d0 9 .cfa: $rsp 8 + .ra: .cfa -8 + ^
STACK CFI INIT 904e0 66 .cfa: $rsp 8 + .ra: .cfa -8 + ^
STACK CFI INIT 90550 31 .cfa: $rsp 8 + .ra: .cfa -8 + ^
STACK CFI INIT 90590 1a .cfa: $rsp 8 + .ra: .cfa -8 + ^
STACK CFI INIT 905b0 25 .cfa: $rsp 8 + .ra: .cfa -8 + ^
STACK CFI INIT 905e0 29 .cfa: $rsp 8 + .ra: .cfa -8 + ^
STACK CFI INIT 90610 39 .cfa: $rsp 8 + .ra: .cfa -8 + ^
STACK CFI 90612 .cfa: $rsp 16 +
STACK CFI 90615 $r12: .cfa -16 + ^
STACK CFI 90616 .cfa: $rsp 24 +
STACK CFI 90619 $rbp: .cfa -24 + ^
STACK CFI 9061a .cfa: $rsp 32 +
STACK CFI 9061e $rbx: .cfa -32 + ^
STACK CFI INIT 90650 5f .cfa: $rsp 8 + .ra: .cfa -8 + ^
STACK CFI 9065e .cfa: $rsp 32 +
STACK CFI 90661 $rbp: .cfa -16 + ^ $rbx: .cfa -24 + ^
STACK CFI INIT 906b0 68 .cfa: $rsp 8 + .ra: .cfa -8 + ^
STACK CFI INIT 90720 8c .cfa: $rsp 8 + .ra: .cfa -8 + ^
STACK CFI INIT 907b0 b1 .cfa: $rsp 8 + .ra: .cfa -8 + ^
STACK CFI INIT 90870 d2 .cfa: $rsp 8 + .ra: .cfa -8 + ^
STACK CFI INIT 90950 4c .cfa: $rsp 8 + .ra: .cfa -8 + ^
STACK CFI 90951 .cfa: $rsp 16 +
STACK CFI 90954 $rbp: .cfa -16 + ^
STACK CFI 90955 .cfa: $rsp 24 +
STACK CFI 90958 $rbx: .cfa -24 + ^
STACK CFI 9095c .cfa: $rsp 32 +
STACK CFI INIT 909a0 1a .cfa: $rsp 8 + .ra: .cfa -8 + ^
STACK CFI INIT 909c0 52 .cfa: $rsp 8 + .ra: .cfa -8 + ^
STACK CFI INIT 90a20 ad .cfa: $rsp 8 + .ra: .cfa -8 + ^
STACK CFI 90a2d $rbp: .cfa -24 + ^ $rbx: .cfa -32 + ^
STACK CFI 90a36 .cfa: $rsp 32 +
STACK CFI 90a3f $r12: .cfa -16 + ^
STACK CFI INIT 90ad0 10b .cfa: $rsp 8 + .ra: .cfa -8 + ^
STACK CFI 90ae0 $rbp: .cfa -16 + ^ $rbx: .cfa -24 + ^
STACK CFI INIT 90be0 7b .cfa: $rsp 8 + .ra: .cfa -8 + ^
STACK CFI INIT 90c60 d5 .cfa: $rsp 8 + .ra: .cfa -8 + ^
STACK CFI INIT 90d40 9 .cfa: $rsp 8 + .ra: .cfa -8 + ^
STACK CFI INIT 90d50 23 .cfa: $rsp 8 + .ra: .cfa -8 + ^
STACK CFI INIT 90d80 d3 .cfa: $rsp 8 + .ra: .cfa -8 + ^
STACK CFI INIT 90e60 9 .cfa: $rsp 8 + .ra: .cfa -8 + ^
STACK CFI INIT 90e70 1b1 .cfa: $rsp 8 + .ra: .cfa -8 + ^
STACK CFI 90e78 $r13: .cfa -16 + ^
STACK CFI 90e95 .cfa: $rsp 144 +
STACK CFI 90ea3 $r12: .cfa -24 + ^ $rbp: .cfa -32 + ^ $rbx: .cfa -40 + ^
STACK CFI INIT 91030 18d .cfa: $rsp 8 + .ra: .cfa -8 + ^
STACK CFI 9103d $r13: .cfa -24 + ^ $rbx: .cfa -48 + ^
STACK CFI 91053 .cfa: $rsp 176 +
STACK CFI 9105c $r12: .cfa -32 + ^ $r14: .cfa -16 + ^ $rbp: .cfa -40 + ^
STACK CFI INIT 911c0 14 .cfa: $rsp 8 + .ra: .cfa -8 + ^
STACK CFI INIT 911e0 1e .cfa: $rsp 8 + .ra: .cfa -8 + ^
STACK CFI INIT 91200 265 .cfa: $rsp 8 + .ra: .cfa -8 + ^
STACK CFI 91211 $r13: .cfa -24 + ^ $rbx: .cfa -48 + ^
STACK CFI 9122a .cfa: $rsp 176 +
STACK CFI 91249 $r12: .cfa -32 + ^ $r14: .cfa -16 + ^ $rbp: .cfa -40 + ^
STACK CFI INIT 91470 220 .cfa: $rsp 8 + .ra: .cfa -8 + ^
STACK CFI 91471 .cfa: $rsp 16 +
STACK CFI 91474 $rbp: .cfa -16 + ^ .cfa: $rbp 16 +
STACK CFI 9147c $r12: .cfa -32 + ^ $r13: .cfa -24 + ^ $rbx: .cfa -40 + ^
STACK CFI INIT 91690 1e .cfa: $rsp 8 + .ra: .cfa -8 + ^
STACK CFI INIT 916b0 34b .cfa: $rsp 8 + .ra: .cfa -8 + ^
STACK CFI 916b2 .cfa: $rsp 16 +
STACK CFI 916bb .cfa: $rsp 24 +
STACK CFI 916be $r14: .cfa -24 + ^ $r15: .cfa -16 + ^
STACK CFI 916c0 .cfa: $rsp 32 +
STACK CFI 916c3 $r13: .cfa -32 + ^
STACK CFI 916c5 .cfa: $rsp 40 +
STACK CFI 916c6 .cfa: $rsp 48 +
STACK CFI 916c9 $r12: .cfa -40 + ^ $rbp: .cfa -48 + ^
STACK CFI 916ca .cfa: $rsp 56 +
STACK CFI 916d1 .cfa: $rsp 464 +
STACK CFI 9171b $rbx: .cfa -56 + ^
STACK CFI INIT 91a00 373 .cfa: $rsp 8 + .ra: .cfa -8 + ^
STACK CFI 91a1e $r12: .cfa -40 + ^ $r13: .cfa -32 + ^ $rbp: .cfa -48 + ^ $rbx: .cfa -56 + ^
STACK CFI 91a2f .cfa: $rsp 448 +
STACK CFI 91a44 $r14: .cfa -24 + ^ $r15: .cfa -16 + ^
STACK CFI INIT 91d80 362 .cfa: $rsp 8 + .ra: .cfa -8 + ^
STACK CFI 91d9e $r13: .cfa -32 + ^ $r14: .cfa -24 + ^ $rbp: .cfa -48 + ^ $rbx: .cfa -56 + ^
STACK CFI 91daf .cfa: $rsp 464 +
STACK CFI 91dc4 $r12: .cfa -40 + ^ $r15: .cfa -16 + ^
STACK CFI INIT 920f0 99 .cfa: $rsp 8 + .ra: .cfa -8 + ^
STACK CFI INIT 92190 28 .cfa: $rsp 8 + .ra: .cfa -8 + ^
STACK CFI INIT 921c0 12 .cfa: $rsp 8 + .ra: .cfa -8 + ^
STACK CFI INIT 921e0 10 .cfa: $rsp 8 + .ra: .cfa -8 + ^
STACK CFI INIT 921f0 12 .cfa: $rsp 8 + .ra: .cfa -8 + ^
STACK CFI INIT 92210 10 .cfa: $rsp 8 + .ra: .cfa -8 + ^
STACK CFI INIT 92220 12 .cfa: $rsp 8 + .ra: .cfa -8 + ^
STACK CFI INIT 92240 10 .cfa: $rsp 8 + .ra: .cfa -8 + ^
STACK CFI INIT 92250 12 .cfa: $rsp 8 + .ra: .cfa -8 + ^
STACK CFI INIT 92270 10 .cfa: $rsp 8 + .ra: .cfa -8 + ^
STACK CFI INIT 92280 12 .cfa: $rsp 8 + .ra: .cfa -8 + ^
STACK CFI INIT 922a0 10 .cfa: $rsp 8 + .ra: .cfa -8 + ^
STACK CFI INIT 922b0 458 .cfa: $rsp 8 + .ra: .cfa -8 + ^
STACK CFI 922b2 .cfa: $rsp 16 +
STACK CFI 922b4 .cfa: $rsp 24 +
STACK CFI 922b6 .cfa: $rsp 32 +
STACK CFI 922b8 .cfa: $rsp 40 +
STACK CFI 922bb $r12: .cfa -40 + ^ $r13: .cfa -32 + ^ $r14: .cfa -24 + ^ $r15: .cfa -16 + ^
STACK CFI 922bc .cfa: $rsp 48 +
STACK CFI 922be $rbp: .cfa -48 + ^
STACK CFI 922bf .cfa: $rsp 56 +
STACK CFI 922c3 .cfa: $rsp 144 +
STACK CFI 922d9 $rbx: .cfa -56 + ^
STACK CFI INIT 92710 a .cfa: $rsp 8 + .ra: .cfa -8 + ^
STACK CFI INIT 92720 417 .cfa: $rsp 8 + .ra: .cfa -8 + ^
STACK CFI 92722 .cfa: $rsp 16 +
STACK CFI 92724 .cfa: $rsp 24 +
STACK CFI 92726 .cfa: $rsp 32 +
STACK CFI 92728 .cfa: $rsp 40 +
STACK CFI 9272b $r12: .cfa -40 + ^ $r13: .cfa -32 + ^ $r14: .cfa -24 + ^ $r15: .cfa -16 + ^
STACK CFI 9272c .cfa: $rsp 48 +
STACK CFI 9272e $rbp: .cfa -48 + ^
STACK CFI 9272f .cfa: $rsp 56 +
STACK CFI 92733 .cfa: $rsp 144 +
STACK CFI 92749 $rbx: .cfa -56 + ^
STACK CFI INIT 92b40 a .cfa: $rsp 8 + .ra: .cfa -8 + ^
STACK CFI INIT 92b50 27f .cfa: $rsp 8 + .ra: .cfa -8 + ^
STACK CFI 92b52 .cfa: $rsp 16 +
STACK CFI 92b55 $r15: .cfa -16 + ^
STACK CFI 92b57 .cfa: $rsp 24 +
STACK CFI 92b59 .cfa: $rsp 32 +
STACK CFI 92b5c $r13: .cfa -32 + ^ $r14: .cfa -24 + ^
STACK CFI 92b5e .cfa: $rsp 40 +
STACK CFI 92b61 $r12: .cfa -40 + ^
STACK CFI 92b62 .cfa: $rsp 48 +
STACK CFI 92b64 $rbp: .cfa -48 + ^
STACK CFI 92b65 .cfa: $rsp 56 +
STACK CFI 92b68 $rbx: .cfa -56 + ^
STACK CFI 92b6c .cfa: $rsp 80 +
STACK CFI INIT 92dd0 1fd .cfa: $rsp 8 + .ra: .cfa -8 + ^
STACK CFI 92ddc $rbp: .cfa -32 + ^ $rbx: .cfa -40 + ^
STACK CFI 92dea .cfa: $rsp 64 +
STACK CFI 92df7 $r12: .cfa -24 + ^ $r13: .cfa -16 + ^
STACK CFI INIT 92fd0 1fc4 .cfa: $rsp 8 + .ra: .cfa -8 + ^
STACK CFI 92fd2 .cfa: $rsp 16 +
STACK CFI 92fd5 $r15: .cfa -16 + ^
STACK CFI 92fd7 .cfa: $rsp 24 +
STACK CFI 92fd9 .cfa: $rsp 32 +
STACK CFI 92fdb .cfa: $rsp 40 +
STACK CFI 92fdc .cfa: $rsp 48 +
STACK CFI 92fdd .cfa: $rsp 56 +
STACK CFI 92fe4 .cfa: $rsp 544 +
STACK CFI 92ffa $r12: .cfa -40 + ^ $r13: .cfa -32 + ^ $r14: .cfa -24 + ^ $rbp: .cfa -48 + ^ $rbx: .cfa -56 + ^
STACK CFI INIT 94fa0 a .cfa: $rsp 8 + .ra: .cfa -8 + ^
STACK CFI INIT 94fb0 27f .cfa: $rsp 8 + .ra: .cfa -8 + ^
STACK CFI 94fb2 .cfa: $rsp 16 +
STACK CFI 94fb5 $r15: .cfa -16 + ^
STACK CFI 94fb7 .cfa: $rsp 24 +
STACK CFI 94fb9 .cfa: $rsp 32 +
STACK CFI 94fbc $r13: .cfa -32 + ^ $r14: .cfa -24 + ^
STACK CFI 94fbe .cfa: $rsp 40 +
STACK CFI 94fc1 $r12: .cfa -40 + ^
STACK CFI 94fc2 .cfa: $rsp 48 +
STACK CFI 94fc4 $rbp: .cfa -48 + ^
STACK CFI 94fc5 .cfa: $rsp 56 +
STACK CFI 94fc8 $rbx: .cfa -56 + ^
STACK CFI 94fcc .cfa: $rsp 80 +
STACK CFI INIT 95230 1ef .cfa: $rsp 8 + .ra: .cfa -8 + ^
STACK CFI 9523d $rbp: .cfa -32 + ^ $rbx: .cfa -40 + ^
STACK CFI 9524b .cfa: $rsp 64 +
STACK CFI 95257 $r12: .cfa -24 + ^ $r13: .cfa -16 + ^
STACK CFI INIT 95420 1f22 .cfa: $rsp 8 + .ra: .cfa -8 + ^
STACK CFI 95422 .cfa: $rsp 16 +
STACK CFI 95425 $r15: .cfa -16 + ^
STACK CFI 95427 .cfa: $rsp 24 +
STACK CFI 95429 .cfa: $rsp 32 +
STACK CFI 9542b .cfa: $rsp 40 +
STACK CFI 9542c .cfa: $rsp 48 +
STACK CFI 9542d .cfa: $rsp 56 +
STACK CFI 95434 .cfa: $rsp 4384 +
STACK CFI 9544a $r12: .cfa -40 + ^ $r13: .cfa -32 + ^ $r14: .cfa -24 + ^ $rbp: .cfa -48 + ^ $rbx: .cfa -56 + ^
STACK CFI INIT 97350 a .cfa: $rsp 8 + .ra: .cfa -8 + ^
STACK CFI INIT 97360 27f .cfa: $rsp 8 + .ra: .cfa -8 + ^
STACK CFI 97362 .cfa: $rsp 16 +
STACK CFI 97365 $r15: .cfa -16 + ^
STACK CFI 97367 .cfa: $rsp 24 +
STACK CFI 97369 .cfa: $rsp 32 +
STACK CFI 9736c $r13: .cfa -32 + ^ $r14: .cfa -24 + ^
STACK CFI 9736e .cfa: $rsp 40 +
STACK CFI 97371 $r12: .cfa -40 + ^
STACK CFI 97372 .cfa: $rsp 48 +
STACK CFI 97374 $rbp: .cfa -48 + ^
STACK CFI 97375 .cfa: $rsp 56 +
STACK CFI 97378 $rbx: .cfa -56 + ^
STACK CFI 9737c .cfa: $rsp 80 +
STACK CFI INIT 975e0 1dc .cfa: $rsp 8 + .ra: .cfa -8 + ^
STACK CFI 975ec $rbp: .cfa -32 + ^ $rbx: .cfa -40 + ^
STACK CFI 975fa .cfa: $rsp 64 +
STACK CFI 97604 $r12: .cfa -24 + ^ $r13: .cfa -16 + ^
STACK CFI INIT 977c0 1f32 .cfa: $rsp 8 + .ra: .cfa -8 + ^
STACK CFI 977c2 .cfa: $rsp 16 +
STACK CFI 977c5 $r15: .cfa -16 + ^
STACK CFI 977c7 .cfa: $rsp 24 +
STACK CFI 977c9 .cfa: $rsp 32 +
STACK CFI 977cb .cfa: $rsp 40 +
STACK CFI 977cc .cfa: $rsp 48 +
STACK CFI 977cd .cfa: $rsp 56 +
STACK CFI 977d4 .cfa: $rsp 304 +
STACK CFI 977ea $r12: .cfa -40 + ^ $r13: .cfa -32 + ^ $r14: .cfa -24 + ^ $rbp: .cfa -48 + ^ $rbx: .cfa -56 + ^
STACK CFI INIT 99700 a .cfa: $rsp 8 + .ra: .cfa -8 + ^
STACK CFI INIT 99710 10 .cfa: $rsp 8 + .ra: .cfa -8 + ^
STACK CFI INIT 99720 10 .cfa: $rsp 8 + .ra: .cfa -8 + ^
STACK CFI INIT 99730 68 .cfa: $rsp 8 + .ra: .cfa -8 + ^
STACK CFI 99738 .cfa: $rsp 16 +
STACK CFI 99753 $rbx: .cfa -16 + ^
STACK CFI INIT 997a0 dc .cfa: $rsp 8 + .ra: .cfa -8 + ^
STACK CFI 997a2 .cfa: $rsp 16 +
STACK CFI 997a6 .cfa: $rsp 24 +
STACK CFI 997a7 .cfa: $rsp 32 +
STACK CFI 997ad $r12: .cfa -16 + ^ $rbp: .cfa -24 + ^ $rbx: .cfa -32 + ^
STACK CFI INIT 99880 c8c .cfa: $rsp 8 + .ra: .cfa -8 + ^
STACK CFI 99881 .cfa: $rsp 16 +
STACK CFI 99884 $rbp: .cfa -16 + ^ .cfa: $rbp 16 +
STACK CFI 99889 $r15: .cfa -24 + ^
STACK CFI 99890 $r13: .cfa -40 + ^ $r14: .cfa -32 + ^
STACK CFI 998ae $r12: .cfa -48 + ^ $rbx: .cfa -56 + ^
STACK CFI INIT 9a510 8c6 .cfa: $rsp 8 + .ra: .cfa -8 + ^
STACK CFI 9a511 .cfa: $rsp 16 +
STACK CFI 9a514 $rbp: .cfa -16 + ^ .cfa: $rbp 16 +
STACK CFI 9a51f $r12: .cfa -48 + ^ $r13: .cfa -40 + ^ $r14: .cfa -32 + ^ $r15: .cfa -24 + ^
STACK CFI 9a523 $rbx: .cfa -56 + ^
STACK CFI INIT 9ade0 54 .cfa: $rsp 8 + .ra: .cfa -8 + ^
STACK CFI 9ade2 .cfa: $rsp 16 +
STACK CFI 9ade7 $r13: .cfa -16 + ^
STACK CFI 9ade9 .cfa: $rsp 24 +
STACK CFI 9adea .cfa: $rsp 32 +
STACK CFI 9adec $r12: .cfa -24 + ^ $rbp: .cfa -32 + ^
STACK CFI 9aded .cfa: $rsp 40 +
STACK CFI 9adf0 $rbx: .cfa -40 + ^
STACK CFI 9adf4 .cfa: $rsp 48 +
STACK CFI INIT 9ae40 90 .cfa: $rsp 8 + .ra: .cfa -8 + ^
STACK CFI 9ae4d $rbp: .cfa -40 + ^ $rbx: .cfa -48 + ^
STACK CFI 9ae63 .cfa: $rsp 48 +
STACK CFI 9ae69 $r12: .cfa -32 + ^ $r13: .cfa -24 + ^ $r14: .cfa -16 + ^
STACK CFI INIT 9aed0 59 .cfa: $rsp 8 + .ra: .cfa -8 + ^
STACK CFI 9aed2 .cfa: $rsp 16 +
STACK CFI 9aed7 $r14: .cfa -16 + ^
STACK CFI 9aed9 .cfa: $rsp 24 +
STACK CFI 9aedb .cfa: $rsp 32 +
STACK CFI 9aede $r12: .cfa -32 + ^ $r13: .cfa -24 + ^
STACK CFI 9aee2 .cfa: $rsp 40 +
STACK CFI 9aee5 $rbp: .cfa -40 + ^
STACK CFI 9aee6 .cfa: $rsp 48 +
STACK CFI 9aee9 $rbx: .cfa -48 + ^
STACK CFI INIT 9af30 a8 .cfa: $rsp 8 + .ra: .cfa -8 + ^
STACK CFI 9af3d $rbp: .cfa -48 + ^ $rbx: .cfa -56 + ^
STACK CFI 9af58 .cfa: $rsp 64 +
STACK CFI 9af5e $r12: .cfa -40 + ^ $r13: .cfa -32 + ^ $r14: .cfa -24 + ^ $r15: .cfa -16 + ^
STACK CFI INIT 9afe0 42 .cfa: $rsp 8 + .ra: .cfa -8 + ^
STACK CFI 9afe1 .cfa: $rsp 16 +
STACK CFI 9afe5 $rbx: .cfa -16 + ^
STACK CFI INIT 9b030 4d .cfa: $rsp 8 + .ra: .cfa -8 + ^
STACK CFI 9b031 .cfa: $rsp 16 +
STACK CFI 9b037 $rbx: .cfa -16 + ^
STACK CFI 9b03b .cfa: $rsp 32 +
STACK CFI INIT 9b080 7e .cfa: $rsp 8 + .ra: .cfa -8 + ^
STACK CFI 9b081 .cfa: $rsp 16 +
STACK CFI 9b088 $rbp: .cfa -16 + ^
STACK CFI 9b089 .cfa: $rsp 24 +
STACK CFI 9b08c $rbx: .cfa -24 + ^
STACK CFI 9b097 .cfa: $rsp 32 +
STACK CFI INIT 9b100 207 .cfa: $rsp 8 + .ra: .cfa -8 + ^
STACK CFI 9b101 .cfa: $rsp 16 +
STACK CFI 9b104 $rbp: .cfa -16 + ^ .cfa: $rbp 16 +
STACK CFI 9b109 $r13: .cfa -24 + ^
STACK CFI 9b11e $r12: .cfa -32 + ^ $rbx: .cfa -40 + ^
STACK CFI INIT 9b310 7e .cfa: $rsp 8 + .ra: .cfa -8 + ^
STACK CFI 9b311 .cfa: $rsp 16 +
STACK CFI 9b312 .cfa: $rsp 24 +
STACK CFI 9b315 $rbp: .cfa -16 + ^ $rbx: .cfa -24 + ^
STACK CFI 9b319 .cfa: $rsp 32 +
STACK CFI INIT 9b390 42c .cfa: $rsp 8 + .ra: .cfa -8 + ^
STACK CFI 9b392 .cfa: $rsp 16 +
STACK CFI 9b394 .cfa: $rsp 24 +
STACK CFI 9b396 .cfa: $rsp 32 +
STACK CFI 9b398 .cfa: $rsp 40 +
STACK CFI 9b399 .cfa: $rsp 48 +
STACK CFI 9b39a .cfa: $rsp 56 +
STACK CFI 9b3a1 .cfa: $rsp 448 +
STACK CFI 9b3a4 $r12: .cfa -40 + ^ $r13: .cfa -32 + ^ $r14: .cfa -24 + ^ $r15: .cfa -16 + ^ $rbp: .cfa -48 + ^ $rbx: .cfa -56 + ^
STACK CFI INIT 9b7c0 90 .cfa: $rsp 8 + .ra: .cfa -8 + ^
STACK CFI 9b7c7 .cfa: $rsp 224 +
STACK CFI INIT 9b850 ad .cfa: $rsp 8 + .ra: .cfa -8 + ^
STACK CFI 9b872 .cfa: $rsp 624 +
STACK CFI 9b87a $r12: .cfa -24 + ^ $r13: .cfa -16 + ^ $rbp: .cfa -32 + ^ $rbx: .cfa -40 + ^
STACK CFI INIT 9ba89 1b .cfa: $rsp -128 + .ra: $rip
STACK CFI 9ba93 .cfa: $rsp 0 +
STACK CFI 9ba97 .cfa: $rsp 128 +
STACK CFI 9ba9f .cfa: $rsp -128 +
STACK CFI INIT 9baa4 1b .cfa: $rsp -128 + .ra: $rip
STACK CFI 9baae .cfa: $rsp 0 +
STACK CFI 9bab2 .cfa: $rsp 128 +
STACK CFI 9baba .cfa: $rsp -128 +
STACK CFI INIT 9babf 18 .cfa: $rsp -128 + .ra: $rip
STACK CFI 9bac9 .cfa: $rsp 0 +
STACK CFI 9bacd .cfa: $rsp 128 +
STACK CFI 9bad5 .cfa: $rsp -128 +
STACK CFI INIT 9b900 189 .cfa: $rsp 8 + .ra: .cfa -8 + ^
STACK CFI 9b901 .cfa: $rsp 16 +
STACK CFI 9b90b .cfa: $rsp 224 +
STACK CFI 9b96d $rbx: .cfa -16 + ^
STACK CFI INIT 9bbe7 1b .cfa: $rsp -128 + .ra: $rip
STACK CFI 9bbf1 .cfa: $rsp 0 +
STACK CFI 9bbf5 .cfa: $rsp 128 +
STACK CFI 9bbfd .cfa: $rsp -128 +
STACK CFI INIT 9bc02 1b .cfa: $rsp -128 + .ra: $rip
STACK CFI 9bc0c .cfa: $rsp 0 +
STACK CFI 9bc10 .cfa: $rsp 128 +
STACK CFI 9bc18 .cfa: $rsp -128 +
STACK CFI INIT 9bc1d 18 .cfa: $rsp -128 + .ra: $rip
STACK CFI 9bc27 .cfa: $rsp 0 +
STACK CFI 9bc2b .cfa: $rsp 128 +
STACK CFI 9bc33 .cfa: $rsp -128 +
STACK CFI INIT 9bae0 107 .cfa: $rsp 8 + .ra: .cfa -8 + ^
STACK CFI 9bae1 .cfa: $rsp 16 +
STACK CFI 9bae8 .cfa: $rsp 24 +
STACK CFI 9baec .cfa: $rsp 32 +
STACK CFI 9baf6 $rbp: .cfa -16 + ^ $rbx: .cfa -24 + ^
STACK CFI INIT 9bdb7 1b .cfa: $rsp -128 + .ra: $rip
STACK CFI 9bdc1 .cfa: $rsp 0 +
STACK CFI 9bdc5 .cfa: $rsp 128 +
STACK CFI 9bdcd .cfa: $rsp -128 +
STACK CFI INIT 9bdd2 1b .cfa: $rsp -128 + .ra: $rip
STACK CFI 9bddc .cfa: $rsp 0 +
STACK CFI 9bde0 .cfa: $rsp 128 +
STACK CFI 9bde8 .cfa: $rsp -128 +
STACK CFI INIT 9bded 18 .cfa: $rsp -128 + .ra: $rip
STACK CFI 9bdf7 .cfa: $rsp 0 +
STACK CFI 9bdfb .cfa: $rsp 128 +
STACK CFI 9be03 .cfa: $rsp -128 +
STACK CFI INIT 9bc40 177 .cfa: $rsp 8 + .ra: .cfa -8 + ^
STACK CFI 9bc41 .cfa: $rsp 16 +
STACK CFI 9bc47 $rbx: .cfa -16 + ^
STACK CFI 9bc4e .cfa: $rsp 224 +
STACK CFI INIT 9bf00 1b .cfa: $rsp -128 + .ra: $rip
STACK CFI 9bf0a .cfa: $rsp 0 +
STACK CFI 9bf0e .cfa: $rsp 128 +
STACK CFI 9bf16 .cfa: $rsp -128 +
STACK CFI INIT 9bf1b 18 .cfa: $rsp -128 + .ra: $rip
STACK CFI 9bf25 .cfa: $rsp 0 +
STACK CFI 9bf29 .cfa: $rsp 128 +
STACK CFI 9bf31 .cfa: $rsp -128 +
STACK CFI INIT 9bf33 18 .cfa: $rsp -128 + .ra: $rip
STACK CFI 9bf3d .cfa: $rsp 0 +
STACK CFI 9bf41 .cfa: $rsp 128 +
STACK CFI 9bf49 .cfa: $rsp -128 +
STACK CFI INIT 9be10 f0 .cfa: $rsp 8 + .ra: .cfa -8 + ^
STACK CFI 9be11 .cfa: $rsp 16 +
STACK CFI 9be18 $rbx: .cfa -16 + ^
STACK CFI INIT 9bf50 41a .cfa: $rsp 8 + .ra: .cfa -8 + ^
STACK CFI 9bf52 .cfa: $rsp 16 +
STACK CFI 9bf5e .cfa: $rsp 24 +
STACK CFI 9bf5f .cfa: $rsp 32 +
STACK CFI 9bf62 $r12: .cfa -24 + ^ $r13: .cfa -16 + ^ $rbp: .cfa -32 + ^
STACK CFI 9bf63 .cfa: $rsp 40 +
STACK CFI 9bf66 $rbx: .cfa -40 + ^
STACK CFI INIT 9c370 fa .cfa: $rsp 8 + .ra: .cfa -8 + ^
STACK CFI 9c371 .cfa: $rsp 16 +
STACK CFI 9c374 $rbp: .cfa -16 + ^
STACK CFI 9c375 .cfa: $rsp 24 +
STACK CFI 9c378 $rbx: .cfa -24 + ^
STACK CFI 9c37c .cfa: $rsp 64 +
STACK CFI INIT 9c470 11 .cfa: $rsp 8 + .ra: .cfa -8 + ^
STACK CFI INIT 9c490 a .cfa: $rsp 8 + .ra: .cfa -8 + ^
STACK CFI INIT 9c4a0 82 .cfa: $rsp 8 + .ra: .cfa -8 + ^
STACK CFI 9c4a1 .cfa: $rsp 16 +
STACK CFI 9c4aa $rbx: .cfa -16 + ^ .cfa: $rsp 48 +
STACK CFI INIT 9c530 15 .cfa: $rsp 8 + .ra: .cfa -8 + ^
STACK CFI 9c534 .cfa: $rsp 16 +
STACK CFI INIT 9c550 21 .cfa: $rsp 8 + .ra: .cfa -8 + ^
STACK CFI 9c551 .cfa: $rsp 16 +
STACK CFI 9c554 $rbx: .cfa -16 + ^
STACK CFI 9c558 .cfa: $rsp 80 +
STACK CFI INIT 9c580 1f .cfa: $rsp 8 + .ra: .cfa -8 + ^
STACK CFI INIT 9c5a0 e .cfa: $rsp 8 + .ra: .cfa -8 + ^
STACK CFI INIT 9c5b0 a .cfa: $rsp 8 + .ra: .cfa -8 + ^
STACK CFI INIT 9c5c0 11 .cfa: $rsp 8 + .ra: .cfa -8 + ^
STACK CFI INIT 9c5e0 d .cfa: $rsp 8 + .ra: .cfa -8 + ^
STACK CFI INIT 9c5f0 102 .cfa: $rsp 8 + .ra: .cfa -8 + ^
STACK CFI 9c5f8 $rbx: .cfa -56 + ^
STACK CFI 9c60a $r12: .cfa -40 + ^ $r15: .cfa -16 + ^ $rbp: .cfa -48 + ^
STACK CFI 9c61b .cfa: $rsp 64 +
STACK CFI 9c621 $r13: .cfa -32 + ^ $r14: .cfa -24 + ^
STACK CFI INIT 9c700 827 .cfa: $rsp 8 + .ra: .cfa -8 + ^
STACK CFI 9c702 .cfa: $rsp 16 +
STACK CFI 9c705 $r15: .cfa -16 + ^
STACK CFI 9c707 .cfa: $rsp 24 +
STACK CFI 9c70a $r14: .cfa -24 + ^
STACK CFI 9c70c .cfa: $rsp 32 +
STACK CFI 9c70e .cfa: $rsp 40 +
STACK CFI 9c70f .cfa: $rsp 48 +
STACK CFI 9c710 .cfa: $rsp 56 +
STACK CFI 9c717 .cfa: $rsp 352 +
STACK CFI 9c727 $r12: .cfa -40 + ^ $r13: .cfa -32 + ^ $rbp: .cfa -48 + ^ $rbx: .cfa -56 + ^
STACK CFI INIT 9cf30 20 .cfa: $rsp 8 + .ra: .cfa -8 + ^
STACK CFI 9cf31 .cfa: $rsp 16 +
STACK CFI 9cf34 $rbx: .cfa -16 + ^
STACK CFI INIT 9cf50 12 .cfa: $rsp 8 + .ra: .cfa -8 + ^
STACK CFI 9cf54 .cfa: $rsp 16 +
STACK CFI 9cf61 .cfa: $rsp 8 +
STACK CFI INIT 9cf70 3b .cfa: $rsp 8 + .ra: .cfa -8 + ^
STACK CFI 9cf74 .cfa: $rsp 16 +
STACK CFI 9cf95 .cfa: $rsp 8 +
STACK CFI INIT 9cfb0 25 .cfa: $rsp 8 + .ra: .cfa -8 + ^
STACK CFI INIT 9cfe0 14e .cfa: $rsp 8 + .ra: .cfa -8 + ^
STACK CFI 9cfe1 .cfa: $rsp 16 +
STACK CFI 9cfe4 $rbx: .cfa -16 + ^
STACK CFI 9cfeb .cfa: $rsp 224 +
STACK CFI INIT 9e1ba 1f .cfa: $rsp -128 + .ra: $rip
STACK CFI 9e1c8 .cfa: $rsp 0 +
STACK CFI 9e1cc .cfa: $rsp 128 +
STACK CFI 9e1d4 .cfa: $rsp -128 +
STACK CFI INIT 9e1d9 1f .cfa: $rsp -128 + .ra: $rip
STACK CFI 9e1e7 .cfa: $rsp 0 +
STACK CFI 9e1eb .cfa: $rsp 128 +
STACK CFI 9e1f3 .cfa: $rsp -128 +
STACK CFI INIT 9e1f8 1f .cfa: $rsp -128 + .ra: $rip
STACK CFI 9e206 .cfa: $rsp 0 +
STACK CFI 9e20a .cfa: $rsp 128 +
STACK CFI 9e212 .cfa: $rsp -128 +
STACK CFI INIT 9e217 1f .cfa: $rsp -128 + .ra: $rip
STACK CFI 9e225 .cfa: $rsp 0 +
STACK CFI 9e229 .cfa: $rsp 128 +
STACK CFI 9e231 .cfa: $rsp -128 +
STACK CFI INIT 9e236 1f .cfa: $rsp -128 + .ra: $rip
STACK CFI 9e244 .cfa: $rsp 0 +
STACK CFI 9e248 .cfa: $rsp 128 +
STACK CFI 9e250 .cfa: $rsp -128 +
STACK CFI INIT 9e255 1f .cfa: $rsp -128 + .ra: $rip
STACK CFI 9e263 .cfa: $rsp 0 +
STACK CFI 9e267 .cfa: $rsp 128 +
STACK CFI 9e26f .cfa: $rsp -128 +
STACK CFI INIT 9d130 34 .cfa: $rsp 8 + .ra: .cfa -8 + ^
STACK CFI INIT 9d170 2e8 .cfa: $rsp 8 + .ra: .cfa -8 + ^
STACK CFI 9d171 .cfa: $rsp 16 +
STACK CFI 9d175 .cfa: $rsp 24 +
STACK CFI 9d17b $rbp: .cfa -16 + ^ $rbx: .cfa -24 + ^
STACK CFI INIT 136400 47 .cfa: $rsp 8 + .ra: .cfa -8 + ^
STACK CFI 136404 .cfa: $rsp 16 +
STACK CFI INIT 9d460 84 .cfa: $rsp 8 + .ra: .cfa -8 + ^
STACK CFI 9d461 .cfa: $rsp 16 +
STACK CFI 9d464 .cfa: $rsp 24 +
STACK CFI 9d468 .cfa: $rsp 32 +
STACK CFI 9d4a7 $rbp: .cfa -16 + ^ $rbx: .cfa -24 + ^
STACK CFI INIT 9d4f0 ce .cfa: $rsp 8 + .ra: .cfa -8 + ^
STACK CFI 9d4fd $rbp: .cfa -24 + ^ $rbx: .cfa -32 + ^
STACK CFI 9d506 .cfa: $rsp 32 +
STACK CFI 9d516 $r12: .cfa -16 + ^
STACK CFI INIT 9d5c0 a1 .cfa: $rsp 8 + .ra: .cfa -8 + ^
STACK CFI 9d5c2 .cfa: $rsp 16 +
STACK CFI 9d5c5 $r14: .cfa -16 + ^
STACK CFI 9d5c7 .cfa: $rsp 24 +
STACK CFI 9d5ca $r13: .cfa -24 + ^
STACK CFI 9d5cc .cfa: $rsp 32 +
STACK CFI 9d5cd .cfa: $rsp 40 +
STACK CFI 9d5ce $r12: .cfa -32 + ^ $rbp: .cfa -40 + ^ $rbx: .cfa -48 + ^ .cfa: $rsp 48 +
STACK CFI INIT 9d670 715 .cfa: $rsp 8 + .ra: .cfa -8 + ^
STACK CFI 9d671 .cfa: $rsp 16 +
STACK CFI 9d67b $rbp: .cfa -16 + ^ .cfa: $rbp 16 +
STACK CFI 9d686 $r14: .cfa -32 + ^ $r15: .cfa -24 + ^
STACK CFI 9d68c $r13: .cfa -40 + ^
STACK CFI 9d692 $r12: .cfa -48 + ^ $rbx: .cfa -56 + ^
STACK CFI INIT 9dd90 19e .cfa: $rsp 8 + .ra: .cfa -8 + ^
STACK CFI 9dd9e .cfa: $rsp 32 +
STACK CFI 9dda2 $rbp: .cfa -16 + ^ $rbx: .cfa -24 + ^
STACK CFI INIT 9df30 175 .cfa: $rsp 8 + .ra: .cfa -8 + ^
STACK CFI 9df32 .cfa: $rsp 16 +
STACK CFI 9df35 $r12: .cfa -16 + ^
STACK CFI 9df36 .cfa: $rsp 24 +
STACK CFI 9df39 $rbp: .cfa -24 + ^
STACK CFI 9df3a .cfa: $rsp 32 +
STACK CFI 9df3d $rbx: .cfa -32 + ^
STACK CFI 9df41 .cfa: $rsp 48 +
STACK CFI INIT 9e0b0 91 .cfa: $rsp 8 + .ra: .cfa -8 + ^
STACK CFI 9e0b4 .cfa: $rsp 16 +
STACK CFI INIT 9e150 6a .cfa: $rsp 8 + .ra: .cfa -8 + ^
STACK CFI 9e154 .cfa: $rsp 16 +
STACK CFI INIT 9e280 69c .cfa: $rsp 8 + .ra: .cfa -8 + ^
STACK CFI 9e282 .cfa: $rsp 16 +
STACK CFI 9e284 .cfa: $rsp 24 +
STACK CFI 9e286 .cfa: $rsp 32 +
STACK CFI 9e289 $r13: .cfa -32 + ^ $r14: .cfa -24 + ^ $r15: .cfa -16 + ^
STACK CFI 9e28b .cfa: $rsp 40 +
STACK CFI 9e28c .cfa: $rsp 48 +
STACK CFI 9e28f $r12: .cfa -40 + ^ $rbp: .cfa -48 + ^
STACK CFI 9e290 .cfa: $rsp 56 +
STACK CFI 9e293 $rbx: .cfa -56 + ^
STACK CFI 9e297 .cfa: $rsp 96 +
STACK CFI INIT 9e920 e0e .cfa: $rsp 8 + .ra: .cfa -8 + ^
STACK CFI 9e921 .cfa: $rsp 16 +
STACK CFI 9e924 $rbp: .cfa -16 + ^ .cfa: $rbp 16 +
STACK CFI 9e92f $r12: .cfa -48 + ^ $r13: .cfa -40 + ^ $r14: .cfa -32 + ^ $r15: .cfa -24 + ^
STACK CFI 9e933 $rbx: .cfa -56 + ^
STACK CFI INIT 9f730 1fa .cfa: $rsp 8 + .ra: .cfa -8 + ^
STACK CFI 9f732 .cfa: $rsp 16 +
STACK CFI 9f734 .cfa: $rsp 24 +
STACK CFI 9f736 .cfa: $rsp 32 +
STACK CFI 9f738 .cfa: $rsp 40 +
STACK CFI 9f73b $r12: .cfa -40 + ^ $r13: .cfa -32 + ^ $r14: .cfa -24 + ^ $r15: .cfa -16 + ^
STACK CFI 9f73c .cfa: $rsp 48 +
STACK CFI 9f73f $rbp: .cfa -48 + ^
STACK CFI 9f740 .cfa: $rsp 56 +
STACK CFI 9f743 $rbx: .cfa -56 + ^
STACK CFI 9f747 .cfa: $rsp 96 +
STACK CFI INIT 9f930 25 .cfa: $rsp 8 + .ra: .cfa -8 + ^
STACK CFI INIT 9f960 25 .cfa: $rsp 8 + .ra: .cfa -8 + ^
STACK CFI INIT 9f990 45 .cfa: $rsp 8 + .ra: .cfa -8 + ^
STACK CFI 9f994 .cfa: $rsp 32 +
STACK CFI INIT 9f9e0 46 .cfa: $rsp 8 + .ra: .cfa -8 + ^
STACK CFI INIT 9fa30 1a .cfa: $rsp 8 + .ra: .cfa -8 + ^
STACK CFI INIT 9fa50 87 .cfa: $rsp 8 + .ra: .cfa -8 + ^
STACK CFI 9fa51 .cfa: $rsp 16 +
STACK CFI 9fa54 $rbx: .cfa -16 + ^
STACK CFI 9fa58 .cfa: $rsp 48 +
STACK CFI INIT 9fae0 54a .cfa: $rsp 8 + .ra: .cfa -8 + ^
STACK CFI 9fae8 $r12: .cfa -40 + ^
STACK CFI 9fafc $rbp: .cfa -48 + ^ $rbx: .cfa -56 + ^
STACK CFI 9fb12 $r13: .cfa -32 + ^ $r14: .cfa -24 + ^ $r15: .cfa -16 + ^ .cfa: $rsp 352 +
STACK CFI INIT a0030 38 .cfa: $rsp 8 + .ra: .cfa -8 + ^
STACK CFI a003b .cfa: $rsp 16 +
STACK CFI INIT a0070 12 .cfa: $rsp 8 + .ra: .cfa -8 + ^
STACK CFI INIT a0090 d4 .cfa: $rsp 8 + .ra: .cfa -8 + ^
STACK CFI INIT a0170 2cd9 .cfa: $rsp 8 + .ra: .cfa -8 + ^
STACK CFI a0172 .cfa: $rsp 16 +
STACK CFI a0174 .cfa: $rsp 24 +
STACK CFI a0176 .cfa: $rsp 32 +
STACK CFI a0179 $r13: .cfa -32 + ^ $r14: .cfa -24 + ^ $r15: .cfa -16 + ^
STACK CFI a017b .cfa: $rsp 40 +
STACK CFI a017e $r12: .cfa -40 + ^
STACK CFI a017f .cfa: $rsp 48 +
STACK CFI a0182 $rbp: .cfa -48 + ^
STACK CFI a0183 .cfa: $rsp 56 +
STACK CFI a0186 $rbx: .cfa -56 + ^
STACK CFI a018d .cfa: $rsp 272 +
STACK CFI INIT a2e50 a .cfa: $rsp 8 + .ra: .cfa -8 + ^
STACK CFI INIT a2e60 10 .cfa: $rsp 8 + .ra: .cfa -8 + ^
STACK CFI INIT a2e70 20b5 .cfa: $rsp 8 + .ra: .cfa -8 + ^
STACK CFI a2e72 .cfa: $rsp 16 +
STACK CFI a2e75 $r15: .cfa -16 + ^
STACK CFI a2e77 .cfa: $rsp 24 +
STACK CFI a2e79 .cfa: $rsp 32 +
STACK CFI a2e7b .cfa: $rsp 40 +
STACK CFI a2e7e $r12: .cfa -40 + ^ $r13: .cfa -32 + ^ $r14: .cfa -24 + ^
STACK CFI a2e7f .cfa: $rsp 48 +
STACK CFI a2e80 .cfa: $rsp 56 +
STACK CFI a2e87 .cfa: $rsp 304 +
STACK CFI a2eb8 $rbp: .cfa -48 + ^ $rbx: .cfa -56 + ^
STACK CFI INIT a4f30 1b .cfa: $rsp 8 + .ra: .cfa -8 + ^
STACK CFI a4f34 .cfa: $rsp 32 +
STACK CFI INIT a4f50 10 .cfa: $rsp 8 + .ra: .cfa -8 + ^
STACK CFI INIT a4f60 5a .cfa: $rsp 8 + .ra: .cfa -8 + ^
STACK CFI a4f62 .cfa: $rsp 16 +
STACK CFI a4f68 $r14: .cfa -16 + ^
STACK CFI a4f6a .cfa: $rsp 24 +
STACK CFI a4f6c .cfa: $rsp 32 +
STACK CFI a4f6d .cfa: $rsp 40 +
STACK CFI a4f70 $r12: .cfa -32 + ^ $r13: .cfa -24 + ^ $rbp: .cfa -40 + ^
STACK CFI a4f71 .cfa: $rsp 48 +
STACK CFI a4f74 $rbx: .cfa -48 + ^
STACK CFI INIT a4fc0 20fa .cfa: $rsp 8 + .ra: .cfa -8 + ^
STACK CFI a4fc1 .cfa: $rsp 16 +
STACK CFI a4fc4 $rbp: .cfa -16 + ^ .cfa: $rbp 16 +
STACK CFI a5018 $r12: .cfa -48 + ^ $r13: .cfa -40 + ^ $r14: .cfa -32 + ^ $r15: .cfa -24 + ^ $rbx: .cfa -56 + ^
STACK CFI INIT a70c0 1b .cfa: $rsp 8 + .ra: .cfa -8 + ^
STACK CFI a70c4 .cfa: $rsp 32 +
STACK CFI INIT a70e0 a7 .cfa: $rsp 8 + .ra: .cfa -8 + ^
STACK CFI a70e2 .cfa: $rsp 16 +
STACK CFI a70e3 .cfa: $rsp 24 +
STACK CFI a70e6 $r12: .cfa -16 + ^ $rbp: .cfa -24 + ^
STACK CFI a70e7 .cfa: $rsp 32 +
STACK CFI a70eb $rbx: .cfa -32 + ^
STACK CFI INIT a7190 135 .cfa: $rsp 8 + .ra: .cfa -8 + ^
STACK CFI a7192 .cfa: $rsp 16 +
STACK CFI a7194 .cfa: $rsp 24 +
STACK CFI a719a $r14: .cfa -24 + ^ $r15: .cfa -16 + ^
STACK CFI a719c .cfa: $rsp 32 +
STACK CFI a719e .cfa: $rsp 40 +
STACK CFI a719f .cfa: $rsp 48 +
STACK CFI a71a0 .cfa: $rsp 56 +
STACK CFI a71a3 $r12: .cfa -40 + ^ $r13: .cfa -32 + ^ $rbp: .cfa -48 + ^ $rbx: .cfa -56 + ^
STACK CFI a71a7 .cfa: $rsp 80 +
STACK CFI INIT a72d0 dc .cfa: $rsp 8 + .ra: .cfa -8 + ^
STACK CFI a72d1 .cfa: $rsp 16 +
STACK CFI a72d3 $rbx: .cfa -16 + ^
STACK CFI a72d7 .cfa: $rsp 32 +
STACK CFI INIT a73b0 189 .cfa: $rsp 8 + .ra: .cfa -8 + ^
STACK CFI a73bc $rbp: .cfa -32 + ^ $rbx: .cfa -40 + ^
STACK CFI a73ca .cfa: $rsp 64 +
STACK CFI a73cf $r12: .cfa -24 + ^ $r13: .cfa -16 + ^
STACK CFI INIT a7540 2b4 .cfa: $rsp 8 + .ra: .cfa -8 + ^
STACK CFI a754d $rbp: .cfa -48 + ^ $rbx: .cfa -56 + ^
STACK CFI a7565 .cfa: $rsp 64 +
STACK CFI a7573 $r12: .cfa -40 + ^ $r13: .cfa -32 + ^ $r14: .cfa -24 + ^ $r15: .cfa -16 + ^
STACK CFI INIT a7800 55 .cfa: $rsp 8 + .ra: .cfa -8 + ^
STACK CFI a780e .cfa: $rsp 32 +
STACK CFI a7814 $rbp: .cfa -16 + ^ $rbx: .cfa -24 + ^
STACK CFI INIT a7860 152 .cfa: $rsp 8 + .ra: .cfa -8 + ^
STACK CFI a7861 .cfa: $rsp 16 +
STACK CFI a7864 $rbp: .cfa -16 + ^
STACK CFI a7865 .cfa: $rsp 24 +
STACK CFI a7868 $rbx: .cfa -24 + ^
STACK CFI a786c .cfa: $rsp 32 +
STACK CFI INIT a79c0 42 .cfa: $rsp 8 + .ra: .cfa -8 + ^
STACK CFI a79c1 .cfa: $rsp 16 +
STACK CFI a79c5 $rbx: .cfa -16 + ^
STACK CFI INIT a7a10 46 .cfa: $rsp 8 + .ra: .cfa -8 + ^
STACK CFI a7a11 .cfa: $rsp 16 +
STACK CFI a7a14 $rbx: .cfa -16 + ^
STACK CFI a7a1b .cfa: $rsp 224 +
STACK CFI INIT a7a60 72 .cfa: $rsp 8 + .ra: .cfa -8 + ^
STACK CFI a7a61 .cfa: $rsp 16 +
STACK CFI a7a64 $rbx: .cfa -16 + ^
STACK CFI a7a6b .cfa: $rsp 224 +
STACK CFI INIT a7ae0 f6 .cfa: $rsp 8 + .ra: .cfa -8 + ^
STACK CFI a7aed $rbp: .cfa -32 + ^ $rbx: .cfa -40 + ^
STACK CFI a7afb .cfa: $rsp 48 +
STACK CFI a7b03 $r12: .cfa -24 + ^ $r13: .cfa -16 + ^
STACK CFI INIT a7be0 3d .cfa: $rsp 8 + .ra: .cfa -8 + ^
STACK CFI a7be4 .cfa: $rsp 16 +
STACK CFI INIT a7c20 2d .cfa: $rsp 8 + .ra: .cfa -8 + ^
STACK CFI a7c24 .cfa: $rsp 16 +
STACK CFI a7c26 $rbx: .cfa -16 + ^
STACK CFI INIT a7d2f 1c .cfa: $rsp -128 + .ra: $rip
STACK CFI a7d3a .cfa: $rsp 0 +
STACK CFI a7d3e .cfa: $rsp 128 +
STACK CFI a7d46 .cfa: $rsp -128 +
STACK CFI INIT a7d4b 19 .cfa: $rsp -128 + .ra: $rip
STACK CFI a7d56 .cfa: $rsp 0 +
STACK CFI a7d5a .cfa: $rsp 128 +
STACK CFI a7d62 .cfa: $rsp -128 +
STACK CFI INIT a7c50 df .cfa: $rsp 8 + .ra: .cfa -8 + ^
STACK CFI a7c52 .cfa: $rsp 16 +
STACK CFI a7c5b .cfa: $rsp 24 +
STACK CFI a7c5c .cfa: $rsp 32 +
STACK CFI a7c5d .cfa: $rsp 40 +
STACK CFI a7c60 $r12: .cfa -24 + ^ $r13: .cfa -16 + ^ $rbp: .cfa -32 + ^ $rbx: .cfa -40 + ^
STACK CFI a7c64 .cfa: $rsp 48 +
STACK CFI INIT a7eca 1c .cfa: $rsp -128 + .ra: $rip
STACK CFI a7ed5 .cfa: $rsp 0 +
STACK CFI a7ed9 .cfa: $rsp 128 +
STACK CFI a7ee1 .cfa: $rsp -128 +
STACK CFI INIT a7ee6 1c .cfa: $rsp -128 + .ra: $rip
STACK CFI a7ef1 .cfa: $rsp 0 +
STACK CFI a7ef5 .cfa: $rsp 128 +
STACK CFI a7efd .cfa: $rsp -128 +
STACK CFI INIT a7d70 15a .cfa: $rsp 8 + .ra: .cfa -8 + ^
STACK CFI a7d72 .cfa: $rsp 16 +
STACK CFI a7d74 .cfa: $rsp 24 +
STACK CFI a7d77 $r14: .cfa -24 + ^ $r15: .cfa -16 + ^
STACK CFI a7d79 .cfa: $rsp 32 +
STACK CFI a7d7c $r13: .cfa -32 + ^
STACK CFI a7d83 .cfa: $rsp 40 +
STACK CFI a7d84 .cfa: $rsp 48 +
STACK CFI a7d85 .cfa: $rsp 56 +
STACK CFI a7d88 $r12: .cfa -40 + ^ $rbp: .cfa -48 + ^ $rbx: .cfa -56 + ^
STACK CFI a7d8c .cfa: $rsp 80 +
STACK CFI INIT a7f6e 19 .cfa: $rsp -128 + .ra: $rip
STACK CFI a7f79 .cfa: $rsp 0 +
STACK CFI a7f7d .cfa: $rsp 128 +
STACK CFI a7f85 .cfa: $rsp -128 +
STACK CFI INIT a7f87 19 .cfa: $rsp -128 + .ra: $rip
STACK CFI a7f92 .cfa: $rsp 0 +
STACK CFI a7f96 .cfa: $rsp 128 +
STACK CFI a7f9e .cfa: $rsp -128 +
STACK CFI INIT a7f10 5e .cfa: $rsp 8 + .ra: .cfa -8 + ^
STACK CFI a7f11 .cfa: $rsp 16 +
STACK CFI a7f19 $rbx: .cfa -16 + ^
STACK CFI INIT a8018 19 .cfa: $rsp -128 + .ra: $rip
STACK CFI a8023 .cfa: $rsp 0 +
STACK CFI a8027 .cfa: $rsp 128 +
STACK CFI a802f .cfa: $rsp -128 +
STACK CFI INIT a8031 19 .cfa: $rsp -128 + .ra: $rip
STACK CFI a803c .cfa: $rsp 0 +
STACK CFI a8040 .cfa: $rsp 128 +
STACK CFI a8048 .cfa: $rsp -128 +
STACK CFI INIT a7fa0 78 .cfa: $rsp 8 + .ra: .cfa -8 + ^
STACK CFI a7fad $rbp: .cfa -16 + ^ $rbx: .cfa -24 + ^
STACK CFI a7fb1 .cfa: $rsp 32 +
STACK CFI INIT a8050 5 .cfa: $rsp 8 + .ra: .cfa -8 + ^
STACK CFI INIT a8060 1f3 .cfa: $rsp 8 + .ra: .cfa -8 + ^
STACK CFI a8062 .cfa: $rsp 16 +
STACK CFI a8064 .cfa: $rsp 24 +
STACK CFI a8066 .cfa: $rsp 32 +
STACK CFI a8068 .cfa: $rsp 40 +
STACK CFI a8069 .cfa: $rsp 48 +
STACK CFI a806c $r12: .cfa -40 + ^ $r13: .cfa -32 + ^ $r14: .cfa -24 + ^ $r15: .cfa -16 + ^ $rbp: .cfa -48 + ^
STACK CFI a806d .cfa: $rsp 56 +
STACK CFI a8071 .cfa: $rsp 128 +
STACK CFI a807b $rbx: .cfa -56 + ^
STACK CFI INIT a8260 40 .cfa: $rsp 8 + .ra: .cfa -8 + ^
STACK CFI a8262 .cfa: $rsp 16 +
STACK CFI a8263 .cfa: $rsp 24 +
STACK CFI a8266 $r12: .cfa -16 + ^ $rbp: .cfa -24 + ^
STACK CFI a8267 .cfa: $rsp 32 +
STACK CFI a8272 $rbx: .cfa -32 + ^
STACK CFI INIT a82a0 13 .cfa: $rsp 8 + .ra: .cfa -8 + ^
STACK CFI INIT a82c0 13 .cfa: $rsp 8 + .ra: .cfa -8 + ^
STACK CFI INIT a82e0 87 .cfa: $rsp 8 + .ra: .cfa -8 + ^
STACK CFI a82e2 .cfa: $rsp 16 +
STACK CFI a82ef .cfa: $rsp 24 +
STACK CFI a82f1 .cfa: $rsp 32 +
STACK CFI a82f2 .cfa: $rsp 40 +
STACK CFI a82f3 .cfa: $rsp 48 +
STACK CFI a82fd $r12: .cfa -32 + ^ $r13: .cfa -24 + ^ $r14: .cfa -16 + ^ $rbp: .cfa -40 + ^ $rbx: .cfa -48 + ^
STACK CFI INIT a8370 3 .cfa: $rsp 8 + .ra: .cfa -8 + ^
STACK CFI INIT a8380 87 .cfa: $rsp 8 + .ra: .cfa -8 + ^
STACK CFI a8381 .cfa: $rsp 16 +
STACK CFI a8384 .cfa: $rsp 24 +
STACK CFI a8386 $rbp: .cfa -16 + ^ $rbx: .cfa -24 + ^
STACK CFI a8392 .cfa: $rsp 176 +
STACK CFI INIT a8410 6b .cfa: $rsp 8 + .ra: .cfa -8 + ^
STACK CFI a841c $rbp: .cfa -40 + ^ $rbx: .cfa -48 + ^
STACK CFI a8434 .cfa: $rsp 48 +
STACK CFI a8437 $r12: .cfa -32 + ^ $r13: .cfa -24 + ^ $r14: .cfa -16 + ^
STACK CFI INIT a861f 1f .cfa: $rsp -128 + .ra: $rip
STACK CFI a862d .cfa: $rsp 0 +
STACK CFI a8631 .cfa: $rsp 128 +
STACK CFI a8639 .cfa: $rsp -128 +
STACK CFI INIT a863e 1f .cfa: $rsp -128 + .ra: $rip
STACK CFI a864c .cfa: $rsp 0 +
STACK CFI a8650 .cfa: $rsp 128 +
STACK CFI a8658 .cfa: $rsp -128 +
STACK CFI INIT a8480 19f .cfa: $rsp 8 + .ra: .cfa -8 + ^
STACK CFI a8482 .cfa: $rsp 16 +
STACK CFI a8484 .cfa: $rsp 24 +
STACK CFI a8485 .cfa: $rsp 32 +
STACK CFI a8486 .cfa: $rsp 40 +
STACK CFI a8489 $r12: .cfa -24 + ^ $r13: .cfa -16 + ^ $rbp: .cfa -32 + ^ $rbx: .cfa -40 + ^
STACK CFI a848d .cfa: $rsp 96 +
STACK CFI INIT a8660 354 .cfa: $rsp 8 + .ra: .cfa -8 + ^
STACK CFI a8661 .cfa: $rsp 16 +
STACK CFI a8664 $rbp: .cfa -16 + ^ .cfa: $rbp 16 +
STACK CFI a8669 $r15: .cfa -24 + ^
STACK CFI a8678 $r12: .cfa -48 + ^ $r13: .cfa -40 + ^ $r14: .cfa -32 + ^ $rbx: .cfa -56 + ^
STACK CFI INIT a89c0 297 .cfa: $rsp 8 + .ra: .cfa -8 + ^
STACK CFI a89c2 .cfa: $rsp 16 +
STACK CFI a89c5 $r15: .cfa -16 + ^
STACK CFI a89c7 .cfa: $rsp 24 +
STACK CFI a89ca $r14: .cfa -24 + ^
STACK CFI a89cc .cfa: $rsp 32 +
STACK CFI a89ce .cfa: $rsp 40 +
STACK CFI a89cf .cfa: $rsp 48 +
STACK CFI a89d2 $r12: .cfa -40 + ^ $r13: .cfa -32 + ^ $rbp: .cfa -48 + ^
STACK CFI a89d3 .cfa: $rsp 56 +
STACK CFI a89d7 .cfa: $rsp 128 +
STACK CFI a89f0 $rbx: .cfa -56 + ^
STACK CFI INIT a8c60 d0 .cfa: $rsp 8 + .ra: .cfa -8 + ^
STACK CFI a8c62 .cfa: $rsp 16 +
STACK CFI a8c63 .cfa: $rsp 24 +
STACK CFI a8c65 $r12: .cfa -16 + ^ $rbp: .cfa -24 + ^
STACK CFI a8c66 .cfa: $rsp 32 +
STACK CFI a8c69 $rbx: .cfa -32 + ^
STACK CFI a8c72 .cfa: $rsp 64 +
STACK CFI INIT a8d30 b7 .cfa: $rsp 8 + .ra: .cfa -8 + ^
STACK CFI a8d3d $rbp: .cfa -32 + ^ $rbx: .cfa -40 + ^
STACK CFI a8d4b .cfa: $rsp 64 +
STACK CFI a8d50 $r12: .cfa -24 + ^ $r13: .cfa -16 + ^
STACK CFI INIT a8df0 5f .cfa: $rsp 8 + .ra: .cfa -8 + ^
STACK CFI a8df4 .cfa: $rsp 64 +
STACK CFI INIT a8ed8 1c .cfa: $rsp -128 + .ra: $rip
STACK CFI a8ee6 .cfa: $rsp 0 +
STACK CFI a8eea .cfa: $rsp 128 +
STACK CFI a8ef2 .cfa: $rsp -128 +
STACK CFI INIT a8ef4 1c .cfa: $rsp -128 + .ra: $rip
STACK CFI a8f02 .cfa: $rsp 0 +
STACK CFI a8f06 .cfa: $rsp 128 +
STACK CFI a8f0e .cfa: $rsp -128 +
STACK CFI INIT a8e50 88 .cfa: $rsp 8 + .ra: .cfa -8 + ^
STACK CFI a8e54 .cfa: $rsp 16 +
STACK CFI INIT a9035 1f .cfa: $rsp -128 + .ra: $rip
STACK CFI a9043 .cfa: $rsp 0 +
STACK CFI a9047 .cfa: $rsp 128 +
STACK CFI a904f .cfa: $rsp -128 +
STACK CFI INIT a9054 1c .cfa: $rsp -128 + .ra: $rip
STACK CFI a9062 .cfa: $rsp 0 +
STACK CFI a9066 .cfa: $rsp 128 +
STACK CFI a906e .cfa: $rsp -128 +
STACK CFI INIT a8f10 125 .cfa: $rsp 8 + .ra: .cfa -8 + ^
STACK CFI a8f11 .cfa: $rsp 16 +
STACK CFI a8f19 .cfa: $rsp 24 +
STACK CFI a8f1b $rbp: .cfa -16 + ^ $rbx: .cfa -24 + ^
STACK CFI a8f1f .cfa: $rsp 48 +
STACK CFI INIT a9195 1f .cfa: $rsp -128 + .ra: $rip
STACK CFI a91a3 .cfa: $rsp 0 +
STACK CFI a91a7 .cfa: $rsp 128 +
STACK CFI a91af .cfa: $rsp -128 +
STACK CFI INIT a91b4 1c .cfa: $rsp -128 + .ra: $rip
STACK CFI a91c2 .cfa: $rsp 0 +
STACK CFI a91c6 .cfa: $rsp 128 +
STACK CFI a91ce .cfa: $rsp -128 +
STACK CFI INIT a9070 125 .cfa: $rsp 8 + .ra: .cfa -8 + ^
STACK CFI a9071 .cfa: $rsp 16 +
STACK CFI a9079 .cfa: $rsp 24 +
STACK CFI a907c $rbp: .cfa -16 + ^ $rbx: .cfa -24 + ^
STACK CFI a9080 .cfa: $rsp 48 +
STACK CFI INIT a9414 1b .cfa: $rsp -128 + .ra: $rip
STACK CFI a941e .cfa: $rsp 0 +
STACK CFI a9422 .cfa: $rsp 128 +
STACK CFI a942a .cfa: $rsp -128 +
STACK CFI INIT a942f 1b .cfa: $rsp -128 + .ra: $rip
STACK CFI a9439 .cfa: $rsp 0 +
STACK CFI a943d .cfa: $rsp 128 +
STACK CFI a9445 .cfa: $rsp -128 +
STACK CFI INIT a944a 18 .cfa: $rsp -128 + .ra: $rip
STACK CFI a9454 .cfa: $rsp 0 +
STACK CFI a9458 .cfa: $rsp 128 +
STACK CFI a9460 .cfa: $rsp -128 +
STACK CFI INIT a91d0 244 .cfa: $rsp 8 + .ra: .cfa -8 + ^
STACK CFI a91d2 .cfa: $rsp 16 +
STACK CFI a91d4 .cfa: $rsp 24 +
STACK CFI a91d6 .cfa: $rsp 32 +
STACK CFI a91d8 .cfa: $rsp 40 +
STACK CFI a91d9 .cfa: $rsp 48 +
STACK CFI a91dc $r12: .cfa -40 + ^ $r13: .cfa -32 + ^ $r14: .cfa -24 + ^ $r15: .cfa -16 + ^ $rbp: .cfa -48 + ^
STACK CFI a91dd .cfa: $rsp 56 +
STACK CFI a91e0 $rbx: .cfa -56 + ^
STACK CFI a91e4 .cfa: $rsp 64 +
STACK CFI INIT a9692 1f .cfa: $rsp -128 + .ra: $rip
STACK CFI a96a0 .cfa: $rsp 0 +
STACK CFI a96a4 .cfa: $rsp 128 +
STACK CFI a96ac .cfa: $rsp -128 +
STACK CFI INIT a96b1 1f .cfa: $rsp -128 + .ra: $rip
STACK CFI a96bf .cfa: $rsp 0 +
STACK CFI a96c3 .cfa: $rsp 128 +
STACK CFI a96cb .cfa: $rsp -128 +
STACK CFI INIT a96d0 1f .cfa: $rsp -128 + .ra: $rip
STACK CFI a96de .cfa: $rsp 0 +
STACK CFI a96e2 .cfa: $rsp 128 +
STACK CFI a96ea .cfa: $rsp -128 +
STACK CFI INIT a96ef 1f .cfa: $rsp -128 + .ra: $rip
STACK CFI a96fd .cfa: $rsp 0 +
STACK CFI a9701 .cfa: $rsp 128 +
STACK CFI a9709 .cfa: $rsp -128 +
STACK CFI INIT a970e 1f .cfa: $rsp -128 + .ra: $rip
STACK CFI a971c .cfa: $rsp 0 +
STACK CFI a9720 .cfa: $rsp 128 +
STACK CFI a9728 .cfa: $rsp -128 +
STACK CFI INIT a972d 1f .cfa: $rsp -128 + .ra: $rip
STACK CFI a973b .cfa: $rsp 0 +
STACK CFI a973f .cfa: $rsp 128 +
STACK CFI a9747 .cfa: $rsp -128 +
STACK CFI INIT a9470 d2 .cfa: $rsp 8 + .ra: .cfa -8 + ^
STACK CFI a9474 .cfa: $rsp 80 +
STACK CFI INIT a9550 a0 .cfa: $rsp 8 + .ra: .cfa -8 + ^
STACK CFI a9554 .cfa: $rsp 16 +
STACK CFI INIT a95f0 a2 .cfa: $rsp 8 + .ra: .cfa -8 + ^
STACK CFI a95f4 .cfa: $rsp 32 +
STACK CFI INIT a9750 25d .cfa: $rsp 8 + .ra: .cfa -8 + ^
STACK CFI a9752 .cfa: $rsp 16 +
STACK CFI a9755 $r15: .cfa -16 + ^
STACK CFI a9757 .cfa: $rsp 24 +
STACK CFI a975a $r14: .cfa -24 + ^
STACK CFI a975c .cfa: $rsp 32 +
STACK CFI a975f $r13: .cfa -32 + ^
STACK CFI a9761 .cfa: $rsp 40 +
STACK CFI a9762 .cfa: $rsp 48 +
STACK CFI a9765 $r12: .cfa -40 + ^ $rbp: .cfa -48 + ^
STACK CFI a9766 .cfa: $rsp 56 +
STACK CFI a976a .cfa: $rsp 112 +
STACK CFI a977e $rbx: .cfa -56 + ^
STACK CFI INIT a99b0 25d .cfa: $rsp 8 + .ra: .cfa -8 + ^
STACK CFI a99b2 .cfa: $rsp 16 +
STACK CFI a99b5 $r15: .cfa -16 + ^
STACK CFI a99b7 .cfa: $rsp 24 +
STACK CFI a99ba $r14: .cfa -24 + ^
STACK CFI a99bc .cfa: $rsp 32 +
STACK CFI a99bf $r13: .cfa -32 + ^
STACK CFI a99c1 .cfa: $rsp 40 +
STACK CFI a99c2 .cfa: $rsp 48 +
STACK CFI a99c5 $r12: .cfa -40 + ^ $rbp: .cfa -48 + ^
STACK CFI a99c6 .cfa: $rsp 56 +
STACK CFI a99ca .cfa: $rsp 112 +
STACK CFI a99de $rbx: .cfa -56 + ^
STACK CFI INIT aa186 1b .cfa: $rsp -128 + .ra: $rip
STACK CFI aa190 .cfa: $rsp 0 +
STACK CFI aa194 .cfa: $rsp 128 +
STACK CFI aa19c .cfa: $rsp -128 +
STACK CFI INIT aa1a1 1b .cfa: $rsp -128 + .ra: $rip
STACK CFI aa1ab .cfa: $rsp 0 +
STACK CFI aa1af .cfa: $rsp 128 +
STACK CFI aa1b7 .cfa: $rsp -128 +
STACK CFI INIT aa1bc 1b .cfa: $rsp -128 + .ra: $rip
STACK CFI aa1c6 .cfa: $rsp 0 +
STACK CFI aa1ca .cfa: $rsp 128 +
STACK CFI aa1d2 .cfa: $rsp -128 +
STACK CFI INIT aa1d7 1b .cfa: $rsp -128 + .ra: $rip
STACK CFI aa1e1 .cfa: $rsp 0 +
STACK CFI aa1e5 .cfa: $rsp 128 +
STACK CFI aa1ed .cfa: $rsp -128 +
STACK CFI INIT a9c10 2e9 .cfa: $rsp 8 + .ra: .cfa -8 + ^
STACK CFI a9c12 .cfa: $rsp 16 +
STACK CFI a9c15 $r15: .cfa -16 + ^
STACK CFI a9c17 .cfa: $rsp 24 +
STACK CFI a9c1a $r14: .cfa -24 + ^
STACK CFI a9c1c .cfa: $rsp 32 +
STACK CFI a9c20 $r13: .cfa -32 + ^
STACK CFI a9c22 .cfa: $rsp 40 +
STACK CFI a9c25 $r12: .cfa -40 + ^
STACK CFI a9c26 .cfa: $rsp 48 +
STACK CFI a9c29 $rbp: .cfa -48 + ^
STACK CFI a9c2a .cfa: $rsp 56 +
STACK CFI a9c2d $rbx: .cfa -56 + ^
STACK CFI a9c31 .cfa: $rsp 96 +
STACK CFI INIT a9f00 286 .cfa: $rsp 8 + .ra: .cfa -8 + ^
STACK CFI a9f02 .cfa: $rsp 16 +
STACK CFI a9f04 .cfa: $rsp 24 +
STACK CFI a9f07 $r14: .cfa -24 + ^ $r15: .cfa -16 + ^
STACK CFI a9f09 .cfa: $rsp 32 +
STACK CFI a9f0b .cfa: $rsp 40 +
STACK CFI a9f0c .cfa: $rsp 48 +
STACK CFI a9f0f $r12: .cfa -40 + ^ $r13: .cfa -32 + ^ $rbp: .cfa -48 + ^
STACK CFI a9f10 .cfa: $rsp 56 +
STACK CFI a9f13 $rbx: .cfa -56 + ^
STACK CFI a9f17 .cfa: $rsp 80 +
STACK CFI INIT aa39e 1f .cfa: $rsp -128 + .ra: $rip
STACK CFI aa3ac .cfa: $rsp 0 +
STACK CFI aa3b0 .cfa: $rsp 128 +
STACK CFI aa3b8 .cfa: $rsp -128 +
STACK CFI INIT aa3bd 1f .cfa: $rsp -128 + .ra: $rip
STACK CFI aa3cb .cfa: $rsp 0 +
STACK CFI aa3cf .cfa: $rsp 128 +
STACK CFI aa3d7 .cfa: $rsp -128 +
STACK CFI INIT aa200 19e .cfa: $rsp 8 + .ra: .cfa -8 + ^
STACK CFI aa202 .cfa: $rsp 16 +
STACK CFI aa204 .cfa: $rsp 24 +
STACK CFI aa205 .cfa: $rsp 32 +
STACK CFI aa206 .cfa: $rsp 40 +
STACK CFI aa209 $r12: .cfa -24 + ^ $r13: .cfa -16 + ^ $rbp: .cfa -32 + ^ $rbx: .cfa -40 + ^
STACK CFI aa20d .cfa: $rsp 96 +
STACK CFI INIT aa3e0 d0 .cfa: $rsp 8 + .ra: .cfa -8 + ^
STACK CFI aa3e1 .cfa: $rsp 16 +
STACK CFI aa3e4 $rbp: .cfa -16 + ^ .cfa: $rbp 16 +
STACK CFI aa3e9 $r12: .cfa -24 + ^
STACK CFI aa3ed $rbx: .cfa -32 + ^
STACK CFI INIT aa4b0 100 .cfa: $rsp 8 + .ra: .cfa -8 + ^
STACK CFI aa4b4 .cfa: $rsp 48 +
STACK CFI INIT aa638 1c .cfa: $rsp -128 + .ra: $rip
STACK CFI aa646 .cfa: $rsp 0 +
STACK CFI aa64a .cfa: $rsp 128 +
STACK CFI aa652 .cfa: $rsp -128 +
STACK CFI INIT aa654 1c .cfa: $rsp -128 + .ra: $rip
STACK CFI aa662 .cfa: $rsp 0 +
STACK CFI aa666 .cfa: $rsp 128 +
STACK CFI aa66e .cfa: $rsp -128 +
STACK CFI INIT aa5b0 88 .cfa: $rsp 8 + .ra: .cfa -8 + ^
STACK CFI aa5b4 .cfa: $rsp 16 +
STACK CFI INIT aa795 1f .cfa: $rsp -128 + .ra: $rip
STACK CFI aa7a3 .cfa: $rsp 0 +
STACK CFI aa7a7 .cfa: $rsp 128 +
STACK CFI aa7af .cfa: $rsp -128 +
STACK CFI INIT aa7b4 1c .cfa: $rsp -128 + .ra: $rip
STACK CFI aa7c2 .cfa: $rsp 0 +
STACK CFI aa7c6 .cfa: $rsp 128 +
STACK CFI aa7ce .cfa: $rsp -128 +
STACK CFI INIT aa670 125 .cfa: $rsp 8 + .ra: .cfa -8 + ^
STACK CFI aa671 .cfa: $rsp 16 +
STACK CFI aa679 .cfa: $rsp 24 +
STACK CFI aa67c $rbp: .cfa -16 + ^ $rbx: .cfa -24 + ^
STACK CFI aa680 .cfa: $rsp 48 +
STACK CFI INIT aa8f5 1f .cfa: $rsp -128 + .ra: $rip
STACK CFI aa903 .cfa: $rsp 0 +
STACK CFI aa907 .cfa: $rsp 128 +
STACK CFI aa90f .cfa: $rsp -128 +
STACK CFI INIT aa914 1c .cfa: $rsp -128 + .ra: $rip
STACK CFI aa922 .cfa: $rsp 0 +
STACK CFI aa926 .cfa: $rsp 128 +
STACK CFI aa92e .cfa: $rsp -128 +
STACK CFI INIT aa7d0 125 .cfa: $rsp 8 + .ra: .cfa -8 + ^
STACK CFI aa7d1 .cfa: $rsp 16 +
STACK CFI aa7d9 .cfa: $rsp 24 +
STACK CFI aa7db $rbp: .cfa -16 + ^ $rbx: .cfa -24 + ^
STACK CFI aa7df .cfa: $rsp 48 +
STACK CFI INIT aab52 1f .cfa: $rsp -128 + .ra: $rip
STACK CFI aab60 .cfa: $rsp 0 +
STACK CFI aab64 .cfa: $rsp 128 +
STACK CFI aab6c .cfa: $rsp -128 +
STACK CFI INIT aab71 1f .cfa: $rsp -128 + .ra: $rip
STACK CFI aab7f .cfa: $rsp 0 +
STACK CFI aab83 .cfa: $rsp 128 +
STACK CFI aab8b .cfa: $rsp -128 +
STACK CFI INIT aab90 1f .cfa: $rsp -128 + .ra: $rip
STACK CFI aab9e .cfa: $rsp 0 +
STACK CFI aaba2 .cfa: $rsp 128 +
STACK CFI aabaa .cfa: $rsp -128 +
STACK CFI INIT aabaf 1f .cfa: $rsp -128 + .ra: $rip
STACK CFI aabbd .cfa: $rsp 0 +
STACK CFI aabc1 .cfa: $rsp 128 +
STACK CFI aabc9 .cfa: $rsp -128 +
STACK CFI INIT aabce 1f .cfa: $rsp -128 + .ra: $rip
STACK CFI aabdc .cfa: $rsp 0 +
STACK CFI aabe0 .cfa: $rsp 128 +
STACK CFI aabe8 .cfa: $rsp -128 +
STACK CFI INIT aabed 1f .cfa: $rsp -128 + .ra: $rip
STACK CFI aabfb .cfa: $rsp 0 +
STACK CFI aabff .cfa: $rsp 128 +
STACK CFI aac07 .cfa: $rsp -128 +
STACK CFI INIT aa930 d2 .cfa: $rsp 8 + .ra: .cfa -8 + ^
STACK CFI aa934 .cfa: $rsp 80 +
STACK CFI INIT aaa10 a0 .cfa: $rsp 8 + .ra: .cfa -8 + ^
STACK CFI aaa14 .cfa: $rsp 16 +
STACK CFI INIT aaab0 a2 .cfa: $rsp 8 + .ra: .cfa -8 + ^
STACK CFI aaab4 .cfa: $rsp 32 +
STACK CFI INIT aac10 25d .cfa: $rsp 8 + .ra: .cfa -8 + ^
STACK CFI aac12 .cfa: $rsp 16 +
STACK CFI aac15 $r15: .cfa -16 + ^
STACK CFI aac17 .cfa: $rsp 24 +
STACK CFI aac1a $r14: .cfa -24 + ^
STACK CFI aac1c .cfa: $rsp 32 +
STACK CFI aac1f $r13: .cfa -32 + ^
STACK CFI aac21 .cfa: $rsp 40 +
STACK CFI aac22 .cfa: $rsp 48 +
STACK CFI aac25 $r12: .cfa -40 + ^ $rbp: .cfa -48 + ^
STACK CFI aac26 .cfa: $rsp 56 +
STACK CFI aac2a .cfa: $rsp 112 +
STACK CFI aac3e $rbx: .cfa -56 + ^
STACK CFI INIT aae70 25d .cfa: $rsp 8 + .ra: .cfa -8 + ^
STACK CFI aae72 .cfa: $rsp 16 +
STACK CFI aae75 $r15: .cfa -16 + ^
STACK CFI aae77 .cfa: $rsp 24 +
STACK CFI aae7a $r14: .cfa -24 + ^
STACK CFI aae7c .cfa: $rsp 32 +
STACK CFI aae7f $r13: .cfa -32 + ^
STACK CFI aae81 .cfa: $rsp 40 +
STACK CFI aae82 .cfa: $rsp 48 +
STACK CFI aae85 $r12: .cfa -40 + ^ $rbp: .cfa -48 + ^
STACK CFI aae86 .cfa: $rsp 56 +
STACK CFI aae8a .cfa: $rsp 112 +
STACK CFI aae9e $rbx: .cfa -56 + ^
STACK CFI INIT ab606 1b .cfa: $rsp -128 + .ra: $rip
STACK CFI ab610 .cfa: $rsp 0 +
STACK CFI ab614 .cfa: $rsp 128 +
STACK CFI ab61c .cfa: $rsp -128 +
STACK CFI INIT ab621 1b .cfa: $rsp -128 + .ra: $rip
STACK CFI ab62b .cfa: $rsp 0 +
STACK CFI ab62f .cfa: $rsp 128 +
STACK CFI ab637 .cfa: $rsp -128 +
STACK CFI INIT ab63c 1b .cfa: $rsp -128 + .ra: $rip
STACK CFI ab646 .cfa: $rsp 0 +
STACK CFI ab64a .cfa: $rsp 128 +
STACK CFI ab652 .cfa: $rsp -128 +
STACK CFI INIT ab657 1b .cfa: $rsp -128 + .ra: $rip
STACK CFI ab661 .cfa: $rsp 0 +
STACK CFI ab665 .cfa: $rsp 128 +
STACK CFI ab66d .cfa: $rsp -128 +
STACK CFI INIT ab0d0 2d6 .cfa: $rsp 8 + .ra: .cfa -8 + ^
STACK CFI ab0d2 .cfa: $rsp 16 +
STACK CFI ab0d4 .cfa: $rsp 24 +
STACK CFI ab0d5 .cfa: $rsp 32 +
STACK CFI ab0d8 $r12: .cfa -24 + ^ $r13: .cfa -16 + ^ $rbp: .cfa -32 + ^
STACK CFI ab0de .cfa: $rsp 40 +
STACK CFI ab0e1 $rbx: .cfa -40 + ^
STACK CFI ab0e5 .cfa: $rsp 64 +
STACK CFI INIT ab3b0 256 .cfa: $rsp 8 + .ra: .cfa -8 + ^
STACK CFI ab3b2 .cfa: $rsp 16 +
STACK CFI ab3b4 .cfa: $rsp 24 +
STACK CFI ab3b7 $r14: .cfa -24 + ^ $r15: .cfa -16 + ^
STACK CFI ab3b9 .cfa: $rsp 32 +
STACK CFI ab3bb .cfa: $rsp 40 +
STACK CFI ab3bc .cfa: $rsp 48 +
STACK CFI ab3bf $r12: .cfa -40 + ^ $r13: .cfa -32 + ^ $rbp: .cfa -48 + ^
STACK CFI ab3c0 .cfa: $rsp 56 +
STACK CFI ab3c3 $rbx: .cfa -56 + ^
STACK CFI ab3c7 .cfa: $rsp 80 +
STACK CFI INIT ab680 25 .cfa: $rsp 8 + .ra: .cfa -8 + ^
STACK CFI INIT ab6b0 49 .cfa: $rsp 8 + .ra: .cfa -8 + ^
STACK CFI INIT ab700 93 .cfa: $rsp 8 + .ra: .cfa -8 + ^
STACK CFI ab704 .cfa: $rsp 32 +
STACK CFI INIT ab7a0 9d .cfa: $rsp 8 + .ra: .cfa -8 + ^
STACK CFI ab7a4 .cfa: $rsp 48 +
STACK CFI INIT ab840 12 .cfa: $rsp 8 + .ra: .cfa -8 + ^
STACK CFI INIT ab860 28 .cfa: $rsp 8 + .ra: .cfa -8 + ^
STACK CFI INIT ab890 a5 .cfa: $rsp 8 + .ra: .cfa -8 + ^
STACK CFI ab894 .cfa: $rsp 48 +
STACK CFI INIT ab940 25 .cfa: $rsp 8 + .ra: .cfa -8 + ^
STACK CFI INIT ab970 1d2 .cfa: $rsp 8 + .ra: .cfa -8 + ^
STACK CFI ab98b .cfa: $rsp 480 +
STACK CFI ab993 $r12: .cfa -24 + ^ $r13: .cfa -16 + ^ $rbp: .cfa -32 + ^ $rbx: .cfa -40 + ^
STACK CFI INIT abb50 5e .cfa: $rsp 8 + .ra: .cfa -8 + ^
STACK CFI abb6d .cfa: $rsp 16 +
STACK CFI abb90 .cfa: $rsp 8 +
STACK CFI INIT abbb0 5e .cfa: $rsp 8 + .ra: .cfa -8 + ^
STACK CFI abbcd .cfa: $rsp 16 +
STACK CFI abbf0 .cfa: $rsp 8 +
STACK CFI INIT abc10 2cd .cfa: $rsp 8 + .ra: .cfa -8 + ^
STACK CFI abc11 .cfa: $rsp 16 +
STACK CFI abc14 $rbp: .cfa -16 + ^ .cfa: $rbp 16 +
STACK CFI abc27 $r12: .cfa -40 + ^ $r13: .cfa -32 + ^ $r14: .cfa -24 + ^ $rbx: .cfa -48 + ^
STACK CFI INIT abee0 4f .cfa: $rsp 8 + .ra: .cfa -8 + ^
STACK CFI abee1 .cfa: $rsp 0 + .ra: $rdi
STACK CFI abf05 .cfa: $rsp 8 +
STACK CFI INIT abf30 50 .cfa: $rsp 8 + .ra: .cfa -8 + ^
STACK CFI INIT abf80 21 .cfa: $rsp 8 + .ra: .cfa -8 + ^
STACK CFI INIT abfb0 c3 .cfa: $rsp 8 + .ra: .cfa -8 + ^
STACK CFI abfbd $rbp: .cfa -24 + ^ $rbx: .cfa -32 + ^
STACK CFI abfc9 .cfa: $rsp 208 +
STACK CFI abfd1 $r12: .cfa -16 + ^
STACK CFI INIT ac080 f .cfa: $rsp 8 + .ra: .cfa -8 + ^
STACK CFI INIT ac090 1dc .cfa: $rsp 8 + .ra: .cfa -8 + ^
STACK CFI ac092 .cfa: $rsp 16 +
STACK CFI ac094 .cfa: $rsp 24 +
STACK CFI ac096 .cfa: $rsp 32 +
STACK CFI ac098 .cfa: $rsp 40 +
STACK CFI ac099 .cfa: $rsp 48 +
STACK CFI ac09a .cfa: $rsp 56 +
STACK CFI ac0a1 .cfa: $rsp 8352 +
STACK CFI ac0b1 $r12: .cfa -40 + ^ $r13: .cfa -32 + ^ $r14: .cfa -24 + ^ $r15: .cfa -16 + ^ $rbp: .cfa -48 + ^ $rbx: .cfa -56 + ^
STACK CFI INIT ac270 1b7 .cfa: $rsp 8 + .ra: .cfa -8 + ^
STACK CFI ac272 .cfa: $rsp 16 +
STACK CFI ac274 .cfa: $rsp 24 +
STACK CFI ac276 .cfa: $rsp 32 +
STACK CFI ac278 .cfa: $rsp 40 +
STACK CFI ac279 .cfa: $rsp 48 +
STACK CFI ac27a .cfa: $rsp 56 +
STACK CFI ac281 .cfa: $rsp 8352 +
STACK CFI ac2df $r12: .cfa -40 + ^ $r13: .cfa -32 + ^ $r14: .cfa -24 + ^ $r15: .cfa -16 + ^ $rbp: .cfa -48 + ^ $rbx: .cfa -56 + ^
STACK CFI INIT ac430 f .cfa: $rsp 8 + .ra: .cfa -8 + ^
STACK CFI INIT ac440 192 .cfa: $rsp 8 + .ra: .cfa -8 + ^
STACK CFI ac442 .cfa: $rsp 16 +
STACK CFI ac444 .cfa: $rsp 24 +
STACK CFI ac446 .cfa: $rsp 32 +
STACK CFI ac448 .cfa: $rsp 40 +
STACK CFI ac449 .cfa: $rsp 48 +
STACK CFI ac44a .cfa: $rsp 56 +
STACK CFI ac451 .cfa: $rsp 8352 +
STACK CFI ac4af $r12: .cfa -40 + ^ $r13: .cfa -32 + ^ $r14: .cfa -24 + ^ $r15: .cfa -16 + ^ $rbp: .cfa -48 + ^ $rbx: .cfa -56 + ^
STACK CFI INIT ac5e0 485 .cfa: $rsp 8 + .ra: .cfa -8 + ^
STACK CFI ac5e1 .cfa: $rsp 16 +
STACK CFI ac5e4 $rbp: .cfa -16 + ^ .cfa: $rbp 16 +
STACK CFI ac5ef $r12: .cfa -48 + ^ $rbx: .cfa -56 + ^
STACK CFI ac5fa $r13: .cfa -40 + ^ $r14: .cfa -32 + ^
STACK CFI ac60a $r15: .cfa -24 + ^
STACK CFI INIT aca70 38 .cfa: $rsp 8 + .ra: .cfa -8 + ^
STACK CFI INIT acab0 8 .cfa: $rsp 8 + .ra: .cfa -8 + ^
STACK CFI INIT acac0 8 .cfa: $rsp 8 + .ra: .cfa -8 + ^
STACK CFI INIT acad0 8 .cfa: $rsp 8 + .ra: .cfa -8 + ^
STACK CFI INIT acae0 8 .cfa: $rsp 8 + .ra: .cfa -8 + ^
STACK CFI INIT acaf0 8 .cfa: $rsp 8 + .ra: .cfa -8 + ^
STACK CFI INIT acb00 25 .cfa: $rsp 8 + .ra: .cfa -8 + ^
STACK CFI INIT acb30 5e .cfa: $rsp 8 + .ra: .cfa -8 + ^
STACK CFI acb34 .cfa: $rsp 64 +
STACK CFI INIT acb90 5e .cfa: $rsp 8 + .ra: .cfa -8 + ^
STACK CFI acb94 .cfa: $rsp 64 +
STACK CFI INIT acbf0 95 .cfa: $rsp 8 + .ra: .cfa -8 + ^
STACK CFI acbf1 .cfa: $rsp 16 +
STACK CFI acbf4 $rbp: .cfa -16 + ^ .cfa: $rbp 16 +
STACK CFI acbf9 $r13: .cfa -24 + ^
STACK CFI acc01 $r12: .cfa -32 + ^ $rbx: .cfa -40 + ^
STACK CFI INIT acc90 25 .cfa: $rsp 8 + .ra: .cfa -8 + ^
STACK CFI INIT accc0 25 .cfa: $rsp 8 + .ra: .cfa -8 + ^
STACK CFI INIT accf0 8 .cfa: $rsp 8 + .ra: .cfa -8 + ^
STACK CFI INIT acd00 5 .cfa: $rsp 8 + .ra: .cfa -8 + ^
STACK CFI INIT acd10 9 .cfa: $rsp 8 + .ra: .cfa -8 + ^
STACK CFI INIT acd20 25 .cfa: $rsp 8 + .ra: .cfa -8 + ^
STACK CFI INIT acd50 25 .cfa: $rsp 8 + .ra: .cfa -8 + ^
STACK CFI INIT acd80 25 .cfa: $rsp 8 + .ra: .cfa -8 + ^
STACK CFI INIT acdb0 25 .cfa: $rsp 8 + .ra: .cfa -8 + ^
STACK CFI INIT acde0 70 .cfa: $rsp 8 + .ra: .cfa -8 + ^
STACK CFI acde4 .cfa: $rsp 64 +
STACK CFI INIT ace50 70 .cfa: $rsp 8 + .ra: .cfa -8 + ^
STACK CFI ace54 .cfa: $rsp 64 +
STACK CFI INIT acec0 f6 .cfa: $rsp 8 + .ra: .cfa -8 + ^
STACK CFI INIT acfc0 115 .cfa: $rsp 8 + .ra: .cfa -8 + ^
STACK CFI INIT ad0e0 bd .cfa: $rsp 8 + .ra: .cfa -8 + ^
STACK CFI INIT ad1a0 bd .cfa: $rsp 8 + .ra: .cfa -8 + ^
STACK CFI ad1a1 .cfa: $rsp 16 +
STACK CFI ad1a2 .cfa: $rsp 24 +
STACK CFI ad1a6 .cfa: $rsp 48 +
STACK CFI ad1aa $rbp: .cfa -16 + ^ $rbx: .cfa -24 + ^
STACK CFI INIT ad260 20b .cfa: $rsp 8 + .ra: .cfa -8 + ^
STACK CFI ad271 .cfa: $rsp 544 +
STACK CFI ad27a $rbp: .cfa -16 + ^ $rbx: .cfa -24 + ^
STACK CFI INIT ad470 111 .cfa: $rsp 8 + .ra: .cfa -8 + ^
STACK CFI ad471 .cfa: $rsp 16 +
STACK CFI ad474 $rbp: .cfa -16 + ^ .cfa: $rbp 16 +
STACK CFI ad47f $r12: .cfa -48 + ^ $r13: .cfa -40 + ^
STACK CFI ad4a5 $r14: .cfa -32 + ^ $r15: .cfa -24 + ^ $rbx: .cfa -56 + ^
STACK CFI INIT ad590 405 .cfa: $rsp 8 + .ra: .cfa -8 + ^
STACK CFI ad597 $rbx: .cfa -32 + ^
STACK CFI ad5ab .cfa: $rsp 96 +
STACK CFI ad5b0 $r12: .cfa -16 + ^ $rbp: .cfa -24 + ^
STACK CFI INIT ad9a0 26f .cfa: $rsp 8 + .ra: .cfa -8 + ^
STACK CFI ad9ac $rbp: .cfa -24 + ^ $rbx: .cfa -32 + ^
STACK CFI ad9b8 .cfa: $rsp 544 +
STACK CFI ad9bf $r12: .cfa -16 + ^
STACK CFI INIT adc10 6e .cfa: $rsp 8 + .ra: .cfa -8 + ^
STACK CFI INIT adc80 7c .cfa: $rsp 8 + .ra: .cfa -8 + ^
STACK CFI INIT add00 f .cfa: $rsp 8 + .ra: .cfa -8 + ^
STACK CFI INIT add10 56 .cfa: $rsp 8 + .ra: .cfa -8 + ^
STACK CFI add11 .cfa: $rsp 16 +
STACK CFI add14 $rbp: .cfa -16 + ^
STACK CFI add15 .cfa: $rsp 24 +
STACK CFI add19 .cfa: $rsp 32 +
STACK CFI add22 $rbx: .cfa -24 + ^
STACK CFI INIT add70 a2 .cfa: $rsp 8 + .ra: .cfa -8 + ^
STACK CFI add71 .cfa: $rsp 16 +
STACK CFI add74 $rbp: .cfa -16 + ^ .cfa: $rbp 16 +
STACK CFI add7f $r12: .cfa -48 + ^ $rbx: .cfa -56 + ^
STACK CFI add91 $r13: .cfa -40 + ^ $r14: .cfa -32 + ^ $r15: .cfa -24 + ^
STACK CFI INIT ade20 110 .cfa: $rsp 8 + .ra: .cfa -8 + ^
STACK CFI ade22 .cfa: $rsp 16 +
STACK CFI ade25 $r15: .cfa -16 + ^
STACK CFI ade27 .cfa: $rsp 24 +
STACK CFI ade29 .cfa: $rsp 32 +
STACK CFI ade2b .cfa: $rsp 40 +
STACK CFI ade2c .cfa: $rsp 48 +
STACK CFI ade2f $r12: .cfa -40 + ^ $r13: .cfa -32 + ^ $r14: .cfa -24 + ^ $rbp: .cfa -48 + ^
STACK CFI ade30 .cfa: $rsp 56 +
STACK CFI ade34 .cfa: $rsp 80 +
STACK CFI ade38 $rbx: .cfa -56 + ^
STACK CFI INIT adf30 78e .cfa: $rsp 8 + .ra: .cfa -8 + ^
STACK CFI adf31 .cfa: $rsp 16 +
STACK CFI adf34 $rbp: .cfa -16 + ^ .cfa: $rbp 16 +
STACK CFI adf39 $r15: .cfa -24 + ^
STACK CFI adf43 $r12: .cfa -48 + ^ $r13: .cfa -40 + ^ $r14: .cfa -32 + ^ $rbx: .cfa -56 + ^
STACK CFI INIT ae6c0 144d .cfa: $rsp 8 + .ra: .cfa -8 + ^
STACK CFI ae6c1 .cfa: $rsp 16 +
STACK CFI ae6c4 $rbp: .cfa -16 + ^ .cfa: $rbp 16 +
STACK CFI ae6cd $r13: .cfa -40 + ^ $r14: .cfa -32 + ^ $r15: .cfa -24 + ^
STACK CFI ae6d2 $r12: .cfa -48 + ^
STACK CFI ae6d6 $rbx: .cfa -56 + ^
STACK CFI INIT afb10 2f .cfa: $rsp 8 + .ra: .cfa -8 + ^
STACK CFI INIT afb40 105 .cfa: $rsp 8 + .ra: .cfa -8 + ^
STACK CFI afb41 .cfa: $rsp 16 +
STACK CFI afb44 $rbp: .cfa -16 + ^
STACK CFI afb45 .cfa: $rsp 24 +
STACK CFI afb49 $rbx: .cfa -24 + ^
STACK CFI afb4d .cfa: $rsp 32 +
STACK CFI INIT afc50 105 .cfa: $rsp 8 + .ra: .cfa -8 + ^
STACK CFI afc51 .cfa: $rsp 16 +
STACK CFI afc54 $rbp: .cfa -16 + ^
STACK CFI afc55 .cfa: $rsp 24 +
STACK CFI afc59 $rbx: .cfa -24 + ^
STACK CFI afc5d .cfa: $rsp 32 +
STACK CFI INIT afd60 79f .cfa: $rsp 8 + .ra: .cfa -8 + ^
STACK CFI afd61 .cfa: $rsp 16 +
STACK CFI afd64 $rbp: .cfa -16 + ^ .cfa: $rbp 16 +
STACK CFI afd6d $r13: .cfa -40 + ^ $r14: .cfa -32 + ^ $r15: .cfa -24 + ^
STACK CFI afd99 $r12: .cfa -48 + ^ $rbx: .cfa -56 + ^
STACK CFI INIT b0500 1640 .cfa: $rsp 8 + .ra: .cfa -8 + ^
STACK CFI b0501 .cfa: $rsp 16 +
STACK CFI b0504 $rbp: .cfa -16 + ^ .cfa: $rbp 16 +
STACK CFI b0509 $r15: .cfa -24 + ^
STACK CFI b0515 $r12: .cfa -48 + ^ $r13: .cfa -40 + ^ $r14: .cfa -32 + ^
STACK CFI b05a0 $rbx: .cfa -56 + ^
STACK CFI INIT b1b40 76f .cfa: $rsp 8 + .ra: .cfa -8 + ^
STACK CFI b1b41 .cfa: $rsp 16 +
STACK CFI b1b44 $rbp: .cfa -16 + ^ .cfa: $rbp 16 +
STACK CFI b1b4d $r13: .cfa -40 + ^ $r14: .cfa -32 + ^ $r15: .cfa -24 + ^
STACK CFI b1b79 $r12: .cfa -48 + ^ $rbx: .cfa -56 + ^
STACK CFI INIT b22b0 17e4 .cfa: $rsp 8 + .ra: .cfa -8 + ^
STACK CFI b22b2 .cfa: $rsp 16 +
STACK CFI b22b5 $r15: .cfa -16 + ^
STACK CFI b22b7 .cfa: $rsp 24 +
STACK CFI b22b9 .cfa: $rsp 32 +
STACK CFI b22bc $r13: .cfa -32 + ^ $r14: .cfa -24 + ^
STACK CFI b22c1 .cfa: $rsp 40 +
STACK CFI b22c2 .cfa: $rsp 48 +
STACK CFI b22c5 $r12: .cfa -40 + ^ $rbp: .cfa -48 + ^
STACK CFI b22cc .cfa: $rsp 56 +
STACK CFI b22d3 .cfa: $rsp 2368 +
STACK CFI b22ef $rbx: .cfa -56 + ^
STACK CFI INIT b3aa0 369 .cfa: $rsp 8 + .ra: .cfa -8 + ^
STACK CFI b3aa1 .cfa: $rsp 16 +
STACK CFI b3aa4 $rbp: .cfa -16 + ^ .cfa: $rbp 16 +
STACK CFI b3aaf $r12: .cfa -48 + ^ $rbx: .cfa -56 + ^
STACK CFI b3ae1 $r13: .cfa -40 + ^ $r14: .cfa -32 + ^ $r15: .cfa -24 + ^
STACK CFI INIT b3e10 6e1 .cfa: $rsp 8 + .ra: .cfa -8 + ^
STACK CFI b3e1d $r12: .cfa -16 + ^ $rbp: .cfa -24 + ^
STACK CFI b3e26 .cfa: $rsp 128 +
STACK CFI b3e35 $rbx: .cfa -32 + ^
STACK CFI INIT b4500 e4 .cfa: $rsp 8 + .ra: .cfa -8 + ^
STACK CFI b4502 .cfa: $rsp 16 +
STACK CFI b4508 .cfa: $rsp 24 +
STACK CFI b450d .cfa: $rsp 32 +
STACK CFI b450f .cfa: $rsp 40 +
STACK CFI b4513 $r12: .cfa -40 + ^ $r13: .cfa -32 + ^ $r14: .cfa -24 + ^ $r15: .cfa -16 + ^
STACK CFI b4514 .cfa: $rsp 48 +
STACK CFI b4516 $rbp: .cfa -48 + ^
STACK CFI b451a .cfa: $rsp 56 +
STACK CFI b451e $rbx: .cfa -56 + ^
STACK CFI INIT b45f0 106d .cfa: $rsp 8 + .ra: .cfa -8 + ^
STACK CFI b45f2 .cfa: $rsp 16 +
STACK CFI b45f4 .cfa: $rsp 24 +
STACK CFI b45f6 .cfa: $rsp 32 +
STACK CFI b45f8 .cfa: $rsp 40 +
STACK CFI b45f9 .cfa: $rsp 48 +
STACK CFI b45fa .cfa: $rsp 56 +
STACK CFI b4601 .cfa: $rsp 192 +
STACK CFI b460b $r12: .cfa -40 + ^ $r13: .cfa -32 + ^ $r14: .cfa -24 + ^ $r15: .cfa -16 + ^ $rbp: .cfa -48 + ^ $rbx: .cfa -56 + ^
STACK CFI INIT b5660 69 .cfa: $rsp 8 + .ra: .cfa -8 + ^
STACK CFI b5661 .cfa: $rsp 16 +
STACK CFI b5665 .cfa: $rsp 32 +
STACK CFI b566c $rbx: .cfa -16 + ^
STACK CFI INIT b56d0 1d .cfa: $rsp 8 + .ra: .cfa -8 + ^
STACK CFI b56d4 .cfa: $rsp 32 +
STACK CFI INIT b56f0 1d .cfa: $rsp 8 + .ra: .cfa -8 + ^
STACK CFI b56f4 .cfa: $rsp 32 +
STACK CFI INIT b5710 20 .cfa: $rsp 8 + .ra: .cfa -8 + ^
STACK CFI b5714 .cfa: $rsp 32 +
STACK CFI INIT b5730 1d .cfa: $rsp 8 + .ra: .cfa -8 + ^
STACK CFI b5734 .cfa: $rsp 32 +
STACK CFI INIT b5750 1b .cfa: $rsp 8 + .ra: .cfa -8 + ^
STACK CFI b5754 .cfa: $rsp 32 +
STACK CFI INIT b5770 18 .cfa: $rsp 8 + .ra: .cfa -8 + ^
STACK CFI b5774 .cfa: $rsp 32 +
STACK CFI INIT b5790 25 .cfa: $rsp 8 + .ra: .cfa -8 + ^
STACK CFI INIT b57c0 25 .cfa: $rsp 8 + .ra: .cfa -8 + ^
STACK CFI INIT b57f0 25 .cfa: $rsp 8 + .ra: .cfa -8 + ^
STACK CFI INIT b5820 25 .cfa: $rsp 8 + .ra: .cfa -8 + ^
STACK CFI INIT b5850 25 .cfa: $rsp 8 + .ra: .cfa -8 + ^
STACK CFI INIT b5880 25 .cfa: $rsp 8 + .ra: .cfa -8 + ^
STACK CFI INIT b58b0 25 .cfa: $rsp 8 + .ra: .cfa -8 + ^
STACK CFI INIT b58e0 25 .cfa: $rsp 8 + .ra: .cfa -8 + ^
STACK CFI INIT b5910 5c .cfa: $rsp 8 + .ra: .cfa -8 + ^
STACK CFI b5917 .cfa: $rsp 16 +
STACK CFI INIT 1119c0 d .cfa: $rsp 8 + .ra: .cfa -8 + ^
STACK CFI INIT b5970 15e .cfa: $rsp 8 + .ra: .cfa -8 + ^
STACK CFI b5971 .cfa: $rsp 16 +
STACK CFI b5974 $rbp: .cfa -16 + ^ .cfa: $rbp 16 +
STACK CFI b597d $r13: .cfa -40 + ^ $r14: .cfa -32 + ^ $r15: .cfa -24 + ^
STACK CFI b5982 $r12: .cfa -48 + ^
STACK CFI b5986 $rbx: .cfa -56 + ^
STACK CFI INIT 1119d0 d .cfa: $rsp 8 + .ra: .cfa -8 + ^
STACK CFI INIT b5ad0 64 .cfa: $rsp 8 + .ra: .cfa -8 + ^
STACK CFI b5af0 .cfa: $rsp 16 +
STACK CFI b5b16 .cfa: $rsp 8 +
STACK CFI INIT b5b40 64 .cfa: $rsp 8 + .ra: .cfa -8 + ^
STACK CFI b5b60 .cfa: $rsp 16 +
STACK CFI b5b86 .cfa: $rsp 8 +
STACK CFI INIT b5bb0 12 .cfa: $rsp 8 + .ra: .cfa -8 + ^
STACK CFI INIT b5bd0 34 .cfa: $rsp 8 + .ra: .cfa -8 + ^
STACK CFI b5bd4 .cfa: $rsp 32 +
STACK CFI INIT b5c10 bd .cfa: $rsp 8 + .ra: .cfa -8 + ^
STACK CFI b5c17 .cfa: $rsp 16 +
STACK CFI b5c24 $rbx: .cfa -16 + ^
STACK CFI INIT b5cd0 25 .cfa: $rsp 8 + .ra: .cfa -8 + ^
STACK CFI INIT b5d00 37 .cfa: $rsp 8 + .ra: .cfa -8 + ^
STACK CFI b5d04 .cfa: $rsp 16 +
STACK CFI INIT b5d40 11 .cfa: $rsp 8 + .ra: .cfa -8 + ^
STACK CFI INIT b5d60 5 .cfa: $rsp 8 + .ra: .cfa -8 + ^
STACK CFI INIT b98f5 1f .cfa: $rsp -128 + .ra: $rip
STACK CFI b9903 .cfa: $rsp 0 +
STACK CFI b9907 .cfa: $rsp 128 +
STACK CFI b990f .cfa: $rsp -128 +
STACK CFI INIT b9914 1f .cfa: $rsp -128 + .ra: $rip
STACK CFI b9922 .cfa: $rsp 0 +
STACK CFI b9926 .cfa: $rsp 128 +
STACK CFI b992e .cfa: $rsp -128 +
STACK CFI INIT b5d70 c8 .cfa: $rsp 8 + .ra: .cfa -8 + ^
STACK CFI INIT b5e40 18 .cfa: $rsp 8 + .ra: .cfa -8 + ^
STACK CFI INIT b5e60 15 .cfa: $rsp 8 + .ra: .cfa -8 + ^
STACK CFI INIT 136450 6d .cfa: $rsp 8 + .ra: .cfa -8 + ^
STACK CFI 136454 .cfa: $rsp 16 +
STACK CFI INIT b5e80 34 .cfa: $rsp 8 + .ra: .cfa -8 + ^
STACK CFI b5e81 .cfa: $rsp 16 +
STACK CFI b5e82 .cfa: $rsp 24 +
STACK CFI b5e85 $rbp: .cfa -16 + ^ $rbx: .cfa -24 + ^
STACK CFI b5e89 .cfa: $rsp 32 +
STACK CFI INIT b5ec0 1e .cfa: $rsp 8 + .ra: .cfa -8 + ^
STACK CFI INIT b5ee0 c0 .cfa: $rsp 8 + .ra: .cfa -8 + ^
STACK CFI b5ee1 .cfa: $rsp 16 +
STACK CFI b5eec $rbx: .cfa -16 + ^
STACK CFI INIT b5fa0 e4 .cfa: $rsp 8 + .ra: .cfa -8 + ^
STACK CFI b5fa1 .cfa: $rsp 16 +
STACK CFI b5fa4 $rbp: .cfa -16 + ^ .cfa: $rbp 16 +
STACK CFI b5faa $r15: .cfa -24 + ^
STACK CFI b5fb3 $r14: .cfa -32 + ^
STACK CFI b5fb8 $r13: .cfa -40 + ^
STACK CFI b5fc1 $r12: .cfa -48 + ^
STACK CFI b5fc7 $rbx: .cfa -56 + ^
STACK CFI INIT b6090 1bfc .cfa: $rsp 8 + .ra: .cfa -8 + ^
STACK CFI b6091 .cfa: $rsp 16 +
STACK CFI b6094 $rbp: .cfa -16 + ^ .cfa: $rbp 16 +
STACK CFI b609d $r15: .cfa -24 + ^
STACK CFI b60a4 $r13: .cfa -40 + ^ $r14: .cfa -32 + ^
STACK CFI b60a9 $r12: .cfa -48 + ^
STACK CFI b60b4 $rbx: .cfa -56 + ^
STACK CFI INIT b7c90 615 .cfa: $rsp 8 + .ra: .cfa -8 + ^
STACK CFI b7c9d $rbp: .cfa -48 + ^ $rbx: .cfa -56 + ^
STACK CFI b7cb5 .cfa: $rsp 112 +
STACK CFI b7cb8 $r12: .cfa -40 + ^ $r13: .cfa -32 + ^ $r14: .cfa -24 + ^ $r15: .cfa -16 + ^
STACK CFI INIT b82b0 d1b .cfa: $rsp 8 + .ra: .cfa -8 + ^
STACK CFI b82b2 .cfa: $rsp 16 +
STACK CFI b82c2 .cfa: $rsp 24 +
STACK CFI b82c4 .cfa: $rsp 32 +
STACK CFI b82c6 .cfa: $rsp 40 +
STACK CFI b82c7 .cfa: $rsp 48 +
STACK CFI b82c8 .cfa: $rsp 56 +
STACK CFI b82cf .cfa: $rsp 416 +
STACK CFI b830f $r12: .cfa -40 + ^ $r13: .cfa -32 + ^ $r14: .cfa -24 + ^ $r15: .cfa -16 + ^ $rbp: .cfa -48 + ^ $rbx: .cfa -56 + ^
STACK CFI INIT b8fd0 925 .cfa: $rsp 8 + .ra: .cfa -8 + ^
STACK CFI b8fd1 .cfa: $rsp 16 +
STACK CFI b8fd9 $rbp: .cfa -16 + ^ .cfa: $rbp 16 +
STACK CFI b8fe4 $r12: .cfa -48 + ^ $rbx: .cfa -56 + ^
STACK CFI b9000 $r13: .cfa -40 + ^ $r14: .cfa -32 + ^ $r15: .cfa -24 + ^
STACK CFI INIT b9940 58 .cfa: $rsp 8 + .ra: .cfa -8 + ^
STACK CFI INIT c921f 1f .cfa: $rsp -128 + .ra: $rip
STACK CFI c922d .cfa: $rsp 0 +
STACK CFI c9231 .cfa: $rsp 128 +
STACK CFI c9239 .cfa: $rsp -128 +
STACK CFI INIT c923e 1f .cfa: $rsp -128 + .ra: $rip
STACK CFI c924c .cfa: $rsp 0 +
STACK CFI c9250 .cfa: $rsp 128 +
STACK CFI c9258 .cfa: $rsp -128 +
STACK CFI INIT c925d 1f .cfa: $rsp -128 + .ra: $rip
STACK CFI c926b .cfa: $rsp 0 +
STACK CFI c926f .cfa: $rsp 128 +
STACK CFI c9277 .cfa: $rsp -128 +
STACK CFI INIT c927c 1f .cfa: $rsp -128 + .ra: $rip
STACK CFI c928a .cfa: $rsp 0 +
STACK CFI c928e .cfa: $rsp 128 +
STACK CFI c9296 .cfa: $rsp -128 +
STACK CFI INIT b99a0 5c .cfa: $rsp 8 + .ra: .cfa -8 + ^
STACK CFI INIT b9a00 e .cfa: $rsp 8 + .ra: .cfa -8 + ^
STACK CFI INIT b9a10 91 .cfa: $rsp 8 + .ra: .cfa -8 + ^
STACK CFI INIT b9ab0 63 .cfa: $rsp 8 + .ra: .cfa -8 + ^
STACK CFI INIT b9b20 141 .cfa: $rsp 8 + .ra: .cfa -8 + ^
STACK CFI INIT b9c70 1c .cfa: $rsp 8 + .ra: .cfa -8 + ^
STACK CFI INIT b9c90 38 .cfa: $rsp 8 + .ra: .cfa -8 + ^
STACK CFI INIT b9cd0 213 .cfa: $rsp 8 + .ra: .cfa -8 + ^
STACK CFI b9cd2 .cfa: $rsp 16 +
STACK CFI b9cd7 .cfa: $rsp 24 +
STACK CFI b9cd9 .cfa: $rsp 32 +
STACK CFI b9cdb .cfa: $rsp 40 +
STACK CFI b9cde $r12: .cfa -40 + ^ $r13: .cfa -32 + ^ $r14: .cfa -24 + ^ $r15: .cfa -16 + ^
STACK CFI b9ce3 .cfa: $rsp 48 +
STACK CFI b9ce4 .cfa: $rsp 56 +
STACK CFI b9ce8 .cfa: $rsp 144 +
STACK CFI b9d0f $rbp: .cfa -48 + ^ $rbx: .cfa -56 + ^
STACK CFI INIT b9ef0 78 .cfa: $rsp 8 + .ra: .cfa -8 + ^
STACK CFI INIT b9f70 1c7 .cfa: $rsp 8 + .ra: .cfa -8 + ^
STACK CFI b9f7d $rbp: .cfa -48 + ^ $rbx: .cfa -56 + ^
STACK CFI b9f8a $r13: .cfa -32 + ^ $r15: .cfa -16 + ^
STACK CFI b9f9a .cfa: $rsp 112 +
STACK CFI b9fad $r12: .cfa -40 + ^ $r14: .cfa -24 + ^
STACK CFI INIT ba140 2ad .cfa: $rsp 8 + .ra: .cfa -8 + ^
STACK CFI ba142 .cfa: $rsp 16 +
STACK CFI ba143 .cfa: $rsp 24 +
STACK CFI ba146 $r12: .cfa -16 + ^ $rbp: .cfa -24 + ^
STACK CFI ba147 .cfa: $rsp 32 +
STACK CFI ba14a $rbx: .cfa -32 + ^
STACK CFI ba14e .cfa: $rsp 48 +
STACK CFI INIT ba3f0 5f .cfa: $rsp 8 + .ra: .cfa -8 + ^
STACK CFI ba3f2 .cfa: $rsp 16 +
STACK CFI ba3f5 $r12: .cfa -16 + ^
STACK CFI ba3f6 .cfa: $rsp 24 +
STACK CFI ba3f9 $rbp: .cfa -24 + ^
STACK CFI ba3fa .cfa: $rsp 32 +
STACK CFI ba3fd $rbx: .cfa -32 + ^
STACK CFI INIT ba450 53 .cfa: $rsp 8 + .ra: .cfa -8 + ^
STACK CFI ba452 .cfa: $rsp 16 +
STACK CFI ba455 $r12: .cfa -16 + ^
STACK CFI ba456 .cfa: $rsp 24 +
STACK CFI ba459 $rbp: .cfa -24 + ^
STACK CFI ba45a .cfa: $rsp 32 +
STACK CFI ba45d $rbx: .cfa -32 + ^
STACK CFI INIT ba4b0 2c .cfa: $rsp 8 + .ra: .cfa -8 + ^
STACK CFI ba4b1 .cfa: $rsp 16 +
STACK CFI ba4b9 $rbx: .cfa -16 + ^
STACK CFI INIT ba4e0 57 .cfa: $rsp 8 + .ra: .cfa -8 + ^
STACK CFI ba4ed $rbp: .cfa -16 + ^ $rbx: .cfa -24 + ^
STACK CFI ba4f1 .cfa: $rsp 32 +
STACK CFI INIT ba540 fc .cfa: $rsp 8 + .ra: .cfa -8 + ^
STACK CFI ba541 .cfa: $rsp 16 +
STACK CFI ba544 $rbx: .cfa -16 + ^
STACK CFI ba548 .cfa: $rsp 48 +
STACK CFI INIT ba640 a4 .cfa: $rsp 8 + .ra: .cfa -8 + ^
STACK CFI ba642 .cfa: $rsp 16 +
STACK CFI ba645 $r13: .cfa -16 + ^
STACK CFI ba647 .cfa: $rsp 24 +
STACK CFI ba648 .cfa: $rsp 32 +
STACK CFI ba649 .cfa: $rsp 40 +
STACK CFI ba64c $r12: .cfa -24 + ^ $rbp: .cfa -32 + ^ $rbx: .cfa -40 + ^
STACK CFI ba650 .cfa: $rsp 64 +
STACK CFI INIT ba6f0 15 .cfa: $rsp 8 + .ra: .cfa -8 + ^
STACK CFI ba6f4 .cfa: $rsp 32 +
STACK CFI INIT ba710 1ba .cfa: $rsp 8 + .ra: .cfa -8 + ^
STACK CFI ba71d $rbp: .cfa -48 + ^ $rbx: .cfa -56 + ^
STACK CFI ba735 .cfa: $rsp 80 +
STACK CFI ba741 $r12: .cfa -40 + ^ $r13: .cfa -32 + ^ $r14: .cfa -24 + ^ $r15: .cfa -16 + ^
STACK CFI INIT ba8d0 8b .cfa: $rsp 8 + .ra: .cfa -8 + ^
STACK CFI ba8de .cfa: $rsp 48 +
STACK CFI ba8e5 $rbp: .cfa -16 + ^ $rbx: .cfa -24 + ^
STACK CFI INIT ba960 59 .cfa: $rsp 8 + .ra: .cfa -8 + ^
STACK CFI ba961 .cfa: $rsp 16 +
STACK CFI ba964 $rbx: .cfa -16 + ^
STACK CFI INIT ba9c0 e5 .cfa: $rsp 8 + .ra: .cfa -8 + ^
STACK CFI ba9c2 .cfa: $rsp 16 +
STACK CFI ba9c4 .cfa: $rsp 24 +
STACK CFI ba9c6 .cfa: $rsp 32 +
STACK CFI ba9c8 .cfa: $rsp 40 +
STACK CFI ba9c9 .cfa: $rsp 48 +
STACK CFI ba9ca .cfa: $rsp 56 +
STACK CFI ba9ce .cfa: $rsp 80 +
STACK CFI ba9d5 $r12: .cfa -40 + ^ $r13: .cfa -32 + ^ $r14: .cfa -24 + ^ $r15: .cfa -16 + ^ $rbp: .cfa -48 + ^ $rbx: .cfa -56 + ^
STACK CFI INIT baab0 5a .cfa: $rsp 8 + .ra: .cfa -8 + ^
STACK CFI baab2 .cfa: $rsp 16 +
STACK CFI baab6 .cfa: $rsp 24 +
STACK CFI baab9 $r12: .cfa -16 + ^ $rbp: .cfa -24 + ^
STACK CFI baaba .cfa: $rsp 32 +
STACK CFI baabc $rbx: .cfa -32 + ^
STACK CFI INIT bab10 35 .cfa: $rsp 8 + .ra: .cfa -8 + ^
STACK CFI bab11 .cfa: $rsp 16 +
STACK CFI bab14 $rbx: .cfa -16 + ^
STACK CFI INIT bab50 42 .cfa: $rsp 8 + .ra: .cfa -8 + ^
STACK CFI bab51 .cfa: $rsp 16 +
STACK CFI bab54 $rbx: .cfa -16 + ^
STACK CFI INIT baba0 25 .cfa: $rsp 8 + .ra: .cfa -8 + ^
STACK CFI INIT babd0 14 .cfa: $rsp 8 + .ra: .cfa -8 + ^
STACK CFI babd8 .cfa: $rsp 16 +
STACK CFI INIT babf0 5a .cfa: $rsp 8 + .ra: .cfa -8 + ^
STACK CFI babf1 .cfa: $rsp 16 +
STACK CFI babf2 .cfa: $rsp 24 +
STACK CFI babf6 .cfa: $rsp 32 +
STACK CFI babf9 $rbp: .cfa -16 + ^ $rbx: .cfa -24 + ^
STACK CFI INIT bac50 18c .cfa: $rsp 8 + .ra: .cfa -8 + ^
STACK CFI bac52 .cfa: $rsp 16 +
STACK CFI bac54 .cfa: $rsp 24 +
STACK CFI bac56 .cfa: $rsp 32 +
STACK CFI bac59 $r13: .cfa -32 + ^ $r14: .cfa -24 + ^ $r15: .cfa -16 + ^
STACK CFI bac5b .cfa: $rsp 40 +
STACK CFI bac5c .cfa: $rsp 48 +
STACK CFI bac5d .cfa: $rsp 56 +
STACK CFI bac61 .cfa: $rsp 64 +
STACK CFI bac69 $r12: .cfa -40 + ^ $rbp: .cfa -48 + ^ $rbx: .cfa -56 + ^
STACK CFI INIT bade0 44 .cfa: $rsp 8 + .ra: .cfa -8 + ^
STACK CFI bade1 .cfa: $rsp 16 +
STACK CFI bade4 $rbx: .cfa -16 + ^
STACK CFI INIT 1364c0 c .cfa: $rsp 8 + .ra: .cfa -8 + ^
STACK CFI INIT bae30 ad .cfa: $rsp 8 + .ra: .cfa -8 + ^
STACK CFI bae3d $r12: .cfa -16 + ^ $rbx: .cfa -32 + ^
STACK CFI bae46 .cfa: $rsp 32 +
STACK CFI bae48 $rbp: .cfa -24 + ^
STACK CFI INIT baee0 231 .cfa: $rsp 8 + .ra: .cfa -8 + ^
STACK CFI baef3 .cfa: $rsp 32 +
STACK CFI baefa $r12: .cfa -16 + ^ $rbp: .cfa -24 + ^ $rbx: .cfa -32 + ^
STACK CFI INIT bb120 a2 .cfa: $rsp 8 + .ra: .cfa -8 + ^
STACK CFI bb12d $rbp: .cfa -24 + ^ $rbx: .cfa -32 + ^
STACK CFI bb136 .cfa: $rsp 32 +
STACK CFI bb13e $r12: .cfa -16 + ^
STACK CFI INIT bb1d0 6c .cfa: $rsp 8 + .ra: .cfa -8 + ^
STACK CFI bb1de .cfa: $rsp 32 +
STACK CFI bb1e6 $rbp: .cfa -16 + ^ $rbx: .cfa -24 + ^
STACK CFI INIT bb240 f7 .cfa: $rsp 8 + .ra: .cfa -8 + ^
STACK CFI bb242 .cfa: $rsp 16 +
STACK CFI bb245 $r15: .cfa -16 + ^
STACK CFI bb247 .cfa: $rsp 24 +
STACK CFI bb24b $r14: .cfa -24 + ^
STACK CFI bb24d .cfa: $rsp 32 +
STACK CFI bb24f .cfa: $rsp 40 +
STACK CFI bb250 .cfa: $rsp 48 +
STACK CFI bb253 $r12: .cfa -40 + ^ $r13: .cfa -32 + ^ $rbp: .cfa -48 + ^
STACK CFI bb257 .cfa: $rsp 56 +
STACK CFI bb25a $rbx: .cfa -56 + ^
STACK CFI bb25e .cfa: $rsp 80 +
STACK CFI INIT bb340 1c0 .cfa: $rsp 8 + .ra: .cfa -8 + ^
STACK CFI bb342 .cfa: $rsp 16 +
STACK CFI bb346 .cfa: $rsp 24 +
STACK CFI bb349 $r12: .cfa -16 + ^ $rbp: .cfa -24 + ^
STACK CFI bb34a .cfa: $rsp 32 +
STACK CFI bb34d $rbx: .cfa -32 + ^
STACK CFI INIT bb500 14b .cfa: $rsp 8 + .ra: .cfa -8 + ^
STACK CFI bb50e .cfa: $rsp 32 +
STACK CFI bb513 $rbp: .cfa -16 + ^ $rbx: .cfa -24 + ^
STACK CFI INIT bb650 d4 .cfa: $rsp 8 + .ra: .cfa -8 + ^
STACK CFI bb652 .cfa: $rsp 16 +
STACK CFI bb655 $r15: .cfa -16 + ^
STACK CFI bb657 .cfa: $rsp 24 +
STACK CFI bb65a $r14: .cfa -24 + ^
STACK CFI bb65c .cfa: $rsp 32 +
STACK CFI bb65f $r13: .cfa -32 + ^
STACK CFI bb661 .cfa: $rsp 40 +
STACK CFI bb664 $r12: .cfa -40 + ^
STACK CFI bb665 .cfa: $rsp 48 +
STACK CFI bb668 $rbp: .cfa -48 + ^
STACK CFI bb669 .cfa: $rsp 56 +
STACK CFI bb66d .cfa: $rsp 64 +
STACK CFI bb66f $rbx: .cfa -56 + ^
STACK CFI INIT bb730 128 .cfa: $rsp 8 + .ra: .cfa -8 + ^
STACK CFI bb732 .cfa: $rsp 16 +
STACK CFI bb735 $r15: .cfa -16 + ^
STACK CFI bb737 .cfa: $rsp 24 +
STACK CFI bb739 .cfa: $rsp 32 +
STACK CFI bb73b .cfa: $rsp 40 +
STACK CFI bb73e $r12: .cfa -40 + ^ $r13: .cfa -32 + ^ $r14: .cfa -24 + ^
STACK CFI bb73f .cfa: $rsp 48 +
STACK CFI bb741 $rbp: .cfa -48 + ^
STACK CFI bb742 .cfa: $rsp 56 +
STACK CFI bb744 $rbx: .cfa -56 + ^
STACK CFI bb748 .cfa: $rsp 96 +
STACK CFI INIT bb860 223 .cfa: $rsp 8 + .ra: .cfa -8 + ^
STACK CFI bb862 .cfa: $rsp 16 +
STACK CFI bb864 .cfa: $rsp 24 +
STACK CFI bb866 .cfa: $rsp 32 +
STACK CFI bb868 .cfa: $rsp 40 +
STACK CFI bb869 .cfa: $rsp 48 +
STACK CFI bb86c $r12: .cfa -40 + ^ $r13: .cfa -32 + ^ $r14: .cfa -24 + ^ $r15: .cfa -16 + ^ $rbp: .cfa -48 + ^
STACK CFI bb86d .cfa: $rsp 56 +
STACK CFI bb870 $rbx: .cfa -56 + ^
STACK CFI bb874 .cfa: $rsp 80 +
STACK CFI INIT bba90 79 .cfa: $rsp 8 + .ra: .cfa -8 + ^
STACK CFI bba91 .cfa: $rsp 16 +
STACK CFI bba94 $rbp: .cfa -16 + ^
STACK CFI bba95 .cfa: $rsp 24 +
STACK CFI bba98 $rbx: .cfa -24 + ^
STACK CFI bba9c .cfa: $rsp 32 +
STACK CFI INIT bbb10 1f4 .cfa: $rsp 8 + .ra: .cfa -8 + ^
STACK CFI bbb1d $r12: .cfa -40 + ^ $r13: .cfa -32 + ^
STACK CFI bbb2a $r14: .cfa -24 + ^ $rbx: .cfa -56 + ^
STACK CFI bbb38 .cfa: $rsp 64 +
STACK CFI bbb44 $r15: .cfa -16 + ^ $rbp: .cfa -48 + ^
STACK CFI INIT bbd10 230 .cfa: $rsp 8 + .ra: .cfa -8 + ^
STACK CFI bbd12 .cfa: $rsp 16 +
STACK CFI bbd14 .cfa: $rsp 24 +
STACK CFI bbd16 .cfa: $rsp 32 +
STACK CFI bbd19 $r13: .cfa -32 + ^ $r14: .cfa -24 + ^ $r15: .cfa -16 + ^
STACK CFI bbd1f .cfa: $rsp 40 +
STACK CFI bbd22 $r12: .cfa -40 + ^
STACK CFI bbd23 .cfa: $rsp 48 +
STACK CFI bbd26 $rbp: .cfa -48 + ^
STACK CFI bbd27 .cfa: $rsp 56 +
STACK CFI bbd2a $rbx: .cfa -56 + ^
STACK CFI bbd2e .cfa: $rsp 128 +
STACK CFI INIT bbf40 1d1 .cfa: $rsp 8 + .ra: .cfa -8 + ^
STACK CFI bbf4d $rbp: .cfa -48 + ^ $rbx: .cfa -56 + ^
STACK CFI bbf65 .cfa: $rsp 96 +
STACK CFI bbf80 $r12: .cfa -40 + ^ $r13: .cfa -32 + ^ $r14: .cfa -24 + ^ $r15: .cfa -16 + ^
STACK CFI INIT bc120 b9 .cfa: $rsp 8 + .ra: .cfa -8 + ^
STACK CFI bc12d $rbp: .cfa -32 + ^ $rbx: .cfa -40 + ^
STACK CFI bc13b .cfa: $rsp 48 +
STACK CFI bc145 $r12: .cfa -24 + ^ $r13: .cfa -16 + ^
STACK CFI INIT bc1e0 2d1 .cfa: $rsp 8 + .ra: .cfa -8 + ^
STACK CFI bc1e2 .cfa: $rsp 16 +
STACK CFI bc1e4 .cfa: $rsp 24 +
STACK CFI bc1e7 $r14: .cfa -24 + ^ $r15: .cfa -16 + ^
STACK CFI bc1e9 .cfa: $rsp 32 +
STACK CFI bc1eb .cfa: $rsp 40 +
STACK CFI bc1ee $r12: .cfa -40 + ^ $r13: .cfa -32 + ^
STACK CFI bc1ef .cfa: $rsp 48 +
STACK CFI bc1f2 $rbp: .cfa -48 + ^
STACK CFI bc1f3 .cfa: $rsp 56 +
STACK CFI bc1f7 .cfa: $rsp 96 +
STACK CFI bc207 $rbx: .cfa -56 + ^
STACK CFI INIT bc4c0 230 .cfa: $rsp 8 + .ra: .cfa -8 + ^
STACK CFI bc4c2 .cfa: $rsp 16 +
STACK CFI bc4c4 .cfa: $rsp 24 +
STACK CFI bc4c6 .cfa: $rsp 32 +
STACK CFI bc4c8 .cfa: $rsp 40 +
STACK CFI bc4c9 .cfa: $rsp 48 +
STACK CFI bc4cc $r12: .cfa -40 + ^ $r13: .cfa -32 + ^ $r14: .cfa -24 + ^ $r15: .cfa -16 + ^ $rbp: .cfa -48 + ^
STACK CFI bc4d1 .cfa: $rsp 56 +
STACK CFI bc4d4 $rbx: .cfa -56 + ^
STACK CFI bc4d8 .cfa: $rsp 128 +
STACK CFI INIT bc6f0 9c .cfa: $rsp 8 + .ra: .cfa -8 + ^
STACK CFI bc6f1 .cfa: $rsp 16 +
STACK CFI bc6f4 $rbp: .cfa -16 + ^
STACK CFI bc6f5 .cfa: $rsp 24 +
STACK CFI bc6f8 $rbx: .cfa -24 + ^
STACK CFI bc6fc .cfa: $rsp 32 +
STACK CFI INIT bc790 1db .cfa: $rsp 8 + .ra: .cfa -8 + ^
STACK CFI bc792 .cfa: $rsp 16 +
STACK CFI bc794 .cfa: $rsp 24 +
STACK CFI bc796 .cfa: $rsp 32 +
STACK CFI bc798 .cfa: $rsp 40 +
STACK CFI bc799 .cfa: $rsp 48 +
STACK CFI bc79c $r12: .cfa -40 + ^ $r13: .cfa -32 + ^ $r14: .cfa -24 + ^ $r15: .cfa -16 + ^ $rbp: .cfa -48 + ^
STACK CFI bc79d .cfa: $rsp 56 +
STACK CFI bc7a1 .cfa: $rsp 112 +
STACK CFI bc7ab $rbx: .cfa -56 + ^
STACK CFI INIT bc970 cd .cfa: $rsp 8 + .ra: .cfa -8 + ^
STACK CFI bc971 .cfa: $rsp 16 +
STACK CFI bc972 .cfa: $rsp 24 +
STACK CFI bc975 $rbp: .cfa -16 + ^ $rbx: .cfa -24 + ^
STACK CFI bc979 .cfa: $rsp 32 +
STACK CFI INIT bca40 118 .cfa: $rsp 8 + .ra: .cfa -8 + ^
STACK CFI bca4a .cfa: $rsp 16 +
STACK CFI bca5b $rbx: .cfa -16 + ^
STACK CFI INIT bcb60 b2 .cfa: $rsp 8 + .ra: .cfa -8 + ^
STACK CFI bcb61 .cfa: $rsp 16 +
STACK CFI bcb64 $rbp: .cfa -16 + ^
STACK CFI bcb67 .cfa: $rsp 24 +
STACK CFI bcb6a $rbx: .cfa -24 + ^
STACK CFI bcb6e .cfa: $rsp 32 +
STACK CFI INIT bcc20 70f .cfa: $rsp 8 + .ra: .cfa -8 + ^
STACK CFI bcc2d $rbp: .cfa -40 + ^ $rbx: .cfa -48 + ^
STACK CFI bcc43 .cfa: $rsp 80 +
STACK CFI bcc4f $r12: .cfa -32 + ^ $r13: .cfa -24 + ^ $r14: .cfa -16 + ^
STACK CFI INIT bd330 2e .cfa: $rsp 8 + .ra: .cfa -8 + ^
STACK CFI bd33e .cfa: $rsp 32 +
STACK CFI bd341 $rbp: .cfa -16 + ^ $rbx: .cfa -24 + ^
STACK CFI INIT bd360 9b .cfa: $rsp 8 + .ra: .cfa -8 + ^
STACK CFI bd362 .cfa: $rsp 16 +
STACK CFI bd368 $r14: .cfa -16 + ^
STACK CFI bd36a .cfa: $rsp 24 +
STACK CFI bd36d $r13: .cfa -24 + ^
STACK CFI bd36f .cfa: $rsp 32 +
STACK CFI bd372 $r12: .cfa -32 + ^
STACK CFI bd373 .cfa: $rsp 40 +
STACK CFI bd378 $rbp: .cfa -40 + ^
STACK CFI bd379 .cfa: $rsp 48 +
STACK CFI bd37c $rbx: .cfa -48 + ^
STACK CFI INIT bd400 66c .cfa: $rsp 8 + .ra: .cfa -8 + ^
STACK CFI bd402 .cfa: $rsp 16 +
STACK CFI bd404 .cfa: $rsp 24 +
STACK CFI bd406 .cfa: $rsp 32 +
STACK CFI bd408 .cfa: $rsp 40 +
STACK CFI bd409 .cfa: $rsp 48 +
STACK CFI bd40a .cfa: $rsp 56 +
STACK CFI bd40d $r12: .cfa -40 + ^ $r13: .cfa -32 + ^ $r14: .cfa -24 + ^ $r15: .cfa -16 + ^ $rbp: .cfa -48 + ^ $rbx: .cfa -56 + ^
STACK CFI bd411 .cfa: $rsp 176 +
STACK CFI INIT bda70 ec .cfa: $rsp 8 + .ra: .cfa -8 + ^
STACK CFI INIT bdb60 700 .cfa: $rsp 8 + .ra: .cfa -8 + ^
STACK CFI bdb6c $rbp: .cfa -48 + ^ $rbx: .cfa -56 + ^
STACK CFI bdb87 .cfa: $rsp 128 +
STACK CFI bdb8d $r12: .cfa -40 + ^ $r13: .cfa -32 + ^ $r14: .cfa -24 + ^ $r15: .cfa -16 + ^
STACK CFI INIT be260 112 .cfa: $rsp 8 + .ra: .cfa -8 + ^
STACK CFI be261 .cfa: $rsp 16 +
STACK CFI be262 .cfa: $rsp 24 +
STACK CFI be265 $rbp: .cfa -16 + ^ $rbx: .cfa -24 + ^
STACK CFI be269 .cfa: $rsp 32 +
STACK CFI INIT be380 9a .cfa: $rsp 8 + .ra: .cfa -8 + ^
STACK CFI be38d $rbp: .cfa -24 + ^ $rbx: .cfa -32 + ^
STACK CFI be396 .cfa: $rsp 32 +
STACK CFI be3a2 $r12: .cfa -16 + ^
STACK CFI INIT be420 38d .cfa: $rsp 8 + .ra: .cfa -8 + ^
STACK CFI be422 .cfa: $rsp 16 +
STACK CFI be425 $r15: .cfa -16 + ^
STACK CFI be427 .cfa: $rsp 24 +
STACK CFI be429 .cfa: $rsp 32 +
STACK CFI be42b .cfa: $rsp 40 +
STACK CFI be42e $r12: .cfa -40 + ^ $r13: .cfa -32 + ^ $r14: .cfa -24 + ^
STACK CFI be42f .cfa: $rsp 48 +
STACK CFI be430 .cfa: $rsp 56 +
STACK CFI be433 $rbp: .cfa -48 + ^ $rbx: .cfa -56 + ^
STACK CFI be437 .cfa: $rsp 112 +
STACK CFI INIT be7b0 15d .cfa: $rsp 8 + .ra: .cfa -8 + ^
STACK CFI be7b2 .cfa: $rsp 16 +
STACK CFI be7b4 .cfa: $rsp 24 +
STACK CFI be7b6 .cfa: $rsp 32 +
STACK CFI be7b8 .cfa: $rsp 40 +
STACK CFI be7b9 .cfa: $rsp 48 +
STACK CFI be7bc $r12: .cfa -40 + ^ $r13: .cfa -32 + ^ $r14: .cfa -24 + ^ $r15: .cfa -16 + ^ $rbp: .cfa -48 + ^
STACK CFI be7bd .cfa: $rsp 56 +
STACK CFI be7c0 $rbx: .cfa -56 + ^
STACK CFI be7c4 .cfa: $rsp 96 +
STACK CFI INIT be910 253 .cfa: $rsp 8 + .ra: .cfa -8 + ^
STACK CFI be912 .cfa: $rsp 16 +
STACK CFI be914 .cfa: $rsp 24 +
STACK CFI be917 $r14: .cfa -24 + ^ $r15: .cfa -16 + ^
STACK CFI be919 .cfa: $rsp 32 +
STACK CFI be91b .cfa: $rsp 40 +
STACK CFI be91e $r12: .cfa -40 + ^ $r13: .cfa -32 + ^
STACK CFI be91f .cfa: $rsp 48 +
STACK CFI be922 $rbp: .cfa -48 + ^
STACK CFI be923 .cfa: $rsp 56 +
STACK CFI be927 .cfa: $rsp 64 +
STACK CFI be935 $rbx: .cfa -56 + ^
STACK CFI INIT beb70 259 .cfa: $rsp 8 + .ra: .cfa -8 + ^
STACK CFI beb72 .cfa: $rsp 16 +
STACK CFI beb74 .cfa: $rsp 24 +
STACK CFI beb76 .cfa: $rsp 32 +
STACK CFI beb78 .cfa: $rsp 40 +
STACK CFI beb7b $r12: .cfa -40 + ^ $r13: .cfa -32 + ^ $r14: .cfa -24 + ^ $r15: .cfa -16 + ^
STACK CFI beb7c .cfa: $rsp 48 +
STACK CFI beb7e $rbp: .cfa -48 + ^
STACK CFI beb7f .cfa: $rsp 56 +
STACK CFI beb82 $rbx: .cfa -56 + ^
STACK CFI beb88 .cfa: $rsp 160 +
STACK CFI INIT bedd0 d1 .cfa: $rsp 8 + .ra: .cfa -8 + ^
STACK CFI bedd2 .cfa: $rsp 16 +
STACK CFI bedd5 $r15: .cfa -16 + ^
STACK CFI bedd7 .cfa: $rsp 24 +
STACK CFI bedd9 .cfa: $rsp 32 +
STACK CFI beddb .cfa: $rsp 40 +
STACK CFI beddc .cfa: $rsp 48 +
STACK CFI beddf $r12: .cfa -40 + ^ $r13: .cfa -32 + ^ $r14: .cfa -24 + ^ $rbp: .cfa -48 + ^
STACK CFI bede0 .cfa: $rsp 56 +
STACK CFI bede3 $rbx: .cfa -56 + ^
STACK CFI bede7 .cfa: $rsp 112 +
STACK CFI INIT beeb0 b3d .cfa: $rsp 8 + .ra: .cfa -8 + ^
STACK CFI beeb2 .cfa: $rsp 16 +
STACK CFI beebb .cfa: $rsp 24 +
STACK CFI beebd .cfa: $rsp 32 +
STACK CFI beebf .cfa: $rsp 40 +
STACK CFI beec2 $r12: .cfa -40 + ^ $r13: .cfa -32 + ^ $r14: .cfa -24 + ^ $r15: .cfa -16 + ^
STACK CFI beec3 .cfa: $rsp 48 +
STACK CFI beec4 .cfa: $rsp 56 +
STACK CFI beec7 $rbp: .cfa -48 + ^ $rbx: .cfa -56 + ^
STACK CFI beecb .cfa: $rsp 160 +
STACK CFI INIT bf9f0 775 .cfa: $rsp 8 + .ra: .cfa -8 + ^
STACK CFI bf9f2 .cfa: $rsp 16 +
STACK CFI bf9f4 .cfa: $rsp 24 +
STACK CFI bf9f6 .cfa: $rsp 32 +
STACK CFI bf9f8 .cfa: $rsp 40 +
STACK CFI bf9f9 .cfa: $rsp 48 +
STACK CFI bf9fb $r12: .cfa -40 + ^ $r13: .cfa -32 + ^ $r14: .cfa -24 + ^ $r15: .cfa -16 + ^ $rbp: .cfa -48 + ^
STACK CFI bf9fc .cfa: $rsp 56 +
STACK CFI bf9fe $rbx: .cfa -56 + ^
STACK CFI bfa05 .cfa: $rsp 240 +
STACK CFI INIT c0170 215 .cfa: $rsp 8 + .ra: .cfa -8 + ^
STACK CFI c017d $rbp: .cfa -48 + ^ $rbx: .cfa -56 + ^
STACK CFI c018a $r12: .cfa -40 + ^ $r13: .cfa -32 + ^
STACK CFI c0198 .cfa: $rsp 96 +
STACK CFI c019b $r14: .cfa -24 + ^ $r15: .cfa -16 + ^
STACK CFI INIT c0390 7ec .cfa: $rsp 8 + .ra: .cfa -8 + ^
STACK CFI c0392 .cfa: $rsp 16 +
STACK CFI c0394 .cfa: $rsp 24 +
STACK CFI c0396 .cfa: $rsp 32 +
STACK CFI c0398 .cfa: $rsp 40 +
STACK CFI c039b $r12: .cfa -40 + ^ $r13: .cfa -32 + ^ $r14: .cfa -24 + ^ $r15: .cfa -16 + ^
STACK CFI c039c .cfa: $rsp 48 +
STACK CFI c039d .cfa: $rsp 56 +
STACK CFI c03a4 .cfa: $rsp 288 +
STACK CFI c03c9 $rbp: .cfa -48 + ^ $rbx: .cfa -56 + ^
STACK CFI INIT c0b80 1dd .cfa: $rsp 8 + .ra: .cfa -8 + ^
STACK CFI c0b8d $r13: .cfa -32 + ^ $rbx: .cfa -56 + ^
STACK CFI c0ba8 .cfa: $rsp 96 +
STACK CFI c0bab $r12: .cfa -40 + ^ $r14: .cfa -24 + ^ $r15: .cfa -16 + ^ $rbp: .cfa -48 + ^
STACK CFI INIT c0d60 35d .cfa: $rsp 8 + .ra: .cfa -8 + ^
STACK CFI c0d62 .cfa: $rsp 16 +
STACK CFI c0d64 .cfa: $rsp 24 +
STACK CFI c0d66 .cfa: $rsp 32 +
STACK CFI c0d68 .cfa: $rsp 40 +
STACK CFI c0d69 .cfa: $rsp 48 +
STACK CFI c0d6a .cfa: $rsp 56 +
STACK CFI c0d71 .cfa: $rsp 192 +
STACK CFI c0d92 $r12: .cfa -40 + ^ $r13: .cfa -32 + ^ $r14: .cfa -24 + ^ $r15: .cfa -16 + ^ $rbp: .cfa -48 + ^ $rbx: .cfa -56 + ^
STACK CFI INIT c10c0 835 .cfa: $rsp 8 + .ra: .cfa -8 + ^
STACK CFI c10c2 .cfa: $rsp 16 +
STACK CFI c10c7 .cfa: $rsp 24 +
STACK CFI c10c9 .cfa: $rsp 32 +
STACK CFI c10cb .cfa: $rsp 40 +
STACK CFI c10ce $r12: .cfa -40 + ^ $r13: .cfa -32 + ^ $r14: .cfa -24 + ^ $r15: .cfa -16 + ^
STACK CFI c10cf .cfa: $rsp 48 +
STACK CFI c10d0 .cfa: $rsp 56 +
STACK CFI c10d3 $rbp: .cfa -48 + ^ $rbx: .cfa -56 + ^
STACK CFI c10da .cfa: $rsp 240 +
STACK CFI INIT c1900 da8 .cfa: $rsp 8 + .ra: .cfa -8 + ^
STACK CFI c1901 .cfa: $rsp 16 +
STACK CFI c1904 $rbp: .cfa -16 + ^ .cfa: $rbp 16 +
STACK CFI c190d $r13: .cfa -40 + ^ $r14: .cfa -32 + ^ $r15: .cfa -24 + ^
STACK CFI c1923 $r12: .cfa -48 + ^ $rbx: .cfa -56 + ^
STACK CFI INIT c26b0 834 .cfa: $rsp 8 + .ra: .cfa -8 + ^
STACK CFI c26b1 .cfa: $rsp 16 +
STACK CFI c26b7 $rbp: .cfa -16 + ^ .cfa: $rbp 16 +
STACK CFI c26c3 $r12: .cfa -48 + ^ $r13: .cfa -40 + ^ $r14: .cfa -32 + ^ $r15: .cfa -24 + ^ $rbx: .cfa -56 + ^
STACK CFI INIT c2ef0 1592 .cfa: $rsp 8 + .ra: .cfa -8 + ^
STACK CFI c2ef2 .cfa: $rsp 16 +
STACK CFI c2ef4 .cfa: $rsp 24 +
STACK CFI c2ef6 .cfa: $rsp 32 +
STACK CFI c2ef8 .cfa: $rsp 40 +
STACK CFI c2efb $r12: .cfa -40 + ^ $r13: .cfa -32 + ^ $r14: .cfa -24 + ^ $r15: .cfa -16 + ^
STACK CFI c2efc .cfa: $rsp 48 +
STACK CFI c2efd .cfa: $rsp 56 +
STACK CFI c2eff $rbp: .cfa -48 + ^ $rbx: .cfa -56 + ^
STACK CFI c2f0b .cfa: $rsp 528 +
STACK CFI INIT c4490 133 .cfa: $rsp 8 + .ra: .cfa -8 + ^
STACK CFI c449d $r12: .cfa -32 + ^ $rbx: .cfa -48 + ^
STACK CFI c44aa $r13: .cfa -24 + ^ $r14: .cfa -16 + ^
STACK CFI c44b3 .cfa: $rsp 96 +
STACK CFI c44c3 $rbp: .cfa -40 + ^
STACK CFI INIT c45d0 27 .cfa: $rsp 8 + .ra: .cfa -8 + ^
STACK CFI c45de .cfa: $rsp 16 +
STACK CFI INIT 1119e0 9 .cfa: $rsp 8 + .ra: .cfa -8 + ^
STACK CFI INIT c4600 c8e .cfa: $rsp 8 + .ra: .cfa -8 + ^
STACK CFI c4602 .cfa: $rsp 16 +
STACK CFI c4604 .cfa: $rsp 24 +
STACK CFI c4607 $r14: .cfa -24 + ^ $r15: .cfa -16 + ^
STACK CFI c4609 .cfa: $rsp 32 +
STACK CFI c460c $r13: .cfa -32 + ^
STACK CFI c460e .cfa: $rsp 40 +
STACK CFI c4611 $r12: .cfa -40 + ^
STACK CFI c4612 .cfa: $rsp 48 +
STACK CFI c4615 $rbp: .cfa -48 + ^
STACK CFI c4616 .cfa: $rsp 56 +
STACK CFI c4619 $rbx: .cfa -56 + ^
STACK CFI c461d .cfa: $rsp 64 +
STACK CFI INIT c5290 1cc .cfa: $rsp 8 + .ra: .cfa -8 + ^
STACK CFI c5292 .cfa: $rsp 16 +
STACK CFI c5295 $r15: .cfa -16 + ^
STACK CFI c5297 .cfa: $rsp 24 +
STACK CFI c529a $r14: .cfa -24 + ^
STACK CFI c529c .cfa: $rsp 32 +
STACK CFI c529e .cfa: $rsp 40 +
STACK CFI c52a1 $r12: .cfa -40 + ^ $r13: .cfa -32 + ^
STACK CFI c52a7 .cfa: $rsp 48 +
STACK CFI c52aa $rbp: .cfa -48 + ^
STACK CFI c52ab .cfa: $rsp 56 +
STACK CFI c52af .cfa: $rsp 128 +
STACK CFI c52c6 $rbx: .cfa -56 + ^
STACK CFI INIT c5460 a6 .cfa: $rsp 8 + .ra: .cfa -8 + ^
STACK CFI c546d $r12: .cfa -24 + ^ $rbx: .cfa -40 + ^
STACK CFI c547b .cfa: $rsp 48 +
STACK CFI c5483 $r13: .cfa -16 + ^ $rbp: .cfa -32 + ^
STACK CFI INIT c5510 6cd .cfa: $rsp 8 + .ra: .cfa -8 + ^
STACK CFI c5511 .cfa: $rsp 16 +
STACK CFI c5514 $rbp: .cfa -16 + ^ .cfa: $rbp 16 +
STACK CFI c551b $r14: .cfa -32 + ^ $r15: .cfa -24 + ^
STACK CFI c5522 $r12: .cfa -48 + ^ $r13: .cfa -40 + ^
STACK CFI c5525 $rbx: .cfa -56 + ^
STACK CFI INIT c5be0 122 .cfa: $rsp 8 + .ra: .cfa -8 + ^
STACK CFI c5be2 .cfa: $rsp 16 +
STACK CFI c5be8 .cfa: $rsp 24 +
STACK CFI c5be9 .cfa: $rsp 32 +
STACK CFI c5bed $r12: .cfa -16 + ^ $rbp: .cfa -24 + ^ $rbx: .cfa -32 + ^
STACK CFI INIT c5d10 495 .cfa: $rsp 8 + .ra: .cfa -8 + ^
STACK CFI c5d12 .cfa: $rsp 16 +
STACK CFI c5d14 .cfa: $rsp 24 +
STACK CFI c5d17 $r14: .cfa -24 + ^ $r15: .cfa -16 + ^
STACK CFI c5d19 .cfa: $rsp 32 +
STACK CFI c5d1c $r13: .cfa -32 + ^
STACK CFI c5d1e .cfa: $rsp 40 +
STACK CFI c5d1f .cfa: $rsp 48 +
STACK CFI c5d20 .cfa: $rsp 56 +
STACK CFI c5d24 .cfa: $rsp 160 +
STACK CFI c5d36 $r12: .cfa -40 + ^ $rbp: .cfa -48 + ^ $rbx: .cfa -56 + ^
STACK CFI INIT c61b0 112 .cfa: $rsp 8 + .ra: .cfa -8 + ^
STACK CFI c61bd $r13: .cfa -24 + ^ $rbp: .cfa -40 + ^
STACK CFI c61ca $r14: .cfa -16 + ^ $rbx: .cfa -48 + ^
STACK CFI c61d3 .cfa: $rsp 96 +
STACK CFI c61e7 $r12: .cfa -32 + ^
STACK CFI INIT c62d0 2f .cfa: $rsp 8 + .ra: .cfa -8 + ^
STACK CFI c62d4 .cfa: $rsp 48 +
STACK CFI INIT c6300 2f .cfa: $rsp 8 + .ra: .cfa -8 + ^
STACK CFI c6304 .cfa: $rsp 48 +
STACK CFI INIT c6330 1d .cfa: $rsp 8 + .ra: .cfa -8 + ^
STACK CFI c6334 .cfa: $rsp 32 +
STACK CFI INIT c6350 20 .cfa: $rsp 8 + .ra: .cfa -8 + ^
STACK CFI c6354 .cfa: $rsp 32 +
STACK CFI INIT c6370 1daf .cfa: $rsp 8 + .ra: .cfa -8 + ^
STACK CFI c6372 .cfa: $rsp 16 +
STACK CFI c6378 $r15: .cfa -16 + ^
STACK CFI c637d .cfa: $rsp 24 +
STACK CFI c6380 $r14: .cfa -24 + ^
STACK CFI c6389 .cfa: $rsp 32 +
STACK CFI c6390 $r13: .cfa -32 + ^
STACK CFI c6392 .cfa: $rsp 40 +
STACK CFI c6395 $r12: .cfa -40 + ^
STACK CFI c6396 .cfa: $rsp 48 +
STACK CFI c6399 $rbp: .cfa -48 + ^
STACK CFI c639a .cfa: $rsp 56 +
STACK CFI c63a1 .cfa: $rsp 448 +
STACK CFI c63bc $rbx: .cfa -56 + ^
STACK CFI INIT c8120 145 .cfa: $rsp 8 + .ra: .cfa -8 + ^
STACK CFI c8122 .cfa: $rsp 16 +
STACK CFI c8125 $r15: .cfa -16 + ^
STACK CFI c8127 .cfa: $rsp 24 +
STACK CFI c8129 .cfa: $rsp 32 +
STACK CFI c812c $r13: .cfa -32 + ^ $r14: .cfa -24 + ^
STACK CFI c812e .cfa: $rsp 40 +
STACK CFI c812f .cfa: $rsp 48 +
STACK CFI c8132 $r12: .cfa -40 + ^ $rbp: .cfa -48 + ^
STACK CFI c8133 .cfa: $rsp 56 +
STACK CFI c8136 $rbx: .cfa -56 + ^
STACK CFI c813a .cfa: $rsp 96 +
STACK CFI INIT c8270 fd .cfa: $rsp 8 + .ra: .cfa -8 + ^
STACK CFI c8272 .cfa: $rsp 16 +
STACK CFI c8274 .cfa: $rsp 24 +
STACK CFI c8276 .cfa: $rsp 32 +
STACK CFI c8279 $r13: .cfa -32 + ^ $r14: .cfa -24 + ^ $r15: .cfa -16 + ^
STACK CFI c827b .cfa: $rsp 40 +
STACK CFI c827e $r12: .cfa -40 + ^
STACK CFI c827f .cfa: $rsp 48 +
STACK CFI c8280 .cfa: $rsp 56 +
STACK CFI c8283 $rbp: .cfa -48 + ^ $rbx: .cfa -56 + ^
STACK CFI c8287 .cfa: $rsp 96 +
STACK CFI INIT c8370 bad .cfa: $rsp 8 + .ra: .cfa -8 + ^
STACK CFI c8372 .cfa: $rsp 16 +
STACK CFI c8375 $r15: .cfa -16 + ^
STACK CFI c8377 .cfa: $rsp 24 +
STACK CFI c8379 .cfa: $rsp 32 +
STACK CFI c837b .cfa: $rsp 40 +
STACK CFI c837e $r12: .cfa -40 + ^ $r13: .cfa -32 + ^ $r14: .cfa -24 + ^
STACK CFI c837f .cfa: $rsp 48 +
STACK CFI c8382 $rbp: .cfa -48 + ^
STACK CFI c8383 .cfa: $rsp 56 +
STACK CFI c838a .cfa: $rsp 256 +
STACK CFI c83b1 $rbx: .cfa -56 + ^
STACK CFI INIT c8f20 138 .cfa: $rsp 8 + .ra: .cfa -8 + ^
STACK CFI c8f2d $rbp: .cfa -24 + ^ $rbx: .cfa -32 + ^
STACK CFI c8f36 .cfa: $rsp 32 +
STACK CFI c8f3f $r12: .cfa -16 + ^
STACK CFI INIT c9060 79 .cfa: $rsp 8 + .ra: .cfa -8 + ^
STACK CFI c9064 .cfa: $rsp 16 +
STACK CFI INIT c90e0 13f .cfa: $rsp 8 + .ra: .cfa -8 + ^
STACK CFI c9102 .cfa: $rsp 48 +
STACK CFI c9108 $r12: .cfa -32 + ^ $r13: .cfa -24 + ^ $r14: .cfa -16 + ^ $rbp: .cfa -40 + ^ $rbx: .cfa -48 + ^
STACK CFI INIT c92a0 b .cfa: $rsp 8 + .ra: .cfa -8 + ^
STACK CFI INIT c92b0 4a .cfa: $rsp 8 + .ra: .cfa -8 + ^
STACK CFI c92be .cfa: $rsp 32 +
STACK CFI c92c0 $rbp: .cfa -16 + ^ $rbx: .cfa -24 + ^
STACK CFI INIT c9300 14 .cfa: $rsp 8 + .ra: .cfa -8 + ^
STACK CFI c9304 .cfa: $rsp 16 +
STACK CFI INIT c9320 88 .cfa: $rsp 8 + .ra: .cfa -8 + ^
STACK CFI c932d $rbp: .cfa -16 + ^ $rbx: .cfa -24 + ^
STACK CFI c9331 .cfa: $rsp 32 +
STACK CFI INIT c93b0 b8 .cfa: $rsp 8 + .ra: .cfa -8 + ^
STACK CFI c93bd $rbp: .cfa -40 + ^ $rbx: .cfa -48 + ^
STACK CFI c93d7 .cfa: $rsp 48 +
STACK CFI c93da $r12: .cfa -32 + ^ $r13: .cfa -24 + ^ $r14: .cfa -16 + ^
STACK CFI INIT c9470 98 .cfa: $rsp 8 + .ra: .cfa -8 + ^
STACK CFI c947d $rbp: .cfa -24 + ^ $rbx: .cfa -32 + ^
STACK CFI c948b .cfa: $rsp 32 +
STACK CFI c948e $r12: .cfa -16 + ^
STACK CFI INIT c9510 b .cfa: $rsp 8 + .ra: .cfa -8 + ^
STACK CFI INIT c9520 3 .cfa: $rsp 8 + .ra: .cfa -8 + ^
STACK CFI INIT c9530 86 .cfa: $rsp 8 + .ra: .cfa -8 + ^
STACK CFI INIT c95c0 86 .cfa: $rsp 8 + .ra: .cfa -8 + ^
STACK CFI INIT c9650 9 .cfa: $rsp 8 + .ra: .cfa -8 + ^
STACK CFI INIT c9660 13 .cfa: $rsp 8 + .ra: .cfa -8 + ^
STACK CFI INIT c9680 8 .cfa: $rsp 8 + .ra: .cfa -8 + ^
STACK CFI INIT c9690 6 .cfa: $rsp 8 + .ra: .cfa -8 + ^
STACK CFI INIT c96a0 15 .cfa: $rsp 8 + .ra: .cfa -8 + ^
STACK CFI c96a4 .cfa: $rsp 32 +
STACK CFI INIT c96c0 15 .cfa: $rsp 8 + .ra: .cfa -8 + ^
STACK CFI c96c4 .cfa: $rsp 32 +
STACK CFI INIT c96e0 84 .cfa: $rsp 8 + .ra: .cfa -8 + ^
STACK CFI c96e1 .cfa: $rsp 16 +
STACK CFI c96e9 $rbp: .cfa -16 + ^ .cfa: $rbp 16 +
STACK CFI c96ff $rbx: .cfa -24 + ^
STACK CFI INIT c9770 59a .cfa: $rsp 8 + .ra: .cfa -8 + ^
STACK CFI c9771 .cfa: $rsp 16 +
STACK CFI c9779 $rbp: .cfa -16 + ^ .cfa: $rbp 16 +
STACK CFI c97c2 $r12: .cfa -48 + ^ $r13: .cfa -40 + ^ $r14: .cfa -32 + ^ $r15: .cfa -24 + ^ $rbx: .cfa -56 + ^
STACK CFI INIT c9d10 8c .cfa: $rsp 8 + .ra: .cfa -8 + ^
STACK CFI INIT c9da0 b .cfa: $rsp 8 + .ra: .cfa -8 + ^
STACK CFI INIT c9db0 b .cfa: $rsp 8 + .ra: .cfa -8 + ^
STACK CFI INIT c9dc0 8c .cfa: $rsp 8 + .ra: .cfa -8 + ^
STACK CFI INIT c9e50 14 .cfa: $rsp 8 + .ra: .cfa -8 + ^
STACK CFI INIT c9e70 b .cfa: $rsp 8 + .ra: .cfa -8 + ^
STACK CFI INIT c9e80 d9 .cfa: $rsp 8 + .ra: .cfa -8 + ^
STACK CFI c9e81 .cfa: $rsp 16 +
STACK CFI c9e89 .cfa: $rsp 24 +
STACK CFI c9e90 .cfa: $rsp 1328 +
STACK CFI c9e93 $rbp: .cfa -16 + ^ $rbx: .cfa -24 + ^
STACK CFI INIT c9f60 39 .cfa: $rsp 8 + .ra: .cfa -8 + ^
STACK CFI c9f6b .cfa: $rsp 16 +
STACK CFI INIT ca409 1f .cfa: $rsp -128 + .ra: $rip
STACK CFI ca417 .cfa: $rsp 0 +
STACK CFI ca41b .cfa: $rsp 128 +
STACK CFI ca423 .cfa: $rsp -128 +
STACK CFI INIT ca428 1f .cfa: $rsp -128 + .ra: $rip
STACK CFI ca436 .cfa: $rsp 0 +
STACK CFI ca43a .cfa: $rsp 128 +
STACK CFI ca442 .cfa: $rsp -128 +
STACK CFI INIT c9fa0 1b5 .cfa: $rsp 8 + .ra: .cfa -8 + ^
STACK CFI c9fc0 .cfa: $rsp 1344 +
STACK CFI c9fc3 $r12: .cfa -24 + ^ $r13: .cfa -16 + ^ $rbp: .cfa -32 + ^ $rbx: .cfa -40 + ^
STACK CFI INIT ca160 255 .cfa: $rsp 8 + .ra: .cfa -8 + ^
STACK CFI ca161 .cfa: $rsp 16 +
STACK CFI ca166 $rbp: .cfa -16 + ^ .cfa: $rbp 16 +
STACK CFI ca16d $r12: .cfa -48 + ^
STACK CFI ca17f $r14: .cfa -32 + ^ $rbx: .cfa -56 + ^
STACK CFI ca190 $r13: .cfa -40 + ^ $r15: .cfa -24 + ^
STACK CFI INIT ca3c0 49 .cfa: $rsp 8 + .ra: .cfa -8 + ^
STACK CFI ca3ce .cfa: $rsp 32 +
STACK CFI ca3d1 $rbp: .cfa -16 + ^ $rbx: .cfa -24 + ^
STACK CFI INIT ca450 5c .cfa: $rsp 8 + .ra: .cfa -8 + ^
STACK CFI ca451 .cfa: $rsp 16 +
STACK CFI ca454 $rbp: .cfa -16 + ^
STACK CFI ca455 .cfa: $rsp 24 +
STACK CFI ca459 .cfa: $rsp 32 +
STACK CFI ca45e $rbx: .cfa -24 + ^
STACK CFI INIT ca4b0 b3 .cfa: $rsp 8 + .ra: .cfa -8 + ^
STACK CFI ca4bd $rbp: .cfa -24 + ^ $rbx: .cfa -32 + ^
STACK CFI ca4c6 .cfa: $rsp 48 +
STACK CFI ca4d2 $r12: .cfa -16 + ^
STACK CFI INIT ca570 63 .cfa: $rsp 8 + .ra: .cfa -8 + ^
STACK CFI ca571 .cfa: $rsp 16 +
STACK CFI ca574 $rbx: .cfa -16 + ^
STACK CFI ca578 .cfa: $rsp 32 +
STACK CFI INIT ca5e0 ee .cfa: $rsp 8 + .ra: .cfa -8 + ^
STACK CFI ca5ed $rbp: .cfa -40 + ^ $rbx: .cfa -48 + ^
STACK CFI ca5fa $r12: .cfa -32 + ^ $r13: .cfa -24 + ^
STACK CFI ca603 .cfa: $rsp 48 +
STACK CFI ca60f $r14: .cfa -16 + ^
STACK CFI INIT ca6d0 c2 .cfa: $rsp 8 + .ra: .cfa -8 + ^
STACK CFI ca6dd $rbp: .cfa -24 + ^ $rbx: .cfa -32 + ^
STACK CFI ca6e6 .cfa: $rsp 32 +
STACK CFI ca6e9 $r12: .cfa -16 + ^
STACK CFI INIT ca7a0 e9 .cfa: $rsp 8 + .ra: .cfa -8 + ^
STACK CFI ca7ad $rbp: .cfa -40 + ^ $rbx: .cfa -48 + ^
STACK CFI ca7ba $r12: .cfa -32 + ^ $r13: .cfa -24 + ^
STACK CFI ca7c3 .cfa: $rsp 48 +
STACK CFI ca7d8 $r14: .cfa -16 + ^
STACK CFI INIT ca890 7a2 .cfa: $rsp 8 + .ra: .cfa -8 + ^
STACK CFI ca892 .cfa: $rsp 16 +
STACK CFI ca895 $r15: .cfa -16 + ^
STACK CFI ca897 .cfa: $rsp 24 +
STACK CFI ca899 .cfa: $rsp 32 +
STACK CFI ca89b .cfa: $rsp 40 +
STACK CFI ca89c .cfa: $rsp 48 +
STACK CFI ca89d .cfa: $rsp 56 +
STACK CFI ca8a0 $r12: .cfa -40 + ^ $r13: .cfa -32 + ^ $r14: .cfa -24 + ^ $rbp: .cfa -48 + ^ $rbx: .cfa -56 + ^
STACK CFI ca8a7 .cfa: $rsp 448 +
STACK CFI INIT cb040 1a7 .cfa: $rsp 8 + .ra: .cfa -8 + ^
STACK CFI cb042 .cfa: $rsp 16 +
STACK CFI cb044 .cfa: $rsp 24 +
STACK CFI cb046 .cfa: $rsp 32 +
STACK CFI cb048 .cfa: $rsp 40 +
STACK CFI cb049 .cfa: $rsp 48 +
STACK CFI cb04c $r12: .cfa -40 + ^ $r13: .cfa -32 + ^ $r14: .cfa -24 + ^ $r15: .cfa -16 + ^ $rbp: .cfa -48 + ^
STACK CFI cb04d .cfa: $rsp 56 +
STACK CFI cb050 $rbx: .cfa -56 + ^
STACK CFI cb054 .cfa: $rsp 160 +
STACK CFI INIT cb1f0 12e .cfa: $rsp 8 + .ra: .cfa -8 + ^
STACK CFI cb1f2 .cfa: $rsp 16 +
STACK CFI cb1f5 $r12: .cfa -16 + ^
STACK CFI cb1f6 .cfa: $rsp 24 +
STACK CFI cb1f9 $rbp: .cfa -24 + ^
STACK CFI cb1fa .cfa: $rsp 32 +
STACK CFI cb1fd $rbx: .cfa -32 + ^
STACK CFI INIT cb320 10f .cfa: $rsp 8 + .ra: .cfa -8 + ^
STACK CFI cb322 .cfa: $rsp 16 +
STACK CFI cb323 .cfa: $rsp 24 +
STACK CFI cb326 $r12: .cfa -16 + ^ $rbp: .cfa -24 + ^
STACK CFI cb327 .cfa: $rsp 32 +
STACK CFI cb32a $rbx: .cfa -32 + ^
STACK CFI cb32e .cfa: $rsp 48 +
STACK CFI INIT cb430 10b .cfa: $rsp 8 + .ra: .cfa -8 + ^
STACK CFI cb432 .cfa: $rsp 16 +
STACK CFI cb433 .cfa: $rsp 24 +
STACK CFI cb434 .cfa: $rsp 32 +
STACK CFI cb437 $r12: .cfa -16 + ^ $rbp: .cfa -24 + ^ $rbx: .cfa -32 + ^
STACK CFI cb43b .cfa: $rsp 64 +
STACK CFI INIT cb540 7c .cfa: $rsp 8 + .ra: .cfa -8 + ^
STACK CFI cb54d $rbp: .cfa -32 + ^ $rbx: .cfa -40 + ^
STACK CFI cb55b .cfa: $rsp 48 +
STACK CFI cb564 $r12: .cfa -24 + ^ $r13: .cfa -16 + ^
STACK CFI INIT cb5c0 3ea .cfa: $rsp 8 + .ra: .cfa -8 + ^
STACK CFI cb5c1 .cfa: $rsp 16 +
STACK CFI cb5c4 $rbp: .cfa -16 + ^ .cfa: $rbp 16 +
STACK CFI cb5f2 $r12: .cfa -48 + ^ $r13: .cfa -40 + ^ $r14: .cfa -32 + ^ $r15: .cfa -24 + ^ $rbx: .cfa -56 + ^
STACK CFI INIT cb9b0 17e6 .cfa: $rsp 8 + .ra: .cfa -8 + ^
STACK CFI cb9b2 .cfa: $rsp 16 +
STACK CFI cb9b4 .cfa: $rsp 24 +
STACK CFI cb9b6 .cfa: $rsp 32 +
STACK CFI cb9b8 .cfa: $rsp 40 +
STACK CFI cb9bb $r12: .cfa -40 + ^ $r13: .cfa -32 + ^ $r14: .cfa -24 + ^ $r15: .cfa -16 + ^
STACK CFI cb9bc .cfa: $rsp 48 +
STACK CFI cb9bd .cfa: $rsp 56 +
STACK CFI cb9c0 $rbp: .cfa -48 + ^ $rbx: .cfa -56 + ^
STACK CFI cb9c7 .cfa: $rsp 320 +
STACK CFI INIT cd1a0 414 .cfa: $rsp 8 + .ra: .cfa -8 + ^
STACK CFI cd1a2 .cfa: $rsp 16 +
STACK CFI cd1a4 .cfa: $rsp 24 +
STACK CFI cd1a6 .cfa: $rsp 32 +
STACK CFI cd1a8 .cfa: $rsp 40 +
STACK CFI cd1a9 .cfa: $rsp 48 +
STACK CFI cd1ac $r12: .cfa -40 + ^ $r13: .cfa -32 + ^ $r14: .cfa -24 + ^ $r15: .cfa -16 + ^ $rbp: .cfa -48 + ^
STACK CFI cd1ad .cfa: $rsp 56 +
STACK CFI cd1b0 $rbx: .cfa -56 + ^
STACK CFI cd1b7 .cfa: $rsp 208 +
STACK CFI INIT cd5c0 cd7 .cfa: $rsp 8 + .ra: .cfa -8 + ^
STACK CFI cd5c2 .cfa: $rsp 16 +
STACK CFI cd5c5 $r15: .cfa -16 + ^
STACK CFI cd5c7 .cfa: $rsp 24 +
STACK CFI cd5c9 .cfa: $rsp 32 +
STACK CFI cd5cb .cfa: $rsp 40 +
STACK CFI cd5cc .cfa: $rsp 48 +
STACK CFI cd5cd .cfa: $rsp 56 +
STACK CFI cd5d0 $r12: .cfa -40 + ^ $r13: .cfa -32 + ^ $r14: .cfa -24 + ^ $rbp: .cfa -48 + ^ $rbx: .cfa -56 + ^
STACK CFI cd5d7 .cfa: $rsp 400 +
STACK CFI INIT ce2a0 14 .cfa: $rsp 8 + .ra: .cfa -8 + ^
STACK CFI INIT ce2c0 24 .cfa: $rsp 8 + .ra: .cfa -8 + ^
STACK CFI INIT ce2f0 45 .cfa: $rsp 8 + .ra: .cfa -8 + ^
STACK CFI ce2f4 .cfa: $rsp 16 +
STACK CFI ce31f .cfa: $rsp 8 +
STACK CFI INIT ce340 25 .cfa: $rsp 8 + .ra: .cfa -8 + ^
STACK CFI INIT ce370 26 .cfa: $rsp 8 + .ra: .cfa -8 + ^
STACK CFI ce374 .cfa: $rsp 32 +
STACK CFI INIT ce3a0 28 .cfa: $rsp 8 + .ra: .cfa -8 + ^
STACK CFI ce3a4 .cfa: $rsp 32 +
STACK CFI INIT ce3d0 44 .cfa: $rsp 8 + .ra: .cfa -8 + ^
STACK CFI INIT ce420 44 .cfa: $rsp 8 + .ra: .cfa -8 + ^
STACK CFI INIT ce470 44 .cfa: $rsp 8 + .ra: .cfa -8 + ^
STACK CFI INIT ce4c0 54 .cfa: $rsp 8 + .ra: .cfa -8 + ^
STACK CFI INIT ce520 54 .cfa: $rsp 8 + .ra: .cfa -8 + ^
STACK CFI INIT ce580 4c .cfa: $rsp 8 + .ra: .cfa -8 + ^
STACK CFI INIT ce5d0 25 .cfa: $rsp 8 + .ra: .cfa -8 + ^
STACK CFI INIT ce600 25 .cfa: $rsp 8 + .ra: .cfa -8 + ^
STACK CFI INIT ce630 8d .cfa: $rsp 8 + .ra: .cfa -8 + ^
STACK CFI ce63d $rbp: .cfa -32 + ^ $rbx: .cfa -40 + ^
STACK CFI ce64e .cfa: $rsp 320 +
STACK CFI ce659 $r12: .cfa -24 + ^ $r13: .cfa -16 + ^
STACK CFI INIT ce6c0 8c .cfa: $rsp 8 + .ra: .cfa -8 + ^
STACK CFI ce6cd $rbp: .cfa -32 + ^ $rbx: .cfa -40 + ^
STACK CFI ce6de .cfa: $rsp 320 +
STACK CFI ce6e9 $r12: .cfa -24 + ^ $r13: .cfa -16 + ^
STACK CFI INIT ce750 8 .cfa: $rsp 8 + .ra: .cfa -8 + ^
STACK CFI INIT ce760 25 .cfa: $rsp 8 + .ra: .cfa -8 + ^
STACK CFI INIT ce790 25 .cfa: $rsp 8 + .ra: .cfa -8 + ^
STACK CFI INIT ce7c0 64 .cfa: $rsp 8 + .ra: .cfa -8 + ^
STACK CFI INIT ce830 25 .cfa: $rsp 8 + .ra: .cfa -8 + ^
STACK CFI INIT ce860 26 .cfa: $rsp 8 + .ra: .cfa -8 + ^
STACK CFI INIT ce890 5e .cfa: $rsp 8 + .ra: .cfa -8 + ^
STACK CFI ce8ad .cfa: $rsp 16 +
STACK CFI ce8d0 .cfa: $rsp 8 +
STACK CFI INIT ce8f0 2a .cfa: $rsp 8 + .ra: .cfa -8 + ^
STACK CFI INIT ce920 d8 .cfa: $rsp 8 + .ra: .cfa -8 + ^
STACK CFI ce924 .cfa: $rsp 128 +
STACK CFI INIT cea00 20 .cfa: $rsp 8 + .ra: .cfa -8 + ^
STACK CFI cea04 .cfa: $rsp 16 +
STACK CFI INIT cea20 5e .cfa: $rsp 8 + .ra: .cfa -8 + ^
STACK CFI cea3d .cfa: $rsp 16 +
STACK CFI cea60 .cfa: $rsp 8 +
STACK CFI INIT cea80 5e .cfa: $rsp 8 + .ra: .cfa -8 + ^
STACK CFI cea9d .cfa: $rsp 16 +
STACK CFI ceac0 .cfa: $rsp 8 +
STACK CFI INIT ceae0 5e .cfa: $rsp 8 + .ra: .cfa -8 + ^
STACK CFI ceafd .cfa: $rsp 16 +
STACK CFI ceb20 .cfa: $rsp 8 +
STACK CFI INIT ceb40 25 .cfa: $rsp 8 + .ra: .cfa -8 + ^
STACK CFI INIT ceb70 13d .cfa: $rsp 8 + .ra: .cfa -8 + ^
STACK CFI ceb7c $rbp: .cfa -32 + ^ $rbx: .cfa -40 + ^
STACK CFI ceb8d .cfa: $rsp 192 +
STACK CFI ceb9b $r12: .cfa -24 + ^ $r13: .cfa -16 + ^
STACK CFI INIT cecb0 183 .cfa: $rsp 8 + .ra: .cfa -8 + ^
STACK CFI cecbc $rbp: .cfa -24 + ^ $rbx: .cfa -32 + ^
STACK CFI cecc8 .cfa: $rsp 176 +
STACK CFI cecd6 $r12: .cfa -16 + ^
STACK CFI INIT cee40 ca .cfa: $rsp 8 + .ra: .cfa -8 + ^
STACK CFI INIT cef10 2e .cfa: $rsp 8 + .ra: .cfa -8 + ^
STACK CFI cef14 .cfa: $rsp 96 +
STACK CFI INIT cef40 7f .cfa: $rsp 8 + .ra: .cfa -8 + ^
STACK CFI cef41 .cfa: $rsp 16 +
STACK CFI cef44 $rbp: .cfa -16 + ^
STACK CFI cef45 .cfa: $rsp 24 +
STACK CFI cef49 .cfa: $rsp 128 +
STACK CFI cef72 $rbx: .cfa -24 + ^
STACK CFI INIT cefc0 25 .cfa: $rsp 8 + .ra: .cfa -8 + ^
STACK CFI INIT ceff0 105 .cfa: $rsp 8 + .ra: .cfa -8 + ^
STACK CFI ceff1 .cfa: $rsp 16 +
STACK CFI ceff5 .cfa: $rsp 48 +
STACK CFI cf024 $rbx: .cfa -16 + ^
STACK CFI INIT cf100 25 .cfa: $rsp 8 + .ra: .cfa -8 + ^
STACK CFI INIT cf130 25 .cfa: $rsp 8 + .ra: .cfa -8 + ^
STACK CFI INIT cf160 25 .cfa: $rsp 8 + .ra: .cfa -8 + ^
STACK CFI INIT cf190 25 .cfa: $rsp 8 + .ra: .cfa -8 + ^
STACK CFI INIT cf1c0 25 .cfa: $rsp 8 + .ra: .cfa -8 + ^
STACK CFI INIT cf1f0 5e .cfa: $rsp 8 + .ra: .cfa -8 + ^
STACK CFI cf20d .cfa: $rsp 16 +
STACK CFI cf230 .cfa: $rsp 8 +
STACK CFI INIT cf250 25 .cfa: $rsp 8 + .ra: .cfa -8 + ^
STACK CFI INIT cf280 25 .cfa: $rsp 8 + .ra: .cfa -8 + ^
STACK CFI INIT cf2b0 148 .cfa: $rsp 8 + .ra: .cfa -8 + ^
STACK CFI cf2bd $rbp: .cfa -24 + ^ $rbx: .cfa -32 + ^
STACK CFI cf2c6 .cfa: $rsp 48 +
STACK CFI cf2ce $r12: .cfa -16 + ^
STACK CFI INIT cf400 83 .cfa: $rsp 8 + .ra: .cfa -8 + ^
STACK CFI cf411 .cfa: $rsp 4128 +
STACK CFI cf417 $rbp: .cfa -16 + ^ $rbx: .cfa -24 + ^
STACK CFI INIT cf490 8b .cfa: $rsp 8 + .ra: .cfa -8 + ^
STACK CFI cf491 .cfa: $rsp 16 +
STACK CFI cf49f $rbx: .cfa -16 + ^ .cfa: $rsp 304 +
STACK CFI INIT cf520 25 .cfa: $rsp 8 + .ra: .cfa -8 + ^
STACK CFI INIT cf550 25 .cfa: $rsp 8 + .ra: .cfa -8 + ^
STACK CFI INIT cf580 25 .cfa: $rsp 8 + .ra: .cfa -8 + ^
STACK CFI INIT cf5b0 2c .cfa: $rsp 8 + .ra: .cfa -8 + ^
STACK CFI INIT 1119f0 230 .cfa: $rsp 8 + .ra: .cfa -8 + ^
STACK CFI 1119f2 .cfa: $rsp 16 +
STACK CFI 1119f4 .cfa: $rsp 24 +
STACK CFI 1119f6 .cfa: $rsp 32 +
STACK CFI 1119f9 $r13: .cfa -32 + ^ $r14: .cfa -24 + ^ $r15: .cfa -16 + ^
STACK CFI 1119fb .cfa: $rsp 40 +
STACK CFI 1119fc .cfa: $rsp 48 +
STACK CFI 1119fd .cfa: $rsp 56 +
STACK CFI 111a00 $r12: .cfa -40 + ^ $rbp: .cfa -48 + ^ $rbx: .cfa -56 + ^
STACK CFI 111a07 .cfa: $rsp 272 +
STACK CFI INIT cf5e0 307 .cfa: $rsp 8 + .ra: .cfa -8 + ^
STACK CFI cf5ed $r13: .cfa -16 + ^ $rbp: .cfa -32 + ^
STACK CFI cf5fe .cfa: $rsp 448 +
STACK CFI cf61c $r12: .cfa -24 + ^ $rbx: .cfa -40 + ^
STACK CFI INIT 111c20 1ae .cfa: $rsp 8 + .ra: .cfa -8 + ^
STACK CFI 111c22 .cfa: $rsp 16 +
STACK CFI 111c24 .cfa: $rsp 24 +
STACK CFI 111c26 .cfa: $rsp 32 +
STACK CFI 111c29 $r13: .cfa -32 + ^ $r14: .cfa -24 + ^ $r15: .cfa -16 + ^
STACK CFI 111c2b .cfa: $rsp 40 +
STACK CFI 111c2c .cfa: $rsp 48 +
STACK CFI 111c2d .cfa: $rsp 56 +
STACK CFI 111c30 $r12: .cfa -40 + ^ $rbp: .cfa -48 + ^ $rbx: .cfa -56 + ^
STACK CFI 111c37 .cfa: $rsp 256 +
STACK CFI INIT cf8f0 31a .cfa: $rsp 8 + .ra: .cfa -8 + ^
STACK CFI cf8fd $r12: .cfa -40 + ^ $rbx: .cfa -56 + ^
STACK CFI cf91b .cfa: $rsp 464 +
STACK CFI cf922 $r13: .cfa -32 + ^ $r14: .cfa -24 + ^ $r15: .cfa -16 + ^ $rbp: .cfa -48 + ^
STACK CFI INIT cfc10 19 .cfa: $rsp 8 + .ra: .cfa -8 + ^
STACK CFI cfc14 .cfa: $rsp 80 +
STACK CFI INIT cfc30 25 .cfa: $rsp 8 + .ra: .cfa -8 + ^
STACK CFI INIT cfc60 2d .cfa: $rsp 8 + .ra: .cfa -8 + ^
STACK CFI INIT cfc90 25 .cfa: $rsp 8 + .ra: .cfa -8 + ^
STACK CFI INIT cfcc0 24 .cfa: $rsp 8 + .ra: .cfa -8 + ^
STACK CFI INIT cfcf0 25 .cfa: $rsp 8 + .ra: .cfa -8 + ^
STACK CFI INIT cfd20 29 .cfa: $rsp 8 + .ra: .cfa -8 + ^
STACK CFI INIT cfd50 25 .cfa: $rsp 8 + .ra: .cfa -8 + ^
STACK CFI INIT cfd80 27 .cfa: $rsp 8 + .ra: .cfa -8 + ^
STACK CFI INIT cfdb0 25 .cfa: $rsp 8 + .ra: .cfa -8 + ^
STACK CFI INIT cfde0 93 .cfa: $rsp 8 + .ra: .cfa -8 + ^
STACK CFI cfde4 .cfa: $rsp 48 +
STACK CFI INIT cfe80 c1 .cfa: $rsp 8 + .ra: .cfa -8 + ^
STACK CFI cfe84 .cfa: $rsp 64 +
STACK CFI INIT cff50 1f .cfa: $rsp 8 + .ra: .cfa -8 + ^
STACK CFI INIT cff70 1a2 .cfa: $rsp 8 + .ra: .cfa -8 + ^
STACK CFI cff7d $rbp: .cfa -40 + ^ $rbx: .cfa -48 + ^
STACK CFI cff95 .cfa: $rsp 320 +
STACK CFI cff9b $r12: .cfa -32 + ^ $r13: .cfa -24 + ^ $r14: .cfa -16 + ^
STACK CFI INIT d0120 46 .cfa: $rsp 8 + .ra: .cfa -8 + ^
STACK CFI d0121 .cfa: $rsp 16 +
STACK CFI d0126 $rbx: .cfa -16 + ^
STACK CFI INIT d0170 28 .cfa: $rsp 8 + .ra: .cfa -8 + ^
STACK CFI INIT d01a0 44 .cfa: $rsp 8 + .ra: .cfa -8 + ^
STACK CFI INIT d01f0 44 .cfa: $rsp 8 + .ra: .cfa -8 + ^
STACK CFI INIT d0240 14 .cfa: $rsp 8 + .ra: .cfa -8 + ^
STACK CFI INIT d0260 38 .cfa: $rsp 8 + .ra: .cfa -8 + ^
STACK CFI INIT d02a0 67 .cfa: $rsp 8 + .ra: .cfa -8 + ^
STACK CFI d02ad $rbp: .cfa -16 + ^ $rbx: .cfa -24 + ^
STACK CFI d02b1 .cfa: $rsp 32 +
STACK CFI INIT d0310 335 .cfa: $rsp 8 + .ra: .cfa -8 + ^
STACK CFI d031d $rbp: .cfa -40 + ^ $rbx: .cfa -48 + ^
STACK CFI d032a $r12: .cfa -32 + ^ $r14: .cfa -16 + ^
STACK CFI d0336 .cfa: $rsp 224 +
STACK CFI d0345 $r13: .cfa -24 + ^
STACK CFI INIT d0650 690 .cfa: $rsp 8 + .ra: .cfa -8 + ^
STACK CFI d0652 .cfa: $rsp 16 +
STACK CFI d0654 .cfa: $rsp 24 +
STACK CFI d0656 .cfa: $rsp 32 +
STACK CFI d0658 .cfa: $rsp 40 +
STACK CFI d0659 .cfa: $rsp 48 +
STACK CFI d065a .cfa: $rsp 56 +
STACK CFI d065d $r12: .cfa -40 + ^ $r13: .cfa -32 + ^ $r14: .cfa -24 + ^ $r15: .cfa -16 + ^ $rbp: .cfa -48 + ^ $rbx: .cfa -56 + ^
STACK CFI d0661 .cfa: $rsp 160 +
STACK CFI INIT d0ce0 4cd .cfa: $rsp 8 + .ra: .cfa -8 + ^
STACK CFI d0ce1 .cfa: $rsp 16 +
STACK CFI d0ce4 $rbp: .cfa -16 + ^ .cfa: $rbp 16 +
STACK CFI d0cef $r12: .cfa -48 + ^ $rbx: .cfa -56 + ^
STACK CFI d0d0b $r13: .cfa -40 + ^ $r14: .cfa -32 + ^ $r15: .cfa -24 + ^
STACK CFI INIT 111dd0 16 .cfa: $rsp 8 + .ra: .cfa -8 + ^
STACK CFI INIT d11b0 34 .cfa: $rsp 8 + .ra: .cfa -8 + ^
STACK CFI INIT d11f0 f .cfa: $rsp 8 + .ra: .cfa -8 + ^
STACK CFI INIT d1200 24 .cfa: $rsp 8 + .ra: .cfa -8 + ^
STACK CFI INIT d1230 24 .cfa: $rsp 8 + .ra: .cfa -8 + ^
STACK CFI d1234 .cfa: $rsp 16 +
STACK CFI d1236 $rbx: .cfa -16 + ^
STACK CFI INIT d1260 c4 .cfa: $rsp 8 + .ra: .cfa -8 + ^
STACK CFI d1262 .cfa: $rsp 16 +
STACK CFI d1263 .cfa: $rsp 24 +
STACK CFI d1264 .cfa: $rsp 32 +
STACK CFI d1267 $r12: .cfa -16 + ^ $rbp: .cfa -24 + ^ $rbx: .cfa -32 + ^
STACK CFI INIT d1330 c2 .cfa: $rsp 8 + .ra: .cfa -8 + ^
STACK CFI d1338 $r12: .cfa -24 + ^
STACK CFI d134b .cfa: $rsp 48 +
STACK CFI d135f $r13: .cfa -16 + ^ $rbp: .cfa -32 + ^ $rbx: .cfa -40 + ^
STACK CFI INIT d1400 78 .cfa: $rsp 8 + .ra: .cfa -8 + ^
STACK CFI d1401 .cfa: $rsp 16 +
STACK CFI d1407 $rbx: .cfa -16 + ^
STACK CFI INIT d1480 1af .cfa: $rsp 8 + .ra: .cfa -8 + ^
STACK CFI d148d $rbp: .cfa -32 + ^ $rbx: .cfa -40 + ^
STACK CFI d149e .cfa: $rsp 192 +
STACK CFI d14a8 $r12: .cfa -24 + ^ $r13: .cfa -16 + ^
STACK CFI INIT d1630 121 .cfa: $rsp 8 + .ra: .cfa -8 + ^
STACK CFI d163c $rbp: .cfa -40 + ^ $rbx: .cfa -48 + ^
STACK CFI d1649 $r12: .cfa -32 + ^ $r13: .cfa -24 + ^
STACK CFI d1655 .cfa: $rsp 192 +
STACK CFI d165e $r14: .cfa -16 + ^
STACK CFI INIT d1760 dc .cfa: $rsp 8 + .ra: .cfa -8 + ^
STACK CFI d1762 .cfa: $rsp 16 +
STACK CFI d1765 $r12: .cfa -16 + ^
STACK CFI d1766 .cfa: $rsp 24 +
STACK CFI d1768 $rbp: .cfa -24 + ^
STACK CFI d1769 .cfa: $rsp 32 +
STACK CFI d176f $rbx: .cfa -32 + ^
STACK CFI INIT d1840 6b1 .cfa: $rsp 8 + .ra: .cfa -8 + ^
STACK CFI d1842 .cfa: $rsp 16 +
STACK CFI d1844 .cfa: $rsp 24 +
STACK CFI d1846 .cfa: $rsp 32 +
STACK CFI d1848 .cfa: $rsp 40 +
STACK CFI d1849 .cfa: $rsp 48 +
STACK CFI d184a .cfa: $rsp 56 +
STACK CFI d184d $r12: .cfa -40 + ^ $r13: .cfa -32 + ^ $r14: .cfa -24 + ^ $r15: .cfa -16 + ^ $rbp: .cfa -48 + ^ $rbx: .cfa -56 + ^
STACK CFI d1851 .cfa: $rsp 176 +
STACK CFI INIT d1f00 13c .cfa: $rsp 8 + .ra: .cfa -8 + ^
STACK CFI d1f0d $rbp: .cfa -24 + ^ $rbx: .cfa -32 + ^
STACK CFI d1f16 .cfa: $rsp 48 +
STACK CFI d1f1e $r12: .cfa -16 + ^
STACK CFI INIT d2040 2cd .cfa: $rsp 8 + .ra: .cfa -8 + ^
STACK CFI d2042 .cfa: $rsp 16 +
STACK CFI d2044 .cfa: $rsp 24 +
STACK CFI d2046 .cfa: $rsp 32 +
STACK CFI d2048 .cfa: $rsp 40 +
STACK CFI d204b $r12: .cfa -40 + ^ $r13: .cfa -32 + ^ $r14: .cfa -24 + ^ $r15: .cfa -16 + ^
STACK CFI d204c .cfa: $rsp 48 +
STACK CFI d204f $rbp: .cfa -48 + ^
STACK CFI d2050 .cfa: $rsp 56 +
STACK CFI d2054 .cfa: $rsp 96 +
STACK CFI d205c $rbx: .cfa -56 + ^
STACK CFI INIT d2310 54b .cfa: $rsp 8 + .ra: .cfa -8 + ^
STACK CFI d231d $r12: .cfa -32 + ^ $rbx: .cfa -48 + ^
STACK CFI d2330 .cfa: $rsp 48 +
STACK CFI d2333 $r13: .cfa -24 + ^ $r14: .cfa -16 + ^ $rbp: .cfa -40 + ^
STACK CFI INIT d2860 4fe .cfa: $rsp 8 + .ra: .cfa -8 + ^
STACK CFI d2862 .cfa: $rsp 16 +
STACK CFI d2864 .cfa: $rsp 24 +
STACK CFI d2866 .cfa: $rsp 32 +
STACK CFI d2868 .cfa: $rsp 40 +
STACK CFI d2869 .cfa: $rsp 48 +
STACK CFI d286a .cfa: $rsp 56 +
STACK CFI d286d $r12: .cfa -40 + ^ $r13: .cfa -32 + ^ $r14: .cfa -24 + ^ $r15: .cfa -16 + ^ $rbp: .cfa -48 + ^ $rbx: .cfa -56 + ^
STACK CFI d2874 .cfa: $rsp 1312 +
STACK CFI INIT d2d60 ab .cfa: $rsp 8 + .ra: .cfa -8 + ^
STACK CFI d2d61 .cfa: $rsp 16 +
STACK CFI d2d68 $rbx: .cfa -16 + ^
STACK CFI INIT d2e10 28 .cfa: $rsp 8 + .ra: .cfa -8 + ^
STACK CFI INIT d2e40 21 .cfa: $rsp 8 + .ra: .cfa -8 + ^
STACK CFI d2e44 .cfa: $rsp 16 +
STACK CFI INIT d2e70 21 .cfa: $rsp 8 + .ra: .cfa -8 + ^
STACK CFI d2e74 .cfa: $rsp 16 +
STACK CFI INIT d2ea0 2a .cfa: $rsp 8 + .ra: .cfa -8 + ^
STACK CFI INIT d2ed0 9 .cfa: $rsp 8 + .ra: .cfa -8 + ^
STACK CFI INIT d2ee0 12 .cfa: $rsp 8 + .ra: .cfa -8 + ^
STACK CFI INIT d2f00 44 .cfa: $rsp 8 + .ra: .cfa -8 + ^
STACK CFI INIT d2f50 54 .cfa: $rsp 8 + .ra: .cfa -8 + ^
STACK CFI INIT d2fb0 8b .cfa: $rsp 8 + .ra: .cfa -8 + ^
STACK CFI d2fb2 .cfa: $rsp 16 +
STACK CFI d2fc3 $r12: .cfa -16 + ^
STACK CFI d2fc4 .cfa: $rsp 24 +
STACK CFI d2fc5 .cfa: $rsp 32 +
STACK CFI d2fc7 $rbp: .cfa -24 + ^ $rbx: .cfa -32 + ^
STACK CFI INIT d3040 1e7 .cfa: $rsp 8 + .ra: .cfa -8 + ^
STACK CFI d3042 .cfa: $rsp 16 +
STACK CFI d3051 .cfa: $rsp 24 +
STACK CFI d3052 .cfa: $rsp 32 +
STACK CFI d3054 $r12: .cfa -16 + ^ $rbp: .cfa -24 + ^ $rbx: .cfa -32 + ^
STACK CFI INIT d3230 a8 .cfa: $rsp 8 + .ra: .cfa -8 + ^
STACK CFI INIT d32e0 28 .cfa: $rsp 8 + .ra: .cfa -8 + ^
STACK CFI d32e4 .cfa: $rsp 32 +
STACK CFI INIT d3310 1e .cfa: $rsp 8 + .ra: .cfa -8 + ^
STACK CFI d3314 .cfa: $rsp 32 +
STACK CFI INIT d3330 93 .cfa: $rsp 8 + .ra: .cfa -8 + ^
STACK CFI d3334 .cfa: $rsp 32 +
STACK CFI INIT d33d0 e .cfa: $rsp 8 + .ra: .cfa -8 + ^
STACK CFI INIT d33e0 e .cfa: $rsp 8 + .ra: .cfa -8 + ^
STACK CFI INIT d33f0 36 .cfa: $rsp 8 + .ra: .cfa -8 + ^
STACK CFI INIT d3430 28 .cfa: $rsp 8 + .ra: .cfa -8 + ^
STACK CFI INIT d3460 b7 .cfa: $rsp 8 + .ra: .cfa -8 + ^
STACK CFI d346c $rbp: .cfa -24 + ^ $rbx: .cfa -32 + ^
STACK CFI d3475 .cfa: $rsp 48 +
STACK CFI d347f $r12: .cfa -16 + ^
STACK CFI INIT d3520 25 .cfa: $rsp 8 + .ra: .cfa -8 + ^
STACK CFI INIT d3550 25 .cfa: $rsp 8 + .ra: .cfa -8 + ^
STACK CFI INIT d3580 25 .cfa: $rsp 8 + .ra: .cfa -8 + ^
STACK CFI INIT d35b0 11e .cfa: $rsp 8 + .ra: .cfa -8 + ^
STACK CFI d35b1 .cfa: $rsp 16 +
STACK CFI d35b5 .cfa: $rsp 112 +
STACK CFI d35da $rbx: .cfa -16 + ^
STACK CFI INIT d36d0 70 .cfa: $rsp 8 + .ra: .cfa -8 + ^
STACK CFI d36d8 $rbx: .cfa -32 + ^
STACK CFI d36e6 .cfa: $rsp 48 +
STACK CFI d36e8 $r12: .cfa -16 + ^ $rbp: .cfa -24 + ^
STACK CFI INIT d3740 e4 .cfa: $rsp 8 + .ra: .cfa -8 + ^
STACK CFI d3741 .cfa: $rsp 16 +
STACK CFI d3744 $rbx: .cfa -16 + ^
STACK CFI d374f .cfa: $rsp 160 +
STACK CFI INIT d3830 37 .cfa: $rsp 8 + .ra: .cfa -8 + ^
STACK CFI d3831 .cfa: $rsp 16 +
STACK CFI d3834 $rbx: .cfa -16 + ^
STACK CFI INIT d3870 33 .cfa: $rsp 8 + .ra: .cfa -8 + ^
STACK CFI INIT d38b0 25 .cfa: $rsp 8 + .ra: .cfa -8 + ^
STACK CFI INIT d38e0 a0 .cfa: $rsp 8 + .ra: .cfa -8 + ^
STACK CFI d38f5 .cfa: $rsp 32 +
STACK CFI d38fc $r12: .cfa -16 + ^ $rbp: .cfa -24 + ^ $rbx: .cfa -32 + ^
STACK CFI INIT d3980 63 .cfa: $rsp 8 + .ra: .cfa -8 + ^
STACK CFI INIT d39f0 a9 .cfa: $rsp 8 + .ra: .cfa -8 + ^
STACK CFI d39fd $r12: .cfa -16 + ^ $rbp: .cfa -24 + ^
STACK CFI d3a06 .cfa: $rsp 32 +
STACK CFI d3a11 $rbx: .cfa -32 + ^
STACK CFI INIT d3aa0 16 .cfa: $rsp 8 + .ra: .cfa -8 + ^
STACK CFI INIT d3ac0 25 .cfa: $rsp 8 + .ra: .cfa -8 + ^
STACK CFI INIT d3af0 9b .cfa: $rsp 8 + .ra: .cfa -8 + ^
STACK CFI d3af4 .cfa: $rsp 48 +
STACK CFI INIT d3b90 9b .cfa: $rsp 8 + .ra: .cfa -8 + ^
STACK CFI d3b94 .cfa: $rsp 48 +
STACK CFI INIT d3c30 17f .cfa: $rsp 8 + .ra: .cfa -8 + ^
STACK CFI d3c31 .cfa: $rsp 16 +
STACK CFI d3c34 $rbp: .cfa -16 + ^ .cfa: $rbp 16 +
STACK CFI d3c3b $r14: .cfa -32 + ^ $r15: .cfa -24 + ^
STACK CFI d3c40 $r13: .cfa -40 + ^
STACK CFI d3c45 $r12: .cfa -48 + ^ $rbx: .cfa -56 + ^
STACK CFI INIT d3db0 109 .cfa: $rsp 8 + .ra: .cfa -8 + ^
STACK CFI d3dbd $rbp: .cfa -32 + ^ $rbx: .cfa -40 + ^
STACK CFI d3dcb .cfa: $rsp 64 +
STACK CFI d3dd4 $r12: .cfa -24 + ^ $r13: .cfa -16 + ^
STACK CFI INIT d3ec0 165 .cfa: $rsp 8 + .ra: .cfa -8 + ^
STACK CFI d3ec1 .cfa: $rsp 16 +
STACK CFI d3ec4 $rbp: .cfa -16 + ^ .cfa: $rbp 16 +
STACK CFI d3ecf $r12: .cfa -48 + ^ $r13: .cfa -40 + ^ $r14: .cfa -32 + ^ $r15: .cfa -24 + ^
STACK CFI d3ed2 $rbx: .cfa -56 + ^
STACK CFI INIT d4030 109 .cfa: $rsp 8 + .ra: .cfa -8 + ^
STACK CFI d403d $rbp: .cfa -32 + ^ $rbx: .cfa -40 + ^
STACK CFI d404b .cfa: $rsp 64 +
STACK CFI d4054 $r12: .cfa -24 + ^ $r13: .cfa -16 + ^
STACK CFI INIT d4140 67 .cfa: $rsp 8 + .ra: .cfa -8 + ^
STACK CFI d4144 .cfa: $rsp 64 +
STACK CFI INIT d41b0 67 .cfa: $rsp 8 + .ra: .cfa -8 + ^
STACK CFI d41b4 .cfa: $rsp 64 +
STACK CFI INIT d4220 96 .cfa: $rsp 8 + .ra: .cfa -8 + ^
STACK CFI d4224 .cfa: $rsp 64 +
STACK CFI INIT d42c0 96 .cfa: $rsp 8 + .ra: .cfa -8 + ^
STACK CFI d42c4 .cfa: $rsp 64 +
STACK CFI INIT d4360 17 .cfa: $rsp 8 + .ra: .cfa -8 + ^
STACK CFI INIT d4380 23 .cfa: $rsp 8 + .ra: .cfa -8 + ^
STACK CFI d4384 .cfa: $rsp 32 +
STACK CFI INIT d43b0 a1 .cfa: $rsp 8 + .ra: .cfa -8 + ^
STACK CFI d43bd $r12: .cfa -24 + ^ $rbx: .cfa -40 + ^
STACK CFI d43ce .cfa: $rsp 448 +
STACK CFI d43d7 $r13: .cfa -16 + ^ $rbp: .cfa -32 + ^
STACK CFI INIT d4460 25 .cfa: $rsp 8 + .ra: .cfa -8 + ^
STACK CFI INIT d4490 79 .cfa: $rsp 8 + .ra: .cfa -8 + ^
STACK CFI d449d $rbp: .cfa -24 + ^ $rbx: .cfa -32 + ^
STACK CFI d44a9 .cfa: $rsp 432 +
STACK CFI d44ac $r12: .cfa -16 + ^
STACK CFI INIT d4510 25 .cfa: $rsp 8 + .ra: .cfa -8 + ^
STACK CFI INIT d4540 64 .cfa: $rsp 8 + .ra: .cfa -8 + ^
STACK CFI d4560 .cfa: $rsp 16 +
STACK CFI d4586 .cfa: $rsp 8 +
STACK CFI INIT d45b0 dd .cfa: $rsp 8 + .ra: .cfa -8 + ^
STACK CFI d45b1 .cfa: $rsp 16 +
STACK CFI d45b8 .cfa: $rsp 96 +
STACK CFI d45bd $rbx: .cfa -16 + ^
STACK CFI INIT d4690 25 .cfa: $rsp 8 + .ra: .cfa -8 + ^
STACK CFI INIT d46c0 25 .cfa: $rsp 8 + .ra: .cfa -8 + ^
STACK CFI INIT d46f0 5e .cfa: $rsp 8 + .ra: .cfa -8 + ^
STACK CFI d470d .cfa: $rsp 16 +
STACK CFI d4730 .cfa: $rsp 8 +
STACK CFI INIT d4750 25 .cfa: $rsp 8 + .ra: .cfa -8 + ^
STACK CFI INIT d4780 5e .cfa: $rsp 8 + .ra: .cfa -8 + ^
STACK CFI d479d .cfa: $rsp 16 +
STACK CFI d47c0 .cfa: $rsp 8 +
STACK CFI INIT d47e0 30 .cfa: $rsp 8 + .ra: .cfa -8 + ^
STACK CFI INIT d4810 174 .cfa: $rsp 8 + .ra: .cfa -8 + ^
STACK CFI d4811 .cfa: $rsp 16 +
STACK CFI d4821 $rbp: .cfa -16 + ^ .cfa: $rbp 16 +
STACK CFI d4831 $r12: .cfa -48 + ^ $r13: .cfa -40 + ^ $r14: .cfa -32 + ^ $r15: .cfa -24 + ^ $rbx: .cfa -56 + ^
STACK CFI INIT d4990 a5 .cfa: $rsp 8 + .ra: .cfa -8 + ^
STACK CFI d4991 .cfa: $rsp 16 +
STACK CFI d4995 .cfa: $rsp 32 +
STACK CFI d49a2 $rbx: .cfa -16 + ^
STACK CFI INIT d4a40 25 .cfa: $rsp 8 + .ra: .cfa -8 + ^
STACK CFI INIT d4a70 25 .cfa: $rsp 8 + .ra: .cfa -8 + ^
STACK CFI INIT d4aa0 25 .cfa: $rsp 8 + .ra: .cfa -8 + ^
STACK CFI INIT d4ad0 1e .cfa: $rsp 8 + .ra: .cfa -8 + ^
STACK CFI d4ad1 .cfa: $rsp 16 +
STACK CFI d4add $rbx: .cfa -16 + ^
STACK CFI INIT d4af0 b .cfa: $rsp 8 + .ra: .cfa -8 + ^
STACK CFI INIT d4b00 22 .cfa: $rsp 8 + .ra: .cfa -8 + ^
STACK CFI d4b01 .cfa: $rsp 16 +
STACK CFI d4b0d $rbx: .cfa -16 + ^
STACK CFI INIT d4b30 b .cfa: $rsp 8 + .ra: .cfa -8 + ^
STACK CFI INIT d4b40 24 .cfa: $rsp 8 + .ra: .cfa -8 + ^
STACK CFI INIT d4b70 24 .cfa: $rsp 8 + .ra: .cfa -8 + ^
STACK CFI INIT d4ba0 24 .cfa: $rsp 8 + .ra: .cfa -8 + ^
STACK CFI INIT d4bd0 24 .cfa: $rsp 8 + .ra: .cfa -8 + ^
STACK CFI INIT d4c00 51 .cfa: $rsp 8 + .ra: .cfa -8 + ^
STACK CFI d4c04 .cfa: $rsp 80 +
STACK CFI INIT d4c60 39 .cfa: $rsp 8 + .ra: .cfa -8 + ^
STACK CFI d4c6b .cfa: $rsp 32 +
STACK CFI INIT d4ca0 34 .cfa: $rsp 8 + .ra: .cfa -8 + ^
STACK CFI INIT d4ce0 34 .cfa: $rsp 8 + .ra: .cfa -8 + ^
STACK CFI INIT d4d20 aa .cfa: $rsp 8 + .ra: .cfa -8 + ^
STACK CFI INIT d4dd0 1a .cfa: $rsp 8 + .ra: .cfa -8 + ^
STACK CFI d4dd4 .cfa: $rsp 16 +
STACK CFI INIT d4df0 86 .cfa: $rsp 8 + .ra: .cfa -8 + ^
STACK CFI d4df7 .cfa: $rsp 16 +
STACK CFI d4dfa $rbx: .cfa -16 + ^
STACK CFI INIT d594d 1b .cfa: $rsp -128 + .ra: $rip
STACK CFI d5957 .cfa: $rsp 0 +
STACK CFI d595b .cfa: $rsp 128 +
STACK CFI d5963 .cfa: $rsp -128 +
STACK CFI INIT d5968 1b .cfa: $rsp -128 + .ra: $rip
STACK CFI d5972 .cfa: $rsp 0 +
STACK CFI d5976 .cfa: $rsp 128 +
STACK CFI d597e .cfa: $rsp -128 +
STACK CFI INIT d5983 1b .cfa: $rsp -128 + .ra: $rip
STACK CFI d598d .cfa: $rsp 0 +
STACK CFI d5991 .cfa: $rsp 128 +
STACK CFI d5999 .cfa: $rsp -128 +
STACK CFI INIT d4e80 e8 .cfa: $rsp 8 + .ra: .cfa -8 + ^
STACK CFI INIT d4f70 7a .cfa: $rsp 8 + .ra: .cfa -8 + ^
STACK CFI d4f72 .cfa: $rsp 16 +
STACK CFI d4f73 .cfa: $rsp 24 +
STACK CFI d4f76 $r12: .cfa -16 + ^ $rbp: .cfa -24 + ^
STACK CFI d4f77 .cfa: $rsp 32 +
STACK CFI d4f7a $rbx: .cfa -32 + ^
STACK CFI INIT d4ff0 530 .cfa: $rsp 8 + .ra: .cfa -8 + ^
STACK CFI d4ff1 .cfa: $rsp 16 +
STACK CFI d4ff9 $rbp: .cfa -16 + ^ .cfa: $rbp 16 +
STACK CFI d5002 $r13: .cfa -40 + ^ $r14: .cfa -32 + ^ $r15: .cfa -24 + ^
STACK CFI d5018 $r12: .cfa -48 + ^ $rbx: .cfa -56 + ^
STACK CFI INIT d5520 399 .cfa: $rsp 8 + .ra: .cfa -8 + ^
STACK CFI d5522 .cfa: $rsp 16 +
STACK CFI d5524 .cfa: $rsp 24 +
STACK CFI d5527 $r13: .cfa -24 + ^ $r14: .cfa -16 + ^
STACK CFI d5529 .cfa: $rsp 32 +
STACK CFI d552c $r12: .cfa -32 + ^
STACK CFI d552d .cfa: $rsp 40 +
STACK CFI d5530 $rbp: .cfa -40 + ^
STACK CFI d5531 .cfa: $rsp 48 +
STACK CFI d5534 $rbx: .cfa -48 + ^
STACK CFI d553b .cfa: $rsp 1072 +
STACK CFI INIT d58c0 18 .cfa: $rsp 8 + .ra: .cfa -8 + ^
STACK CFI d58c4 .cfa: $rsp 16 +
STACK CFI INIT d58e0 6d .cfa: $rsp 8 + .ra: .cfa -8 + ^
STACK CFI d58e1 .cfa: $rsp 16 +
STACK CFI d58e4 $rbp: .cfa -16 + ^ .cfa: $rbp 16 +
STACK CFI d58ef $r12: .cfa -32 + ^ $rbx: .cfa -40 + ^
STACK CFI d58fd $r13: .cfa -24 + ^
STACK CFI INIT d59a0 21 .cfa: $rsp 8 + .ra: .cfa -8 + ^
STACK CFI INIT d59d0 9c .cfa: $rsp 8 + .ra: .cfa -8 + ^
STACK CFI INIT d5a70 94 .cfa: $rsp 8 + .ra: .cfa -8 + ^
STACK CFI INIT d5b10 38 .cfa: $rsp 8 + .ra: .cfa -8 + ^
STACK CFI INIT d5b50 25 .cfa: $rsp 8 + .ra: .cfa -8 + ^
STACK CFI INIT d5b80 25 .cfa: $rsp 8 + .ra: .cfa -8 + ^
STACK CFI INIT d5bb0 30 .cfa: $rsp 8 + .ra: .cfa -8 + ^
STACK CFI INIT d5be0 1a .cfa: $rsp 8 + .ra: .cfa -8 + ^
STACK CFI INIT d5c00 de .cfa: $rsp 8 + .ra: .cfa -8 + ^
STACK CFI INIT d5ce0 33 .cfa: $rsp 8 + .ra: .cfa -8 + ^
STACK CFI d5ce4 .cfa: $rsp 16 +
STACK CFI INIT d5d20 51 .cfa: $rsp 8 + .ra: .cfa -8 + ^
STACK CFI d5d24 .cfa: $rsp 16 +
STACK CFI INIT d5d80 385 .cfa: $rsp 8 + .ra: .cfa -8 + ^
STACK CFI d5d82 .cfa: $rsp 16 +
STACK CFI d5d84 .cfa: $rsp 24 +
STACK CFI d5d86 .cfa: $rsp 32 +
STACK CFI d5d88 .cfa: $rsp 40 +
STACK CFI d5d89 .cfa: $rsp 48 +
STACK CFI d5d8a .cfa: $rsp 56 +
STACK CFI d5d8e .cfa: $rsp 64 +
STACK CFI d5d9e $r12: .cfa -40 + ^ $r13: .cfa -32 + ^ $r14: .cfa -24 + ^ $r15: .cfa -16 + ^ $rbp: .cfa -48 + ^ $rbx: .cfa -56 + ^
STACK CFI INIT d6110 3b .cfa: $rsp 8 + .ra: .cfa -8 + ^
STACK CFI d6111 .cfa: $rsp 16 +
STACK CFI d6114 $rbp: .cfa -16 + ^
STACK CFI d6115 .cfa: $rsp 24 +
STACK CFI d6119 $rbx: .cfa -24 + ^ .cfa: $rsp 32 +
STACK CFI INIT d6150 42 .cfa: $rsp 8 + .ra: .cfa -8 + ^
STACK CFI d6154 .cfa: $rsp 16 +
STACK CFI INIT d61a0 213 .cfa: $rsp 8 + .ra: .cfa -8 + ^
STACK CFI d61a2 .cfa: $rsp 16 +
STACK CFI d61a4 .cfa: $rsp 24 +
STACK CFI d61a5 .cfa: $rsp 32 +
STACK CFI d61a6 .cfa: $rsp 40 +
STACK CFI d61ad .cfa: $rsp 192 +
STACK CFI d61b4 $r12: .cfa -24 + ^ $r13: .cfa -16 + ^ $rbp: .cfa -32 + ^ $rbx: .cfa -40 + ^
STACK CFI INIT d63c0 15 .cfa: $rsp 8 + .ra: .cfa -8 + ^
STACK CFI d63c4 .cfa: $rsp 16 +
STACK CFI INIT d63e0 41 .cfa: $rsp 8 + .ra: .cfa -8 + ^
STACK CFI d63e4 .cfa: $rsp 16 +
STACK CFI INIT d6430 228 .cfa: $rsp 8 + .ra: .cfa -8 + ^
STACK CFI d643f $r14: .cfa -24 + ^
STACK CFI d6466 $r12: .cfa -40 + ^ $r13: .cfa -32 + ^ $r15: .cfa -16 + ^ $rbp: .cfa -48 + ^ $rbx: .cfa -56 + ^ .cfa: $rsp 192 +
STACK CFI INIT d6660 12 .cfa: $rsp 8 + .ra: .cfa -8 + ^
STACK CFI INIT d6680 ca .cfa: $rsp 8 + .ra: .cfa -8 + ^
STACK CFI d6681 .cfa: $rsp 16 +
STACK CFI d6689 $rbp: .cfa -16 + ^ .cfa: $rbp 16 +
STACK CFI d6692 $r12: .cfa -32 + ^ $r13: .cfa -24 + ^ $rbx: .cfa -40 + ^
STACK CFI INIT d7238 1f .cfa: $rsp -128 + .ra: $rip
STACK CFI d7246 .cfa: $rsp 0 +
STACK CFI d724a .cfa: $rsp 128 +
STACK CFI d7252 .cfa: $rsp -128 +
STACK CFI INIT d7257 1f .cfa: $rsp -128 + .ra: $rip
STACK CFI d7265 .cfa: $rsp 0 +
STACK CFI d7269 .cfa: $rsp 128 +
STACK CFI d7271 .cfa: $rsp -128 +
STACK CFI INIT d7276 1f .cfa: $rsp -128 + .ra: $rip
STACK CFI d7284 .cfa: $rsp 0 +
STACK CFI d7288 .cfa: $rsp 128 +
STACK CFI d7290 .cfa: $rsp -128 +
STACK CFI INIT d7295 1f .cfa: $rsp -128 + .ra: $rip
STACK CFI d72a3 .cfa: $rsp 0 +
STACK CFI d72a7 .cfa: $rsp 128 +
STACK CFI d72af .cfa: $rsp -128 +
STACK CFI INIT d72b4 1f .cfa: $rsp -128 + .ra: $rip
STACK CFI d72c2 .cfa: $rsp 0 +
STACK CFI d72c6 .cfa: $rsp 128 +
STACK CFI d72ce .cfa: $rsp -128 +
STACK CFI INIT d6750 25 .cfa: $rsp 8 + .ra: .cfa -8 + ^
STACK CFI INIT d6780 12 .cfa: $rsp 8 + .ra: .cfa -8 + ^
STACK CFI INIT d67a0 9a .cfa: $rsp 8 + .ra: .cfa -8 + ^
STACK CFI d67a4 .cfa: $rsp 32 +
STACK CFI INIT d6840 265 .cfa: $rsp 8 + .ra: .cfa -8 + ^
STACK CFI d685d .cfa: $rsp 48 +
STACK CFI d6862 $r12: .cfa -32 + ^ $r13: .cfa -24 + ^ $r14: .cfa -16 + ^ $rbp: .cfa -40 + ^ $rbx: .cfa -48 + ^
STACK CFI INIT d6ab0 66 .cfa: $rsp 8 + .ra: .cfa -8 + ^
STACK CFI d6ab7 .cfa: $rsp 32 +
STACK CFI INIT d6b20 5d5 .cfa: $rsp 8 + .ra: .cfa -8 + ^
STACK CFI d6b2c $r12: .cfa -40 + ^ $rbp: .cfa -48 + ^
STACK CFI d6b4a .cfa: $rsp 256 +
STACK CFI d6b51 $r13: .cfa -32 + ^ $r14: .cfa -24 + ^ $r15: .cfa -16 + ^ $rbx: .cfa -56 + ^
STACK CFI INIT d7100 10 .cfa: $rsp 8 + .ra: .cfa -8 + ^
STACK CFI INIT d7110 8b .cfa: $rsp 8 + .ra: .cfa -8 + ^
STACK CFI d7117 .cfa: $rsp 224 +
STACK CFI INIT d71a0 98 .cfa: $rsp 8 + .ra: .cfa -8 + ^
STACK CFI d71a7 .cfa: $rsp 224 +
STACK CFI INIT d72e0 37 .cfa: $rsp 8 + .ra: .cfa -8 + ^
STACK CFI INIT d7320 15e .cfa: $rsp 8 + .ra: .cfa -8 + ^
STACK CFI d7331 .cfa: $rsp 176 +
STACK CFI d7333 $rbp: .cfa -16 + ^ $rbx: .cfa -24 + ^
STACK CFI INIT d7480 28 .cfa: $rsp 8 + .ra: .cfa -8 + ^
STACK CFI INIT d74b0 25 .cfa: $rsp 8 + .ra: .cfa -8 + ^
STACK CFI INIT d74e0 25 .cfa: $rsp 8 + .ra: .cfa -8 + ^
STACK CFI INIT d7510 5e .cfa: $rsp 8 + .ra: .cfa -8 + ^
STACK CFI d752d .cfa: $rsp 16 +
STACK CFI d7550 .cfa: $rsp 8 +
STACK CFI INIT d7570 25 .cfa: $rsp 8 + .ra: .cfa -8 + ^
STACK CFI INIT d75a0 25 .cfa: $rsp 8 + .ra: .cfa -8 + ^
STACK CFI INIT d75d0 28 .cfa: $rsp 8 + .ra: .cfa -8 + ^
STACK CFI INIT d7600 25 .cfa: $rsp 8 + .ra: .cfa -8 + ^
STACK CFI INIT d7630 25 .cfa: $rsp 8 + .ra: .cfa -8 + ^
STACK CFI INIT d7660 25 .cfa: $rsp 8 + .ra: .cfa -8 + ^
STACK CFI INIT d7690 25 .cfa: $rsp 8 + .ra: .cfa -8 + ^
STACK CFI INIT d76c0 c .cfa: $rsp 8 + .ra: .cfa -8 + ^
STACK CFI INIT d76d0 c .cfa: $rsp 8 + .ra: .cfa -8 + ^
STACK CFI INIT d76e0 28 .cfa: $rsp 8 + .ra: .cfa -8 + ^
STACK CFI d76e4 .cfa: $rsp 48 +
STACK CFI INIT d7710 21f .cfa: $rsp 8 + .ra: .cfa -8 + ^
STACK CFI d7712 .cfa: $rsp 16 +
STACK CFI d7714 .cfa: $rsp 24 +
STACK CFI d7717 $r14: .cfa -24 + ^ $r15: .cfa -16 + ^
STACK CFI d7719 .cfa: $rsp 32 +
STACK CFI d771b .cfa: $rsp 40 +
STACK CFI d771c .cfa: $rsp 48 +
STACK CFI d771d .cfa: $rsp 56 +
STACK CFI d7720 $r12: .cfa -40 + ^ $r13: .cfa -32 + ^ $rbp: .cfa -48 + ^ $rbx: .cfa -56 + ^
STACK CFI d7724 .cfa: $rsp 144 +
STACK CFI INIT d7930 30 .cfa: $rsp 8 + .ra: .cfa -8 + ^
STACK CFI d7934 .cfa: $rsp 16 +
STACK CFI d7937 $rbx: .cfa -16 + ^
STACK CFI INIT d7960 bd .cfa: $rsp 8 + .ra: .cfa -8 + ^
STACK CFI d7964 .cfa: $rsp 16 +
STACK CFI d7967 $rbx: .cfa -16 + ^
STACK CFI INIT d7a20 115 .cfa: $rsp 8 + .ra: .cfa -8 + ^
STACK CFI INIT d7b40 58 .cfa: $rsp 8 + .ra: .cfa -8 + ^
STACK CFI d7b42 .cfa: $rsp 16 +
STACK CFI d7b48 $r12: .cfa -16 + ^
STACK CFI d7b49 .cfa: $rsp 24 +
STACK CFI d7b4a .cfa: $rsp 32 +
STACK CFI d7b4d $rbp: .cfa -24 + ^ $rbx: .cfa -32 + ^
STACK CFI INIT d7ba0 9e .cfa: $rsp 8 + .ra: .cfa -8 + ^
STACK CFI d7bad $rbp: .cfa -24 + ^ $rbx: .cfa -32 + ^
STACK CFI d7bb6 .cfa: $rsp 32 +
STACK CFI d7bc1 $r12: .cfa -16 + ^
STACK CFI INIT d7c40 1c .cfa: $rsp 8 + .ra: .cfa -8 + ^
STACK CFI INIT d7c60 4e .cfa: $rsp 8 + .ra: .cfa -8 + ^
STACK CFI d7c6d $rbp: .cfa -16 + ^ $rbx: .cfa -24 + ^
STACK CFI d7c71 .cfa: $rsp 32 +
STACK CFI INIT d7cb0 12 .cfa: $rsp 8 + .ra: .cfa -8 + ^
STACK CFI INIT d7cd0 433 .cfa: $rsp 8 + .ra: .cfa -8 + ^
STACK CFI d7cd1 .cfa: $rsp 16 +
STACK CFI d7cd4 $rbp: .cfa -16 + ^ .cfa: $rbp 16 +
STACK CFI d7ce0 $r12: .cfa -48 + ^ $r13: .cfa -40 + ^ $r14: .cfa -32 + ^ $r15: .cfa -24 + ^ $rbx: .cfa -56 + ^
STACK CFI INIT d8110 120 .cfa: $rsp 8 + .ra: .cfa -8 + ^
STACK CFI d8112 .cfa: $rsp 16 +
STACK CFI d8116 .cfa: $rsp 24 +
STACK CFI d8118 .cfa: $rsp 32 +
STACK CFI d811b $r13: .cfa -32 + ^ $r14: .cfa -24 + ^ $r15: .cfa -16 + ^
STACK CFI d811d .cfa: $rsp 40 +
STACK CFI d811e .cfa: $rsp 48 +
STACK CFI d811f .cfa: $rsp 56 +
STACK CFI d8123 .cfa: $rsp 96 +
STACK CFI d8136 $r12: .cfa -40 + ^ $rbp: .cfa -48 + ^ $rbx: .cfa -56 + ^
STACK CFI INIT d8230 65 .cfa: $rsp 8 + .ra: .cfa -8 + ^
STACK CFI d8232 .cfa: $rsp 16 +
STACK CFI d8235 $r15: .cfa -16 + ^
STACK CFI d8237 .cfa: $rsp 24 +
STACK CFI d823a $r14: .cfa -24 + ^
STACK CFI d823c .cfa: $rsp 32 +
STACK CFI d823f $r13: .cfa -32 + ^
STACK CFI d8241 .cfa: $rsp 40 +
STACK CFI d8244 $r12: .cfa -40 + ^
STACK CFI d8245 .cfa: $rsp 48 +
STACK CFI d8248 $rbp: .cfa -48 + ^
STACK CFI d8249 .cfa: $rsp 56 +
STACK CFI d824c $rbx: .cfa -56 + ^
STACK CFI d8250 .cfa: $rsp 64 +
STACK CFI INIT d82a0 6c .cfa: $rsp 8 + .ra: .cfa -8 + ^
STACK CFI d82ad $rbp: .cfa -32 + ^ $rbx: .cfa -40 + ^
STACK CFI d82bb .cfa: $rsp 48 +
STACK CFI d82be $r12: .cfa -24 + ^ $r13: .cfa -16 + ^
STACK CFI INIT d8310 115 .cfa: $rsp 8 + .ra: .cfa -8 + ^
STACK CFI d8311 .cfa: $rsp 16 +
STACK CFI d8314 $rbp: .cfa -16 + ^ .cfa: $rbp 16 +
STACK CFI d831b $r14: .cfa -32 + ^ $r15: .cfa -24 + ^
STACK CFI d8331 $r12: .cfa -48 + ^ $r13: .cfa -40 + ^ $rbx: .cfa -56 + ^
STACK CFI INIT d8430 126 .cfa: $rsp 8 + .ra: .cfa -8 + ^
STACK CFI d8447 $r13: .cfa -24 + ^ $r14: .cfa -16 + ^ $rbp: .cfa -40 + ^ $rbx: .cfa -48 + ^
STACK CFI d8450 .cfa: $rsp 48 +
STACK CFI d8469 $r12: .cfa -32 + ^
STACK CFI INIT d8560 15 .cfa: $rsp 8 + .ra: .cfa -8 + ^
STACK CFI d8561 .cfa: $rsp 16 +
STACK CFI d8563 $rbx: .cfa -16 + ^
STACK CFI INIT d8580 88 .cfa: $rsp 8 + .ra: .cfa -8 + ^
STACK CFI d8587 .cfa: $rsp 224 +
STACK CFI INIT d8610 95 .cfa: $rsp 8 + .ra: .cfa -8 + ^
STACK CFI d8617 .cfa: $rsp 224 +
STACK CFI INIT d86b0 e2 .cfa: $rsp 8 + .ra: .cfa -8 + ^
STACK CFI d86bd $rbp: .cfa -24 + ^ $rbx: .cfa -32 + ^
STACK CFI d86c6 .cfa: $rsp 32 +
STACK CFI d86d0 $r12: .cfa -16 + ^
STACK CFI INIT d87a0 15 .cfa: $rsp 8 + .ra: .cfa -8 + ^
STACK CFI d87a1 .cfa: $rsp 16 +
STACK CFI d87a3 $rbx: .cfa -16 + ^
STACK CFI INIT d87c0 88 .cfa: $rsp 8 + .ra: .cfa -8 + ^
STACK CFI d87c7 .cfa: $rsp 224 +
STACK CFI INIT d8850 95 .cfa: $rsp 8 + .ra: .cfa -8 + ^
STACK CFI d8857 .cfa: $rsp 224 +
STACK CFI INIT d88f0 2f .cfa: $rsp 8 + .ra: .cfa -8 + ^
STACK CFI d88f7 .cfa: $rsp 1040 +
STACK CFI INIT d8920 1e8 .cfa: $rsp 8 + .ra: .cfa -8 + ^
STACK CFI d8921 .cfa: $rsp 16 +
STACK CFI d8924 $rbp: .cfa -16 + ^ .cfa: $rbp 16 +
STACK CFI d892b $r14: .cfa -32 + ^ $r15: .cfa -24 + ^
STACK CFI d8956 $r12: .cfa -48 + ^ $r13: .cfa -40 + ^ $rbx: .cfa -56 + ^
STACK CFI INIT d8b10 1f7 .cfa: $rsp 8 + .ra: .cfa -8 + ^
STACK CFI d8b1b $rbx: .cfa -48 + ^
STACK CFI d8b3c $r12: .cfa -32 + ^ $r13: .cfa -24 + ^ $rbp: .cfa -40 + ^
STACK CFI d8b48 .cfa: $rsp 256 +
STACK CFI d8b60 $r14: .cfa -16 + ^
STACK CFI INIT d8d10 14f .cfa: $rsp 8 + .ra: .cfa -8 + ^
STACK CFI d8d12 .cfa: $rsp 16 +
STACK CFI d8d18 $r12: .cfa -16 + ^
STACK CFI d8d19 .cfa: $rsp 24 +
STACK CFI d8d1b $rbp: .cfa -24 + ^
STACK CFI d8d1c .cfa: $rsp 32 +
STACK CFI d8d1e $rbx: .cfa -32 + ^
STACK CFI d8d25 .cfa: $rsp 240 +
STACK CFI INIT d8e60 44 .cfa: $rsp 8 + .ra: .cfa -8 + ^
STACK CFI INIT d8eb0 e4 .cfa: $rsp 8 + .ra: .cfa -8 + ^
STACK CFI d8eb2 .cfa: $rsp 16 +
STACK CFI d8ebb .cfa: $rsp 24 +
STACK CFI d8ebe $r12: .cfa -24 + ^ $r13: .cfa -16 + ^
STACK CFI d8ec6 .cfa: $rsp 32 +
STACK CFI d8ec7 .cfa: $rsp 40 +
STACK CFI d8ece .cfa: $rsp 8256 +
STACK CFI d8eda $rbp: .cfa -32 + ^ $rbx: .cfa -40 + ^
STACK CFI INIT d8fa0 c .cfa: $rsp 8 + .ra: .cfa -8 + ^
STACK CFI INIT d8fb0 c .cfa: $rsp 8 + .ra: .cfa -8 + ^
STACK CFI INIT d8fc0 1eb .cfa: $rsp 8 + .ra: .cfa -8 + ^
STACK CFI d8fcd $rbp: .cfa -48 + ^ $rbx: .cfa -56 + ^
STACK CFI d8fe8 .cfa: $rsp 96 +
STACK CFI d8feb $r12: .cfa -40 + ^ $r13: .cfa -32 + ^ $r14: .cfa -24 + ^ $r15: .cfa -16 + ^
STACK CFI INIT d91b0 140 .cfa: $rsp 8 + .ra: .cfa -8 + ^
STACK CFI d91b1 .cfa: $rsp 16 +
STACK CFI d91b9 $rbp: .cfa -16 + ^ .cfa: $rbp 16 +
STACK CFI d91c6 $r12: .cfa -48 + ^ $r13: .cfa -40 + ^ $r14: .cfa -32 + ^ $r15: .cfa -24 + ^ $rbx: .cfa -56 + ^
STACK CFI INIT d92f0 c4 .cfa: $rsp 8 + .ra: .cfa -8 + ^
STACK CFI d92f2 .cfa: $rsp 16 +
STACK CFI d92fb .cfa: $rsp 24 +
STACK CFI d92fd .cfa: $rsp 32 +
STACK CFI d92ff .cfa: $rsp 40 +
STACK CFI d9300 .cfa: $rsp 48 +
STACK CFI d9301 .cfa: $rsp 56 +
STACK CFI d9305 $r12: .cfa -40 + ^ $r13: .cfa -32 + ^ $r14: .cfa -24 + ^ $r15: .cfa -16 + ^ $rbp: .cfa -48 + ^ $rbx: .cfa -56 + ^ .cfa: $rsp 80 +
STACK CFI INIT d93c0 e1 .cfa: $rsp 8 + .ra: .cfa -8 + ^
STACK CFI d93c4 .cfa: $rsp 16 +
STACK CFI d93c7 $rbx: .cfa -16 + ^
STACK CFI INIT d94b0 d6 .cfa: $rsp 8 + .ra: .cfa -8 + ^
STACK CFI d94b8 $rbp: .cfa -40 + ^
STACK CFI d94d7 $r12: .cfa -32 + ^ $r13: .cfa -24 + ^ $r14: .cfa -16 + ^ $rbx: .cfa -48 + ^
STACK CFI d94db .cfa: $rsp 128 +
STACK CFI INIT d9590 15 .cfa: $rsp 8 + .ra: .cfa -8 + ^
STACK CFI INIT d95b0 28 .cfa: $rsp 8 + .ra: .cfa -8 + ^
STACK CFI INIT d95e0 25 .cfa: $rsp 8 + .ra: .cfa -8 + ^
STACK CFI INIT d9610 25 .cfa: $rsp 8 + .ra: .cfa -8 + ^
STACK CFI INIT d9640 28 .cfa: $rsp 8 + .ra: .cfa -8 + ^
STACK CFI INIT d9670 28 .cfa: $rsp 8 + .ra: .cfa -8 + ^
STACK CFI INIT d96a0 25 .cfa: $rsp 8 + .ra: .cfa -8 + ^
STACK CFI INIT d96d0 28 .cfa: $rsp 8 + .ra: .cfa -8 + ^
STACK CFI INIT d9700 25 .cfa: $rsp 8 + .ra: .cfa -8 + ^
STACK CFI INIT d9730 25 .cfa: $rsp 8 + .ra: .cfa -8 + ^
STACK CFI INIT d9760 28 .cfa: $rsp 8 + .ra: .cfa -8 + ^
STACK CFI INIT d9790 25 .cfa: $rsp 8 + .ra: .cfa -8 + ^
STACK CFI INIT d97c0 28 .cfa: $rsp 8 + .ra: .cfa -8 + ^
STACK CFI INIT d97f0 58 .cfa: $rsp 8 + .ra: .cfa -8 + ^
STACK CFI d97f1 .cfa: $rsp 16 +
STACK CFI d97f4 $rbx: .cfa -16 + ^
STACK CFI d980a .cfa: $rsp 32 +
STACK CFI INIT d9850 5e .cfa: $rsp 8 + .ra: .cfa -8 + ^
STACK CFI d9851 .cfa: $rsp 16 +
STACK CFI d9854 $rbx: .cfa -16 + ^
STACK CFI d986a .cfa: $rsp 32 +
STACK CFI INIT 1364d0 c .cfa: $rsp 8 + .ra: .cfa -8 + ^
STACK CFI INIT d98b0 25 .cfa: $rsp 8 + .ra: .cfa -8 + ^
STACK CFI d98b4 .cfa: $rsp 16 +
STACK CFI INIT d98e0 82 .cfa: $rsp 8 + .ra: .cfa -8 + ^
STACK CFI d98e9 .cfa: $rsp 16 +
STACK CFI d98eb $rbx: .cfa -16 + ^
STACK CFI INIT d9970 1c .cfa: $rsp 8 + .ra: .cfa -8 + ^
STACK CFI d9974 .cfa: $rsp 16 +
STACK CFI INIT d9990 e2 .cfa: $rsp 8 + .ra: .cfa -8 + ^
STACK CFI d9991 .cfa: $rsp 16 +
STACK CFI d9995 $rbp: .cfa -16 + ^
STACK CFI d999d .cfa: $rsp 24 +
STACK CFI d99a0 $rbx: .cfa -24 + ^
STACK CFI d99a4 .cfa: $rsp 32 +
STACK CFI INIT d9a80 5d .cfa: $rsp 8 + .ra: .cfa -8 + ^
STACK CFI d9a82 .cfa: $rsp 16 +
STACK CFI d9a83 .cfa: $rsp 24 +
STACK CFI d9a86 $r12: .cfa -16 + ^ $rbp: .cfa -24 + ^
STACK CFI d9a8c $rbx: .cfa -32 + ^ .cfa: $rsp 32 +
STACK CFI INIT d9ae0 5c .cfa: $rsp 8 + .ra: .cfa -8 + ^
STACK CFI d9ae2 .cfa: $rsp 16 +
STACK CFI d9ae3 .cfa: $rsp 24 +
STACK CFI d9ae6 $r12: .cfa -16 + ^ $rbp: .cfa -24 + ^
STACK CFI d9aec $rbx: .cfa -32 + ^ .cfa: $rsp 32 +
STACK CFI INIT d9b40 3b .cfa: $rsp 8 + .ra: .cfa -8 + ^
STACK CFI d9b41 .cfa: $rsp 16 +
STACK CFI d9b43 $rbx: .cfa -16 + ^
STACK CFI INIT d9b80 34 .cfa: $rsp 8 + .ra: .cfa -8 + ^
STACK CFI INIT d9bc0 34 .cfa: $rsp 8 + .ra: .cfa -8 + ^
STACK CFI INIT d9c00 14 .cfa: $rsp 8 + .ra: .cfa -8 + ^
STACK CFI INIT d9c20 28 .cfa: $rsp 8 + .ra: .cfa -8 + ^
STACK CFI d9c21 .cfa: $rsp 16 +
STACK CFI d9c27 $rbx: .cfa -16 + ^
STACK CFI INIT d9c50 22 .cfa: $rsp 8 + .ra: .cfa -8 + ^
STACK CFI d9c5b .cfa: $rsp 16 +
STACK CFI INIT d9c80 ac .cfa: $rsp 8 + .ra: .cfa -8 + ^
STACK CFI d9c8c $rbp: .cfa -24 + ^ $rbx: .cfa -32 + ^
STACK CFI d9c95 .cfa: $rsp 48 +
STACK CFI d9ca6 $r12: .cfa -16 + ^
STACK CFI INIT d9d30 301 .cfa: $rsp 8 + .ra: .cfa -8 + ^
STACK CFI d9d32 .cfa: $rsp 16 +
STACK CFI d9d38 .cfa: $rsp 24 +
STACK CFI d9d3b $r14: .cfa -24 + ^ $r15: .cfa -16 + ^
STACK CFI d9d3d .cfa: $rsp 32 +
STACK CFI d9d40 $r13: .cfa -32 + ^
STACK CFI d9d42 .cfa: $rsp 40 +
STACK CFI d9d45 $r12: .cfa -40 + ^
STACK CFI d9d46 .cfa: $rsp 48 +
STACK CFI d9d49 $rbp: .cfa -48 + ^
STACK CFI d9d4a .cfa: $rsp 56 +
STACK CFI d9d4d $rbx: .cfa -56 + ^
STACK CFI d9d51 .cfa: $rsp 96 +
STACK CFI INIT da040 1f1 .cfa: $rsp 8 + .ra: .cfa -8 + ^
STACK CFI da056 $r12: .cfa -40 + ^ $r13: .cfa -32 + ^ $rbp: .cfa -48 + ^
STACK CFI da06c .cfa: $rsp 80 +
STACK CFI da077 $r14: .cfa -24 + ^ $r15: .cfa -16 + ^ $rbx: .cfa -56 + ^
STACK CFI INIT da240 3e .cfa: $rsp 8 + .ra: .cfa -8 + ^
STACK CFI da241 .cfa: $rsp 16 +
STACK CFI da249 $rbx: .cfa -16 + ^
STACK CFI da24d .cfa: $rsp 32 +
STACK CFI INIT da280 35 .cfa: $rsp 8 + .ra: .cfa -8 + ^
STACK CFI da281 .cfa: $rsp 16 +
STACK CFI da28b .cfa: $rsp 32 +
STACK CFI da294 $rbx: .cfa -16 + ^
STACK CFI INIT da2c0 cf .cfa: $rsp 8 + .ra: .cfa -8 + ^
STACK CFI da2cc $rbp: .cfa -40 + ^ $rbx: .cfa -48 + ^
STACK CFI da2e2 .cfa: $rsp 64 +
STACK CFI da2ee $r12: .cfa -32 + ^ $r13: .cfa -24 + ^ $r14: .cfa -16 + ^
STACK CFI INIT da390 329 .cfa: $rsp 8 + .ra: .cfa -8 + ^
STACK CFI da392 .cfa: $rsp 16 +
STACK CFI da394 .cfa: $rsp 24 +
STACK CFI da397 $r14: .cfa -24 + ^ $r15: .cfa -16 + ^
STACK CFI da399 .cfa: $rsp 32 +
STACK CFI da39c $r13: .cfa -32 + ^
STACK CFI da39e .cfa: $rsp 40 +
STACK CFI da3a1 $r12: .cfa -40 + ^
STACK CFI da3a2 .cfa: $rsp 48 +
STACK CFI da3a5 $rbp: .cfa -48 + ^
STACK CFI da3a6 .cfa: $rsp 56 +
STACK CFI da3a9 $rbx: .cfa -56 + ^
STACK CFI da3ad .cfa: $rsp 128 +
STACK CFI INIT da6c0 220 .cfa: $rsp 8 + .ra: .cfa -8 + ^
STACK CFI da6cd $r12: .cfa -40 + ^ $rbp: .cfa -48 + ^
STACK CFI da6e8 .cfa: $rsp 112 +
STACK CFI da6ef $r13: .cfa -32 + ^ $r14: .cfa -24 + ^ $r15: .cfa -16 + ^ $rbx: .cfa -56 + ^
STACK CFI INIT da8e0 6c .cfa: $rsp 8 + .ra: .cfa -8 + ^
STACK CFI da8ee .cfa: $rsp 32 +
STACK CFI da8f4 $rbp: .cfa -16 + ^ $rbx: .cfa -24 + ^
STACK CFI INIT da950 25 .cfa: $rsp 8 + .ra: .cfa -8 + ^
STACK CFI INIT da980 25 .cfa: $rsp 8 + .ra: .cfa -8 + ^
STACK CFI INIT da9b0 55 .cfa: $rsp 8 + .ra: .cfa -8 + ^
STACK CFI INIT daa10 2f .cfa: $rsp 8 + .ra: .cfa -8 + ^
STACK CFI INIT daa85 15 .cfa: $rsp 8 + .ra: .cfa -8 + ^
STACK CFI INIT daaa0 5e .cfa: $rsp 8 + .ra: .cfa -8 + ^
STACK CFI daabd .cfa: $rsp 16 +
STACK CFI daae0 .cfa: $rsp 8 +
STACK CFI INIT dab00 7 .cfa: $rsp 8 + .ra: .cfa -8 + ^
STACK CFI INIT dab10 25 .cfa: $rsp 8 + .ra: .cfa -8 + ^
STACK CFI INIT dab40 25 .cfa: $rsp 8 + .ra: .cfa -8 + ^
STACK CFI INIT dab70 25 .cfa: $rsp 8 + .ra: .cfa -8 + ^
STACK CFI INIT daba0 25 .cfa: $rsp 8 + .ra: .cfa -8 + ^
STACK CFI INIT dabd0 19 .cfa: $rsp 8 + .ra: .cfa -8 + ^
STACK CFI INIT dabf0 12 .cfa: $rsp 8 + .ra: .cfa -8 + ^
STACK CFI INIT dac10 2d .cfa: $rsp 8 + .ra: .cfa -8 + ^
STACK CFI INIT dac40 bb .cfa: $rsp 8 + .ra: .cfa -8 + ^
STACK CFI dac41 .cfa: $rsp 16 +
STACK CFI dac45 .cfa: $rsp 64 +
STACK CFI dac4f $rbx: .cfa -16 + ^
STACK CFI INIT dad00 8b .cfa: $rsp 8 + .ra: .cfa -8 + ^
STACK CFI dad01 .cfa: $rsp 16 +
STACK CFI dad15 .cfa: $rsp 24 +
STACK CFI dad18 $rbp: .cfa -16 + ^ $rbx: .cfa -24 + ^
STACK CFI INIT dad90 7a .cfa: $rsp 8 + .ra: .cfa -8 + ^
STACK CFI INIT dae10 20 .cfa: $rsp 8 + .ra: .cfa -8 + ^
STACK CFI dae14 .cfa: $rsp 16 +
STACK CFI INIT dae30 2a .cfa: $rsp 8 + .ra: .cfa -8 + ^
STACK CFI dae34 .cfa: $rsp 32 +
STACK CFI INIT dae60 28 .cfa: $rsp 8 + .ra: .cfa -8 + ^
STACK CFI INIT dae90 25 .cfa: $rsp 8 + .ra: .cfa -8 + ^
STACK CFI INIT daec0 25 .cfa: $rsp 8 + .ra: .cfa -8 + ^
STACK CFI INIT daef0 28 .cfa: $rsp 8 + .ra: .cfa -8 + ^
STACK CFI INIT daf20 25 .cfa: $rsp 8 + .ra: .cfa -8 + ^
STACK CFI INIT daf50 25 .cfa: $rsp 8 + .ra: .cfa -8 + ^
STACK CFI INIT daf80 25 .cfa: $rsp 8 + .ra: .cfa -8 + ^
STACK CFI INIT dafb0 25 .cfa: $rsp 8 + .ra: .cfa -8 + ^
STACK CFI INIT dafe0 25 .cfa: $rsp 8 + .ra: .cfa -8 + ^
STACK CFI INIT db010 25 .cfa: $rsp 8 + .ra: .cfa -8 + ^
STACK CFI INIT db040 25 .cfa: $rsp 8 + .ra: .cfa -8 + ^
STACK CFI INIT db070 28 .cfa: $rsp 8 + .ra: .cfa -8 + ^
STACK CFI INIT db0a0 64 .cfa: $rsp 8 + .ra: .cfa -8 + ^
STACK CFI db0c0 .cfa: $rsp 16 +
STACK CFI db0e6 .cfa: $rsp 8 +
STACK CFI INIT db110 25 .cfa: $rsp 8 + .ra: .cfa -8 + ^
STACK CFI INIT db140 28 .cfa: $rsp 8 + .ra: .cfa -8 + ^
STACK CFI INIT db170 25 .cfa: $rsp 8 + .ra: .cfa -8 + ^
STACK CFI INIT db1a0 25 .cfa: $rsp 8 + .ra: .cfa -8 + ^
STACK CFI INIT db1d0 25 .cfa: $rsp 8 + .ra: .cfa -8 + ^
STACK CFI INIT db200 25 .cfa: $rsp 8 + .ra: .cfa -8 + ^
STACK CFI INIT db230 25 .cfa: $rsp 8 + .ra: .cfa -8 + ^
STACK CFI INIT db260 28 .cfa: $rsp 8 + .ra: .cfa -8 + ^
STACK CFI INIT db290 28 .cfa: $rsp 8 + .ra: .cfa -8 + ^
STACK CFI INIT db2c0 25 .cfa: $rsp 8 + .ra: .cfa -8 + ^
STACK CFI INIT db2f0 25 .cfa: $rsp 8 + .ra: .cfa -8 + ^
STACK CFI INIT db320 25 .cfa: $rsp 8 + .ra: .cfa -8 + ^
STACK CFI INIT db350 28 .cfa: $rsp 8 + .ra: .cfa -8 + ^
STACK CFI INIT db380 28 .cfa: $rsp 8 + .ra: .cfa -8 + ^
STACK CFI INIT db3b0 28 .cfa: $rsp 8 + .ra: .cfa -8 + ^
STACK CFI INIT db3e0 64 .cfa: $rsp 8 + .ra: .cfa -8 + ^
STACK CFI db400 .cfa: $rsp 16 +
STACK CFI db426 .cfa: $rsp 8 +
STACK CFI INIT db450 25 .cfa: $rsp 8 + .ra: .cfa -8 + ^
STACK CFI INIT db480 64 .cfa: $rsp 8 + .ra: .cfa -8 + ^
STACK CFI db4a0 .cfa: $rsp 16 +
STACK CFI db4c6 .cfa: $rsp 8 +
STACK CFI INIT db4f0 25 .cfa: $rsp 8 + .ra: .cfa -8 + ^
STACK CFI INIT db520 25 .cfa: $rsp 8 + .ra: .cfa -8 + ^
STACK CFI INIT db550 64 .cfa: $rsp 8 + .ra: .cfa -8 + ^
STACK CFI db570 .cfa: $rsp 16 +
STACK CFI db596 .cfa: $rsp 8 +
STACK CFI INIT db5c0 25 .cfa: $rsp 8 + .ra: .cfa -8 + ^
STACK CFI INIT db5f0 28 .cfa: $rsp 8 + .ra: .cfa -8 + ^
STACK CFI INIT db620 25 .cfa: $rsp 8 + .ra: .cfa -8 + ^
STACK CFI INIT db650 25 .cfa: $rsp 8 + .ra: .cfa -8 + ^
STACK CFI INIT db680 16 .cfa: $rsp 8 + .ra: .cfa -8 + ^
STACK CFI INIT db6a0 5e .cfa: $rsp 8 + .ra: .cfa -8 + ^
STACK CFI db6bd .cfa: $rsp 16 +
STACK CFI db6e0 .cfa: $rsp 8 +
STACK CFI INIT db700 25 .cfa: $rsp 8 + .ra: .cfa -8 + ^
STACK CFI INIT db730 5e .cfa: $rsp 8 + .ra: .cfa -8 + ^
STACK CFI db74d .cfa: $rsp 16 +
STACK CFI db770 .cfa: $rsp 8 +
STACK CFI INIT db790 25 .cfa: $rsp 8 + .ra: .cfa -8 + ^
STACK CFI INIT db7c0 25 .cfa: $rsp 8 + .ra: .cfa -8 + ^
STACK CFI INIT db7f0 28 .cfa: $rsp 8 + .ra: .cfa -8 + ^
STACK CFI INIT db820 25 .cfa: $rsp 8 + .ra: .cfa -8 + ^
STACK CFI INIT db850 af .cfa: $rsp 8 + .ra: .cfa -8 + ^
STACK CFI db851 .cfa: $rsp 16 +
STACK CFI db855 .cfa: $rsp 48 +
STACK CFI db85f $rbx: .cfa -16 + ^
STACK CFI INIT db900 64 .cfa: $rsp 8 + .ra: .cfa -8 + ^
STACK CFI db920 .cfa: $rsp 16 +
STACK CFI db946 .cfa: $rsp 8 +
STACK CFI INIT db970 5e .cfa: $rsp 8 + .ra: .cfa -8 + ^
STACK CFI db98d .cfa: $rsp 16 +
STACK CFI db9b0 .cfa: $rsp 8 +
STACK CFI INIT db9d0 af .cfa: $rsp 8 + .ra: .cfa -8 + ^
STACK CFI db9d1 .cfa: $rsp 16 +
STACK CFI db9d5 .cfa: $rsp 48 +
STACK CFI db9df $rbx: .cfa -16 + ^
STACK CFI INIT dba80 5e .cfa: $rsp 8 + .ra: .cfa -8 + ^
STACK CFI dba9d .cfa: $rsp 16 +
STACK CFI dbac0 .cfa: $rsp 8 +
STACK CFI INIT dbae0 64 .cfa: $rsp 8 + .ra: .cfa -8 + ^
STACK CFI dbb00 .cfa: $rsp 16 +
STACK CFI dbb26 .cfa: $rsp 8 +
STACK CFI INIT dbb50 28 .cfa: $rsp 8 + .ra: .cfa -8 + ^
STACK CFI INIT dbb80 25 .cfa: $rsp 8 + .ra: .cfa -8 + ^
STACK CFI INIT dbbb0 25 .cfa: $rsp 8 + .ra: .cfa -8 + ^
STACK CFI INIT dbbe0 28 .cfa: $rsp 8 + .ra: .cfa -8 + ^
STACK CFI INIT dbc10 6b .cfa: $rsp 8 + .ra: .cfa -8 + ^
STACK CFI dbc1d $r12: .cfa -16 + ^ $rbx: .cfa -32 + ^
STACK CFI dbc29 .cfa: $rsp 176 +
STACK CFI dbc3d $rbp: .cfa -24 + ^
STACK CFI INIT dbc80 29f .cfa: $rsp 8 + .ra: .cfa -8 + ^
STACK CFI dbc82 .cfa: $rsp 16 +
STACK CFI dbc84 .cfa: $rsp 24 +
STACK CFI dbc86 .cfa: $rsp 32 +
STACK CFI dbc88 .cfa: $rsp 40 +
STACK CFI dbc89 .cfa: $rsp 48 +
STACK CFI dbc8a .cfa: $rsp 56 +
STACK CFI dbc8e .cfa: $rsp 112 +
STACK CFI dbc9c $r12: .cfa -40 + ^ $r13: .cfa -32 + ^ $r14: .cfa -24 + ^ $r15: .cfa -16 + ^ $rbp: .cfa -48 + ^ $rbx: .cfa -56 + ^
STACK CFI INIT dbf20 22 .cfa: $rsp 8 + .ra: .cfa -8 + ^
STACK CFI dbf24 .cfa: $rsp 32 +
STACK CFI INIT dbf50 9f .cfa: $rsp 8 + .ra: .cfa -8 + ^
STACK CFI dbf54 .cfa: $rsp 48 +
STACK CFI INIT dbff0 ad .cfa: $rsp 8 + .ra: .cfa -8 + ^
STACK CFI dbff4 .cfa: $rsp 64 +
STACK CFI INIT dc0a0 43 .cfa: $rsp 8 + .ra: .cfa -8 + ^
STACK CFI INIT dc0f0 1a .cfa: $rsp 8 + .ra: .cfa -8 + ^
STACK CFI INIT dc110 41 .cfa: $rsp 8 + .ra: .cfa -8 + ^
STACK CFI dc111 .cfa: $rsp 16 +
STACK CFI dc113 $rbx: .cfa -16 + ^
STACK CFI dc122 .cfa: $rsp 160 +
STACK CFI INIT dc160 64 .cfa: $rsp 8 + .ra: .cfa -8 + ^
STACK CFI dc180 .cfa: $rsp 16 +
STACK CFI dc1a6 .cfa: $rsp 8 +
STACK CFI INIT dc1d0 64 .cfa: $rsp 8 + .ra: .cfa -8 + ^
STACK CFI dc1f0 .cfa: $rsp 16 +
STACK CFI dc216 .cfa: $rsp 8 +
STACK CFI INIT dc240 25 .cfa: $rsp 8 + .ra: .cfa -8 + ^
STACK CFI INIT dc270 25 .cfa: $rsp 8 + .ra: .cfa -8 + ^
STACK CFI INIT dc2a0 25 .cfa: $rsp 8 + .ra: .cfa -8 + ^
STACK CFI INIT dc2d0 25 .cfa: $rsp 8 + .ra: .cfa -8 + ^
STACK CFI INIT dc300 28 .cfa: $rsp 8 + .ra: .cfa -8 + ^
STACK CFI INIT dc330 28 .cfa: $rsp 8 + .ra: .cfa -8 + ^
STACK CFI INIT dc360 25 .cfa: $rsp 8 + .ra: .cfa -8 + ^
STACK CFI INIT dc390 25 .cfa: $rsp 8 + .ra: .cfa -8 + ^
STACK CFI INIT dc3c0 25 .cfa: $rsp 8 + .ra: .cfa -8 + ^
STACK CFI INIT dc3f0 25 .cfa: $rsp 8 + .ra: .cfa -8 + ^
STACK CFI INIT dc420 4be .cfa: $rsp 8 + .ra: .cfa -8 + ^
STACK CFI dc421 .cfa: $rsp 16 +
STACK CFI dc42b $rbp: .cfa -16 + ^ .cfa: $rbp 16 +
STACK CFI dc43b $r12: .cfa -48 + ^ $r13: .cfa -40 + ^ $r14: .cfa -32 + ^ $r15: .cfa -24 + ^ $rbx: .cfa -56 + ^
STACK CFI INIT dc8e0 27 .cfa: $rsp 8 + .ra: .cfa -8 + ^
STACK CFI dc8e1 .cfa: $rsp 16 +
STACK CFI dc8e7 $rbx: .cfa -16 + ^
STACK CFI INIT dc910 60 .cfa: $rsp 8 + .ra: .cfa -8 + ^
STACK CFI dc914 .cfa: $rsp 16 +
STACK CFI INIT dc970 2a .cfa: $rsp 8 + .ra: .cfa -8 + ^
STACK CFI dc974 .cfa: $rsp 16 +
STACK CFI INIT dc9a0 1e1 .cfa: $rsp 8 + .ra: .cfa -8 + ^
STACK CFI dc9ac .cfa: $rsp 16 +
STACK CFI INIT dcb90 14f .cfa: $rsp 8 + .ra: .cfa -8 + ^
STACK CFI dcb91 .cfa: $rsp 16 +
STACK CFI dcb9b $rbp: .cfa -16 + ^ .cfa: $rbp 16 +
STACK CFI INIT dcce0 55 .cfa: $rsp 8 + .ra: .cfa -8 + ^
STACK CFI INIT dcd40 1be .cfa: $rsp 8 + .ra: .cfa -8 + ^
STACK CFI dcd4d $rbp: .cfa -32 + ^ $rbx: .cfa -40 + ^
STACK CFI dcd5e .cfa: $rsp 240 +
STACK CFI dcd64 $r12: .cfa -24 + ^ $r13: .cfa -16 + ^
STACK CFI INIT dcf00 3b .cfa: $rsp 8 + .ra: .cfa -8 + ^
STACK CFI INIT dcf40 109 .cfa: $rsp 8 + .ra: .cfa -8 + ^
STACK CFI dcf41 .cfa: $rsp 16 +
STACK CFI dcf43 $rbp: .cfa -16 + ^
STACK CFI dcf44 .cfa: $rsp 24 +
STACK CFI dcf4b $rbx: .cfa -24 + ^
STACK CFI INIT dd050 f .cfa: $rsp 8 + .ra: .cfa -8 + ^
STACK CFI INIT dd060 12 .cfa: $rsp 8 + .ra: .cfa -8 + ^
STACK CFI INIT dd080 26 .cfa: $rsp 8 + .ra: .cfa -8 + ^
STACK CFI INIT dd0b0 195 .cfa: $rsp 8 + .ra: .cfa -8 + ^
STACK CFI dd0bd $rbp: .cfa -32 + ^ $rbx: .cfa -40 + ^
STACK CFI dd0cb .cfa: $rsp 64 +
STACK CFI dd0d1 $r12: .cfa -24 + ^ $r13: .cfa -16 + ^
STACK CFI INIT dd250 41b .cfa: $rsp 8 + .ra: .cfa -8 + ^
STACK CFI dd251 .cfa: $rsp 16 +
STACK CFI dd254 $rbp: .cfa -16 + ^ .cfa: $rbp 16 +
STACK CFI dd25b $r14: .cfa -32 + ^ $r15: .cfa -24 + ^
STACK CFI dd268 $r13: .cfa -40 + ^
STACK CFI dd271 $r12: .cfa -48 + ^
STACK CFI dd28d $rbx: .cfa -56 + ^
STACK CFI INIT dd670 b .cfa: $rsp 8 + .ra: .cfa -8 + ^
STACK CFI INIT dd740 85 .cfa: $rsp 8 + .ra: .cfa -8 + ^
STACK CFI dd742 .cfa: $rsp 16 +
STACK CFI dd744 .cfa: $rsp 24 +
STACK CFI dd747 $r12: .cfa -24 + ^ $r13: .cfa -16 + ^
STACK CFI dd748 .cfa: $rsp 32 +
STACK CFI dd749 .cfa: $rsp 40 +
STACK CFI dd74d .cfa: $rsp 48 +
STACK CFI dd762 $rbp: .cfa -32 + ^ $rbx: .cfa -40 + ^
STACK CFI INIT dd7d0 52 .cfa: $rsp 8 + .ra: .cfa -8 + ^
STACK CFI dd7d4 .cfa: $rsp 16 +
STACK CFI dd7d8 $rbx: .cfa -16 + ^
STACK CFI INIT dd830 52 .cfa: $rsp 8 + .ra: .cfa -8 + ^
STACK CFI dd834 .cfa: $rsp 16 +
STACK CFI dd838 $rbx: .cfa -16 + ^
STACK CFI INIT dd890 95 .cfa: $rsp 8 + .ra: .cfa -8 + ^
STACK CFI dd897 .cfa: $rsp 16 +
STACK CFI dd899 $rbx: .cfa -16 + ^
STACK CFI INIT dd930 62 .cfa: $rsp 8 + .ra: .cfa -8 + ^
STACK CFI dd938 .cfa: $rsp 16 +
STACK CFI dd93a $rbx: .cfa -16 + ^
STACK CFI INIT dd9a0 5d .cfa: $rsp 8 + .ra: .cfa -8 + ^
STACK CFI dd9a8 .cfa: $rsp 16 +
STACK CFI dd9aa $rbx: .cfa -16 + ^
STACK CFI INIT dda00 c5 .cfa: $rsp 8 + .ra: .cfa -8 + ^
STACK CFI dda07 .cfa: $rsp 16 +
STACK CFI dda09 $rbx: .cfa -16 + ^
STACK CFI INIT ddad0 c5 .cfa: $rsp 8 + .ra: .cfa -8 + ^
STACK CFI ddad7 .cfa: $rsp 16 +
STACK CFI ddad9 $rbx: .cfa -16 + ^
STACK CFI INIT ddba0 c5 .cfa: $rsp 8 + .ra: .cfa -8 + ^
STACK CFI ddba7 .cfa: $rsp 16 +
STACK CFI ddba9 $rbx: .cfa -16 + ^
STACK CFI INIT ddc70 c5 .cfa: $rsp 8 + .ra: .cfa -8 + ^
STACK CFI ddc77 .cfa: $rsp 16 +
STACK CFI ddc79 $rbx: .cfa -16 + ^
STACK CFI INIT ddd40 c5 .cfa: $rsp 8 + .ra: .cfa -8 + ^
STACK CFI ddd47 .cfa: $rsp 16 +
STACK CFI ddd49 $rbx: .cfa -16 + ^
STACK CFI INIT dde10 c5 .cfa: $rsp 8 + .ra: .cfa -8 + ^
STACK CFI dde17 .cfa: $rsp 16 +
STACK CFI dde19 $rbx: .cfa -16 + ^
STACK CFI INIT ddee0 c5 .cfa: $rsp 8 + .ra: .cfa -8 + ^
STACK CFI ddee7 .cfa: $rsp 16 +
STACK CFI ddee9 $rbx: .cfa -16 + ^
STACK CFI INIT ddfb0 c5 .cfa: $rsp 8 + .ra: .cfa -8 + ^
STACK CFI ddfb7 .cfa: $rsp 16 +
STACK CFI ddfb9 $rbx: .cfa -16 + ^
STACK CFI INIT de080 c5 .cfa: $rsp 8 + .ra: .cfa -8 + ^
STACK CFI de087 .cfa: $rsp 16 +
STACK CFI de089 $rbx: .cfa -16 + ^
STACK CFI INIT de150 c5 .cfa: $rsp 8 + .ra: .cfa -8 + ^
STACK CFI de157 .cfa: $rsp 16 +
STACK CFI de159 $rbx: .cfa -16 + ^
STACK CFI INIT de220 c5 .cfa: $rsp 8 + .ra: .cfa -8 + ^
STACK CFI de227 .cfa: $rsp 16 +
STACK CFI de229 $rbx: .cfa -16 + ^
STACK CFI INIT de2f0 7b .cfa: $rsp 8 + .ra: .cfa -8 + ^
STACK CFI de2f2 .cfa: $rsp 16 +
STACK CFI de2f4 .cfa: $rsp 24 +
STACK CFI de2f7 $r13: .cfa -24 + ^ $r14: .cfa -16 + ^
STACK CFI de2f9 .cfa: $rsp 32 +
STACK CFI de2fa .cfa: $rsp 40 +
STACK CFI de2fc $r12: .cfa -32 + ^ $rbp: .cfa -40 + ^
STACK CFI de2fd $rbx: .cfa -48 + ^ .cfa: $rsp 48 +
STACK CFI INIT de370 5b .cfa: $rsp 8 + .ra: .cfa -8 + ^
STACK CFI INIT de3d0 88 .cfa: $rsp 8 + .ra: .cfa -8 + ^
STACK CFI de3d7 .cfa: $rsp 16 +
STACK CFI de3d9 $rbx: .cfa -16 + ^
STACK CFI INIT de460 8a .cfa: $rsp 8 + .ra: .cfa -8 + ^
STACK CFI de467 .cfa: $rsp 16 +
STACK CFI de469 $rbx: .cfa -16 + ^
STACK CFI INIT de4f0 88 .cfa: $rsp 8 + .ra: .cfa -8 + ^
STACK CFI de4f7 .cfa: $rsp 16 +
STACK CFI de4f9 $rbx: .cfa -16 + ^
STACK CFI INIT de580 88 .cfa: $rsp 8 + .ra: .cfa -8 + ^
STACK CFI de587 .cfa: $rsp 16 +
STACK CFI de589 $rbx: .cfa -16 + ^
STACK CFI INIT de610 85 .cfa: $rsp 8 + .ra: .cfa -8 + ^
STACK CFI de617 .cfa: $rsp 16 +
STACK CFI de619 $rbx: .cfa -16 + ^
STACK CFI INIT de6a0 8a .cfa: $rsp 8 + .ra: .cfa -8 + ^
STACK CFI de6a7 .cfa: $rsp 16 +
STACK CFI de6a9 $rbx: .cfa -16 + ^
STACK CFI INIT de730 8a .cfa: $rsp 8 + .ra: .cfa -8 + ^
STACK CFI de737 .cfa: $rsp 16 +
STACK CFI de739 $rbx: .cfa -16 + ^
STACK CFI INIT de7c0 8a .cfa: $rsp 8 + .ra: .cfa -8 + ^
STACK CFI de7c7 .cfa: $rsp 16 +
STACK CFI de7c9 $rbx: .cfa -16 + ^
STACK CFI INIT de850 88 .cfa: $rsp 8 + .ra: .cfa -8 + ^
STACK CFI de857 .cfa: $rsp 16 +
STACK CFI de859 $rbx: .cfa -16 + ^
STACK CFI INIT de8e0 8a .cfa: $rsp 8 + .ra: .cfa -8 + ^
STACK CFI de8e7 .cfa: $rsp 16 +
STACK CFI de8e9 $rbx: .cfa -16 + ^
STACK CFI INIT de970 8a .cfa: $rsp 8 + .ra: .cfa -8 + ^
STACK CFI de977 .cfa: $rsp 16 +
STACK CFI de979 $rbx: .cfa -16 + ^
STACK CFI INIT dea00 8a .cfa: $rsp 8 + .ra: .cfa -8 + ^
STACK CFI dea07 .cfa: $rsp 16 +
STACK CFI dea09 $rbx: .cfa -16 + ^
STACK CFI INIT dea90 54 .cfa: $rsp 8 + .ra: .cfa -8 + ^
STACK CFI dea91 .cfa: $rsp 16 +
STACK CFI dea96 $rbx: .cfa -16 + ^
STACK CFI INIT deaf0 51 .cfa: $rsp 8 + .ra: .cfa -8 + ^
STACK CFI deaf1 .cfa: $rsp 16 +
STACK CFI deaf6 $rbx: .cfa -16 + ^
STACK CFI INIT deb50 7b .cfa: $rsp 8 + .ra: .cfa -8 + ^
STACK CFI deb52 .cfa: $rsp 16 +
STACK CFI deb54 .cfa: $rsp 24 +
STACK CFI deb57 $r13: .cfa -24 + ^ $r14: .cfa -16 + ^
STACK CFI deb59 .cfa: $rsp 32 +
STACK CFI deb5a .cfa: $rsp 40 +
STACK CFI deb5c $r12: .cfa -32 + ^ $rbp: .cfa -40 + ^
STACK CFI deb5d .cfa: $rsp 48 +
STACK CFI deb60 $rbx: .cfa -48 + ^
STACK CFI INIT debd0 5b .cfa: $rsp 8 + .ra: .cfa -8 + ^
STACK CFI INIT dec30 75 .cfa: $rsp 8 + .ra: .cfa -8 + ^
STACK CFI dec32 .cfa: $rsp 16 +
STACK CFI dec34 .cfa: $rsp 24 +
STACK CFI dec37 $r12: .cfa -24 + ^ $r13: .cfa -16 + ^
STACK CFI dec38 .cfa: $rsp 32 +
STACK CFI dec39 .cfa: $rsp 40 +
STACK CFI dec3d .cfa: $rsp 48 +
STACK CFI dec47 $rbp: .cfa -32 + ^ $rbx: .cfa -40 + ^
STACK CFI INIT ded38 1c .cfa: $rsp -128 + .ra: $rip
STACK CFI ded46 .cfa: $rsp 0 +
STACK CFI ded4a .cfa: $rsp 128 +
STACK CFI ded52 .cfa: $rsp -128 +
STACK CFI INIT ded54 1c .cfa: $rsp -128 + .ra: $rip
STACK CFI ded62 .cfa: $rsp 0 +
STACK CFI ded66 .cfa: $rsp 128 +
STACK CFI ded6e .cfa: $rsp -128 +
STACK CFI INIT decb0 88 .cfa: $rsp 8 + .ra: .cfa -8 + ^
STACK CFI decb4 .cfa: $rsp 16 +
STACK CFI INIT dee95 1f .cfa: $rsp -128 + .ra: $rip
STACK CFI deea3 .cfa: $rsp 0 +
STACK CFI deea7 .cfa: $rsp 128 +
STACK CFI deeaf .cfa: $rsp -128 +
STACK CFI INIT deeb4 1c .cfa: $rsp -128 + .ra: $rip
STACK CFI deec2 .cfa: $rsp 0 +
STACK CFI deec6 .cfa: $rsp 128 +
STACK CFI deece .cfa: $rsp -128 +
STACK CFI INIT ded70 125 .cfa: $rsp 8 + .ra: .cfa -8 + ^
STACK CFI ded71 .cfa: $rsp 16 +
STACK CFI ded79 .cfa: $rsp 24 +
STACK CFI ded7c $rbp: .cfa -16 + ^ $rbx: .cfa -24 + ^
STACK CFI ded80 .cfa: $rsp 48 +
STACK CFI INIT df01d 1f .cfa: $rsp -128 + .ra: $rip
STACK CFI df02b .cfa: $rsp 0 +
STACK CFI df02f .cfa: $rsp 128 +
STACK CFI df037 .cfa: $rsp -128 +
STACK CFI INIT df03c 1f .cfa: $rsp -128 + .ra: $rip
STACK CFI df04a .cfa: $rsp 0 +
STACK CFI df04e .cfa: $rsp 128 +
STACK CFI df056 .cfa: $rsp -128 +
STACK CFI INIT deed0 14d .cfa: $rsp 8 + .ra: .cfa -8 + ^
STACK CFI deed1 .cfa: $rsp 16 +
STACK CFI deed9 .cfa: $rsp 24 +
STACK CFI deedc $rbp: .cfa -16 + ^ $rbx: .cfa -24 + ^
STACK CFI deee0 .cfa: $rsp 48 +
STACK CFI INIT df1fe 1f .cfa: $rsp -128 + .ra: $rip
STACK CFI df20c .cfa: $rsp 0 +
STACK CFI df210 .cfa: $rsp 128 +
STACK CFI df218 .cfa: $rsp -128 +
STACK CFI INIT df21d 1f .cfa: $rsp -128 + .ra: $rip
STACK CFI df22b .cfa: $rsp 0 +
STACK CFI df22f .cfa: $rsp 128 +
STACK CFI df237 .cfa: $rsp -128 +
STACK CFI INIT df060 19e .cfa: $rsp 8 + .ra: .cfa -8 + ^
STACK CFI df062 .cfa: $rsp 16 +
STACK CFI df064 .cfa: $rsp 24 +
STACK CFI df065 .cfa: $rsp 32 +
STACK CFI df066 .cfa: $rsp 40 +
STACK CFI df069 $r12: .cfa -24 + ^ $r13: .cfa -16 + ^ $rbp: .cfa -32 + ^ $rbx: .cfa -40 + ^
STACK CFI df06d .cfa: $rsp 96 +
STACK CFI INIT df647 1b .cfa: $rsp -128 + .ra: $rip
STACK CFI df651 .cfa: $rsp 0 +
STACK CFI df655 .cfa: $rsp 128 +
STACK CFI df65d .cfa: $rsp -128 +
STACK CFI INIT df662 1b .cfa: $rsp -128 + .ra: $rip
STACK CFI df66c .cfa: $rsp 0 +
STACK CFI df670 .cfa: $rsp 128 +
STACK CFI df678 .cfa: $rsp -128 +
STACK CFI INIT df240 407 .cfa: $rsp 8 + .ra: .cfa -8 + ^
STACK CFI df242 .cfa: $rsp 16 +
STACK CFI df243 .cfa: $rsp 24 +
STACK CFI df246 $r12: .cfa -16 + ^ $rbp: .cfa -24 + ^
STACK CFI df247 .cfa: $rsp 32 +
STACK CFI df24e $rbx: .cfa -32 + ^
STACK CFI INIT df8a2 1f .cfa: $rsp -128 + .ra: $rip
STACK CFI df8b0 .cfa: $rsp 0 +
STACK CFI df8b4 .cfa: $rsp 128 +
STACK CFI df8bc .cfa: $rsp -128 +
STACK CFI INIT df8c1 1f .cfa: $rsp -128 + .ra: $rip
STACK CFI df8cf .cfa: $rsp 0 +
STACK CFI df8d3 .cfa: $rsp 128 +
STACK CFI df8db .cfa: $rsp -128 +
STACK CFI INIT df8e0 1f .cfa: $rsp -128 + .ra: $rip
STACK CFI df8ee .cfa: $rsp 0 +
STACK CFI df8f2 .cfa: $rsp 128 +
STACK CFI df8fa .cfa: $rsp -128 +
STACK CFI INIT df8ff 1f .cfa: $rsp -128 + .ra: $rip
STACK CFI df90d .cfa: $rsp 0 +
STACK CFI df911 .cfa: $rsp 128 +
STACK CFI df919 .cfa: $rsp -128 +
STACK CFI INIT df91e 1f .cfa: $rsp -128 + .ra: $rip
STACK CFI df92c .cfa: $rsp 0 +
STACK CFI df930 .cfa: $rsp 128 +
STACK CFI df938 .cfa: $rsp -128 +
STACK CFI INIT df93d 1f .cfa: $rsp -128 + .ra: $rip
STACK CFI df94b .cfa: $rsp 0 +
STACK CFI df94f .cfa: $rsp 128 +
STACK CFI df957 .cfa: $rsp -128 +
STACK CFI INIT df680 d2 .cfa: $rsp 8 + .ra: .cfa -8 + ^
STACK CFI df684 .cfa: $rsp 80 +
STACK CFI INIT df760 a0 .cfa: $rsp 8 + .ra: .cfa -8 + ^
STACK CFI df764 .cfa: $rsp 16 +
STACK CFI INIT df800 a2 .cfa: $rsp 8 + .ra: .cfa -8 + ^
STACK CFI df804 .cfa: $rsp 32 +
STACK CFI INIT df960 1ed .cfa: $rsp 8 + .ra: .cfa -8 + ^
STACK CFI df962 .cfa: $rsp 16 +
STACK CFI df965 $r15: .cfa -16 + ^
STACK CFI df967 .cfa: $rsp 24 +
STACK CFI df96a $r14: .cfa -24 + ^
STACK CFI df96c .cfa: $rsp 32 +
STACK CFI df96f $r13: .cfa -32 + ^
STACK CFI df971 .cfa: $rsp 40 +
STACK CFI df974 $r12: .cfa -40 + ^
STACK CFI df975 .cfa: $rsp 48 +
STACK CFI df976 .cfa: $rsp 56 +
STACK CFI df97a .cfa: $rsp 112 +
STACK CFI df98c $rbp: .cfa -48 + ^ $rbx: .cfa -56 + ^
STACK CFI INIT dfb50 3be .cfa: $rsp 8 + .ra: .cfa -8 + ^
STACK CFI dfb52 .cfa: $rsp 16 +
STACK CFI dfb54 .cfa: $rsp 24 +
STACK CFI dfb55 .cfa: $rsp 32 +
STACK CFI dfb58 $r12: .cfa -24 + ^ $r13: .cfa -16 + ^ $rbp: .cfa -32 + ^
STACK CFI dfb5e .cfa: $rsp 40 +
STACK CFI dfb61 $rbx: .cfa -40 + ^
STACK CFI dfb65 .cfa: $rsp 64 +
STACK CFI INIT dff10 a7 .cfa: $rsp 8 + .ra: .cfa -8 + ^
STACK CFI dff20 $r12: .cfa -16 + ^
STACK CFI dff2d $rbp: .cfa -24 + ^ $rbx: .cfa -32 + ^
STACK CFI dff31 .cfa: $rsp 32 +
STACK CFI INIT e020e 1b .cfa: $rsp -128 + .ra: $rip
STACK CFI e0218 .cfa: $rsp 0 +
STACK CFI e021c .cfa: $rsp 128 +
STACK CFI e0224 .cfa: $rsp -128 +
STACK CFI INIT e0229 1b .cfa: $rsp -128 + .ra: $rip
STACK CFI e0233 .cfa: $rsp 0 +
STACK CFI e0237 .cfa: $rsp 128 +
STACK CFI e023f .cfa: $rsp -128 +
STACK CFI INIT e0244 1b .cfa: $rsp -128 + .ra: $rip
STACK CFI e024e .cfa: $rsp 0 +
STACK CFI e0252 .cfa: $rsp 128 +
STACK CFI e025a .cfa: $rsp -128 +
STACK CFI INIT e025f 1b .cfa: $rsp -128 + .ra: $rip
STACK CFI e0269 .cfa: $rsp 0 +
STACK CFI e026d .cfa: $rsp 128 +
STACK CFI e0275 .cfa: $rsp -128 +
STACK CFI INIT dffc0 24e .cfa: $rsp 8 + .ra: .cfa -8 + ^
STACK CFI dffc2 .cfa: $rsp 16 +
STACK CFI dffc5 $r15: .cfa -16 + ^
STACK CFI dffc7 .cfa: $rsp 24 +
STACK CFI dffc9 .cfa: $rsp 32 +
STACK CFI dffcc $r13: .cfa -32 + ^ $r14: .cfa -24 + ^
STACK CFI dffce .cfa: $rsp 40 +
STACK CFI dffcf .cfa: $rsp 48 +
STACK CFI dffd2 $r12: .cfa -40 + ^ $rbp: .cfa -48 + ^
STACK CFI dffd3 .cfa: $rsp 56 +
STACK CFI dffd6 $rbx: .cfa -56 + ^
STACK CFI dffda .cfa: $rsp 80 +
STACK CFI INIT e0579 1f .cfa: $rsp -128 + .ra: $rip
STACK CFI e0587 .cfa: $rsp 0 +
STACK CFI e058b .cfa: $rsp 128 +
STACK CFI e0593 .cfa: $rsp -128 +
STACK CFI INIT e0598 1f .cfa: $rsp -128 + .ra: $rip
STACK CFI e05a6 .cfa: $rsp 0 +
STACK CFI e05aa .cfa: $rsp 128 +
STACK CFI e05b2 .cfa: $rsp -128 +
STACK CFI INIT e05b7 1f .cfa: $rsp -128 + .ra: $rip
STACK CFI e05c5 .cfa: $rsp 0 +
STACK CFI e05c9 .cfa: $rsp 128 +
STACK CFI e05d1 .cfa: $rsp -128 +
STACK CFI INIT e05d6 1f .cfa: $rsp -128 + .ra: $rip
STACK CFI e05e4 .cfa: $rsp 0 +
STACK CFI e05e8 .cfa: $rsp 128 +
STACK CFI e05f0 .cfa: $rsp -128 +
STACK CFI INIT e05f5 1f .cfa: $rsp -128 + .ra: $rip
STACK CFI e0603 .cfa: $rsp 0 +
STACK CFI e0607 .cfa: $rsp 128 +
STACK CFI e060f .cfa: $rsp -128 +
STACK CFI INIT e0280 2 .cfa: $rsp 8 + .ra: .cfa -8 + ^
STACK CFI INIT e0290 80 .cfa: $rsp 8 + .ra: .cfa -8 + ^
STACK CFI e0294 .cfa: $rsp 16 +
STACK CFI INIT e0310 269 .cfa: $rsp 8 + .ra: .cfa -8 + ^
STACK CFI e031f $rbp: .cfa -24 + ^ $rbx: .cfa -32 + ^
STACK CFI e032b .cfa: $rsp 640 +
STACK CFI e0333 $r12: .cfa -16 + ^
STACK CFI INIT e06a8 1c .cfa: $rsp -128 + .ra: $rip
STACK CFI e06b6 .cfa: $rsp 0 +
STACK CFI e06ba .cfa: $rsp 128 +
STACK CFI e06c2 .cfa: $rsp -128 +
STACK CFI INIT e06c4 1c .cfa: $rsp -128 + .ra: $rip
STACK CFI e06d2 .cfa: $rsp 0 +
STACK CFI e06d6 .cfa: $rsp 128 +
STACK CFI e06de .cfa: $rsp -128 +
STACK CFI INIT e0620 88 .cfa: $rsp 8 + .ra: .cfa -8 + ^
STACK CFI e0624 .cfa: $rsp 16 +
STACK CFI INIT e0805 1f .cfa: $rsp -128 + .ra: $rip
STACK CFI e0813 .cfa: $rsp 0 +
STACK CFI e0817 .cfa: $rsp 128 +
STACK CFI e081f .cfa: $rsp -128 +
STACK CFI INIT e0824 1c .cfa: $rsp -128 + .ra: $rip
STACK CFI e0832 .cfa: $rsp 0 +
STACK CFI e0836 .cfa: $rsp 128 +
STACK CFI e083e .cfa: $rsp -128 +
STACK CFI INIT e06e0 125 .cfa: $rsp 8 + .ra: .cfa -8 + ^
STACK CFI e06e1 .cfa: $rsp 16 +
STACK CFI e06e9 .cfa: $rsp 24 +
STACK CFI e06ec $rbp: .cfa -16 + ^ $rbx: .cfa -24 + ^
STACK CFI e06f0 .cfa: $rsp 48 +
STACK CFI INIT e09a4 1f .cfa: $rsp -128 + .ra: $rip
STACK CFI e09b2 .cfa: $rsp 0 +
STACK CFI e09b6 .cfa: $rsp 128 +
STACK CFI e09be .cfa: $rsp -128 +
STACK CFI INIT e09c3 1f .cfa: $rsp -128 + .ra: $rip
STACK CFI e09d1 .cfa: $rsp 0 +
STACK CFI e09d5 .cfa: $rsp 128 +
STACK CFI e09dd .cfa: $rsp -128 +
STACK CFI INIT e0840 164 .cfa: $rsp 8 + .ra: .cfa -8 + ^
STACK CFI e0842 .cfa: $rsp 16 +
STACK CFI e084a .cfa: $rsp 24 +
STACK CFI e084d $r12: .cfa -16 + ^ $rbp: .cfa -24 + ^
STACK CFI e084e .cfa: $rsp 32 +
STACK CFI e0852 .cfa: $rsp 48 +
STACK CFI e0888 $rbx: .cfa -32 + ^
STACK CFI INIT e0b8e 1f .cfa: $rsp -128 + .ra: $rip
STACK CFI e0b9c .cfa: $rsp 0 +
STACK CFI e0ba0 .cfa: $rsp 128 +
STACK CFI e0ba8 .cfa: $rsp -128 +
STACK CFI INIT e0bad 1f .cfa: $rsp -128 + .ra: $rip
STACK CFI e0bbb .cfa: $rsp 0 +
STACK CFI e0bbf .cfa: $rsp 128 +
STACK CFI e0bc7 .cfa: $rsp -128 +
STACK CFI INIT e09f0 19e .cfa: $rsp 8 + .ra: .cfa -8 + ^
STACK CFI e09f2 .cfa: $rsp 16 +
STACK CFI e09f4 .cfa: $rsp 24 +
STACK CFI e09f5 .cfa: $rsp 32 +
STACK CFI e09f6 .cfa: $rsp 40 +
STACK CFI e09f9 $r12: .cfa -24 + ^ $r13: .cfa -16 + ^ $rbp: .cfa -32 + ^ $rbx: .cfa -40 + ^
STACK CFI e09fd .cfa: $rsp 96 +
STACK CFI INIT e0db8 1b .cfa: $rsp -128 + .ra: $rip
STACK CFI e0dc2 .cfa: $rsp 0 +
STACK CFI e0dc6 .cfa: $rsp 128 +
STACK CFI e0dce .cfa: $rsp -128 +
STACK CFI INIT e0dd3 18 .cfa: $rsp -128 + .ra: $rip
STACK CFI e0ddd .cfa: $rsp 0 +
STACK CFI e0de1 .cfa: $rsp 128 +
STACK CFI e0de9 .cfa: $rsp -128 +
STACK CFI INIT e0bd0 1e8 .cfa: $rsp 8 + .ra: .cfa -8 + ^
STACK CFI e0bd2 .cfa: $rsp 16 +
STACK CFI e0bd4 .cfa: $rsp 24 +
STACK CFI e0bd6 .cfa: $rsp 32 +
STACK CFI e0bd8 .cfa: $rsp 40 +
STACK CFI e0bdb $r12: .cfa -40 + ^ $r13: .cfa -32 + ^ $r14: .cfa -24 + ^ $r15: .cfa -16 + ^
STACK CFI e0bdc .cfa: $rsp 48 +
STACK CFI e0bdd .cfa: $rsp 56 +
STACK CFI e0be0 $rbp: .cfa -48 + ^ $rbx: .cfa -56 + ^
STACK CFI e0be4 .cfa: $rsp 64 +
STACK CFI INIT e1012 1f .cfa: $rsp -128 + .ra: $rip
STACK CFI e1020 .cfa: $rsp 0 +
STACK CFI e1024 .cfa: $rsp 128 +
STACK CFI e102c .cfa: $rsp -128 +
STACK CFI INIT e1031 1f .cfa: $rsp -128 + .ra: $rip
STACK CFI e103f .cfa: $rsp 0 +
STACK CFI e1043 .cfa: $rsp 128 +
STACK CFI e104b .cfa: $rsp -128 +
STACK CFI INIT e1050 1f .cfa: $rsp -128 + .ra: $rip
STACK CFI e105e .cfa: $rsp 0 +
STACK CFI e1062 .cfa: $rsp 128 +
STACK CFI e106a .cfa: $rsp -128 +
STACK CFI INIT e106f 1f .cfa: $rsp -128 + .ra: $rip
STACK CFI e107d .cfa: $rsp 0 +
STACK CFI e1081 .cfa: $rsp 128 +
STACK CFI e1089 .cfa: $rsp -128 +
STACK CFI INIT e108e 1f .cfa: $rsp -128 + .ra: $rip
STACK CFI e109c .cfa: $rsp 0 +
STACK CFI e10a0 .cfa: $rsp 128 +
STACK CFI e10a8 .cfa: $rsp -128 +
STACK CFI INIT e10ad 1f .cfa: $rsp -128 + .ra: $rip
STACK CFI e10bb .cfa: $rsp 0 +
STACK CFI e10bf .cfa: $rsp 128 +
STACK CFI e10c7 .cfa: $rsp -128 +
STACK CFI INIT e0df0 d2 .cfa: $rsp 8 + .ra: .cfa -8 + ^
STACK CFI e0df4 .cfa: $rsp 80 +
STACK CFI INIT e0ed0 a0 .cfa: $rsp 8 + .ra: .cfa -8 + ^
STACK CFI e0ed4 .cfa: $rsp 16 +
STACK CFI INIT e0f70 a2 .cfa: $rsp 8 + .ra: .cfa -8 + ^
STACK CFI e0f74 .cfa: $rsp 32 +
STACK CFI INIT e10d0 1ed .cfa: $rsp 8 + .ra: .cfa -8 + ^
STACK CFI e10d2 .cfa: $rsp 16 +
STACK CFI e10d5 $r15: .cfa -16 + ^
STACK CFI e10d7 .cfa: $rsp 24 +
STACK CFI e10da $r14: .cfa -24 + ^
STACK CFI e10dc .cfa: $rsp 32 +
STACK CFI e10df $r13: .cfa -32 + ^
STACK CFI e10e1 .cfa: $rsp 40 +
STACK CFI e10e4 $r12: .cfa -40 + ^
STACK CFI e10e5 .cfa: $rsp 48 +
STACK CFI e10e6 .cfa: $rsp 56 +
STACK CFI e10ea .cfa: $rsp 112 +
STACK CFI e10fc $rbp: .cfa -48 + ^ $rbx: .cfa -56 + ^
STACK CFI INIT e12c0 387 .cfa: $rsp 8 + .ra: .cfa -8 + ^
STACK CFI e12c2 .cfa: $rsp 16 +
STACK CFI e12c5 $r15: .cfa -16 + ^
STACK CFI e12c7 .cfa: $rsp 24 +
STACK CFI e12c9 .cfa: $rsp 32 +
STACK CFI e12cd $r13: .cfa -32 + ^ $r14: .cfa -24 + ^
STACK CFI e12cf .cfa: $rsp 40 +
STACK CFI e12d2 $r12: .cfa -40 + ^
STACK CFI e12d3 .cfa: $rsp 48 +
STACK CFI e12d6 $rbp: .cfa -48 + ^
STACK CFI e12d7 .cfa: $rsp 56 +
STACK CFI e12da $rbx: .cfa -56 + ^
STACK CFI e12de .cfa: $rsp 80 +
STACK CFI INIT e1650 bf .cfa: $rsp 8 + .ra: .cfa -8 + ^
STACK CFI e165d $rbp: .cfa -40 + ^ $rbx: .cfa -48 + ^
STACK CFI e1673 .cfa: $rsp 48 +
STACK CFI e1679 $r12: .cfa -32 + ^ $r13: .cfa -24 + ^ $r14: .cfa -16 + ^
STACK CFI INIT e1966 1b .cfa: $rsp -128 + .ra: $rip
STACK CFI e1970 .cfa: $rsp 0 +
STACK CFI e1974 .cfa: $rsp 128 +
STACK CFI e197c .cfa: $rsp -128 +
STACK CFI INIT e1981 1b .cfa: $rsp -128 + .ra: $rip
STACK CFI e198b .cfa: $rsp 0 +
STACK CFI e198f .cfa: $rsp 128 +
STACK CFI e1997 .cfa: $rsp -128 +
STACK CFI INIT e199c 1b .cfa: $rsp -128 + .ra: $rip
STACK CFI e19a6 .cfa: $rsp 0 +
STACK CFI e19aa .cfa: $rsp 128 +
STACK CFI e19b2 .cfa: $rsp -128 +
STACK CFI INIT e19b7 1b .cfa: $rsp -128 + .ra: $rip
STACK CFI e19c1 .cfa: $rsp 0 +
STACK CFI e19c5 .cfa: $rsp 128 +
STACK CFI e19cd .cfa: $rsp -128 +
STACK CFI INIT e1710 256 .cfa: $rsp 8 + .ra: .cfa -8 + ^
STACK CFI e1712 .cfa: $rsp 16 +
STACK CFI e1714 .cfa: $rsp 24 +
STACK CFI e1717 $r14: .cfa -24 + ^ $r15: .cfa -16 + ^
STACK CFI e1719 .cfa: $rsp 32 +
STACK CFI e171b .cfa: $rsp 40 +
STACK CFI e171c .cfa: $rsp 48 +
STACK CFI e171f $r12: .cfa -40 + ^ $r13: .cfa -32 + ^ $rbp: .cfa -48 + ^
STACK CFI e1720 .cfa: $rsp 56 +
STACK CFI e1723 $rbx: .cfa -56 + ^
STACK CFI e1727 .cfa: $rsp 80 +
STACK CFI INIT e19e0 5a6 .cfa: $rsp 8 + .ra: .cfa -8 + ^
STACK CFI e19e2 .cfa: $rsp 16 +
STACK CFI e19e4 .cfa: $rsp 24 +
STACK CFI e19e6 .cfa: $rsp 32 +
STACK CFI e19e8 .cfa: $rsp 40 +
STACK CFI e19e9 .cfa: $rsp 48 +
STACK CFI e19ea .cfa: $rsp 56 +
STACK CFI e19ed $r12: .cfa -40 + ^ $r13: .cfa -32 + ^ $r14: .cfa -24 + ^ $r15: .cfa -16 + ^ $rbp: .cfa -48 + ^ $rbx: .cfa -56 + ^
STACK CFI e19f1 .cfa: $rsp 80 +
STACK CFI INIT e1f90 b7 .cfa: $rsp 8 + .ra: .cfa -8 + ^
STACK CFI e1f9e .cfa: $rsp 32 +
STACK CFI e1fa9 $rbp: .cfa -16 + ^ $rbx: .cfa -24 + ^
STACK CFI INIT e2050 ff .cfa: $rsp 8 + .ra: .cfa -8 + ^
STACK CFI e2052 .cfa: $rsp 16 +
STACK CFI e2058 $r13: .cfa -16 + ^
STACK CFI e205f .cfa: $rsp 24 +
STACK CFI e2060 .cfa: $rsp 32 +
STACK CFI e2061 .cfa: $rsp 40 +
STACK CFI e2064 $r12: .cfa -24 + ^ $rbp: .cfa -32 + ^ $rbx: .cfa -40 + ^
STACK CFI e206e .cfa: $rsp 256 +
STACK CFI INIT e2150 3e .cfa: $rsp 8 + .ra: .cfa -8 + ^
STACK CFI e2151 .cfa: $rsp 16 +
STACK CFI e2154 $rbx: .cfa -16 + ^
STACK CFI INIT e2190 a8 .cfa: $rsp 8 + .ra: .cfa -8 + ^
STACK CFI e219d $rbp: .cfa -40 + ^ $rbx: .cfa -48 + ^
STACK CFI e21b5 .cfa: $rsp 48 +
STACK CFI e21bb $r12: .cfa -32 + ^ $r13: .cfa -24 + ^ $r14: .cfa -16 + ^
STACK CFI INIT e2240 25 .cfa: $rsp 8 + .ra: .cfa -8 + ^
STACK CFI e224d .cfa: $rsp 16 +
STACK CFI e2250 $rbx: .cfa -16 + ^
STACK CFI INIT e2270 3e .cfa: $rsp 8 + .ra: .cfa -8 + ^
STACK CFI e227e .cfa: $rsp 32 +
STACK CFI e2289 $rbp: .cfa -16 + ^ $rbx: .cfa -24 + ^
STACK CFI INIT e22b0 3e .cfa: $rsp 8 + .ra: .cfa -8 + ^
STACK CFI e22be .cfa: $rsp 32 +
STACK CFI e22c9 $rbp: .cfa -16 + ^ $rbx: .cfa -24 + ^
STACK CFI INIT e22f0 3e .cfa: $rsp 8 + .ra: .cfa -8 + ^
STACK CFI e22fe .cfa: $rsp 32 +
STACK CFI e2309 $rbp: .cfa -16 + ^ $rbx: .cfa -24 + ^
STACK CFI INIT e2330 5b .cfa: $rsp 8 + .ra: .cfa -8 + ^
STACK CFI e233e .cfa: $rsp 32 +
STACK CFI e2349 $rbp: .cfa -16 + ^ $rbx: .cfa -24 + ^
STACK CFI INIT e2390 6c .cfa: $rsp 8 + .ra: .cfa -8 + ^
STACK CFI e239d $rbp: .cfa -24 + ^ $rbx: .cfa -32 + ^
STACK CFI e23a6 .cfa: $rsp 32 +
STACK CFI e23ad $r12: .cfa -16 + ^
STACK CFI INIT e2400 5d .cfa: $rsp 8 + .ra: .cfa -8 + ^
STACK CFI e240d $rbp: .cfa -24 + ^ $rbx: .cfa -32 + ^
STACK CFI e2419 .cfa: $rsp 32 +
STACK CFI e241c $r12: .cfa -16 + ^
STACK CFI INIT e2460 33 .cfa: $rsp 8 + .ra: .cfa -8 + ^
STACK CFI INIT e24a0 50 .cfa: $rsp 8 + .ra: .cfa -8 + ^
STACK CFI e24a1 .cfa: $rsp 16 +
STACK CFI e24a4 $rbp: .cfa -16 + ^
STACK CFI e24a5 .cfa: $rsp 24 +
STACK CFI e24a9 .cfa: $rsp 32 +
STACK CFI e24b2 $rbx: .cfa -24 + ^
STACK CFI INIT e24f0 f5 .cfa: $rsp 8 + .ra: .cfa -8 + ^
STACK CFI e24f2 .cfa: $rsp 16 +
STACK CFI e24fa $r15: .cfa -16 + ^
STACK CFI e24fc .cfa: $rsp 24 +
STACK CFI e24ff $r14: .cfa -24 + ^
STACK CFI e2501 .cfa: $rsp 32 +
STACK CFI e2503 .cfa: $rsp 40 +
STACK CFI e2504 .cfa: $rsp 48 +
STACK CFI e2505 .cfa: $rsp 56 +
STACK CFI e2509 .cfa: $rsp 80 +
STACK CFI e250c $r12: .cfa -40 + ^ $r13: .cfa -32 + ^ $rbp: .cfa -48 + ^ $rbx: .cfa -56 + ^
STACK CFI INIT e25f0 52 .cfa: $rsp 8 + .ra: .cfa -8 + ^
STACK CFI INIT e2650 95 .cfa: $rsp 8 + .ra: .cfa -8 + ^
STACK CFI INIT e26f0 23d .cfa: $rsp 8 + .ra: .cfa -8 + ^
STACK CFI e26fa $rbp: .cfa -40 + ^
STACK CFI e271b $r12: .cfa -32 + ^ $r14: .cfa -16 + ^ $rbx: .cfa -48 + ^
STACK CFI e2727 .cfa: $rsp 432 +
STACK CFI e2773 $r13: .cfa -24 + ^
STACK CFI INIT e2930 c6 .cfa: $rsp 8 + .ra: .cfa -8 + ^
STACK CFI e2938 $rbx: .cfa -32 + ^
STACK CFI e2946 .cfa: $rsp 32 +
STACK CFI e294e $r12: .cfa -16 + ^ $rbp: .cfa -24 + ^
STACK CFI INIT e2a00 8b .cfa: $rsp 8 + .ra: .cfa -8 + ^
STACK CFI e2a0d $rbp: .cfa -24 + ^ $rbx: .cfa -32 + ^
STACK CFI e2a16 .cfa: $rsp 32 +
STACK CFI e2a20 $r12: .cfa -16 + ^
STACK CFI INIT e2a90 195 .cfa: $rsp 8 + .ra: .cfa -8 + ^
STACK CFI e2a91 .cfa: $rsp 16 +
STACK CFI e2a94 $rbp: .cfa -16 + ^ .cfa: $rbp 16 +
STACK CFI e2a99 $r15: .cfa -24 + ^
STACK CFI e2aa2 $r12: .cfa -48 + ^ $r13: .cfa -40 + ^ $r14: .cfa -32 + ^
STACK CFI e2aae $rbx: .cfa -56 + ^
STACK CFI INIT e2c30 66f .cfa: $rsp 8 + .ra: .cfa -8 + ^
STACK CFI e2c32 .cfa: $rsp 16 +
STACK CFI e2c34 .cfa: $rsp 24 +
STACK CFI e2c37 $r14: .cfa -24 + ^ $r15: .cfa -16 + ^
STACK CFI e2c39 .cfa: $rsp 32 +
STACK CFI e2c3b .cfa: $rsp 40 +
STACK CFI e2c3c .cfa: $rsp 48 +
STACK CFI e2c3d .cfa: $rsp 56 +
STACK CFI e2c41 .cfa: $rsp 112 +
STACK CFI e2c45 $r12: .cfa -40 + ^ $r13: .cfa -32 + ^ $rbp: .cfa -48 + ^ $rbx: .cfa -56 + ^
STACK CFI INIT e32a0 340 .cfa: $rsp 8 + .ra: .cfa -8 + ^
STACK CFI e32a2 .cfa: $rsp 16 +
STACK CFI e32a4 .cfa: $rsp 24 +
STACK CFI e32a6 .cfa: $rsp 32 +
STACK CFI e32a7 .cfa: $rsp 40 +
STACK CFI e32aa $r12: .cfa -32 + ^ $r13: .cfa -24 + ^ $r14: .cfa -16 + ^ $rbp: .cfa -40 + ^
STACK CFI e32ab .cfa: $rsp 48 +
STACK CFI e32ae $rbx: .cfa -48 + ^
STACK CFI e32b2 .cfa: $rsp 64 +
STACK CFI INIT e35e0 4e .cfa: $rsp 8 + .ra: .cfa -8 + ^
STACK CFI e35e1 .cfa: $rsp 16 +
STACK CFI e35e3 $rbp: .cfa -16 + ^
STACK CFI e35e4 .cfa: $rsp 24 +
STACK CFI e35e8 .cfa: $rsp 32 +
STACK CFI e35ec $rbx: .cfa -24 + ^
STACK CFI INIT e3630 a7 .cfa: $rsp 8 + .ra: .cfa -8 + ^
STACK CFI e3631 .cfa: $rsp 16 +
STACK CFI e3634 $rbx: .cfa -16 + ^
STACK CFI e3638 .cfa: $rsp 32 +
STACK CFI INIT e36e0 d4 .cfa: $rsp 8 + .ra: .cfa -8 + ^
STACK CFI e36e8 $rbx: .cfa -40 + ^
STACK CFI e36fb .cfa: $rsp 48 +
STACK CFI e3705 $r12: .cfa -24 + ^ $r13: .cfa -16 + ^ $rbp: .cfa -32 + ^
STACK CFI INIT e37c0 82 .cfa: $rsp 8 + .ra: .cfa -8 + ^
STACK CFI e37c1 .cfa: $rsp 16 +
STACK CFI e37c3 $rbp: .cfa -16 + ^
STACK CFI e37c4 .cfa: $rsp 24 +
STACK CFI e37c7 $rbx: .cfa -24 + ^
STACK CFI e37cb .cfa: $rsp 32 +
STACK CFI INIT e3850 6e .cfa: $rsp 8 + .ra: .cfa -8 + ^
STACK CFI e385d $rbp: .cfa -24 + ^ $rbx: .cfa -32 + ^
STACK CFI e3866 .cfa: $rsp 32 +
STACK CFI e386e $r12: .cfa -16 + ^
STACK CFI INIT e38c0 21c .cfa: $rsp 8 + .ra: .cfa -8 + ^
STACK CFI e38c2 .cfa: $rsp 16 +
STACK CFI e38c5 $r15: .cfa -16 + ^
STACK CFI e38c7 .cfa: $rsp 24 +
STACK CFI e38ca $r14: .cfa -24 + ^
STACK CFI e38cc .cfa: $rsp 32 +
STACK CFI e38cf $r13: .cfa -32 + ^
STACK CFI e38d1 .cfa: $rsp 40 +
STACK CFI e38d4 $r12: .cfa -40 + ^
STACK CFI e38d5 .cfa: $rsp 48 +
STACK CFI e38d7 $rbp: .cfa -48 + ^
STACK CFI e38d8 .cfa: $rsp 56 +
STACK CFI e38dc .cfa: $rsp 112 +
STACK CFI e38e7 $rbx: .cfa -56 + ^
STACK CFI INIT e3ae0 27f .cfa: $rsp 8 + .ra: .cfa -8 + ^
STACK CFI e3afa $r12: .cfa -40 + ^ $r13: .cfa -32 + ^ $rbp: .cfa -48 + ^ $rbx: .cfa -56 + ^
STACK CFI e3b08 .cfa: $rsp 80 +
STACK CFI e3b17 $r14: .cfa -24 + ^ $r15: .cfa -16 + ^
STACK CFI INIT e3d60 1cd .cfa: $rsp 8 + .ra: .cfa -8 + ^
STACK CFI e3d6d $rbp: .cfa -40 + ^ $rbx: .cfa -48 + ^
STACK CFI e3d82 .cfa: $rsp 48 +
STACK CFI e3d86 $r12: .cfa -32 + ^ $r13: .cfa -24 + ^ $r14: .cfa -16 + ^
STACK CFI INIT e3f30 564 .cfa: $rsp 8 + .ra: .cfa -8 + ^
STACK CFI e3f32 .cfa: $rsp 16 +
STACK CFI e3f35 $r15: .cfa -16 + ^
STACK CFI e3f37 .cfa: $rsp 24 +
STACK CFI e3f3a $r14: .cfa -24 + ^
STACK CFI e3f3c .cfa: $rsp 32 +
STACK CFI e3f3f $r13: .cfa -32 + ^
STACK CFI e3f46 .cfa: $rsp 40 +
STACK CFI e3f49 $r12: .cfa -40 + ^
STACK CFI e3f4a .cfa: $rsp 48 +
STACK CFI e3f4b .cfa: $rsp 56 +
STACK CFI e3f4f .cfa: $rsp 128 +
STACK CFI e3f61 $rbp: .cfa -48 + ^ $rbx: .cfa -56 + ^
STACK CFI INIT e44a0 7e .cfa: $rsp 8 + .ra: .cfa -8 + ^
STACK CFI e44a2 .cfa: $rsp 16 +
STACK CFI e44a4 .cfa: $rsp 24 +
STACK CFI e44a6 .cfa: $rsp 32 +
STACK CFI e44a9 $r12: .cfa -32 + ^ $r13: .cfa -24 + ^ $r14: .cfa -16 + ^
STACK CFI e44aa .cfa: $rsp 40 +
STACK CFI e44ab .cfa: $rsp 48 +
STACK CFI e44b7 $rbp: .cfa -40 + ^ $rbx: .cfa -48 + ^
STACK CFI INIT e4520 1418 .cfa: $rsp 8 + .ra: .cfa -8 + ^
STACK CFI e4521 .cfa: $rsp 16 +
STACK CFI e4524 $rbp: .cfa -16 + ^ .cfa: $rbp 16 +
STACK CFI e4529 $r15: .cfa -24 + ^
STACK CFI e455b $r12: .cfa -48 + ^ $r13: .cfa -40 + ^ $r14: .cfa -32 + ^ $rbx: .cfa -56 + ^
STACK CFI INIT e5940 a7 .cfa: $rsp 8 + .ra: .cfa -8 + ^
STACK CFI e594e .cfa: $rsp 32 +
STACK CFI e5954 $rbp: .cfa -16 + ^ $rbx: .cfa -24 + ^
STACK CFI INIT e59f0 14c .cfa: $rsp 8 + .ra: .cfa -8 + ^
STACK CFI e59f1 .cfa: $rsp 16 +
STACK CFI e59f5 .cfa: $rsp 24 +
STACK CFI e59f8 $rbp: .cfa -16 + ^ $rbx: .cfa -24 + ^
STACK CFI e59ff .cfa: $rsp 256 +
STACK CFI INIT e5b40 f .cfa: $rsp 8 + .ra: .cfa -8 + ^
STACK CFI INIT e5b50 4e .cfa: $rsp 8 + .ra: .cfa -8 + ^
STACK CFI e5b51 .cfa: $rsp 16 +
STACK CFI e5b59 $rbp: .cfa -16 + ^
STACK CFI e5b5a .cfa: $rsp 24 +
STACK CFI e5b5d $rbx: .cfa -24 + ^
STACK CFI e5b63 .cfa: $rsp 32 +
STACK CFI INIT e5ba0 96 .cfa: $rsp 8 + .ra: .cfa -8 + ^
STACK CFI e5ba1 .cfa: $rsp 16 +
STACK CFI e5ba2 .cfa: $rsp 24 +
STACK CFI e5ba5 $rbp: .cfa -16 + ^ $rbx: .cfa -24 + ^
STACK CFI e5ba9 .cfa: $rsp 32 +
STACK CFI INIT e5c40 3c .cfa: $rsp 8 + .ra: .cfa -8 + ^
STACK CFI INIT e5c80 8e .cfa: $rsp 8 + .ra: .cfa -8 + ^
STACK CFI e5c84 .cfa: $rsp 16 +
STACK CFI e5c8c $rbx: .cfa -16 + ^
STACK CFI INIT e5d10 12c .cfa: $rsp 8 + .ra: .cfa -8 + ^
STACK CFI e5d11 .cfa: $rsp 16 +
STACK CFI e5d14 $rbp: .cfa -16 + ^
STACK CFI e5d15 .cfa: $rsp 24 +
STACK CFI e5d18 $rbx: .cfa -24 + ^
STACK CFI e5d1c .cfa: $rsp 32 +
STACK CFI INIT e5e40 30f .cfa: $rsp 8 + .ra: .cfa -8 + ^
STACK CFI e5e42 .cfa: $rsp 16 +
STACK CFI e5e44 .cfa: $rsp 24 +
STACK CFI e5e47 $r14: .cfa -24 + ^ $r15: .cfa -16 + ^
STACK CFI e5e49 .cfa: $rsp 32 +
STACK CFI e5e4b .cfa: $rsp 40 +
STACK CFI e5e4c .cfa: $rsp 48 +
STACK CFI e5e4f $r12: .cfa -40 + ^ $r13: .cfa -32 + ^ $rbp: .cfa -48 + ^
STACK CFI e5e50 .cfa: $rsp 56 +
STACK CFI e5e54 .cfa: $rsp 112 +
STACK CFI e5e5b $rbx: .cfa -56 + ^
STACK CFI INIT e6150 c76 .cfa: $rsp 8 + .ra: .cfa -8 + ^
STACK CFI e6151 .cfa: $rsp 16 +
STACK CFI e6154 $rbp: .cfa -16 + ^ .cfa: $rbp 16 +
STACK CFI e615d $r13: .cfa -40 + ^ $r14: .cfa -32 + ^ $r15: .cfa -24 + ^
STACK CFI e6163 $r12: .cfa -48 + ^ $rbx: .cfa -56 + ^
STACK CFI INIT e6dd0 21 .cfa: $rsp 8 + .ra: .cfa -8 + ^
STACK CFI INIT e6e00 5a .cfa: $rsp 8 + .ra: .cfa -8 + ^
STACK CFI INIT e6e60 14 .cfa: $rsp 8 + .ra: .cfa -8 + ^
STACK CFI INIT e6e80 42 .cfa: $rsp 8 + .ra: .cfa -8 + ^
STACK CFI INIT e6ed0 26 .cfa: $rsp 8 + .ra: .cfa -8 + ^
STACK CFI INIT e6f00 26 .cfa: $rsp 8 + .ra: .cfa -8 + ^
STACK CFI INIT e6f30 26 .cfa: $rsp 8 + .ra: .cfa -8 + ^
STACK CFI INIT e6f60 26 .cfa: $rsp 8 + .ra: .cfa -8 + ^
STACK CFI INIT e6f90 26 .cfa: $rsp 8 + .ra: .cfa -8 + ^
STACK CFI INIT e6fc0 26 .cfa: $rsp 8 + .ra: .cfa -8 + ^
STACK CFI INIT e6ff0 26 .cfa: $rsp 8 + .ra: .cfa -8 + ^
STACK CFI INIT e7020 26 .cfa: $rsp 8 + .ra: .cfa -8 + ^
STACK CFI INIT e7050 26 .cfa: $rsp 8 + .ra: .cfa -8 + ^
STACK CFI INIT e7080 26 .cfa: $rsp 8 + .ra: .cfa -8 + ^
STACK CFI INIT e70b0 26 .cfa: $rsp 8 + .ra: .cfa -8 + ^
STACK CFI INIT e70e0 26 .cfa: $rsp 8 + .ra: .cfa -8 + ^
STACK CFI INIT e7110 26 .cfa: $rsp 8 + .ra: .cfa -8 + ^
STACK CFI INIT e7140 26 .cfa: $rsp 8 + .ra: .cfa -8 + ^
STACK CFI INIT e7170 26 .cfa: $rsp 8 + .ra: .cfa -8 + ^
STACK CFI INIT 111df0 26 .cfa: $rsp 8 + .ra: .cfa -8 + ^
STACK CFI INIT e71a0 26 .cfa: $rsp 8 + .ra: .cfa -8 + ^
STACK CFI INIT 111e20 26 .cfa: $rsp 8 + .ra: .cfa -8 + ^
STACK CFI INIT e71d0 26 .cfa: $rsp 8 + .ra: .cfa -8 + ^
STACK CFI INIT 111e50 26 .cfa: $rsp 8 + .ra: .cfa -8 + ^
STACK CFI INIT e7200 26 .cfa: $rsp 8 + .ra: .cfa -8 + ^
STACK CFI INIT 111e80 26 .cfa: $rsp 8 + .ra: .cfa -8 + ^
STACK CFI INIT e7230 26 .cfa: $rsp 8 + .ra: .cfa -8 + ^
STACK CFI INIT 111eb0 26 .cfa: $rsp 8 + .ra: .cfa -8 + ^
STACK CFI INIT e7260 26 .cfa: $rsp 8 + .ra: .cfa -8 + ^
STACK CFI INIT 111ee0 26 .cfa: $rsp 8 + .ra: .cfa -8 + ^
STACK CFI INIT e7290 26 .cfa: $rsp 8 + .ra: .cfa -8 + ^
STACK CFI INIT e72c0 26 .cfa: $rsp 8 + .ra: .cfa -8 + ^
STACK CFI INIT e72f0 26 .cfa: $rsp 8 + .ra: .cfa -8 + ^
STACK CFI INIT e7320 26 .cfa: $rsp 8 + .ra: .cfa -8 + ^
STACK CFI INIT e7350 26 .cfa: $rsp 8 + .ra: .cfa -8 + ^
STACK CFI INIT e7380 26 .cfa: $rsp 8 + .ra: .cfa -8 + ^
STACK CFI INIT e73b0 26 .cfa: $rsp 8 + .ra: .cfa -8 + ^
STACK CFI INIT e73e0 26 .cfa: $rsp 8 + .ra: .cfa -8 + ^
STACK CFI INIT e7410 26 .cfa: $rsp 8 + .ra: .cfa -8 + ^
STACK CFI INIT e7440 26 .cfa: $rsp 8 + .ra: .cfa -8 + ^
STACK CFI INIT 111f10 38 .cfa: $rsp 8 + .ra: .cfa -8 + ^
STACK CFI 111f14 .cfa: $rsp 16 +
STACK CFI INIT e7470 31 .cfa: $rsp 8 + .ra: .cfa -8 + ^
STACK CFI e7474 .cfa: $rsp 16 +
STACK CFI INIT e74b0 27 .cfa: $rsp 8 + .ra: .cfa -8 + ^
STACK CFI e74b2 .cfa: $rsp 16 +
STACK CFI e74b3 $r10: .cfa -16 + ^ $rdx: .cfa -24 + ^ .cfa: $rsp 24 +
STACK CFI e74d4 $rdx: $rdx .cfa: $rsp 16 +
STACK CFI e74d6 $r10: $r10 .cfa: $rsp 8 +
STACK CFI INIT e74e0 1c .cfa: $rsp 8 + .ra: .cfa -8 + ^
STACK CFI e74e1 .cfa: $rsp 16 +
STACK CFI e74e2 $rdx: .cfa -24 + ^ $rsi: .cfa -16 + ^ .cfa: $rsp 24 +
STACK CFI e74fa $rdx: $rdx .cfa: $rsp 16 +
STACK CFI e74fb $rsi: $rsi .cfa: $rsp 8 +
STACK CFI INIT e7500 56 .cfa: $rsp 8 + .ra: .cfa -8 + ^
STACK CFI e7530 .cfa: $rsp 16 +
STACK CFI INIT e7560 59 .cfa: $rsp 8 + .ra: .cfa -8 + ^
STACK CFI INIT e75c0 1c .cfa: $rsp 8 + .ra: .cfa -8 + ^
STACK CFI INIT 136565 1c .cfa: $rsp -128 + .ra: $rip
STACK CFI 136573 .cfa: $rsp 0 +
STACK CFI 136577 .cfa: $rsp 128 +
STACK CFI 13657f .cfa: $rsp -128 +
STACK CFI INIT 136581 1c .cfa: $rsp -128 + .ra: $rip
STACK CFI 13658f .cfa: $rsp 0 +
STACK CFI 136593 .cfa: $rsp 128 +
STACK CFI 13659b .cfa: $rsp -128 +
STACK CFI INIT e777a 1f .cfa: $rsp -128 + .ra: $rip
STACK CFI e7788 .cfa: $rsp 0 +
STACK CFI e778c .cfa: $rsp 128 +
STACK CFI e7794 .cfa: $rsp -128 +
STACK CFI INIT e7799 1f .cfa: $rsp -128 + .ra: $rip
STACK CFI e77a7 .cfa: $rsp 0 +
STACK CFI e77ab .cfa: $rsp 128 +
STACK CFI e77b3 .cfa: $rsp -128 +
STACK CFI INIT e75e0 27 .cfa: $rsp 8 + .ra: .cfa -8 + ^
STACK CFI INIT 1364e0 85 .cfa: $rsp 8 + .ra: .cfa -8 + ^
STACK CFI 1364e1 .cfa: $rsp 16 +
STACK CFI 13654d $rbx: .cfa -16 + ^
STACK CFI INIT e7610 16a .cfa: $rsp 8 + .ra: .cfa -8 + ^
STACK CFI e7612 .cfa: $rsp 16 +
STACK CFI e7617 $r12: .cfa -16 + ^
STACK CFI e7618 .cfa: $rsp 24 +
STACK CFI e761b $rbp: .cfa -24 + ^
STACK CFI e761c .cfa: $rsp 32 +
STACK CFI e761f $rbx: .cfa -32 + ^
STACK CFI e7628 .cfa: $rsp 48 +
STACK CFI INIT e7920 1f .cfa: $rsp -128 + .ra: $rip
STACK CFI e792e .cfa: $rsp 0 +
STACK CFI e7932 .cfa: $rsp 128 +
STACK CFI e793a .cfa: $rsp -128 +
STACK CFI INIT e793f 1f .cfa: $rsp -128 + .ra: $rip
STACK CFI e794d .cfa: $rsp 0 +
STACK CFI e7951 .cfa: $rsp 128 +
STACK CFI e7959 .cfa: $rsp -128 +
STACK CFI INIT e77c0 160 .cfa: $rsp 8 + .ra: .cfa -8 + ^
STACK CFI e77c1 .cfa: $rsp 16 +
STACK CFI e77ce $rbp: .cfa -16 + ^ .cfa: $rbp 16 +
STACK CFI INIT 1365a0 26 .cfa: $rsp 8 + .ra: .cfa -8 + ^
STACK CFI INIT e7960 5a .cfa: $rsp 8 + .ra: .cfa -8 + ^
STACK CFI e7961 .cfa: $rsp 16 +
STACK CFI e796d $rbx: .cfa -16 + ^
STACK CFI INIT e79c0 68 .cfa: $rsp 8 + .ra: .cfa -8 + ^
STACK CFI INIT e7a30 cd .cfa: $rsp 8 + .ra: .cfa -8 + ^
STACK CFI e7a43 .cfa: $rsp 96 +
STACK CFI e7a4c $r12: .cfa -16 + ^ $rbp: .cfa -24 + ^ $rbx: .cfa -32 + ^
STACK CFI INIT e7b00 14d .cfa: $rsp 8 + .ra: .cfa -8 + ^
STACK CFI e7b02 .cfa: $rsp 16 +
STACK CFI e7b04 .cfa: $rsp 24 +
STACK CFI e7b06 .cfa: $rsp 32 +
STACK CFI e7b08 .cfa: $rsp 40 +
STACK CFI e7b09 .cfa: $rsp 48 +
STACK CFI e7b0c $r12: .cfa -40 + ^ $r13: .cfa -32 + ^ $r14: .cfa -24 + ^ $r15: .cfa -16 + ^ $rbp: .cfa -48 + ^
STACK CFI e7b0d .cfa: $rsp 56 +
STACK CFI e7b11 .cfa: $rsp 128 +
STACK CFI e7b40 $rbx: .cfa -56 + ^
STACK CFI INIT e7c50 1e .cfa: $rsp 8 + .ra: .cfa -8 + ^
STACK CFI e7c54 .cfa: $rsp 32 +
STACK CFI INIT e7c70 7a .cfa: $rsp 8 + .ra: .cfa -8 + ^
STACK CFI e7c7c $r12: .cfa -16 + ^ $rbp: .cfa -24 + ^
STACK CFI e7c85 .cfa: $rsp 48 +
STACK CFI e7ca7 $rbx: .cfa -32 + ^
STACK CFI INIT e7cf0 325 .cfa: $rsp 8 + .ra: .cfa -8 + ^
STACK CFI e7cf2 .cfa: $rsp 16 +
STACK CFI e7cf4 .cfa: $rsp 24 +
STACK CFI e7cf6 .cfa: $rsp 32 +
STACK CFI e7cf8 .cfa: $rsp 40 +
STACK CFI e7cf9 .cfa: $rsp 48 +
STACK CFI e7cfa .cfa: $rsp 56 +
STACK CFI e7cfd $r12: .cfa -40 + ^ $r13: .cfa -32 + ^ $r14: .cfa -24 + ^ $r15: .cfa -16 + ^ $rbp: .cfa -48 + ^ $rbx: .cfa -56 + ^
STACK CFI e7d01 .cfa: $rsp 176 +
STACK CFI INIT e8020 99 .cfa: $rsp 8 + .ra: .cfa -8 + ^
STACK CFI INIT e80c0 2e6 .cfa: $rsp 8 + .ra: .cfa -8 + ^
STACK CFI e80cd $rbp: .cfa -48 + ^ $rbx: .cfa -56 + ^
STACK CFI e80e5 .cfa: $rsp 128 +
STACK CFI e80ea $r12: .cfa -40 + ^ $r13: .cfa -32 + ^ $r14: .cfa -24 + ^ $r15: .cfa -16 + ^
STACK CFI INIT e83b0 bf .cfa: $rsp 8 + .ra: .cfa -8 + ^
STACK CFI e83b4 .cfa: $rsp 16 +
STACK CFI e83bd $rbx: .cfa -16 + ^
STACK CFI INIT e8470 18e .cfa: $rsp 8 + .ra: .cfa -8 + ^
STACK CFI e8471 .cfa: $rsp 16 +
STACK CFI e8474 .cfa: $rsp 24 +
STACK CFI e8483 $rbp: .cfa -16 + ^ $rbx: .cfa -24 + ^
STACK CFI INIT e8600 cb .cfa: $rsp 8 + .ra: .cfa -8 + ^
STACK CFI e860d $r12: .cfa -24 + ^ $rbx: .cfa -40 + ^
STACK CFI e861b .cfa: $rsp 48 +
STACK CFI e8628 $r13: .cfa -16 + ^ $rbp: .cfa -32 + ^
STACK CFI INIT 1369f0 31 .cfa: $rsp 8 + .ra: .cfa -8 + ^
STACK CFI 1369f1 .cfa: $rsp 16 +
STACK CFI 1369f8 $rbx: .cfa -16 + ^
STACK CFI INIT e86d0 a .cfa: $rsp 8 + .ra: .cfa -8 + ^
STACK CFI INIT e86e0 13 .cfa: $rsp 8 + .ra: .cfa -8 + ^
STACK CFI e86e4 .cfa: $rsp 16 +
STACK CFI INIT e8700 303 .cfa: $rsp 8 + .ra: .cfa -8 + ^
STACK CFI e8702 .cfa: $rsp 16 +
STACK CFI e8709 $r15: .cfa -16 + ^
STACK CFI e870b .cfa: $rsp 24 +
STACK CFI e8712 $r14: .cfa -24 + ^
STACK CFI e8714 .cfa: $rsp 32 +
STACK CFI e871b $r13: .cfa -32 + ^
STACK CFI e871d .cfa: $rsp 40 +
STACK CFI e8723 $r12: .cfa -40 + ^
STACK CFI e8724 .cfa: $rsp 48 +
STACK CFI e8727 $rbp: .cfa -48 + ^
STACK CFI e8728 .cfa: $rsp 56 +
STACK CFI e872b $rbx: .cfa -56 + ^
STACK CFI e872f .cfa: $rsp 64 +
STACK CFI INIT e8a10 b84 .cfa: $rsp 8 + .ra: .cfa -8 + ^
STACK CFI e8a12 .cfa: $rsp 16 +
STACK CFI e8a14 .cfa: $rsp 24 +
STACK CFI e8a16 .cfa: $rsp 32 +
STACK CFI e8a18 .cfa: $rsp 40 +
STACK CFI e8a19 .cfa: $rsp 48 +
STACK CFI e8a1a .cfa: $rsp 56 +
STACK CFI e8a1d $r12: .cfa -40 + ^ $r13: .cfa -32 + ^ $r14: .cfa -24 + ^ $r15: .cfa -16 + ^ $rbp: .cfa -48 + ^ $rbx: .cfa -56 + ^
STACK CFI e8a24 .cfa: $rsp 8416 +
STACK CFI INIT e95a0 7 .cfa: $rsp 8 + .ra: .cfa -8 + ^
STACK CFI INIT ea2b0 1f .cfa: $rsp -128 + .ra: $rip
STACK CFI ea2be .cfa: $rsp 0 +
STACK CFI ea2c2 .cfa: $rsp 128 +
STACK CFI ea2ca .cfa: $rsp -128 +
STACK CFI INIT ea2cf 1f .cfa: $rsp -128 + .ra: $rip
STACK CFI ea2dd .cfa: $rsp 0 +
STACK CFI ea2e1 .cfa: $rsp 128 +
STACK CFI ea2e9 .cfa: $rsp -128 +
STACK CFI INIT e95b0 93 .cfa: $rsp 8 + .ra: .cfa -8 + ^
STACK CFI e95b2 .cfa: $rsp 16 +
STACK CFI e95b5 $r15: .cfa -16 + ^
STACK CFI e95b7 .cfa: $rsp 24 +
STACK CFI e95b9 .cfa: $rsp 32 +
STACK CFI e95bb .cfa: $rsp 40 +
STACK CFI e95bc .cfa: $rsp 48 +
STACK CFI e95bd .cfa: $rsp 56 +
STACK CFI e95c1 $r12: .cfa -40 + ^ $r13: .cfa -32 + ^ $r14: .cfa -24 + ^ $rbp: .cfa -48 + ^ $rbx: .cfa -56 + ^ .cfa: $rsp 80 +
STACK CFI INIT e9650 5d .cfa: $rsp 8 + .ra: .cfa -8 + ^
STACK CFI e9651 .cfa: $rsp 16 +
STACK CFI e9654 $rbp: .cfa -16 + ^
STACK CFI e9655 .cfa: $rsp 24 +
STACK CFI e9659 .cfa: $rsp 32 +
STACK CFI e9667 $rbx: .cfa -24 + ^
STACK CFI INIT e96b0 2a1 .cfa: $rsp 8 + .ra: .cfa -8 + ^
STACK CFI e96bd $rbp: .cfa -48 + ^ $rbx: .cfa -56 + ^
STACK CFI e96d5 .cfa: $rsp 96 +
STACK CFI e96e2 $r12: .cfa -40 + ^ $r13: .cfa -32 + ^ $r14: .cfa -24 + ^ $r15: .cfa -16 + ^
STACK CFI INIT e9960 f7 .cfa: $rsp 8 + .ra: .cfa -8 + ^
STACK CFI e996c $r12: .cfa -24 + ^ $rbp: .cfa -32 + ^
STACK CFI e9983 $r13: .cfa -16 + ^ $rbx: .cfa -40 + ^
STACK CFI e9987 .cfa: $rsp 64 +
STACK CFI INIT e9a60 11f .cfa: $rsp 8 + .ra: .cfa -8 + ^
STACK CFI e9a62 .cfa: $rsp 16 +
STACK CFI e9a66 .cfa: $rsp 24 +
STACK CFI e9a67 .cfa: $rsp 32 +
STACK CFI e9a70 $r12: .cfa -16 + ^ $rbp: .cfa -24 + ^ $rbx: .cfa -32 + ^
STACK CFI INIT e9b80 221 .cfa: $rsp 8 + .ra: .cfa -8 + ^
STACK CFI e9b82 .cfa: $rsp 16 +
STACK CFI e9b8c $r15: .cfa -16 + ^
STACK CFI e9b8e .cfa: $rsp 24 +
STACK CFI e9b90 .cfa: $rsp 32 +
STACK CFI e9b92 .cfa: $rsp 40 +
STACK CFI e9b93 .cfa: $rsp 48 +
STACK CFI e9b95 $r12: .cfa -40 + ^ $r13: .cfa -32 + ^ $r14: .cfa -24 + ^ $rbp: .cfa -48 + ^
STACK CFI e9b96 .cfa: $rsp 56 +
STACK CFI e9b99 $rbx: .cfa -56 + ^
STACK CFI e9ba0 .cfa: $rsp 80 +
STACK CFI INIT e9db0 49a .cfa: $rsp 8 + .ra: .cfa -8 + ^
STACK CFI e9db2 .cfa: $rsp 16 +
STACK CFI e9dbb .cfa: $rsp 24 +
STACK CFI e9dbd .cfa: $rsp 32 +
STACK CFI e9dbf .cfa: $rsp 40 +
STACK CFI e9dc0 .cfa: $rsp 48 +
STACK CFI e9dc1 .cfa: $rsp 56 +
STACK CFI e9dc8 .cfa: $rsp 400 +
STACK CFI e9dd9 $r12: .cfa -40 + ^ $r13: .cfa -32 + ^ $r14: .cfa -24 + ^ $r15: .cfa -16 + ^ $rbp: .cfa -48 + ^ $rbx: .cfa -56 + ^
STACK CFI INIT ea250 60 .cfa: $rsp 8 + .ra: .cfa -8 + ^
STACK CFI ea254 .cfa: $rsp 16 +
STACK CFI INIT ea4fe 1f .cfa: $rsp -128 + .ra: $rip
STACK CFI ea50c .cfa: $rsp 0 +
STACK CFI ea510 .cfa: $rsp 128 +
STACK CFI ea518 .cfa: $rsp -128 +
STACK CFI INIT ea51d 1f .cfa: $rsp -128 + .ra: $rip
STACK CFI ea52b .cfa: $rsp 0 +
STACK CFI ea52f .cfa: $rsp 128 +
STACK CFI ea537 .cfa: $rsp -128 +
STACK CFI INIT ea2f0 b6 .cfa: $rsp 8 + .ra: .cfa -8 + ^
STACK CFI ea2f4 .cfa: $rsp 32 +
STACK CFI INIT ea3b0 14e .cfa: $rsp 8 + .ra: .cfa -8 + ^
STACK CFI ea3b1 .cfa: $rsp 16 +
STACK CFI ea3b4 $rbx: .cfa -16 + ^
STACK CFI ea3bb .cfa: $rsp 160 +
STACK CFI INIT ea540 c .cfa: $rsp 8 + .ra: .cfa -8 + ^
STACK CFI INIT ea550 90 .cfa: $rsp 8 + .ra: .cfa -8 + ^
STACK CFI ea55c $rbp: .cfa -24 + ^ $rbx: .cfa -32 + ^
STACK CFI ea568 .cfa: $rsp 160 +
STACK CFI ea587 $r12: .cfa -16 + ^
STACK CFI INIT eb61a 1f .cfa: $rsp -128 + .ra: $rip
STACK CFI eb628 .cfa: $rsp 0 +
STACK CFI eb62c .cfa: $rsp 128 +
STACK CFI eb634 .cfa: $rsp -128 +
STACK CFI INIT eb639 1f .cfa: $rsp -128 + .ra: $rip
STACK CFI eb647 .cfa: $rsp 0 +
STACK CFI eb64b .cfa: $rsp 128 +
STACK CFI eb653 .cfa: $rsp -128 +
STACK CFI INIT eb658 1f .cfa: $rsp -128 + .ra: $rip
STACK CFI eb666 .cfa: $rsp 0 +
STACK CFI eb66a .cfa: $rsp 128 +
STACK CFI eb672 .cfa: $rsp -128 +
STACK CFI INIT eb677 1f .cfa: $rsp -128 + .ra: $rip
STACK CFI eb685 .cfa: $rsp 0 +
STACK CFI eb689 .cfa: $rsp 128 +
STACK CFI eb691 .cfa: $rsp -128 +
STACK CFI INIT eb696 1f .cfa: $rsp -128 + .ra: $rip
STACK CFI eb6a4 .cfa: $rsp 0 +
STACK CFI eb6a8 .cfa: $rsp 128 +
STACK CFI eb6b0 .cfa: $rsp -128 +
STACK CFI INIT eb6b5 1f .cfa: $rsp -128 + .ra: $rip
STACK CFI eb6c3 .cfa: $rsp 0 +
STACK CFI eb6c7 .cfa: $rsp 128 +
STACK CFI eb6cf .cfa: $rsp -128 +
STACK CFI INIT ea5e0 29 .cfa: $rsp 8 + .ra: .cfa -8 + ^
STACK CFI INIT ea610 63 .cfa: $rsp 8 + .ra: .cfa -8 + ^
STACK CFI ea612 .cfa: $rsp 16 +
STACK CFI ea616 .cfa: $rsp 24 +
STACK CFI ea619 $r12: .cfa -16 + ^ $rbp: .cfa -24 + ^
STACK CFI ea61a .cfa: $rsp 32 +
STACK CFI ea61c $rbx: .cfa -32 + ^
STACK CFI INIT 1365d0 22 .cfa: $rsp 8 + .ra: .cfa -8 + ^
STACK CFI INIT 136600 75 .cfa: $rsp 8 + .ra: .cfa -8 + ^
STACK CFI 136602 .cfa: $rsp 16 +
STACK CFI 136603 .cfa: $rsp 24 +
STACK CFI 13660a $r12: .cfa -16 + ^ $rbp: .cfa -24 + ^
STACK CFI 13660b .cfa: $rsp 32 +
STACK CFI 136610 $rbx: .cfa -32 + ^
STACK CFI INIT ea680 373 .cfa: $rsp 8 + .ra: .cfa -8 + ^
STACK CFI ea681 .cfa: $rsp 16 +
STACK CFI ea686 $rbp: .cfa -16 + ^ .cfa: $rbp 16 +
STACK CFI ea691 $r12: .cfa -48 + ^ $rbx: .cfa -56 + ^
STACK CFI ea6d4 $r13: .cfa -40 + ^ $r14: .cfa -32 + ^ $r15: .cfa -24 + ^
STACK CFI INIT eaa00 af .cfa: $rsp 8 + .ra: .cfa -8 + ^
STACK CFI eaa02 .cfa: $rsp 16 +
STACK CFI eaa04 .cfa: $rsp 24 +
STACK CFI eaa07 $r13: .cfa -24 + ^ $r14: .cfa -16 + ^
STACK CFI eaa09 .cfa: $rsp 32 +
STACK CFI eaa0c $r12: .cfa -32 + ^
STACK CFI eaa0d .cfa: $rsp 40 +
STACK CFI eaa10 $rbp: .cfa -40 + ^
STACK CFI eaa11 .cfa: $rsp 48 +
STACK CFI eaa14 $rbx: .cfa -48 + ^
STACK CFI INIT eaab0 13 .cfa: $rsp 8 + .ra: .cfa -8 + ^
STACK CFI INIT eaad0 511 .cfa: $rsp 8 + .ra: .cfa -8 + ^
STACK CFI eaad2 .cfa: $rsp 16 +
STACK CFI eaad4 .cfa: $rsp 24 +
STACK CFI eaad7 $r14: .cfa -24 + ^ $r15: .cfa -16 + ^
STACK CFI eaad9 .cfa: $rsp 32 +
STACK CFI eaadb .cfa: $rsp 40 +
STACK CFI eaadc .cfa: $rsp 48 +
STACK CFI eaadd .cfa: $rsp 56 +
STACK CFI eaae1 .cfa: $rsp 112 +
STACK CFI eaae8 $r12: .cfa -40 + ^ $r13: .cfa -32 + ^ $rbp: .cfa -48 + ^ $rbx: .cfa -56 + ^
STACK CFI INIT eaff0 107 .cfa: $rsp 8 + .ra: .cfa -8 + ^
STACK CFI eaff2 .cfa: $rsp 16 +
STACK CFI eaff4 .cfa: $rsp 24 +
STACK CFI eaff7 $r14: .cfa -24 + ^ $r15: .cfa -16 + ^
STACK CFI eaff9 .cfa: $rsp 32 +
STACK CFI eaffc $r13: .cfa -32 + ^
STACK CFI eaffe .cfa: $rsp 40 +
STACK CFI eb005 $r12: .cfa -40 + ^
STACK CFI eb006 .cfa: $rsp 48 +
STACK CFI eb007 .cfa: $rsp 56 +
STACK CFI eb009 $rbp: .cfa -48 + ^ $rbx: .cfa -56 + ^
STACK CFI eb00d .cfa: $rsp 64 +
STACK CFI INIT eb100 104 .cfa: $rsp 8 + .ra: .cfa -8 + ^
STACK CFI eb10d $rbp: .cfa -40 + ^ $rbx: .cfa -48 + ^
STACK CFI eb123 .cfa: $rsp 48 +
STACK CFI eb129 $r12: .cfa -32 + ^ $r13: .cfa -24 + ^ $r14: .cfa -16 + ^
STACK CFI INIT 111f50 10 .cfa: $rsp 8 + .ra: .cfa -8 + ^
STACK CFI INIT eb210 40a .cfa: $rsp 8 + .ra: .cfa -8 + ^
STACK CFI eb21d $rbp: .cfa -48 + ^ $rbx: .cfa -56 + ^
STACK CFI eb22a $r12: .cfa -40 + ^ $r13: .cfa -32 + ^
STACK CFI eb23e .cfa: $rsp 144 +
STACK CFI eb274 $r14: .cfa -24 + ^ $r15: .cfa -16 + ^
STACK CFI INIT eb6e0 db .cfa: $rsp 8 + .ra: .cfa -8 + ^
STACK CFI eb6e2 .cfa: $rsp 16 +
STACK CFI eb6e5 $r15: .cfa -16 + ^
STACK CFI eb6e7 .cfa: $rsp 24 +
STACK CFI eb6ea $r14: .cfa -24 + ^
STACK CFI eb6ec .cfa: $rsp 32 +
STACK CFI eb6ee .cfa: $rsp 40 +
STACK CFI eb6f1 $r12: .cfa -40 + ^ $r13: .cfa -32 + ^
STACK CFI eb6f2 .cfa: $rsp 48 +
STACK CFI eb6f5 $rbp: .cfa -48 + ^
STACK CFI eb6f6 .cfa: $rsp 56 +
STACK CFI eb6f9 $rbx: .cfa -56 + ^
STACK CFI eb6fd .cfa: $rsp 112 +
STACK CFI INIT eb7c0 7e .cfa: $rsp 8 + .ra: .cfa -8 + ^
STACK CFI eb7c1 .cfa: $rsp 16 +
STACK CFI eb7c4 $rbx: .cfa -16 + ^
STACK CFI eb7cb .cfa: $rsp 32 +
STACK CFI INIT eb840 c9 .cfa: $rsp 8 + .ra: .cfa -8 + ^
STACK CFI eb842 .cfa: $rsp 16 +
STACK CFI eb845 $r15: .cfa -16 + ^
STACK CFI eb847 .cfa: $rsp 24 +
STACK CFI eb84a $r14: .cfa -24 + ^
STACK CFI eb84c .cfa: $rsp 32 +
STACK CFI eb84e .cfa: $rsp 40 +
STACK CFI eb851 $r12: .cfa -40 + ^ $r13: .cfa -32 + ^
STACK CFI eb852 .cfa: $rsp 48 +
STACK CFI eb855 $rbp: .cfa -48 + ^
STACK CFI eb856 .cfa: $rsp 56 +
STACK CFI eb859 $rbx: .cfa -56 + ^
STACK CFI eb85d .cfa: $rsp 80 +
STACK CFI INIT eb910 111 .cfa: $rsp 8 + .ra: .cfa -8 + ^
STACK CFI eb912 .cfa: $rsp 16 +
STACK CFI eb915 $r15: .cfa -16 + ^
STACK CFI eb917 .cfa: $rsp 24 +
STACK CFI eb91a $r14: .cfa -24 + ^
STACK CFI eb91c .cfa: $rsp 32 +
STACK CFI eb91f $r13: .cfa -32 + ^
STACK CFI eb921 .cfa: $rsp 40 +
STACK CFI eb924 $r12: .cfa -40 + ^
STACK CFI eb925 .cfa: $rsp 48 +
STACK CFI eb926 .cfa: $rsp 56 +
STACK CFI eb929 $rbp: .cfa -48 + ^ $rbx: .cfa -56 + ^
STACK CFI eb92d .cfa: $rsp 96 +
STACK CFI INIT eba30 2af .cfa: $rsp 8 + .ra: .cfa -8 + ^
STACK CFI eba32 .cfa: $rsp 16 +
STACK CFI eba34 .cfa: $rsp 24 +
STACK CFI eba37 $r14: .cfa -24 + ^ $r15: .cfa -16 + ^
STACK CFI eba39 .cfa: $rsp 32 +
STACK CFI eba3b .cfa: $rsp 40 +
STACK CFI eba3c .cfa: $rsp 48 +
STACK CFI eba3f $r12: .cfa -40 + ^ $r13: .cfa -32 + ^ $rbp: .cfa -48 + ^
STACK CFI eba40 .cfa: $rsp 56 +
STACK CFI eba43 $rbx: .cfa -56 + ^
STACK CFI eba47 .cfa: $rsp 144 +
STACK CFI INIT ebce0 a3 .cfa: $rsp 8 + .ra: .cfa -8 + ^
STACK CFI ebced $rbp: .cfa -32 + ^ $rbx: .cfa -40 + ^
STACK CFI ebcfb .cfa: $rsp 48 +
STACK CFI ebd08 $r12: .cfa -24 + ^ $r13: .cfa -16 + ^
STACK CFI INIT 111f60 a .cfa: $rsp 8 + .ra: .cfa -8 + ^
STACK CFI INIT ebd90 a3 .cfa: $rsp 8 + .ra: .cfa -8 + ^
STACK CFI ebd9d $rbp: .cfa -32 + ^ $rbx: .cfa -40 + ^
STACK CFI ebdab .cfa: $rsp 48 +
STACK CFI ebdb8 $r12: .cfa -24 + ^ $r13: .cfa -16 + ^
STACK CFI INIT 111f70 a .cfa: $rsp 8 + .ra: .cfa -8 + ^
STACK CFI INIT ebe40 a8 .cfa: $rsp 8 + .ra: .cfa -8 + ^
STACK CFI ebe4d $rbp: .cfa -32 + ^ $rbx: .cfa -40 + ^
STACK CFI ebe5b .cfa: $rsp 48 +
STACK CFI ebe68 $r12: .cfa -24 + ^ $r13: .cfa -16 + ^
STACK CFI INIT 111f80 a .cfa: $rsp 8 + .ra: .cfa -8 + ^
STACK CFI INIT ebef0 a8 .cfa: $rsp 8 + .ra: .cfa -8 + ^
STACK CFI ebefd $rbp: .cfa -32 + ^ $rbx: .cfa -40 + ^
STACK CFI ebf0b .cfa: $rsp 48 +
STACK CFI ebf18 $r12: .cfa -24 + ^ $r13: .cfa -16 + ^
STACK CFI INIT 111f90 a .cfa: $rsp 8 + .ra: .cfa -8 + ^
STACK CFI INIT ebfa0 9e .cfa: $rsp 8 + .ra: .cfa -8 + ^
STACK CFI ebfad $rbp: .cfa -32 + ^ $rbx: .cfa -40 + ^
STACK CFI ebfbb .cfa: $rsp 48 +
STACK CFI ebfc8 $r12: .cfa -24 + ^ $r13: .cfa -16 + ^
STACK CFI INIT 111fa0 a .cfa: $rsp 8 + .ra: .cfa -8 + ^
STACK CFI INIT ec040 9e .cfa: $rsp 8 + .ra: .cfa -8 + ^
STACK CFI ec04d $rbp: .cfa -32 + ^ $rbx: .cfa -40 + ^
STACK CFI ec05b .cfa: $rsp 48 +
STACK CFI ec068 $r12: .cfa -24 + ^ $r13: .cfa -16 + ^
STACK CFI INIT ec0e0 a3 .cfa: $rsp 8 + .ra: .cfa -8 + ^
STACK CFI ec0ed $rbp: .cfa -32 + ^ $rbx: .cfa -40 + ^
STACK CFI ec0fb .cfa: $rsp 48 +
STACK CFI ec108 $r12: .cfa -24 + ^ $r13: .cfa -16 + ^
STACK CFI INIT 111fb0 a .cfa: $rsp 8 + .ra: .cfa -8 + ^
STACK CFI INIT ec190 a3 .cfa: $rsp 8 + .ra: .cfa -8 + ^
STACK CFI ec19d $rbp: .cfa -32 + ^ $rbx: .cfa -40 + ^
STACK CFI ec1ab .cfa: $rsp 48 +
STACK CFI ec1b8 $r12: .cfa -24 + ^ $r13: .cfa -16 + ^
STACK CFI INIT 111fc0 a .cfa: $rsp 8 + .ra: .cfa -8 + ^
STACK CFI INIT ec240 9e .cfa: $rsp 8 + .ra: .cfa -8 + ^
STACK CFI ec24d $rbp: .cfa -32 + ^ $rbx: .cfa -40 + ^
STACK CFI ec25b .cfa: $rsp 48 +
STACK CFI ec268 $r12: .cfa -24 + ^ $r13: .cfa -16 + ^
STACK CFI INIT 111fd0 a .cfa: $rsp 8 + .ra: .cfa -8 + ^
STACK CFI INIT ec2e0 9e .cfa: $rsp 8 + .ra: .cfa -8 + ^
STACK CFI ec2ed $rbp: .cfa -32 + ^ $rbx: .cfa -40 + ^
STACK CFI ec2fb .cfa: $rsp 48 +
STACK CFI ec308 $r12: .cfa -24 + ^ $r13: .cfa -16 + ^
STACK CFI INIT 111fe0 a .cfa: $rsp 8 + .ra: .cfa -8 + ^
STACK CFI INIT ec380 9e .cfa: $rsp 8 + .ra: .cfa -8 + ^
STACK CFI ec38d $rbp: .cfa -32 + ^ $rbx: .cfa -40 + ^
STACK CFI ec39b .cfa: $rsp 48 +
STACK CFI ec3a8 $r12: .cfa -24 + ^ $r13: .cfa -16 + ^
STACK CFI INIT 111ff0 a .cfa: $rsp 8 + .ra: .cfa -8 + ^
STACK CFI INIT ec420 a3 .cfa: $rsp 8 + .ra: .cfa -8 + ^
STACK CFI ec42d $rbp: .cfa -32 + ^ $rbx: .cfa -40 + ^
STACK CFI ec43b .cfa: $rsp 48 +
STACK CFI ec448 $r12: .cfa -24 + ^ $r13: .cfa -16 + ^
STACK CFI INIT 112000 a .cfa: $rsp 8 + .ra: .cfa -8 + ^
STACK CFI INIT ec4d0 9e .cfa: $rsp 8 + .ra: .cfa -8 + ^
STACK CFI ec4dd $rbp: .cfa -32 + ^ $rbx: .cfa -40 + ^
STACK CFI ec4eb .cfa: $rsp 48 +
STACK CFI ec4f8 $r12: .cfa -24 + ^ $r13: .cfa -16 + ^
STACK CFI INIT 112010 a .cfa: $rsp 8 + .ra: .cfa -8 + ^
STACK CFI INIT ec570 6d3 .cfa: $rsp 8 + .ra: .cfa -8 + ^
STACK CFI ec572 .cfa: $rsp 16 +
STACK CFI ec574 .cfa: $rsp 24 +
STACK CFI ec576 .cfa: $rsp 32 +
STACK CFI ec578 .cfa: $rsp 40 +
STACK CFI ec57b $r12: .cfa -40 + ^ $r13: .cfa -32 + ^ $r14: .cfa -24 + ^ $r15: .cfa -16 + ^
STACK CFI ec57c .cfa: $rsp 48 +
STACK CFI ec57f $rbp: .cfa -48 + ^
STACK CFI ec580 .cfa: $rsp 56 +
STACK CFI ec583 $rbx: .cfa -56 + ^
STACK CFI ec587 .cfa: $rsp 128 +
STACK CFI INIT ecc50 2 .cfa: $rsp 8 + .ra: .cfa -8 + ^
STACK CFI INIT ecc60 3c .cfa: $rsp 8 + .ra: .cfa -8 + ^
STACK CFI INIT ecca0 47 .cfa: $rsp 8 + .ra: .cfa -8 + ^
STACK CFI ecca4 .cfa: $rsp 16 +
STACK CFI INIT eccf0 18c .cfa: $rsp 8 + .ra: .cfa -8 + ^
STACK CFI eccf2 .cfa: $rsp 16 +
STACK CFI eccf4 .cfa: $rsp 24 +
STACK CFI eccf5 .cfa: $rsp 32 +
STACK CFI eccf6 .cfa: $rsp 40 +
STACK CFI eccf9 $r12: .cfa -24 + ^ $r13: .cfa -16 + ^ $rbp: .cfa -32 + ^ $rbx: .cfa -40 + ^
STACK CFI eccfd .cfa: $rsp 48 +
STACK CFI INIT ece80 3c .cfa: $rsp 8 + .ra: .cfa -8 + ^
STACK CFI INIT ecec0 29 .cfa: $rsp 8 + .ra: .cfa -8 + ^
STACK CFI INIT ecef0 15d .cfa: $rsp 8 + .ra: .cfa -8 + ^
STACK CFI INIT ed050 57 .cfa: $rsp 8 + .ra: .cfa -8 + ^
STACK CFI ed054 .cfa: $rsp 16 +
STACK CFI INIT ed0b0 15d .cfa: $rsp 8 + .ra: .cfa -8 + ^
STACK CFI INIT ed210 124 .cfa: $rsp 8 + .ra: .cfa -8 + ^
STACK CFI ed214 .cfa: $rsp 16 +
STACK CFI INIT ed340 e5 .cfa: $rsp 8 + .ra: .cfa -8 + ^
STACK CFI ed344 .cfa: $rsp 16 +
STACK CFI INIT ed430 ed .cfa: $rsp 8 + .ra: .cfa -8 + ^
STACK CFI ed434 .cfa: $rsp 16 +
STACK CFI INIT ed520 88 .cfa: $rsp 8 + .ra: .cfa -8 + ^
STACK CFI ed521 .cfa: $rsp 16 +
STACK CFI ed52c $rbx: .cfa -16 + ^
STACK CFI ed53a .cfa: $rsp 224 +
STACK CFI INIT ed5b0 9 .cfa: $rsp 8 + .ra: .cfa -8 + ^
STACK CFI ed5b4 .cfa: $rsp 16 +
STACK CFI INIT ed5c0 e2 .cfa: $rsp 8 + .ra: .cfa -8 + ^
STACK CFI ed5cd $r12: .cfa -40 + ^ $rbx: .cfa -56 + ^
STACK CFI ed5eb .cfa: $rsp 304 +
STACK CFI ed5f1 $r13: .cfa -32 + ^ $r14: .cfa -24 + ^ $r15: .cfa -16 + ^ $rbp: .cfa -48 + ^
STACK CFI INIT ed6b0 83 .cfa: $rsp 8 + .ra: .cfa -8 + ^
STACK CFI ed6b1 .cfa: $rsp 16 +
STACK CFI ed6bc $rbx: .cfa -16 + ^
STACK CFI ed6ca .cfa: $rsp 224 +
STACK CFI INIT ed740 11b .cfa: $rsp 8 + .ra: .cfa -8 + ^
STACK CFI ed74d $r12: .cfa -40 + ^ $rbp: .cfa -48 + ^
STACK CFI ed76b .cfa: $rsp 368 +
STACK CFI ed771 $r13: .cfa -32 + ^ $r14: .cfa -24 + ^ $r15: .cfa -16 + ^ $rbx: .cfa -56 + ^
STACK CFI INIT ed9fd 1b .cfa: $rsp -128 + .ra: $rip
STACK CFI eda07 .cfa: $rsp 0 +
STACK CFI eda0b .cfa: $rsp 128 +
STACK CFI eda13 .cfa: $rsp -128 +
STACK CFI INIT eda18 1b .cfa: $rsp -128 + .ra: $rip
STACK CFI eda22 .cfa: $rsp 0 +
STACK CFI eda26 .cfa: $rsp 128 +
STACK CFI eda2e .cfa: $rsp -128 +
STACK CFI INIT eda33 18 .cfa: $rsp -128 + .ra: $rip
STACK CFI eda3d .cfa: $rsp 0 +
STACK CFI eda41 .cfa: $rsp 128 +
STACK CFI eda49 .cfa: $rsp -128 +
STACK CFI INIT ed860 19d .cfa: $rsp 8 + .ra: .cfa -8 + ^
STACK CFI ed862 .cfa: $rsp 16 +
STACK CFI ed868 $r12: .cfa -16 + ^
STACK CFI ed869 .cfa: $rsp 24 +
STACK CFI ed86a .cfa: $rsp 32 +
STACK CFI ed871 .cfa: $rsp 240 +
STACK CFI ed878 $rbp: .cfa -24 + ^ $rbx: .cfa -32 + ^
STACK CFI INIT edbe2 1b .cfa: $rsp -128 + .ra: $rip
STACK CFI edbec .cfa: $rsp 0 +
STACK CFI edbf0 .cfa: $rsp 128 +
STACK CFI edbf8 .cfa: $rsp -128 +
STACK CFI INIT edbfd 1b .cfa: $rsp -128 + .ra: $rip
STACK CFI edc07 .cfa: $rsp 0 +
STACK CFI edc0b .cfa: $rsp 128 +
STACK CFI edc13 .cfa: $rsp -128 +
STACK CFI INIT edc18 18 .cfa: $rsp -128 + .ra: $rip
STACK CFI edc22 .cfa: $rsp 0 +
STACK CFI edc26 .cfa: $rsp 128 +
STACK CFI edc2e .cfa: $rsp -128 +
STACK CFI INIT eda50 192 .cfa: $rsp 8 + .ra: .cfa -8 + ^
STACK CFI eda51 .cfa: $rsp 16 +
STACK CFI eda56 $rbp: .cfa -16 + ^
STACK CFI eda57 .cfa: $rsp 24 +
STACK CFI eda5a $rbx: .cfa -24 + ^
STACK CFI eda61 .cfa: $rsp 240 +
STACK CFI INIT edd5f 1b .cfa: $rsp -128 + .ra: $rip
STACK CFI edd69 .cfa: $rsp 0 +
STACK CFI edd6d .cfa: $rsp 128 +
STACK CFI edd75 .cfa: $rsp -128 +
STACK CFI INIT edd7a 1b .cfa: $rsp -128 + .ra: $rip
STACK CFI edd84 .cfa: $rsp 0 +
STACK CFI edd88 .cfa: $rsp 128 +
STACK CFI edd90 .cfa: $rsp -128 +
STACK CFI INIT edd95 18 .cfa: $rsp -128 + .ra: $rip
STACK CFI edd9f .cfa: $rsp 0 +
STACK CFI edda3 .cfa: $rsp 128 +
STACK CFI eddab .cfa: $rsp -128 +
STACK CFI INIT edc30 12f .cfa: $rsp 8 + .ra: .cfa -8 + ^
STACK CFI edc3c $r12: .cfa -16 + ^ $rbp: .cfa -24 + ^
STACK CFI edc45 .cfa: $rsp 32 +
STACK CFI edc53 $rbx: .cfa -32 + ^
STACK CFI INIT edeca 1b .cfa: $rsp -128 + .ra: $rip
STACK CFI eded4 .cfa: $rsp 0 +
STACK CFI eded8 .cfa: $rsp 128 +
STACK CFI edee0 .cfa: $rsp -128 +
STACK CFI INIT edee5 1b .cfa: $rsp -128 + .ra: $rip
STACK CFI edeef .cfa: $rsp 0 +
STACK CFI edef3 .cfa: $rsp 128 +
STACK CFI edefb .cfa: $rsp -128 +
STACK CFI INIT edf00 18 .cfa: $rsp -128 + .ra: $rip
STACK CFI edf0a .cfa: $rsp 0 +
STACK CFI edf0e .cfa: $rsp 128 +
STACK CFI edf16 .cfa: $rsp -128 +
STACK CFI INIT eddb0 11a .cfa: $rsp 8 + .ra: .cfa -8 + ^
STACK CFI eddb1 .cfa: $rsp 16 +
STACK CFI eddb6 $rbp: .cfa -16 + ^
STACK CFI eddba .cfa: $rsp 24 +
STACK CFI eddbd $rbx: .cfa -24 + ^
STACK CFI eddc1 .cfa: $rsp 32 +
STACK CFI INIT ee0f9 1b .cfa: $rsp -128 + .ra: $rip
STACK CFI ee103 .cfa: $rsp 0 +
STACK CFI ee107 .cfa: $rsp 128 +
STACK CFI ee10f .cfa: $rsp -128 +
STACK CFI INIT ee114 1b .cfa: $rsp -128 + .ra: $rip
STACK CFI ee11e .cfa: $rsp 0 +
STACK CFI ee122 .cfa: $rsp 128 +
STACK CFI ee12a .cfa: $rsp -128 +
STACK CFI INIT ee12f 18 .cfa: $rsp -128 + .ra: $rip
STACK CFI ee139 .cfa: $rsp 0 +
STACK CFI ee13d .cfa: $rsp 128 +
STACK CFI ee145 .cfa: $rsp -128 +
STACK CFI INIT edf20 1d9 .cfa: $rsp 8 + .ra: .cfa -8 + ^
STACK CFI edf2d $rbp: .cfa -32 + ^ $rbx: .cfa -40 + ^
STACK CFI edf3b .cfa: $rsp 48 +
STACK CFI edf47 $r12: .cfa -24 + ^ $r13: .cfa -16 + ^
STACK CFI INIT ee150 10 .cfa: $rsp 8 + .ra: .cfa -8 + ^
STACK CFI ee15b .cfa: $rsp 16 +
STACK CFI INIT ee160 206 .cfa: $rsp 8 + .ra: .cfa -8 + ^
STACK CFI ee162 .cfa: $rsp 16 +
STACK CFI ee168 .cfa: $rsp 24 +
STACK CFI ee16a .cfa: $rsp 32 +
STACK CFI ee16c .cfa: $rsp 40 +
STACK CFI ee16f $r12: .cfa -40 + ^ $r13: .cfa -32 + ^ $r14: .cfa -24 + ^ $r15: .cfa -16 + ^
STACK CFI ee177 .cfa: $rsp 48 +
STACK CFI ee17a $rbp: .cfa -48 + ^
STACK CFI ee182 .cfa: $rsp 56 +
STACK CFI ee186 .cfa: $rsp 128 +
STACK CFI ee18b $rbx: .cfa -56 + ^
STACK CFI INIT ee50a 1b .cfa: $rsp -128 + .ra: $rip
STACK CFI ee514 .cfa: $rsp 0 +
STACK CFI ee518 .cfa: $rsp 128 +
STACK CFI ee520 .cfa: $rsp -128 +
STACK CFI INIT ee525 1b .cfa: $rsp -128 + .ra: $rip
STACK CFI ee52f .cfa: $rsp 0 +
STACK CFI ee533 .cfa: $rsp 128 +
STACK CFI ee53b .cfa: $rsp -128 +
STACK CFI INIT ee540 18 .cfa: $rsp -128 + .ra: $rip
STACK CFI ee54a .cfa: $rsp 0 +
STACK CFI ee54e .cfa: $rsp 128 +
STACK CFI ee556 .cfa: $rsp -128 +
STACK CFI INIT ee370 19a .cfa: $rsp 8 + .ra: .cfa -8 + ^
STACK CFI ee37d $rbp: .cfa -32 + ^ $rbx: .cfa -40 + ^
STACK CFI ee38b .cfa: $rsp 48 +
STACK CFI ee390 $r12: .cfa -24 + ^ $r13: .cfa -16 + ^
STACK CFI INIT ee560 b6 .cfa: $rsp 8 + .ra: .cfa -8 + ^
STACK CFI ee57a .cfa: $rsp 48 +
STACK CFI ee57f $r12: .cfa -24 + ^ $r13: .cfa -16 + ^ $rbp: .cfa -32 + ^ $rbx: .cfa -40 + ^
STACK CFI INIT ee620 34 .cfa: $rsp 8 + .ra: .cfa -8 + ^
STACK CFI ee624 .cfa: $rsp 16 +
STACK CFI INIT ee660 17 .cfa: $rsp 8 + .ra: .cfa -8 + ^
STACK CFI ee664 .cfa: $rsp 16 +
STACK CFI INIT ee680 17 .cfa: $rsp 8 + .ra: .cfa -8 + ^
STACK CFI ee684 .cfa: $rsp 16 +
STACK CFI INIT ee6a0 1a .cfa: $rsp 8 + .ra: .cfa -8 + ^
STACK CFI ee6a4 .cfa: $rsp 16 +
STACK CFI INIT ee6c0 24 .cfa: $rsp 8 + .ra: .cfa -8 + ^
STACK CFI ee6c4 .cfa: $rsp 16 +
STACK CFI INIT ee6f0 34 .cfa: $rsp 8 + .ra: .cfa -8 + ^
STACK CFI ee6f4 .cfa: $rsp 16 +
STACK CFI INIT ee730 17 .cfa: $rsp 8 + .ra: .cfa -8 + ^
STACK CFI ee734 .cfa: $rsp 16 +
STACK CFI INIT ee750 2a .cfa: $rsp 8 + .ra: .cfa -8 + ^
STACK CFI ee754 .cfa: $rsp 16 +
STACK CFI INIT ee780 17 .cfa: $rsp 8 + .ra: .cfa -8 + ^
STACK CFI ee784 .cfa: $rsp 16 +
STACK CFI INIT ee7a0 1b .cfa: $rsp 8 + .ra: .cfa -8 + ^
STACK CFI ee7a4 .cfa: $rsp 16 +
STACK CFI INIT ee7c0 17 .cfa: $rsp 8 + .ra: .cfa -8 + ^
STACK CFI ee7c4 .cfa: $rsp 16 +
STACK CFI INIT ee98a 1b .cfa: $rsp -128 + .ra: $rip
STACK CFI ee994 .cfa: $rsp 0 +
STACK CFI ee998 .cfa: $rsp 128 +
STACK CFI ee9a0 .cfa: $rsp -128 +
STACK CFI INIT ee9a5 1b .cfa: $rsp -128 + .ra: $rip
STACK CFI ee9af .cfa: $rsp 0 +
STACK CFI ee9b3 .cfa: $rsp 128 +
STACK CFI ee9bb .cfa: $rsp -128 +
STACK CFI INIT ee9c0 18 .cfa: $rsp -128 + .ra: $rip
STACK CFI ee9ca .cfa: $rsp 0 +
STACK CFI ee9ce .cfa: $rsp 128 +
STACK CFI ee9d6 .cfa: $rsp -128 +
STACK CFI INIT ee7e0 1aa .cfa: $rsp 8 + .ra: .cfa -8 + ^
STACK CFI ee7e8 $r12: .cfa -24 + ^
STACK CFI ee7f4 $r13: .cfa -16 + ^
STACK CFI ee80d .cfa: $rsp 48 +
STACK CFI ee816 $rbp: .cfa -32 + ^ $rbx: .cfa -40 + ^
STACK CFI INIT ee9e0 8c .cfa: $rsp 8 + .ra: .cfa -8 + ^
STACK CFI ee9e8 $r12: .cfa -16 + ^
STACK CFI ee9f4 $rbx: .cfa -32 + ^
STACK CFI eea08 .cfa: $rsp 32 +
STACK CFI eea0e $rbp: .cfa -24 + ^
STACK CFI INIT eea70 17 .cfa: $rsp 8 + .ra: .cfa -8 + ^
STACK CFI eea74 .cfa: $rsp 16 +
STACK CFI INIT eea90 35 .cfa: $rsp 8 + .ra: .cfa -8 + ^
STACK CFI eea94 .cfa: $rsp 16 +
STACK CFI INIT eead0 17 .cfa: $rsp 8 + .ra: .cfa -8 + ^
STACK CFI eead4 .cfa: $rsp 16 +
STACK CFI INIT eeaf0 17 .cfa: $rsp 8 + .ra: .cfa -8 + ^
STACK CFI eeaf4 .cfa: $rsp 16 +
STACK CFI INIT eeb10 17 .cfa: $rsp 8 + .ra: .cfa -8 + ^
STACK CFI eeb14 .cfa: $rsp 16 +
STACK CFI INIT eeb30 8b .cfa: $rsp 8 + .ra: .cfa -8 + ^
STACK CFI eeb37 .cfa: $rsp 224 +
STACK CFI INIT eebc0 19f .cfa: $rsp 8 + .ra: .cfa -8 + ^
STACK CFI eebcd $rbp: .cfa -48 + ^ $rbx: .cfa -56 + ^
STACK CFI eebed .cfa: $rsp 304 +
STACK CFI eebf0 $r12: .cfa -40 + ^ $r13: .cfa -32 + ^ $r14: .cfa -24 + ^ $r15: .cfa -16 + ^
STACK CFI INIT eed60 8b .cfa: $rsp 8 + .ra: .cfa -8 + ^
STACK CFI eed67 .cfa: $rsp 224 +
STACK CFI INIT eedf0 104 .cfa: $rsp 8 + .ra: .cfa -8 + ^
STACK CFI eee0e $r12: .cfa -32 + ^ $r13: .cfa -24 + ^ $rbp: .cfa -40 + ^ $rbx: .cfa -48 + ^
STACK CFI eee1a .cfa: $rsp 608 +
STACK CFI eee2a $r14: .cfa -16 + ^
STACK CFI INIT eef00 1d2 .cfa: $rsp 8 + .ra: .cfa -8 + ^
STACK CFI eef0d $rbp: .cfa -48 + ^ $rbx: .cfa -56 + ^
STACK CFI eef2b .cfa: $rsp 320 +
STACK CFI eef33 $r12: .cfa -40 + ^ $r13: .cfa -32 + ^ $r14: .cfa -24 + ^ $r15: .cfa -16 + ^
STACK CFI INIT ef0e0 8b .cfa: $rsp 8 + .ra: .cfa -8 + ^
STACK CFI ef0e7 .cfa: $rsp 224 +
STACK CFI INIT ef170 4a .cfa: $rsp 8 + .ra: .cfa -8 + ^
STACK CFI ef17e .cfa: $rsp 32 +
STACK CFI ef181 $rbp: .cfa -16 + ^ $rbx: .cfa -24 + ^
STACK CFI INIT ef1c0 9b .cfa: $rsp 8 + .ra: .cfa -8 + ^
STACK CFI ef1fb $rdi: $r10
STACK CFI ef1fd $rsi: $rbx
STACK CFI ef23c $rdi: $rdi
STACK CFI ef23e $r12: .cfa 16 + ^ $r13: .cfa 24 + ^ $r14: .cfa 32 + ^ $r15: .cfa 40 + ^ $rbp: $r9 $rbx: .cfa 0 + ^ $rsi: $rsi $rsp: $r8 .cfa: $rdi 0 + .ra: $rdx
STACK CFI INIT ef260 10 .cfa: $rsp 8 + .ra: .cfa -8 + ^
STACK CFI ef26b .cfa: $rsp 16 +
STACK CFI INIT ef270 39 .cfa: $rsp 8 + .ra: .cfa -8 + ^
STACK CFI ef271 .cfa: $rsp 16 +
STACK CFI ef274 $rbp: .cfa -16 + ^
STACK CFI ef275 .cfa: $rsp 24 +
STACK CFI ef27c $rbx: .cfa -24 + ^
STACK CFI ef280 .cfa: $rsp 32 +
STACK CFI INIT ef2b0 17 .cfa: $rsp 8 + .ra: .cfa -8 + ^
STACK CFI ef2b4 .cfa: $rsp 16 +
STACK CFI INIT ef2d0 74 .cfa: $rsp 8 + .ra: .cfa -8 + ^
STACK CFI ef2d1 .cfa: $rsp 16 +
STACK CFI ef2d4 $rbp: .cfa -16 + ^ .cfa: $rbp 16 +
STACK CFI ef2dc $rbx: .cfa -24 + ^
STACK CFI INIT 136680 2d .cfa: $rsp 8 + .ra: .cfa -8 + ^
STACK CFI 136688 .cfa: $rsp 16 +
STACK CFI 136696 $rbp: .cfa -16 + ^ .cfa: $rbp 16 +
STACK CFI INIT ef350 6d .cfa: $rsp 8 + .ra: .cfa -8 + ^
STACK CFI ef351 .cfa: $rsp 16 +
STACK CFI ef360 $rbp: .cfa -16 + ^ .cfa: $rbp 16 +
STACK CFI INIT ef3c0 c1 .cfa: $rsp 8 + .ra: .cfa -8 + ^
STACK CFI ef3c1 .cfa: $rsp 16 +
STACK CFI ef3c4 $rbp: .cfa -16 + ^ .cfa: $rbp 16 +
STACK CFI ef3c7 $rbx: .cfa -24 + ^
STACK CFI INIT ef490 289 .cfa: $rsp 8 + .ra: .cfa -8 + ^
STACK CFI ef491 .cfa: $rsp 16 +
STACK CFI ef497 $rbp: .cfa -16 + ^ .cfa: $rbp 16 +
STACK CFI ef49c $r15: .cfa -24 + ^
STACK CFI ef4a3 $r13: .cfa -40 + ^ $r14: .cfa -32 + ^
STACK CFI ef4f4 $r12: .cfa -48 + ^ $rbx: .cfa -56 + ^
STACK CFI INIT ef720 2cd .cfa: $rsp 8 + .ra: .cfa -8 + ^
STACK CFI ef722 .cfa: $rsp 16 +
STACK CFI ef724 .cfa: $rsp 24 +
STACK CFI ef726 .cfa: $rsp 32 +
STACK CFI ef728 .cfa: $rsp 40 +
STACK CFI ef729 .cfa: $rsp 48 +
STACK CFI ef72a .cfa: $rsp 56 +
STACK CFI ef731 .cfa: $rsp 336 +
STACK CFI ef741 $r12: .cfa -40 + ^ $r13: .cfa -32 + ^ $r14: .cfa -24 + ^ $r15: .cfa -16 + ^ $rbp: .cfa -48 + ^ $rbx: .cfa -56 + ^
STACK CFI INIT efb8d 1b .cfa: $rsp -128 + .ra: $rip
STACK CFI efb97 .cfa: $rsp 0 +
STACK CFI efb9b .cfa: $rsp 128 +
STACK CFI efba3 .cfa: $rsp -128 +
STACK CFI INIT efba8 1b .cfa: $rsp -128 + .ra: $rip
STACK CFI efbb2 .cfa: $rsp 0 +
STACK CFI efbb6 .cfa: $rsp 128 +
STACK CFI efbbe .cfa: $rsp -128 +
STACK CFI INIT efbc3 18 .cfa: $rsp -128 + .ra: $rip
STACK CFI efbcd .cfa: $rsp 0 +
STACK CFI efbd1 .cfa: $rsp 128 +
STACK CFI efbd9 .cfa: $rsp -128 +
STACK CFI INIT ef9f0 19d .cfa: $rsp 8 + .ra: .cfa -8 + ^
STACK CFI ef9f2 .cfa: $rsp 16 +
STACK CFI ef9f8 $r12: .cfa -16 + ^
STACK CFI ef9f9 .cfa: $rsp 24 +
STACK CFI ef9fa .cfa: $rsp 32 +
STACK CFI efa01 .cfa: $rsp 240 +
STACK CFI efa08 $rbp: .cfa -24 + ^ $rbx: .cfa -32 + ^
STACK CFI INIT efd72 1b .cfa: $rsp -128 + .ra: $rip
STACK CFI efd7c .cfa: $rsp 0 +
STACK CFI efd80 .cfa: $rsp 128 +
STACK CFI efd88 .cfa: $rsp -128 +
STACK CFI INIT efd8d 1b .cfa: $rsp -128 + .ra: $rip
STACK CFI efd97 .cfa: $rsp 0 +
STACK CFI efd9b .cfa: $rsp 128 +
STACK CFI efda3 .cfa: $rsp -128 +
STACK CFI INIT efda8 18 .cfa: $rsp -128 + .ra: $rip
STACK CFI efdb2 .cfa: $rsp 0 +
STACK CFI efdb6 .cfa: $rsp 128 +
STACK CFI efdbe .cfa: $rsp -128 +
STACK CFI INIT efbe0 192 .cfa: $rsp 8 + .ra: .cfa -8 + ^
STACK CFI efbe1 .cfa: $rsp 16 +
STACK CFI efbe6 $rbp: .cfa -16 + ^
STACK CFI efbe7 .cfa: $rsp 24 +
STACK CFI efbea $rbx: .cfa -24 + ^
STACK CFI efbf1 .cfa: $rsp 240 +
STACK CFI INIT efeef 1b .cfa: $rsp -128 + .ra: $rip
STACK CFI efef9 .cfa: $rsp 0 +
STACK CFI efefd .cfa: $rsp 128 +
STACK CFI eff05 .cfa: $rsp -128 +
STACK CFI INIT eff0a 1b .cfa: $rsp -128 + .ra: $rip
STACK CFI eff14 .cfa: $rsp 0 +
STACK CFI eff18 .cfa: $rsp 128 +
STACK CFI eff20 .cfa: $rsp -128 +
STACK CFI INIT eff25 18 .cfa: $rsp -128 + .ra: $rip
STACK CFI eff2f .cfa: $rsp 0 +
STACK CFI eff33 .cfa: $rsp 128 +
STACK CFI eff3b .cfa: $rsp -128 +
STACK CFI INIT efdc0 12f .cfa: $rsp 8 + .ra: .cfa -8 + ^
STACK CFI efdcc $r12: .cfa -16 + ^ $rbp: .cfa -24 + ^
STACK CFI efdd5 .cfa: $rsp 32 +
STACK CFI efde3 $rbx: .cfa -32 + ^
STACK CFI INIT f005a 1b .cfa: $rsp -128 + .ra: $rip
STACK CFI f0064 .cfa: $rsp 0 +
STACK CFI f0068 .cfa: $rsp 128 +
STACK CFI f0070 .cfa: $rsp -128 +
STACK CFI INIT f0075 1b .cfa: $rsp -128 + .ra: $rip
STACK CFI f007f .cfa: $rsp 0 +
STACK CFI f0083 .cfa: $rsp 128 +
STACK CFI f008b .cfa: $rsp -128 +
STACK CFI INIT f0090 18 .cfa: $rsp -128 + .ra: $rip
STACK CFI f009a .cfa: $rsp 0 +
STACK CFI f009e .cfa: $rsp 128 +
STACK CFI f00a6 .cfa: $rsp -128 +
STACK CFI INIT eff40 11a .cfa: $rsp 8 + .ra: .cfa -8 + ^
STACK CFI eff41 .cfa: $rsp 16 +
STACK CFI eff46 $rbp: .cfa -16 + ^
STACK CFI eff4a .cfa: $rsp 24 +
STACK CFI eff4d $rbx: .cfa -24 + ^
STACK CFI eff51 .cfa: $rsp 32 +
STACK CFI INIT f024a 1b .cfa: $rsp -128 + .ra: $rip
STACK CFI f0254 .cfa: $rsp 0 +
STACK CFI f0258 .cfa: $rsp 128 +
STACK CFI f0260 .cfa: $rsp -128 +
STACK CFI INIT f0265 1b .cfa: $rsp -128 + .ra: $rip
STACK CFI f026f .cfa: $rsp 0 +
STACK CFI f0273 .cfa: $rsp 128 +
STACK CFI f027b .cfa: $rsp -128 +
STACK CFI INIT f0280 18 .cfa: $rsp -128 + .ra: $rip
STACK CFI f028a .cfa: $rsp 0 +
STACK CFI f028e .cfa: $rsp 128 +
STACK CFI f0296 .cfa: $rsp -128 +
STACK CFI INIT f00b0 19a .cfa: $rsp 8 + .ra: .cfa -8 + ^
STACK CFI f00bd $rbp: .cfa -32 + ^ $rbx: .cfa -40 + ^
STACK CFI f00cb .cfa: $rsp 48 +
STACK CFI f00d0 $r12: .cfa -24 + ^ $r13: .cfa -16 + ^
STACK CFI INIT f02a0 be .cfa: $rsp 8 + .ra: .cfa -8 + ^
STACK CFI f02ba .cfa: $rsp 48 +
STACK CFI f02bf $r12: .cfa -24 + ^ $r13: .cfa -16 + ^ $rbp: .cfa -32 + ^ $rbx: .cfa -40 + ^
STACK CFI INIT f0360 33 .cfa: $rsp 8 + .ra: .cfa -8 + ^
STACK CFI f0364 .cfa: $rsp 16 +
STACK CFI INIT f03a0 3e .cfa: $rsp 8 + .ra: .cfa -8 + ^
STACK CFI f03a7 .cfa: $rsp 16 +
STACK CFI INIT f03e0 1b .cfa: $rsp 8 + .ra: .cfa -8 + ^
STACK CFI f03e4 .cfa: $rsp 16 +
STACK CFI INIT f0400 1b .cfa: $rsp 8 + .ra: .cfa -8 + ^
STACK CFI f0404 .cfa: $rsp 16 +
STACK CFI INIT f0420 1b .cfa: $rsp 8 + .ra: .cfa -8 + ^
STACK CFI f0424 .cfa: $rsp 16 +
STACK CFI INIT f0440 3c .cfa: $rsp 8 + .ra: .cfa -8 + ^
STACK CFI f044b .cfa: $rsp 16 +
STACK CFI INIT f0480 17 .cfa: $rsp 8 + .ra: .cfa -8 + ^
STACK CFI f0484 .cfa: $rsp 16 +
STACK CFI INIT f04a0 58 .cfa: $rsp 8 + .ra: .cfa -8 + ^
STACK CFI f04a4 .cfa: $rsp 16 +
STACK CFI INIT f0500 117 .cfa: $rsp 8 + .ra: .cfa -8 + ^
STACK CFI f0504 .cfa: $rsp 16 +
STACK CFI INIT f0620 17 .cfa: $rsp 8 + .ra: .cfa -8 + ^
STACK CFI f0624 .cfa: $rsp 16 +
STACK CFI INIT f0640 17 .cfa: $rsp 8 + .ra: .cfa -8 + ^
STACK CFI f0644 .cfa: $rsp 16 +
STACK CFI INIT f0660 83 .cfa: $rsp 8 + .ra: .cfa -8 + ^
STACK CFI f0661 .cfa: $rsp 16 +
STACK CFI f066c $rbx: .cfa -16 + ^
STACK CFI f067a .cfa: $rsp 224 +
STACK CFI INIT f06f0 11c .cfa: $rsp 8 + .ra: .cfa -8 + ^
STACK CFI f06fd $rbp: .cfa -48 + ^ $rbx: .cfa -56 + ^
STACK CFI f071b .cfa: $rsp 896 +
STACK CFI f0721 $r12: .cfa -40 + ^ $r13: .cfa -32 + ^ $r14: .cfa -24 + ^ $r15: .cfa -16 + ^
STACK CFI INIT f0810 2b .cfa: $rsp 8 + .ra: .cfa -8 + ^
STACK CFI f0814 .cfa: $rsp 16 +
STACK CFI INIT f0840 17 .cfa: $rsp 8 + .ra: .cfa -8 + ^
STACK CFI f0844 .cfa: $rsp 16 +
STACK CFI INIT f0860 17 .cfa: $rsp 8 + .ra: .cfa -8 + ^
STACK CFI f0864 .cfa: $rsp 16 +
STACK CFI INIT f0880 17 .cfa: $rsp 8 + .ra: .cfa -8 + ^
STACK CFI f0884 .cfa: $rsp 16 +
STACK CFI INIT f08a0 17 .cfa: $rsp 8 + .ra: .cfa -8 + ^
STACK CFI f08a4 .cfa: $rsp 16 +
STACK CFI INIT f08c0 30 .cfa: $rsp 8 + .ra: .cfa -8 + ^
STACK CFI f08c4 .cfa: $rsp 48 +
STACK CFI INIT f08f0 30 .cfa: $rsp 8 + .ra: .cfa -8 + ^
STACK CFI f08f4 .cfa: $rsp 48 +
STACK CFI INIT f0b3f 1f .cfa: $rsp -128 + .ra: $rip
STACK CFI f0b4d .cfa: $rsp 0 +
STACK CFI f0b51 .cfa: $rsp 128 +
STACK CFI f0b59 .cfa: $rsp -128 +
STACK CFI INIT f0b5e 1f .cfa: $rsp -128 + .ra: $rip
STACK CFI f0b6c .cfa: $rsp 0 +
STACK CFI f0b70 .cfa: $rsp 128 +
STACK CFI f0b78 .cfa: $rsp -128 +
STACK CFI INIT 1366b0 26 .cfa: $rsp 8 + .ra: .cfa -8 + ^
STACK CFI 1366b4 .cfa: $rsp 16 +
STACK CFI INIT f0920 e4 .cfa: $rsp 8 + .ra: .cfa -8 + ^
STACK CFI f0924 .cfa: $rsp 16 +
STACK CFI INIT f0a10 7c .cfa: $rsp 8 + .ra: .cfa -8 + ^
STACK CFI f0a14 .cfa: $rsp 48 +
STACK CFI INIT f0a90 af .cfa: $rsp 8 + .ra: .cfa -8 + ^
STACK CFI f0a92 .cfa: $rsp 16 +
STACK CFI f0a98 $r14: .cfa -16 + ^
STACK CFI f0a9a .cfa: $rsp 24 +
STACK CFI f0aa1 $r13: .cfa -24 + ^
STACK CFI f0aa3 .cfa: $rsp 32 +
STACK CFI f0aa9 $r12: .cfa -32 + ^
STACK CFI f0aaa .cfa: $rsp 40 +
STACK CFI f0aad $rbp: .cfa -40 + ^
STACK CFI f0aae .cfa: $rsp 48 +
STACK CFI f0ab1 $rbx: .cfa -48 + ^
STACK CFI INIT f0b80 5 .cfa: $rsp 8 + .ra: .cfa -8 + ^
STACK CFI INIT f0b90 7 .cfa: $rsp 8 + .ra: .cfa -8 + ^
STACK CFI INIT f0ba0 2b .cfa: $rsp 8 + .ra: .cfa -8 + ^
STACK CFI INIT f0bd0 4e .cfa: $rsp 8 + .ra: .cfa -8 + ^
STACK CFI INIT f0c20 2a .cfa: $rsp 8 + .ra: .cfa -8 + ^
STACK CFI INIT f0c50 99 .cfa: $rsp 8 + .ra: .cfa -8 + ^
STACK CFI f0c72 .cfa: $rsp 80 +
STACK CFI f0c76 $r12: .cfa -32 + ^ $r13: .cfa -24 + ^ $r14: .cfa -16 + ^ $rbp: .cfa -40 + ^ $rbx: .cfa -48 + ^
STACK CFI INIT f0cf0 1e5 .cfa: $rsp 8 + .ra: .cfa -8 + ^
STACK CFI f0cf1 .cfa: $rsp 16 +
STACK CFI f0cf9 .cfa: $rsp 24 +
STACK CFI f0cfd $rbp: .cfa -16 + ^ $rbx: .cfa -24 + ^
STACK CFI INIT f0ee0 11 .cfa: $rsp 8 + .ra: .cfa -8 + ^
STACK CFI INIT f108d 1f .cfa: $rsp -128 + .ra: $rip
STACK CFI f109b .cfa: $rsp 0 +
STACK CFI f109f .cfa: $rsp 128 +
STACK CFI f10a7 .cfa: $rsp -128 +
STACK CFI INIT f10ac 1f .cfa: $rsp -128 + .ra: $rip
STACK CFI f10ba .cfa: $rsp 0 +
STACK CFI f10be .cfa: $rsp 128 +
STACK CFI f10c6 .cfa: $rsp -128 +
STACK CFI INIT f0f00 18d .cfa: $rsp 8 + .ra: .cfa -8 + ^
STACK CFI f0f02 .cfa: $rsp 16 +
STACK CFI f0f07 $r14: .cfa -16 + ^
STACK CFI f0f09 .cfa: $rsp 24 +
STACK CFI f0f0c $r13: .cfa -24 + ^
STACK CFI f0f13 .cfa: $rsp 32 +
STACK CFI f0f16 $r12: .cfa -32 + ^
STACK CFI f0f17 .cfa: $rsp 40 +
STACK CFI f0f18 .cfa: $rsp 48 +
STACK CFI f0f1c .cfa: $rsp 80 +
STACK CFI f0f5a $rbp: .cfa -40 + ^ $rbx: .cfa -48 + ^
STACK CFI INIT f10d0 398 .cfa: $rsp 8 + .ra: .cfa -8 + ^
STACK CFI f10d2 .cfa: $rsp 16 +
STACK CFI f10d5 $r15: .cfa -16 + ^
STACK CFI f10d7 .cfa: $rsp 24 +
STACK CFI f10da $r14: .cfa -24 + ^
STACK CFI f10dc .cfa: $rsp 32 +
STACK CFI f10df $r13: .cfa -32 + ^
STACK CFI f10e1 .cfa: $rsp 40 +
STACK CFI f10e2 .cfa: $rsp 48 +
STACK CFI f10e3 .cfa: $rsp 56 +
STACK CFI f10e7 .cfa: $rsp 144 +
STACK CFI f1100 $r12: .cfa -40 + ^ $rbp: .cfa -48 + ^ $rbx: .cfa -56 + ^
STACK CFI INIT f1626 1f .cfa: $rsp -128 + .ra: $rip
STACK CFI f1634 .cfa: $rsp 0 +
STACK CFI f1638 .cfa: $rsp 128 +
STACK CFI f1640 .cfa: $rsp -128 +
STACK CFI INIT f1645 1f .cfa: $rsp -128 + .ra: $rip
STACK CFI f1653 .cfa: $rsp 0 +
STACK CFI f1657 .cfa: $rsp 128 +
STACK CFI f165f .cfa: $rsp -128 +
STACK CFI INIT f1470 1b6 .cfa: $rsp 8 + .ra: .cfa -8 + ^
STACK CFI f1472 .cfa: $rsp 16 +
STACK CFI f147a $r12: .cfa -16 + ^
STACK CFI f147d .cfa: $rsp 24 +
STACK CFI f147e .cfa: $rsp 32 +
STACK CFI f1482 .cfa: $rsp 80 +
STACK CFI f14be $rbp: .cfa -24 + ^ $rbx: .cfa -32 + ^
STACK CFI INIT f183a 1f .cfa: $rsp -128 + .ra: $rip
STACK CFI f1848 .cfa: $rsp 0 +
STACK CFI f184c .cfa: $rsp 128 +
STACK CFI f1854 .cfa: $rsp -128 +
STACK CFI INIT f1859 1f .cfa: $rsp -128 + .ra: $rip
STACK CFI f1867 .cfa: $rsp 0 +
STACK CFI f186b .cfa: $rsp 128 +
STACK CFI f1873 .cfa: $rsp -128 +
STACK CFI INIT f1670 1ca .cfa: $rsp 8 + .ra: .cfa -8 + ^
STACK CFI f1672 .cfa: $rsp 16 +
STACK CFI f1677 $r13: .cfa -16 + ^
STACK CFI f1679 .cfa: $rsp 24 +
STACK CFI f167c $r12: .cfa -24 + ^
STACK CFI f1682 .cfa: $rsp 32 +
STACK CFI f1683 .cfa: $rsp 40 +
STACK CFI f1687 .cfa: $rsp 96 +
STACK CFI f16c3 $rbp: .cfa -32 + ^ $rbx: .cfa -40 + ^
STACK CFI INIT f1880 363 .cfa: $rsp 8 + .ra: .cfa -8 + ^
STACK CFI f1882 .cfa: $rsp 16 +
STACK CFI f1884 .cfa: $rsp 24 +
STACK CFI f1887 $r14: .cfa -24 + ^ $r15: .cfa -16 + ^
STACK CFI f1889 .cfa: $rsp 32 +
STACK CFI f188c $r13: .cfa -32 + ^
STACK CFI f188e .cfa: $rsp 40 +
STACK CFI f1891 $r12: .cfa -40 + ^
STACK CFI f1892 .cfa: $rsp 48 +
STACK CFI f1895 $rbp: .cfa -48 + ^
STACK CFI f1896 .cfa: $rsp 56 +
STACK CFI f189a .cfa: $rsp 176 +
STACK CFI f18a2 $rbx: .cfa -56 + ^
STACK CFI INIT f1bf0 353 .cfa: $rsp 8 + .ra: .cfa -8 + ^
STACK CFI f1bf2 .cfa: $rsp 16 +
STACK CFI f1bf4 .cfa: $rsp 24 +
STACK CFI f1bf6 .cfa: $rsp 32 +
STACK CFI f1bf9 $r13: .cfa -32 + ^ $r14: .cfa -24 + ^ $r15: .cfa -16 + ^
STACK CFI f1bfb .cfa: $rsp 40 +
STACK CFI f1bfe $r12: .cfa -40 + ^
STACK CFI f1bff .cfa: $rsp 48 +
STACK CFI f1c02 $rbp: .cfa -48 + ^
STACK CFI f1c03 .cfa: $rsp 56 +
STACK CFI f1c06 $rbx: .cfa -56 + ^
STACK CFI f1c0a .cfa: $rsp 176 +
STACK CFI INIT f1fe5 1f .cfa: $rsp -128 + .ra: $rip
STACK CFI f1ff3 .cfa: $rsp 0 +
STACK CFI f1ff7 .cfa: $rsp 128 +
STACK CFI f1fff .cfa: $rsp -128 +
STACK CFI INIT f2004 1c .cfa: $rsp -128 + .ra: $rip
STACK CFI f2012 .cfa: $rsp 0 +
STACK CFI f2016 .cfa: $rsp 128 +
STACK CFI f201e .cfa: $rsp -128 +
STACK CFI INIT f1f50 95 .cfa: $rsp 8 + .ra: .cfa -8 + ^
STACK CFI f1f54 .cfa: $rsp 16 +
STACK CFI INIT f2265 1f .cfa: $rsp -128 + .ra: $rip
STACK CFI f2273 .cfa: $rsp 0 +
STACK CFI f2277 .cfa: $rsp 128 +
STACK CFI f227f .cfa: $rsp -128 +
STACK CFI INIT f2284 1f .cfa: $rsp -128 + .ra: $rip
STACK CFI f2292 .cfa: $rsp 0 +
STACK CFI f2296 .cfa: $rsp 128 +
STACK CFI f229e .cfa: $rsp -128 +
STACK CFI INIT f22a3 1f .cfa: $rsp -128 + .ra: $rip
STACK CFI f22b1 .cfa: $rsp 0 +
STACK CFI f22b5 .cfa: $rsp 128 +
STACK CFI f22bd .cfa: $rsp -128 +
STACK CFI INIT f22c2 1f .cfa: $rsp -128 + .ra: $rip
STACK CFI f22d0 .cfa: $rsp 0 +
STACK CFI f22d4 .cfa: $rsp 128 +
STACK CFI f22dc .cfa: $rsp -128 +
STACK CFI INIT f22e1 1f .cfa: $rsp -128 + .ra: $rip
STACK CFI f22ef .cfa: $rsp 0 +
STACK CFI f22f3 .cfa: $rsp 128 +
STACK CFI f22fb .cfa: $rsp -128 +
STACK CFI INIT f2300 1f .cfa: $rsp -128 + .ra: $rip
STACK CFI f230e .cfa: $rsp 0 +
STACK CFI f2312 .cfa: $rsp 128 +
STACK CFI f231a .cfa: $rsp -128 +
STACK CFI INIT f2020 e1 .cfa: $rsp 8 + .ra: .cfa -8 + ^
STACK CFI f2024 .cfa: $rsp 80 +
STACK CFI INIT f2110 a3 .cfa: $rsp 8 + .ra: .cfa -8 + ^
STACK CFI f2114 .cfa: $rsp 16 +
STACK CFI INIT f21c0 a5 .cfa: $rsp 8 + .ra: .cfa -8 + ^
STACK CFI f21c4 .cfa: $rsp 32 +
STACK CFI INIT f24ad 1f .cfa: $rsp -128 + .ra: $rip
STACK CFI f24bb .cfa: $rsp 0 +
STACK CFI f24bf .cfa: $rsp 128 +
STACK CFI f24c7 .cfa: $rsp -128 +
STACK CFI INIT f24cc 1f .cfa: $rsp -128 + .ra: $rip
STACK CFI f24da .cfa: $rsp 0 +
STACK CFI f24de .cfa: $rsp 128 +
STACK CFI f24e6 .cfa: $rsp -128 +
STACK CFI INIT f2320 18d .cfa: $rsp 8 + .ra: .cfa -8 + ^
STACK CFI f2322 .cfa: $rsp 16 +
STACK CFI f2327 $r13: .cfa -16 + ^
STACK CFI f2329 .cfa: $rsp 24 +
STACK CFI f232c $r12: .cfa -24 + ^
STACK CFI f2332 .cfa: $rsp 32 +
STACK CFI f2333 .cfa: $rsp 40 +
STACK CFI f2337 .cfa: $rsp 80 +
STACK CFI f2375 $rbp: .cfa -32 + ^ $rbx: .cfa -40 + ^
STACK CFI INIT f24f0 266 .cfa: $rsp 8 + .ra: .cfa -8 + ^
STACK CFI f24f2 .cfa: $rsp 16 +
STACK CFI f24f5 $r15: .cfa -16 + ^
STACK CFI f24f7 .cfa: $rsp 24 +
STACK CFI f24fa $r14: .cfa -24 + ^
STACK CFI f24fc .cfa: $rsp 32 +
STACK CFI f24ff $r13: .cfa -32 + ^
STACK CFI f2501 .cfa: $rsp 40 +
STACK CFI f2502 .cfa: $rsp 48 +
STACK CFI f2503 .cfa: $rsp 56 +
STACK CFI f2507 .cfa: $rsp 144 +
STACK CFI f2523 $r12: .cfa -40 + ^ $rbp: .cfa -48 + ^ $rbx: .cfa -56 + ^
STACK CFI INIT f28cd 1f .cfa: $rsp -128 + .ra: $rip
STACK CFI f28db .cfa: $rsp 0 +
STACK CFI f28df .cfa: $rsp 128 +
STACK CFI f28e7 .cfa: $rsp -128 +
STACK CFI INIT f28ec 1f .cfa: $rsp -128 + .ra: $rip
STACK CFI f28fa .cfa: $rsp 0 +
STACK CFI f28fe .cfa: $rsp 128 +
STACK CFI f2906 .cfa: $rsp -128 +
STACK CFI INIT f2760 16d .cfa: $rsp 8 + .ra: .cfa -8 + ^
STACK CFI f2762 .cfa: $rsp 16 +
STACK CFI f276a $r12: .cfa -16 + ^
STACK CFI f276d .cfa: $rsp 24 +
STACK CFI f276e .cfa: $rsp 32 +
STACK CFI f2772 .cfa: $rsp 48 +
STACK CFI f27b0 $rbp: .cfa -24 + ^ $rbx: .cfa -32 + ^
STACK CFI INIT f29a5 1f .cfa: $rsp -128 + .ra: $rip
STACK CFI f29b3 .cfa: $rsp 0 +
STACK CFI f29b7 .cfa: $rsp 128 +
STACK CFI f29bf .cfa: $rsp -128 +
STACK CFI INIT f29c4 1c .cfa: $rsp -128 + .ra: $rip
STACK CFI f29d2 .cfa: $rsp 0 +
STACK CFI f29d6 .cfa: $rsp 128 +
STACK CFI f29de .cfa: $rsp -128 +
STACK CFI INIT f2910 95 .cfa: $rsp 8 + .ra: .cfa -8 + ^
STACK CFI f2914 .cfa: $rsp 16 +
STACK CFI INIT f2c25 1f .cfa: $rsp -128 + .ra: $rip
STACK CFI f2c33 .cfa: $rsp 0 +
STACK CFI f2c37 .cfa: $rsp 128 +
STACK CFI f2c3f .cfa: $rsp -128 +
STACK CFI INIT f2c44 1f .cfa: $rsp -128 + .ra: $rip
STACK CFI f2c52 .cfa: $rsp 0 +
STACK CFI f2c56 .cfa: $rsp 128 +
STACK CFI f2c5e .cfa: $rsp -128 +
STACK CFI INIT f2c63 1f .cfa: $rsp -128 + .ra: $rip
STACK CFI f2c71 .cfa: $rsp 0 +
STACK CFI f2c75 .cfa: $rsp 128 +
STACK CFI f2c7d .cfa: $rsp -128 +
STACK CFI INIT f2c82 1f .cfa: $rsp -128 + .ra: $rip
STACK CFI f2c90 .cfa: $rsp 0 +
STACK CFI f2c94 .cfa: $rsp 128 +
STACK CFI f2c9c .cfa: $rsp -128 +
STACK CFI INIT f2ca1 1f .cfa: $rsp -128 + .ra: $rip
STACK CFI f2caf .cfa: $rsp 0 +
STACK CFI f2cb3 .cfa: $rsp 128 +
STACK CFI f2cbb .cfa: $rsp -128 +
STACK CFI INIT f2cc0 1f .cfa: $rsp -128 + .ra: $rip
STACK CFI f2cce .cfa: $rsp 0 +
STACK CFI f2cd2 .cfa: $rsp 128 +
STACK CFI f2cda .cfa: $rsp -128 +
STACK CFI INIT f29e0 e1 .cfa: $rsp 8 + .ra: .cfa -8 + ^
STACK CFI f29e4 .cfa: $rsp 80 +
STACK CFI INIT f2ad0 a3 .cfa: $rsp 8 + .ra: .cfa -8 + ^
STACK CFI f2ad4 .cfa: $rsp 16 +
STACK CFI INIT f2b80 a5 .cfa: $rsp 8 + .ra: .cfa -8 + ^
STACK CFI f2b84 .cfa: $rsp 32 +
STACK CFI INIT f2ce0 256 .cfa: $rsp 8 + .ra: .cfa -8 + ^
STACK CFI f2ce2 .cfa: $rsp 16 +
STACK CFI f2ce5 $r15: .cfa -16 + ^
STACK CFI f2ce7 .cfa: $rsp 24 +
STACK CFI f2cea $r14: .cfa -24 + ^
STACK CFI f2cec .cfa: $rsp 32 +
STACK CFI f2cef $r13: .cfa -32 + ^
STACK CFI f2cf1 .cfa: $rsp 40 +
STACK CFI f2cf2 .cfa: $rsp 48 +
STACK CFI f2cf5 $r12: .cfa -40 + ^ $rbp: .cfa -48 + ^
STACK CFI f2cf6 .cfa: $rsp 56 +
STACK CFI f2cfa .cfa: $rsp 128 +
STACK CFI f2d11 $rbx: .cfa -56 + ^
STACK CFI INIT f3065 1f .cfa: $rsp -128 + .ra: $rip
STACK CFI f3073 .cfa: $rsp 0 +
STACK CFI f3077 .cfa: $rsp 128 +
STACK CFI f307f .cfa: $rsp -128 +
STACK CFI INIT f3084 1c .cfa: $rsp -128 + .ra: $rip
STACK CFI f3092 .cfa: $rsp 0 +
STACK CFI f3096 .cfa: $rsp 128 +
STACK CFI f309e .cfa: $rsp -128 +
STACK CFI INIT f2f40 125 .cfa: $rsp 8 + .ra: .cfa -8 + ^
STACK CFI f2f41 .cfa: $rsp 16 +
STACK CFI f2f49 .cfa: $rsp 24 +
STACK CFI f2f4b $rbp: .cfa -16 + ^ $rbx: .cfa -24 + ^
STACK CFI f2f4f .cfa: $rsp 48 +
STACK CFI INIT f30a0 1ed .cfa: $rsp 8 + .ra: .cfa -8 + ^
STACK CFI f30a2 .cfa: $rsp 16 +
STACK CFI f30a5 $r15: .cfa -16 + ^
STACK CFI f30a7 .cfa: $rsp 24 +
STACK CFI f30aa $r14: .cfa -24 + ^
STACK CFI f30ac .cfa: $rsp 32 +
STACK CFI f30af $r13: .cfa -32 + ^
STACK CFI f30b1 .cfa: $rsp 40 +
STACK CFI f30b4 $r12: .cfa -40 + ^
STACK CFI f30b5 .cfa: $rsp 48 +
STACK CFI f30b6 .cfa: $rsp 56 +
STACK CFI f30ba .cfa: $rsp 112 +
STACK CFI f30cc $rbp: .cfa -48 + ^ $rbx: .cfa -56 + ^
STACK CFI INIT f3318 1c .cfa: $rsp -128 + .ra: $rip
STACK CFI f3326 .cfa: $rsp 0 +
STACK CFI f332a .cfa: $rsp 128 +
STACK CFI f3332 .cfa: $rsp -128 +
STACK CFI INIT f3334 1c .cfa: $rsp -128 + .ra: $rip
STACK CFI f3342 .cfa: $rsp 0 +
STACK CFI f3346 .cfa: $rsp 128 +
STACK CFI f334e .cfa: $rsp -128 +
STACK CFI INIT f3290 88 .cfa: $rsp 8 + .ra: .cfa -8 + ^
STACK CFI f3294 .cfa: $rsp 16 +
STACK CFI INIT f3575 1f .cfa: $rsp -128 + .ra: $rip
STACK CFI f3583 .cfa: $rsp 0 +
STACK CFI f3587 .cfa: $rsp 128 +
STACK CFI f358f .cfa: $rsp -128 +
STACK CFI INIT f3594 1f .cfa: $rsp -128 + .ra: $rip
STACK CFI f35a2 .cfa: $rsp 0 +
STACK CFI f35a6 .cfa: $rsp 128 +
STACK CFI f35ae .cfa: $rsp -128 +
STACK CFI INIT f35b3 1f .cfa: $rsp -128 + .ra: $rip
STACK CFI f35c1 .cfa: $rsp 0 +
STACK CFI f35c5 .cfa: $rsp 128 +
STACK CFI f35cd .cfa: $rsp -128 +
STACK CFI INIT f35d2 1f .cfa: $rsp -128 + .ra: $rip
STACK CFI f35e0 .cfa: $rsp 0 +
STACK CFI f35e4 .cfa: $rsp 128 +
STACK CFI f35ec .cfa: $rsp -128 +
STACK CFI INIT f35f1 1f .cfa: $rsp -128 + .ra: $rip
STACK CFI f35ff .cfa: $rsp 0 +
STACK CFI f3603 .cfa: $rsp 128 +
STACK CFI f360b .cfa: $rsp -128 +
STACK CFI INIT f3610 1f .cfa: $rsp -128 + .ra: $rip
STACK CFI f361e .cfa: $rsp 0 +
STACK CFI f3622 .cfa: $rsp 128 +
STACK CFI f362a .cfa: $rsp -128 +
STACK CFI INIT f3350 d5 .cfa: $rsp 8 + .ra: .cfa -8 + ^
STACK CFI f3354 .cfa: $rsp 80 +
STACK CFI INIT f3430 a0 .cfa: $rsp 8 + .ra: .cfa -8 + ^
STACK CFI f3434 .cfa: $rsp 16 +
STACK CFI INIT f34d0 a5 .cfa: $rsp 8 + .ra: .cfa -8 + ^
STACK CFI f34d4 .cfa: $rsp 32 +
STACK CFI INIT f3755 1f .cfa: $rsp -128 + .ra: $rip
STACK CFI f3763 .cfa: $rsp 0 +
STACK CFI f3767 .cfa: $rsp 128 +
STACK CFI f376f .cfa: $rsp -128 +
STACK CFI INIT f3774 1c .cfa: $rsp -128 + .ra: $rip
STACK CFI f3782 .cfa: $rsp 0 +
STACK CFI f3786 .cfa: $rsp 128 +
STACK CFI f378e .cfa: $rsp -128 +
STACK CFI INIT f3630 125 .cfa: $rsp 8 + .ra: .cfa -8 + ^
STACK CFI f3631 .cfa: $rsp 16 +
STACK CFI f3639 .cfa: $rsp 24 +
STACK CFI f363c $rbp: .cfa -16 + ^ $rbx: .cfa -24 + ^
STACK CFI f3640 .cfa: $rsp 48 +
STACK CFI INIT f3790 1ed .cfa: $rsp 8 + .ra: .cfa -8 + ^
STACK CFI f3792 .cfa: $rsp 16 +
STACK CFI f3795 $r15: .cfa -16 + ^
STACK CFI f3797 .cfa: $rsp 24 +
STACK CFI f379a $r14: .cfa -24 + ^
STACK CFI f379c .cfa: $rsp 32 +
STACK CFI f379f $r13: .cfa -32 + ^
STACK CFI f37a1 .cfa: $rsp 40 +
STACK CFI f37a4 $r12: .cfa -40 + ^
STACK CFI f37a5 .cfa: $rsp 48 +
STACK CFI f37a6 .cfa: $rsp 56 +
STACK CFI f37aa .cfa: $rsp 112 +
STACK CFI f37bc $rbp: .cfa -48 + ^ $rbx: .cfa -56 + ^
STACK CFI INIT f3abd 1f .cfa: $rsp -128 + .ra: $rip
STACK CFI f3acb .cfa: $rsp 0 +
STACK CFI f3acf .cfa: $rsp 128 +
STACK CFI f3ad7 .cfa: $rsp -128 +
STACK CFI INIT f3adc 1f .cfa: $rsp -128 + .ra: $rip
STACK CFI f3aea .cfa: $rsp 0 +
STACK CFI f3aee .cfa: $rsp 128 +
STACK CFI f3af6 .cfa: $rsp -128 +
STACK CFI INIT f3980 13d .cfa: $rsp 8 + .ra: .cfa -8 + ^
STACK CFI f3982 .cfa: $rsp 16 +
STACK CFI f3987 $r12: .cfa -16 + ^
STACK CFI f3988 .cfa: $rsp 24 +
STACK CFI f398b $rbp: .cfa -24 + ^
STACK CFI f3991 .cfa: $rsp 32 +
STACK CFI f3995 .cfa: $rsp 48 +
STACK CFI f39c7 $rbx: .cfa -32 + ^
STACK CFI INIT f3b00 26d .cfa: $rsp 8 + .ra: .cfa -8 + ^
STACK CFI f3b02 .cfa: $rsp 16 +
STACK CFI f3b05 $r15: .cfa -16 + ^
STACK CFI f3b07 .cfa: $rsp 24 +
STACK CFI f3b0a $r14: .cfa -24 + ^
STACK CFI f3b0c .cfa: $rsp 32 +
STACK CFI f3b0f $r13: .cfa -32 + ^
STACK CFI f3b11 .cfa: $rsp 40 +
STACK CFI f3b12 .cfa: $rsp 48 +
STACK CFI f3b15 $r12: .cfa -40 + ^ $rbp: .cfa -48 + ^
STACK CFI f3b16 .cfa: $rsp 56 +
STACK CFI f3b1a .cfa: $rsp 128 +
STACK CFI f3b33 $rbx: .cfa -56 + ^
STACK CFI INIT f3ead 1f .cfa: $rsp -128 + .ra: $rip
STACK CFI f3ebb .cfa: $rsp 0 +
STACK CFI f3ebf .cfa: $rsp 128 +
STACK CFI f3ec7 .cfa: $rsp -128 +
STACK CFI INIT f3ecc 1f .cfa: $rsp -128 + .ra: $rip
STACK CFI f3eda .cfa: $rsp 0 +
STACK CFI f3ede .cfa: $rsp 128 +
STACK CFI f3ee6 .cfa: $rsp -128 +
STACK CFI INIT f3d70 13d .cfa: $rsp 8 + .ra: .cfa -8 + ^
STACK CFI f3d72 .cfa: $rsp 16 +
STACK CFI f3d77 $r12: .cfa -16 + ^
STACK CFI f3d78 .cfa: $rsp 24 +
STACK CFI f3d7b $rbp: .cfa -24 + ^
STACK CFI f3d81 .cfa: $rsp 32 +
STACK CFI f3d85 .cfa: $rsp 48 +
STACK CFI f3db7 $rbx: .cfa -32 + ^
STACK CFI INIT f3ef0 26d .cfa: $rsp 8 + .ra: .cfa -8 + ^
STACK CFI f3ef2 .cfa: $rsp 16 +
STACK CFI f3ef5 $r15: .cfa -16 + ^
STACK CFI f3ef7 .cfa: $rsp 24 +
STACK CFI f3efa $r14: .cfa -24 + ^
STACK CFI f3efc .cfa: $rsp 32 +
STACK CFI f3eff $r13: .cfa -32 + ^
STACK CFI f3f01 .cfa: $rsp 40 +
STACK CFI f3f02 .cfa: $rsp 48 +
STACK CFI f3f05 $r12: .cfa -40 + ^ $rbp: .cfa -48 + ^
STACK CFI f3f06 .cfa: $rsp 56 +
STACK CFI f3f0a .cfa: $rsp 128 +
STACK CFI f3f22 $rbx: .cfa -56 + ^
STACK CFI INIT f41e8 1c .cfa: $rsp -128 + .ra: $rip
STACK CFI f41f6 .cfa: $rsp 0 +
STACK CFI f41fa .cfa: $rsp 128 +
STACK CFI f4202 .cfa: $rsp -128 +
STACK CFI INIT f4204 1c .cfa: $rsp -128 + .ra: $rip
STACK CFI f4212 .cfa: $rsp 0 +
STACK CFI f4216 .cfa: $rsp 128 +
STACK CFI f421e .cfa: $rsp -128 +
STACK CFI INIT f4160 88 .cfa: $rsp 8 + .ra: .cfa -8 + ^
STACK CFI f4164 .cfa: $rsp 16 +
STACK CFI INIT f4445 1f .cfa: $rsp -128 + .ra: $rip
STACK CFI f4453 .cfa: $rsp 0 +
STACK CFI f4457 .cfa: $rsp 128 +
STACK CFI f445f .cfa: $rsp -128 +
STACK CFI INIT f4464 1f .cfa: $rsp -128 + .ra: $rip
STACK CFI f4472 .cfa: $rsp 0 +
STACK CFI f4476 .cfa: $rsp 128 +
STACK CFI f447e .cfa: $rsp -128 +
STACK CFI INIT f4483 1f .cfa: $rsp -128 + .ra: $rip
STACK CFI f4491 .cfa: $rsp 0 +
STACK CFI f4495 .cfa: $rsp 128 +
STACK CFI f449d .cfa: $rsp -128 +
STACK CFI INIT f44a2 1f .cfa: $rsp -128 + .ra: $rip
STACK CFI f44b0 .cfa: $rsp 0 +
STACK CFI f44b4 .cfa: $rsp 128 +
STACK CFI f44bc .cfa: $rsp -128 +
STACK CFI INIT f44c1 1f .cfa: $rsp -128 + .ra: $rip
STACK CFI f44cf .cfa: $rsp 0 +
STACK CFI f44d3 .cfa: $rsp 128 +
STACK CFI f44db .cfa: $rsp -128 +
STACK CFI INIT f44e0 1f .cfa: $rsp -128 + .ra: $rip
STACK CFI f44ee .cfa: $rsp 0 +
STACK CFI f44f2 .cfa: $rsp 128 +
STACK CFI f44fa .cfa: $rsp -128 +
STACK CFI INIT f4220 d5 .cfa: $rsp 8 + .ra: .cfa -8 + ^
STACK CFI f4224 .cfa: $rsp 80 +
STACK CFI INIT f4300 a0 .cfa: $rsp 8 + .ra: .cfa -8 + ^
STACK CFI f4304 .cfa: $rsp 16 +
STACK CFI INIT f43a0 a5 .cfa: $rsp 8 + .ra: .cfa -8 + ^
STACK CFI f43a4 .cfa: $rsp 32 +
STACK CFI INIT f4588 1c .cfa: $rsp -128 + .ra: $rip
STACK CFI f4596 .cfa: $rsp 0 +
STACK CFI f459a .cfa: $rsp 128 +
STACK CFI f45a2 .cfa: $rsp -128 +
STACK CFI INIT f45a4 1c .cfa: $rsp -128 + .ra: $rip
STACK CFI f45b2 .cfa: $rsp 0 +
STACK CFI f45b6 .cfa: $rsp 128 +
STACK CFI f45be .cfa: $rsp -128 +
STACK CFI INIT f4500 88 .cfa: $rsp 8 + .ra: .cfa -8 + ^
STACK CFI f4504 .cfa: $rsp 16 +
STACK CFI INIT f46e5 1f .cfa: $rsp -128 + .ra: $rip
STACK CFI f46f3 .cfa: $rsp 0 +
STACK CFI f46f7 .cfa: $rsp 128 +
STACK CFI f46ff .cfa: $rsp -128 +
STACK CFI INIT f4704 1c .cfa: $rsp -128 + .ra: $rip
STACK CFI f4712 .cfa: $rsp 0 +
STACK CFI f4716 .cfa: $rsp 128 +
STACK CFI f471e .cfa: $rsp -128 +
STACK CFI INIT f45c0 125 .cfa: $rsp 8 + .ra: .cfa -8 + ^
STACK CFI f45c1 .cfa: $rsp 16 +
STACK CFI f45c9 .cfa: $rsp 24 +
STACK CFI f45cc $rbp: .cfa -16 + ^ $rbx: .cfa -24 + ^
STACK CFI f45d0 .cfa: $rsp 48 +
STACK CFI INIT f4845 1f .cfa: $rsp -128 + .ra: $rip
STACK CFI f4853 .cfa: $rsp 0 +
STACK CFI f4857 .cfa: $rsp 128 +
STACK CFI f485f .cfa: $rsp -128 +
STACK CFI INIT f4864 1c .cfa: $rsp -128 + .ra: $rip
STACK CFI f4872 .cfa: $rsp 0 +
STACK CFI f4876 .cfa: $rsp 128 +
STACK CFI f487e .cfa: $rsp -128 +
STACK CFI INIT f4720 125 .cfa: $rsp 8 + .ra: .cfa -8 + ^
STACK CFI f4721 .cfa: $rsp 16 +
STACK CFI f4729 .cfa: $rsp 24 +
STACK CFI f472b $rbp: .cfa -16 + ^ $rbx: .cfa -24 + ^
STACK CFI f472f .cfa: $rsp 48 +
STACK CFI INIT f4aa5 1f .cfa: $rsp -128 + .ra: $rip
STACK CFI f4ab3 .cfa: $rsp 0 +
STACK CFI f4ab7 .cfa: $rsp 128 +
STACK CFI f4abf .cfa: $rsp -128 +
STACK CFI INIT f4ac4 1f .cfa: $rsp -128 + .ra: $rip
STACK CFI f4ad2 .cfa: $rsp 0 +
STACK CFI f4ad6 .cfa: $rsp 128 +
STACK CFI f4ade .cfa: $rsp -128 +
STACK CFI INIT f4ae3 1f .cfa: $rsp -128 + .ra: $rip
STACK CFI f4af1 .cfa: $rsp 0 +
STACK CFI f4af5 .cfa: $rsp 128 +
STACK CFI f4afd .cfa: $rsp -128 +
STACK CFI INIT f4b02 1f .cfa: $rsp -128 + .ra: $rip
STACK CFI f4b10 .cfa: $rsp 0 +
STACK CFI f4b14 .cfa: $rsp 128 +
STACK CFI f4b1c .cfa: $rsp -128 +
STACK CFI INIT f4b21 1f .cfa: $rsp -128 + .ra: $rip
STACK CFI f4b2f .cfa: $rsp 0 +
STACK CFI f4b33 .cfa: $rsp 128 +
STACK CFI f4b3b .cfa: $rsp -128 +
STACK CFI INIT f4b40 1f .cfa: $rsp -128 + .ra: $rip
STACK CFI f4b4e .cfa: $rsp 0 +
STACK CFI f4b52 .cfa: $rsp 128 +
STACK CFI f4b5a .cfa: $rsp -128 +
STACK CFI INIT f4880 d5 .cfa: $rsp 8 + .ra: .cfa -8 + ^
STACK CFI f4884 .cfa: $rsp 80 +
STACK CFI INIT f4960 a0 .cfa: $rsp 8 + .ra: .cfa -8 + ^
STACK CFI f4964 .cfa: $rsp 16 +
STACK CFI INIT f4a00 a5 .cfa: $rsp 8 + .ra: .cfa -8 + ^
STACK CFI f4a04 .cfa: $rsp 32 +
STACK CFI INIT f4b60 1ed .cfa: $rsp 8 + .ra: .cfa -8 + ^
STACK CFI f4b62 .cfa: $rsp 16 +
STACK CFI f4b65 $r15: .cfa -16 + ^
STACK CFI f4b67 .cfa: $rsp 24 +
STACK CFI f4b6a $r14: .cfa -24 + ^
STACK CFI f4b6c .cfa: $rsp 32 +
STACK CFI f4b6f $r13: .cfa -32 + ^
STACK CFI f4b71 .cfa: $rsp 40 +
STACK CFI f4b74 $r12: .cfa -40 + ^
STACK CFI f4b75 .cfa: $rsp 48 +
STACK CFI f4b76 .cfa: $rsp 56 +
STACK CFI f4b7a .cfa: $rsp 112 +
STACK CFI f4b8c $rbp: .cfa -48 + ^ $rbx: .cfa -56 + ^
STACK CFI INIT f4d50 1ed .cfa: $rsp 8 + .ra: .cfa -8 + ^
STACK CFI f4d52 .cfa: $rsp 16 +
STACK CFI f4d55 $r15: .cfa -16 + ^
STACK CFI f4d57 .cfa: $rsp 24 +
STACK CFI f4d5a $r14: .cfa -24 + ^
STACK CFI f4d5c .cfa: $rsp 32 +
STACK CFI f4d5f $r13: .cfa -32 + ^
STACK CFI f4d61 .cfa: $rsp 40 +
STACK CFI f4d64 $r12: .cfa -40 + ^
STACK CFI f4d65 .cfa: $rsp 48 +
STACK CFI f4d66 .cfa: $rsp 56 +
STACK CFI f4d6a .cfa: $rsp 112 +
STACK CFI f4d7c $rbp: .cfa -48 + ^ $rbx: .cfa -56 + ^
STACK CFI INIT f4f40 c .cfa: $rsp 8 + .ra: .cfa -8 + ^
STACK CFI INIT f4f50 16e .cfa: $rsp 8 + .ra: .cfa -8 + ^
STACK CFI f4f62 .cfa: $rsp 16 +
STACK CFI f4f63 .cfa: $rsp 24 +
STACK CFI f4f6f $rbp: .cfa -16 + ^ $rbx: .cfa -24 + ^
STACK CFI INIT f50c0 176 .cfa: $rsp 8 + .ra: .cfa -8 + ^
STACK CFI f50c2 .cfa: $rsp 16 +
STACK CFI f50c4 .cfa: $rsp 24 +
STACK CFI f50c6 .cfa: $rsp 32 +
STACK CFI f50c8 .cfa: $rsp 40 +
STACK CFI f50c9 .cfa: $rsp 48 +
STACK CFI f50cc $r12: .cfa -40 + ^ $r13: .cfa -32 + ^ $r14: .cfa -24 + ^ $r15: .cfa -16 + ^ $rbp: .cfa -48 + ^
STACK CFI f50cd .cfa: $rsp 56 +
STACK CFI f50d4 .cfa: $rsp 1136 +
STACK CFI f50e9 $rbx: .cfa -56 + ^
STACK CFI INIT f5240 270 .cfa: $rsp 8 + .ra: .cfa -8 + ^
STACK CFI f5242 .cfa: $rsp 16 +
STACK CFI f524d .cfa: $rsp 24 +
STACK CFI f524e .cfa: $rsp 32 +
STACK CFI f524f .cfa: $rsp 40 +
STACK CFI f5256 $r12: .cfa -24 + ^ $r13: .cfa -16 + ^ $rbp: .cfa -32 + ^ $rbx: .cfa -40 + ^
STACK CFI INIT f54b0 c .cfa: $rsp 8 + .ra: .cfa -8 + ^
STACK CFI INIT f54c0 42 .cfa: $rsp 8 + .ra: .cfa -8 + ^
STACK CFI f54c1 .cfa: $rsp 16 +
STACK CFI f54c4 $rbx: .cfa -16 + ^
STACK CFI f54cf .cfa: $rsp 32 +
STACK CFI INIT f5510 16e .cfa: $rsp 8 + .ra: .cfa -8 + ^
STACK CFI f5512 .cfa: $rsp 16 +
STACK CFI f5514 .cfa: $rsp 24 +
STACK CFI f5516 .cfa: $rsp 32 +
STACK CFI f5518 .cfa: $rsp 40 +
STACK CFI f5519 .cfa: $rsp 48 +
STACK CFI f551c $r12: .cfa -40 + ^ $r13: .cfa -32 + ^ $r14: .cfa -24 + ^ $r15: .cfa -16 + ^ $rbp: .cfa -48 + ^
STACK CFI f551d .cfa: $rsp 56 +
STACK CFI f5524 .cfa: $rsp 1136 +
STACK CFI f5539 $rbx: .cfa -56 + ^
STACK CFI INIT f6050 1f .cfa: $rsp -128 + .ra: $rip
STACK CFI f605e .cfa: $rsp 0 +
STACK CFI f6062 .cfa: $rsp 128 +
STACK CFI f606a .cfa: $rsp -128 +
STACK CFI INIT f606f 1f .cfa: $rsp -128 + .ra: $rip
STACK CFI f607d .cfa: $rsp 0 +
STACK CFI f6081 .cfa: $rsp 128 +
STACK CFI f6089 .cfa: $rsp -128 +
STACK CFI INIT f608e 1f .cfa: $rsp -128 + .ra: $rip
STACK CFI f609c .cfa: $rsp 0 +
STACK CFI f60a0 .cfa: $rsp 128 +
STACK CFI f60a8 .cfa: $rsp -128 +
STACK CFI INIT f60ad 1f .cfa: $rsp -128 + .ra: $rip
STACK CFI f60bb .cfa: $rsp 0 +
STACK CFI f60bf .cfa: $rsp 128 +
STACK CFI f60c7 .cfa: $rsp -128 +
STACK CFI INIT f60cc 1f .cfa: $rsp -128 + .ra: $rip
STACK CFI f60da .cfa: $rsp 0 +
STACK CFI f60de .cfa: $rsp 128 +
STACK CFI f60e6 .cfa: $rsp -128 +
STACK CFI INIT f60eb 1f .cfa: $rsp -128 + .ra: $rip
STACK CFI f60f9 .cfa: $rsp 0 +
STACK CFI f60fd .cfa: $rsp 128 +
STACK CFI f6105 .cfa: $rsp -128 +
STACK CFI INIT f5680 31 .cfa: $rsp 8 + .ra: .cfa -8 + ^
STACK CFI f5681 .cfa: $rsp 16 +
STACK CFI f5684 $rbx: .cfa -16 + ^
STACK CFI INIT f56c0 85 .cfa: $rsp 8 + .ra: .cfa -8 + ^
STACK CFI f56c8 .cfa: $rsp 16 +
STACK CFI f56cb $rbx: .cfa -16 + ^
STACK CFI INIT f5750 141 .cfa: $rsp 8 + .ra: .cfa -8 + ^
STACK CFI f5752 .cfa: $rsp 16 +
STACK CFI f5754 .cfa: $rsp 24 +
STACK CFI f5756 .cfa: $rsp 32 +
STACK CFI f5759 $r13: .cfa -32 + ^ $r14: .cfa -24 + ^ $r15: .cfa -16 + ^
STACK CFI f575e .cfa: $rsp 40 +
STACK CFI f575f .cfa: $rsp 48 +
STACK CFI f5764 $r12: .cfa -40 + ^ $rbp: .cfa -48 + ^
STACK CFI f5765 .cfa: $rsp 56 +
STACK CFI f5768 $rbx: .cfa -56 + ^
STACK CFI f5770 .cfa: $rsp 96 +
STACK CFI INIT f58a0 1e9 .cfa: $rsp 8 + .ra: .cfa -8 + ^
STACK CFI f58a2 .cfa: $rsp 16 +
STACK CFI f58a5 $r15: .cfa -16 + ^
STACK CFI f58a7 .cfa: $rsp 24 +
STACK CFI f58aa $r14: .cfa -24 + ^
STACK CFI f58ac .cfa: $rsp 32 +
STACK CFI f58ae .cfa: $rsp 40 +
STACK CFI f58af .cfa: $rsp 48 +
STACK CFI f58b0 .cfa: $rsp 56 +
STACK CFI f58b3 $r12: .cfa -40 + ^ $r13: .cfa -32 + ^ $rbp: .cfa -48 + ^ $rbx: .cfa -56 + ^
STACK CFI f58b7 .cfa: $rsp 112 +
STACK CFI INIT f5a90 97 .cfa: $rsp 8 + .ra: .cfa -8 + ^
STACK CFI f5a91 .cfa: $rsp 16 +
STACK CFI f5a97 $rbp: .cfa -16 + ^
STACK CFI f5a9f .cfa: $rsp 24 +
STACK CFI f5aa2 $rbx: .cfa -24 + ^
STACK CFI f5aa6 .cfa: $rsp 48 +
STACK CFI INIT f5b30 47 .cfa: $rsp 8 + .ra: .cfa -8 + ^
STACK CFI f5b31 .cfa: $rsp 16 +
STACK CFI f5b34 $rbx: .cfa -16 + ^
STACK CFI INIT f5b80 374 .cfa: $rsp 8 + .ra: .cfa -8 + ^
STACK CFI f5b82 .cfa: $rsp 16 +
STACK CFI f5b87 $r15: .cfa -16 + ^
STACK CFI f5b89 .cfa: $rsp 24 +
STACK CFI f5b8b .cfa: $rsp 32 +
STACK CFI f5b8d .cfa: $rsp 40 +
STACK CFI f5b8e .cfa: $rsp 48 +
STACK CFI f5b91 $r12: .cfa -40 + ^ $r13: .cfa -32 + ^ $r14: .cfa -24 + ^ $rbp: .cfa -48 + ^
STACK CFI f5b92 .cfa: $rsp 56 +
STACK CFI f5b99 .cfa: $rsp 1280 +
STACK CFI f5ba1 $rbx: .cfa -56 + ^
STACK CFI INIT f5f00 12 .cfa: $rsp 8 + .ra: .cfa -8 + ^
STACK CFI f5f01 .cfa: $rsp 16 +
STACK CFI f5f04 $rbx: .cfa -16 + ^
STACK CFI INIT f5f20 66 .cfa: $rsp 8 + .ra: .cfa -8 + ^
STACK CFI f5f24 .cfa: $rsp 16 +
STACK CFI INIT f5f90 45 .cfa: $rsp 8 + .ra: .cfa -8 + ^
STACK CFI f5f9d $rbp: .cfa -16 + ^ $rbx: .cfa -24 + ^
STACK CFI f5fa1 .cfa: $rsp 32 +
STACK CFI INIT f5fe0 70 .cfa: $rsp 8 + .ra: .cfa -8 + ^
STACK CFI f5fe4 .cfa: $rsp 16 +
STACK CFI INIT f6110 1a .cfa: $rsp 8 + .ra: .cfa -8 + ^
STACK CFI f6114 .cfa: $rsp 16 +
STACK CFI INIT f6130 d2 .cfa: $rsp 8 + .ra: .cfa -8 + ^
STACK CFI f613e .cfa: $rsp 48 +
STACK CFI f6147 $rbp: .cfa -16 + ^ $rbx: .cfa -24 + ^
STACK CFI INIT f6f63 1f .cfa: $rsp -128 + .ra: $rip
STACK CFI f6f71 .cfa: $rsp 0 +
STACK CFI f6f75 .cfa: $rsp 128 +
STACK CFI f6f7d .cfa: $rsp -128 +
STACK CFI INIT f6f82 1f .cfa: $rsp -128 + .ra: $rip
STACK CFI f6f90 .cfa: $rsp 0 +
STACK CFI f6f94 .cfa: $rsp 128 +
STACK CFI f6f9c .cfa: $rsp -128 +
STACK CFI INIT f6210 2fd .cfa: $rsp 8 + .ra: .cfa -8 + ^
STACK CFI f6211 .cfa: $rsp 16 +
STACK CFI f6214 $rbp: .cfa -16 + ^ .cfa: $rbp 16 +
STACK CFI f6239 $r12: .cfa -48 + ^ $r13: .cfa -40 + ^ $r14: .cfa -32 + ^ $r15: .cfa -24 + ^ $rbx: .cfa -56 + ^
STACK CFI INIT f6510 a53 .cfa: $rsp 8 + .ra: .cfa -8 + ^
STACK CFI f6511 .cfa: $rsp 16 +
STACK CFI f6519 $rbp: .cfa -16 + ^ .cfa: $rbp 16 +
STACK CFI f6524 $r12: .cfa -48 + ^ $rbx: .cfa -56 + ^
STACK CFI f652f $r13: .cfa -40 + ^ $r14: .cfa -32 + ^
STACK CFI f654c $r15: .cfa -24 + ^
STACK CFI INIT f6fb0 8f .cfa: $rsp 8 + .ra: .cfa -8 + ^
STACK CFI f6fbc $rbp: .cfa -24 + ^ $rbx: .cfa -32 + ^
STACK CFI f6fc5 .cfa: $rsp 80 +
STACK CFI f6fc8 $r12: .cfa -16 + ^
STACK CFI INIT f7040 9b .cfa: $rsp 8 + .ra: .cfa -8 + ^
STACK CFI f704d $r12: .cfa -16 + ^ $rbx: .cfa -32 + ^
STACK CFI f7056 $rbp: .cfa -24 + ^ .cfa: $rsp 80 +
STACK CFI INIT f70e0 36 .cfa: $rsp 8 + .ra: .cfa -8 + ^
STACK CFI f70e1 .cfa: $rsp 16 +
STACK CFI f70e4 $rbp: .cfa -16 + ^
STACK CFI f70e5 .cfa: $rsp 24 +
STACK CFI f70e8 $rbx: .cfa -24 + ^
STACK CFI f70ec .cfa: $rsp 32 +
STACK CFI INIT f7120 303 .cfa: $rsp 8 + .ra: .cfa -8 + ^
STACK CFI f7122 .cfa: $rsp 16 +
STACK CFI f7124 .cfa: $rsp 24 +
STACK CFI f7126 .cfa: $rsp 32 +
STACK CFI f7128 .cfa: $rsp 40 +
STACK CFI f7129 .cfa: $rsp 48 +
STACK CFI f712a .cfa: $rsp 56 +
STACK CFI f712e .cfa: $rsp 112 +
STACK CFI f7165 $r12: .cfa -40 + ^ $r13: .cfa -32 + ^ $r14: .cfa -24 + ^ $r15: .cfa -16 + ^ $rbp: .cfa -48 + ^ $rbx: .cfa -56 + ^
STACK CFI INIT f7430 b .cfa: $rsp 8 + .ra: .cfa -8 + ^
STACK CFI INIT f7440 5 .cfa: $rsp 8 + .ra: .cfa -8 + ^
STACK CFI INIT f7450 3a .cfa: $rsp 8 + .ra: .cfa -8 + ^
STACK CFI f7452 .cfa: $rsp 16 +
STACK CFI f7453 .cfa: $rsp 24 +
STACK CFI f745a $r12: .cfa -16 + ^ $rbp: .cfa -24 + ^
STACK CFI f745b .cfa: $rsp 32 +
STACK CFI f7469 $rbx: .cfa -32 + ^
STACK CFI INIT f7490 8f .cfa: $rsp 8 + .ra: .cfa -8 + ^
STACK CFI f7491 .cfa: $rsp 16 +
STACK CFI f7499 .cfa: $rsp 24 +
STACK CFI f749c $rbp: .cfa -16 + ^ $rbx: .cfa -24 + ^
STACK CFI f74a5 .cfa: $rsp 48 +
STACK CFI INIT f7520 377 .cfa: $rsp 8 + .ra: .cfa -8 + ^
STACK CFI f7521 .cfa: $rsp 16 +
STACK CFI f7524 $rbp: .cfa -16 + ^ .cfa: $rbp 16 +
STACK CFI f752d $r13: .cfa -40 + ^ $r14: .cfa -32 + ^ $r15: .cfa -24 + ^
STACK CFI f7533 $r12: .cfa -48 + ^ $rbx: .cfa -56 + ^
STACK CFI INIT f78a0 e23 .cfa: $rsp 8 + .ra: .cfa -8 + ^
STACK CFI f78a1 .cfa: $rsp 16 +
STACK CFI f78a4 $rbp: .cfa -16 + ^ .cfa: $rbp 16 +
STACK CFI f78b6 $r12: .cfa -48 + ^ $r13: .cfa -40 + ^ $r14: .cfa -32 + ^ $r15: .cfa -24 + ^ $rbx: .cfa -56 + ^
STACK CFI INIT f86d0 17 .cfa: $rsp 8 + .ra: .cfa -8 + ^
STACK CFI f86d1 .cfa: $rsp 16 +
STACK CFI f86d4 $rbx: .cfa -16 + ^
STACK CFI INIT f86f0 15b .cfa: $rsp 8 + .ra: .cfa -8 + ^
STACK CFI f86f1 .cfa: $rsp 16 +
STACK CFI f86f4 $rbp: .cfa -16 + ^ .cfa: $rbp 16 +
STACK CFI f86ff $r13: .cfa -40 + ^ $rbx: .cfa -56 + ^
STACK CFI f8715 $r12: .cfa -48 + ^ $r14: .cfa -32 + ^ $r15: .cfa -24 + ^
STACK CFI INIT f8850 159 .cfa: $rsp 8 + .ra: .cfa -8 + ^
STACK CFI f8851 .cfa: $rsp 16 +
STACK CFI f8854 $rbp: .cfa -16 + ^ .cfa: $rbp 16 +
STACK CFI f885b $r14: .cfa -24 + ^
STACK CFI f8867 $r13: .cfa -32 + ^
STACK CFI f8875 $r12: .cfa -40 + ^ $rbx: .cfa -48 + ^
STACK CFI INIT f89b0 7c .cfa: $rsp 8 + .ra: .cfa -8 + ^
STACK CFI f89c2 .cfa: $rsp 16 +
STACK CFI INIT f8a30 188 .cfa: $rsp 8 + .ra: .cfa -8 + ^
STACK CFI f8a31 .cfa: $rsp 16 +
STACK CFI f8a34 $rbp: .cfa -16 + ^ .cfa: $rbp 16 +
STACK CFI f8a3f $r12: .cfa -48 + ^ $rbx: .cfa -56 + ^
STACK CFI f8a4a $r13: .cfa -40 + ^ $r14: .cfa -32 + ^
STACK CFI f8a7a $r15: .cfa -24 + ^
STACK CFI INIT f8bc0 168 .cfa: $rsp 8 + .ra: .cfa -8 + ^
STACK CFI f8bc1 .cfa: $rsp 16 +
STACK CFI f8bc4 $rbp: .cfa -16 + ^ .cfa: $rbp 16 +
STACK CFI f8bcb $r13: .cfa -40 + ^
STACK CFI f8be2 $r12: .cfa -48 + ^ $r14: .cfa -32 + ^ $r15: .cfa -24 + ^
STACK CFI f8c00 $rbx: .cfa -56 + ^
STACK CFI INIT f8d30 523 .cfa: $rsp 8 + .ra: .cfa -8 + ^
STACK CFI f8d32 .cfa: $rsp 16 +
STACK CFI f8d34 .cfa: $rsp 24 +
STACK CFI f8d37 $r14: .cfa -24 + ^ $r15: .cfa -16 + ^
STACK CFI f8d39 .cfa: $rsp 32 +
STACK CFI f8d3f $r13: .cfa -32 + ^
STACK CFI f8d41 .cfa: $rsp 40 +
STACK CFI f8d42 .cfa: $rsp 48 +
STACK CFI f8d43 .cfa: $rsp 56 +
STACK CFI f8d4a .cfa: $rsp 288 +
STACK CFI f8dc3 $r12: .cfa -40 + ^ $rbp: .cfa -48 + ^ $rbx: .cfa -56 + ^
STACK CFI INIT f9260 40 .cfa: $rsp 8 + .ra: .cfa -8 + ^
STACK CFI f9264 .cfa: $rsp 32 +
STACK CFI INIT f92a0 1cd .cfa: $rsp 8 + .ra: .cfa -8 + ^
STACK CFI f92ad $r12: .cfa -16 + ^ $rbx: .cfa -32 + ^
STACK CFI f92b9 .cfa: $rsp 176 +
STACK CFI f92c7 $rbp: .cfa -24 + ^
STACK CFI INIT f9470 1a3 .cfa: $rsp 8 + .ra: .cfa -8 + ^
STACK CFI f9471 .cfa: $rsp 16 +
STACK CFI f9474 $rbp: .cfa -16 + ^ .cfa: $rbp 16 +
STACK CFI f947f $r13: .cfa -40 + ^ $r14: .cfa -32 + ^
STACK CFI f948a $r15: .cfa -24 + ^ $rbx: .cfa -56 + ^
STACK CFI f94a4 $r12: .cfa -48 + ^
STACK CFI INIT f9620 86 .cfa: $rsp 8 + .ra: .cfa -8 + ^
STACK CFI f9627 .cfa: $rsp 144 +
STACK CFI INIT f96b0 1d .cfa: $rsp 8 + .ra: .cfa -8 + ^
STACK CFI f96b4 .cfa: $rsp 32 +
STACK CFI INIT f96d0 ba .cfa: $rsp 8 + .ra: .cfa -8 + ^
STACK CFI f96d2 .cfa: $rsp 16 +
STACK CFI f96de $r15: .cfa -16 + ^
STACK CFI f96e0 .cfa: $rsp 24 +
STACK CFI f96e3 $r14: .cfa -24 + ^
STACK CFI f96e7 .cfa: $rsp 32 +
STACK CFI f96ea $r13: .cfa -32 + ^
STACK CFI f96ec .cfa: $rsp 40 +
STACK CFI f96ef $r12: .cfa -40 + ^
STACK CFI f96f5 .cfa: $rsp 48 +
STACK CFI f96f8 $rbp: .cfa -48 + ^
STACK CFI f96f9 .cfa: $rsp 56 +
STACK CFI f96fd .cfa: $rsp 128 +
STACK CFI f9713 $rbx: .cfa -56 + ^
STACK CFI INIT f9790 b .cfa: $rsp 8 + .ra: .cfa -8 + ^
STACK CFI INIT f97a0 1b9 .cfa: $rsp 8 + .ra: .cfa -8 + ^
STACK CFI f97ad $r13: .cfa -32 + ^ $rbx: .cfa -56 + ^
STACK CFI f97cb .cfa: $rsp 208 +
STACK CFI f97d1 $r12: .cfa -40 + ^ $r14: .cfa -24 + ^ $r15: .cfa -16 + ^ $rbp: .cfa -48 + ^
STACK CFI INIT f9960 a .cfa: $rsp 8 + .ra: .cfa -8 + ^
STACK CFI INIT f9970 a47 .cfa: $rsp 8 + .ra: .cfa -8 + ^
STACK CFI f9972 .cfa: $rsp 16 +
STACK CFI f9974 .cfa: $rsp 24 +
STACK CFI f9976 .cfa: $rsp 32 +
STACK CFI f9978 .cfa: $rsp 40 +
STACK CFI f997b $r12: .cfa -40 + ^ $r13: .cfa -32 + ^ $r14: .cfa -24 + ^ $r15: .cfa -16 + ^
STACK CFI f997c .cfa: $rsp 48 +
STACK CFI f997d .cfa: $rsp 56 +
STACK CFI f9984 .cfa: $rsp 704 +
STACK CFI f998c $rbp: .cfa -48 + ^ $rbx: .cfa -56 + ^
STACK CFI INIT fa3c0 18 .cfa: $rsp 8 + .ra: .cfa -8 + ^
STACK CFI fa3c4 .cfa: $rsp 32 +
STACK CFI INIT fa3e0 576 .cfa: $rsp 8 + .ra: .cfa -8 + ^
STACK CFI fa3e2 .cfa: $rsp 16 +
STACK CFI fa3e8 $r15: .cfa -16 + ^
STACK CFI fa3ee .cfa: $rsp 24 +
STACK CFI fa3f0 .cfa: $rsp 32 +
STACK CFI fa3f3 $r13: .cfa -32 + ^ $r14: .cfa -24 + ^
STACK CFI fa3f5 .cfa: $rsp 40 +
STACK CFI fa3f8 $r12: .cfa -40 + ^
STACK CFI fa3f9 .cfa: $rsp 48 +
STACK CFI fa3fa .cfa: $rsp 56 +
STACK CFI fa401 .cfa: $rsp 592 +
STACK CFI fa409 $rbp: .cfa -48 + ^ $rbx: .cfa -56 + ^
STACK CFI INIT fa960 15 .cfa: $rsp 8 + .ra: .cfa -8 + ^
STACK CFI fa964 .cfa: $rsp 32 +
STACK CFI INIT fa980 215 .cfa: $rsp 8 + .ra: .cfa -8 + ^
STACK CFI fa982 .cfa: $rsp 16 +
STACK CFI fa984 .cfa: $rsp 24 +
STACK CFI fa985 .cfa: $rsp 32 +
STACK CFI fa986 .cfa: $rsp 40 +
STACK CFI fa98a .cfa: $rsp 48 +
STACK CFI fa999 $r12: .cfa -24 + ^ $r13: .cfa -16 + ^ $rbp: .cfa -32 + ^ $rbx: .cfa -40 + ^
STACK CFI INIT faba0 472 .cfa: $rsp 8 + .ra: .cfa -8 + ^
STACK CFI faba1 .cfa: $rsp 16 +
STACK CFI faba4 $rbp: .cfa -16 + ^ .cfa: $rbp 16 +
STACK CFI fabab $r14: .cfa -32 + ^ $r15: .cfa -24 + ^
STACK CFI fabb3 $r12: .cfa -48 + ^ $r13: .cfa -40 + ^ $rbx: .cfa -56 + ^
STACK CFI INIT fb242 1f .cfa: $rsp -128 + .ra: $rip
STACK CFI fb250 .cfa: $rsp 0 +
STACK CFI fb254 .cfa: $rsp 128 +
STACK CFI fb25c .cfa: $rsp -128 +
STACK CFI INIT fb261 1f .cfa: $rsp -128 + .ra: $rip
STACK CFI fb26f .cfa: $rsp 0 +
STACK CFI fb273 .cfa: $rsp 128 +
STACK CFI fb27b .cfa: $rsp -128 +
STACK CFI INIT fb280 1f .cfa: $rsp -128 + .ra: $rip
STACK CFI fb28e .cfa: $rsp 0 +
STACK CFI fb292 .cfa: $rsp 128 +
STACK CFI fb29a .cfa: $rsp -128 +
STACK CFI INIT fb29f 1f .cfa: $rsp -128 + .ra: $rip
STACK CFI fb2ad .cfa: $rsp 0 +
STACK CFI fb2b1 .cfa: $rsp 128 +
STACK CFI fb2b9 .cfa: $rsp -128 +
STACK CFI INIT fb2be 1f .cfa: $rsp -128 + .ra: $rip
STACK CFI fb2cc .cfa: $rsp 0 +
STACK CFI fb2d0 .cfa: $rsp 128 +
STACK CFI fb2d8 .cfa: $rsp -128 +
STACK CFI INIT fb2dd 1f .cfa: $rsp -128 + .ra: $rip
STACK CFI fb2eb .cfa: $rsp 0 +
STACK CFI fb2ef .cfa: $rsp 128 +
STACK CFI fb2f7 .cfa: $rsp -128 +
STACK CFI INIT fb020 d2 .cfa: $rsp 8 + .ra: .cfa -8 + ^
STACK CFI fb024 .cfa: $rsp 80 +
STACK CFI INIT fb100 a0 .cfa: $rsp 8 + .ra: .cfa -8 + ^
STACK CFI fb104 .cfa: $rsp 16 +
STACK CFI INIT fb1a0 a2 .cfa: $rsp 8 + .ra: .cfa -8 + ^
STACK CFI fb1a4 .cfa: $rsp 32 +
STACK CFI INIT fb388 1c .cfa: $rsp -128 + .ra: $rip
STACK CFI fb396 .cfa: $rsp 0 +
STACK CFI fb39a .cfa: $rsp 128 +
STACK CFI fb3a2 .cfa: $rsp -128 +
STACK CFI INIT fb3a4 1c .cfa: $rsp -128 + .ra: $rip
STACK CFI fb3b2 .cfa: $rsp 0 +
STACK CFI fb3b6 .cfa: $rsp 128 +
STACK CFI fb3be .cfa: $rsp -128 +
STACK CFI INIT fb300 88 .cfa: $rsp 8 + .ra: .cfa -8 + ^
STACK CFI fb304 .cfa: $rsp 16 +
STACK CFI INIT fb4e5 1f .cfa: $rsp -128 + .ra: $rip
STACK CFI fb4f3 .cfa: $rsp 0 +
STACK CFI fb4f7 .cfa: $rsp 128 +
STACK CFI fb4ff .cfa: $rsp -128 +
STACK CFI INIT fb504 1c .cfa: $rsp -128 + .ra: $rip
STACK CFI fb512 .cfa: $rsp 0 +
STACK CFI fb516 .cfa: $rsp 128 +
STACK CFI fb51e .cfa: $rsp -128 +
STACK CFI INIT fb3c0 125 .cfa: $rsp 8 + .ra: .cfa -8 + ^
STACK CFI fb3c1 .cfa: $rsp 16 +
STACK CFI fb3c9 .cfa: $rsp 24 +
STACK CFI fb3cc $rbp: .cfa -16 + ^ $rbx: .cfa -24 + ^
STACK CFI fb3d0 .cfa: $rsp 48 +
STACK CFI INIT fb520 1ed .cfa: $rsp 8 + .ra: .cfa -8 + ^
STACK CFI fb522 .cfa: $rsp 16 +
STACK CFI fb525 $r15: .cfa -16 + ^
STACK CFI fb527 .cfa: $rsp 24 +
STACK CFI fb52a $r14: .cfa -24 + ^
STACK CFI fb52c .cfa: $rsp 32 +
STACK CFI fb52f $r13: .cfa -32 + ^
STACK CFI fb531 .cfa: $rsp 40 +
STACK CFI fb534 $r12: .cfa -40 + ^
STACK CFI fb535 .cfa: $rsp 48 +
STACK CFI fb536 .cfa: $rsp 56 +
STACK CFI fb53a .cfa: $rsp 112 +
STACK CFI fb54c $rbp: .cfa -48 + ^ $rbx: .cfa -56 + ^
STACK CFI INIT fb710 a .cfa: $rsp 8 + .ra: .cfa -8 + ^
STACK CFI INIT fb720 2c .cfa: $rsp 8 + .ra: .cfa -8 + ^
STACK CFI INIT fb750 a6 .cfa: $rsp 8 + .ra: .cfa -8 + ^
STACK CFI INIT fb800 bc .cfa: $rsp 8 + .ra: .cfa -8 + ^
STACK CFI INIT fb8c0 77 .cfa: $rsp 8 + .ra: .cfa -8 + ^
STACK CFI fb8ce .cfa: $rsp 32 +
STACK CFI fb8d1 $rbp: .cfa -16 + ^ $rbx: .cfa -24 + ^
STACK CFI INIT fb940 cb .cfa: $rsp 8 + .ra: .cfa -8 + ^
STACK CFI fb956 .cfa: $rsp 32 +
STACK CFI fb959 $r12: .cfa -16 + ^ $rbp: .cfa -24 + ^ $rbx: .cfa -32 + ^
STACK CFI INIT fba10 5 .cfa: $rsp 8 + .ra: .cfa -8 + ^
STACK CFI INIT fba20 42 .cfa: $rsp 8 + .ra: .cfa -8 + ^
STACK CFI fba21 .cfa: $rsp 16 +
STACK CFI fba26 $rbp: .cfa -16 + ^
STACK CFI fba27 .cfa: $rsp 24 +
STACK CFI fba2a $rbx: .cfa -24 + ^
STACK CFI fba2e .cfa: $rsp 32 +
STACK CFI INIT fba70 39 .cfa: $rsp 8 + .ra: .cfa -8 + ^
STACK CFI INIT fbab0 85 .cfa: $rsp 8 + .ra: .cfa -8 + ^
STACK CFI INIT fbb40 8f .cfa: $rsp 8 + .ra: .cfa -8 + ^
STACK CFI INIT fbbd0 39 .cfa: $rsp 8 + .ra: .cfa -8 + ^
STACK CFI fbbda $rbx: .cfa -24 + ^
STACK CFI fbbed .cfa: $rsp 32 +
STACK CFI fbbef $rbp: .cfa -16 + ^
STACK CFI INIT fbc10 35 .cfa: $rsp 8 + .ra: .cfa -8 + ^
STACK CFI fbc17 $rbx: .cfa -24 + ^
STACK CFI fbc23 .cfa: $rsp 32 +
STACK CFI fbc25 $rbp: .cfa -16 + ^
STACK CFI INIT fbc50 71 .cfa: $rsp 8 + .ra: .cfa -8 + ^
STACK CFI fbc54 .cfa: $rsp 16 +
STACK CFI fbc56 $rbx: .cfa -16 + ^
STACK CFI INIT fbcd0 101 .cfa: $rsp 8 + .ra: .cfa -8 + ^
STACK CFI fbcdc $rbp: .cfa -24 + ^ $rbx: .cfa -32 + ^
STACK CFI fbce5 .cfa: $rsp 48 +
STACK CFI fbced $r12: .cfa -16 + ^
STACK CFI INIT fbde0 1b .cfa: $rsp 8 + .ra: .cfa -8 + ^
STACK CFI INIT fbe00 1a .cfa: $rsp 8 + .ra: .cfa -8 + ^
STACK CFI INIT fbe20 2b .cfa: $rsp 8 + .ra: .cfa -8 + ^
STACK CFI INIT fbe50 d3 .cfa: $rsp 8 + .ra: .cfa -8 + ^
STACK CFI fbe51 .cfa: $rsp 16 +
STACK CFI fbe59 $rbp: .cfa -16 + ^
STACK CFI fbe5a .cfa: $rsp 24 +
STACK CFI fbe5d $rbx: .cfa -24 + ^
STACK CFI fbe61 .cfa: $rsp 48 +
STACK CFI INIT fbf30 46 .cfa: $rsp 8 + .ra: .cfa -8 + ^
STACK CFI INIT fbf80 5e .cfa: $rsp 8 + .ra: .cfa -8 + ^
STACK CFI fbf8e .cfa: $rsp 32 +
STACK CFI fbf93 $rbp: .cfa -16 + ^ $rbx: .cfa -24 + ^
STACK CFI INIT fbfe0 546 .cfa: $rsp 8 + .ra: .cfa -8 + ^
STACK CFI fbfe1 .cfa: $rsp 16 +
STACK CFI fbfe4 $rbp: .cfa -16 + ^ .cfa: $rbp 16 +
STACK CFI fbfee $r13: .cfa -40 + ^ $r14: .cfa -32 + ^ $r15: .cfa -24 + ^
STACK CFI fbff3 $r12: .cfa -48 + ^
STACK CFI fbff6 $rbx: .cfa -56 + ^
STACK CFI INIT fc530 f0 .cfa: $rsp 8 + .ra: .cfa -8 + ^
STACK CFI fc53d $rbp: .cfa -48 + ^ $rbx: .cfa -56 + ^
STACK CFI fc54a $r12: .cfa -40 + ^ $r13: .cfa -32 + ^
STACK CFI fc55b .cfa: $rsp 80 +
STACK CFI fc578 $r14: .cfa -24 + ^ $r15: .cfa -16 + ^
STACK CFI INIT fc620 3d0 .cfa: $rsp 8 + .ra: .cfa -8 + ^
STACK CFI fc621 .cfa: $rsp 16 +
STACK CFI fc624 $rbp: .cfa -16 + ^ .cfa: $rbp 16 +
STACK CFI fc629 $r15: .cfa -24 + ^
STACK CFI fc633 $r14: .cfa -32 + ^
STACK CFI fc63d $r12: .cfa -48 + ^ $r13: .cfa -40 + ^
STACK CFI fc658 $rbx: .cfa -56 + ^
STACK CFI INIT fc9f0 138 .cfa: $rsp 8 + .ra: .cfa -8 + ^
STACK CFI fc9f2 .cfa: $rsp 16 +
STACK CFI fc9f5 $r14: .cfa -16 + ^
STACK CFI fc9f7 .cfa: $rsp 24 +
STACK CFI fc9fa $r13: .cfa -24 + ^
STACK CFI fc9fc .cfa: $rsp 32 +
STACK CFI fc9ff $r12: .cfa -32 + ^
STACK CFI fca00 .cfa: $rsp 40 +
STACK CFI fca01 .cfa: $rsp 48 +
STACK CFI fca03 $rbp: .cfa -40 + ^ $rbx: .cfa -48 + ^
STACK CFI fca07 .cfa: $rsp 64 +
STACK CFI INIT fcb30 22 .cfa: $rsp 8 + .ra: .cfa -8 + ^
STACK CFI INIT fcb60 2 .cfa: $rsp 8 + .ra: .cfa -8 + ^
STACK CFI INIT fcb70 6 .cfa: $rsp 8 + .ra: .cfa -8 + ^
STACK CFI INIT fcb80 3 .cfa: $rsp 8 + .ra: .cfa -8 + ^
STACK CFI INIT fcb90 2 .cfa: $rsp 8 + .ra: .cfa -8 + ^
STACK CFI INIT fcba0 b0 .cfa: $rsp 8 + .ra: .cfa -8 + ^
STACK CFI fcba1 .cfa: $rsp 16 +
STACK CFI fcbac .cfa: $rsp 64 +
STACK CFI fcc03 $rbx: .cfa -16 + ^
STACK CFI INIT fcc50 66 .cfa: $rsp 8 + .ra: .cfa -8 + ^
STACK CFI fcc54 .cfa: $rsp 16 +
STACK CFI INIT fccc0 2 .cfa: $rsp 8 + .ra: .cfa -8 + ^
STACK CFI INIT fccd0 1e .cfa: $rsp 8 + .ra: .cfa -8 + ^
STACK CFI INIT fccf0 13e .cfa: $rsp 8 + .ra: .cfa -8 + ^
STACK CFI fccf1 .cfa: $rsp 16 +
STACK CFI fccf9 $rbp: .cfa -16 + ^ .cfa: $rbp 16 +
STACK CFI fcd04 $r14: .cfa -32 + ^ $r15: .cfa -24 + ^
STACK CFI fcd13 $r12: .cfa -48 + ^ $r13: .cfa -40 + ^ $rbx: .cfa -56 + ^
STACK CFI INIT fce30 59 .cfa: $rsp 8 + .ra: .cfa -8 + ^
STACK CFI fce3e .cfa: $rsp 32 +
STACK CFI fce42 $rbp: .cfa -16 + ^ $rbx: .cfa -24 + ^
STACK CFI INIT fce90 b5 .cfa: $rsp 8 + .ra: .cfa -8 + ^
STACK CFI fcea5 .cfa: $rsp 80 +
STACK CFI fcea9 $r12: .cfa -16 + ^ $rbp: .cfa -24 + ^ $rbx: .cfa -32 + ^
STACK CFI INIT fcf50 225 .cfa: $rsp 8 + .ra: .cfa -8 + ^
STACK CFI fcf5d $rbp: .cfa -48 + ^ $rbx: .cfa -56 + ^
STACK CFI fcf7d .cfa: $rsp 592 +
STACK CFI fcf82 $r12: .cfa -40 + ^ $r13: .cfa -32 + ^ $r14: .cfa -24 + ^ $r15: .cfa -16 + ^
STACK CFI INIT fd180 136 .cfa: $rsp 8 + .ra: .cfa -8 + ^
STACK CFI fd18d $r12: .cfa -32 + ^ $r13: .cfa -24 + ^
STACK CFI fd1a6 .cfa: $rsp 160 +
STACK CFI fd1aa $r14: .cfa -16 + ^ $rbp: .cfa -40 + ^ $rbx: .cfa -48 + ^
STACK CFI INIT fd2c0 db .cfa: $rsp 8 + .ra: .cfa -8 + ^
STACK CFI fd2cd $rbp: .cfa -32 + ^ $rbx: .cfa -40 + ^
STACK CFI fd2db .cfa: $rsp 96 +
STACK CFI fd2e0 $r12: .cfa -24 + ^ $r13: .cfa -16 + ^
STACK CFI INIT fd3a0 91 .cfa: $rsp 8 + .ra: .cfa -8 + ^
STACK CFI fd3ae .cfa: $rsp 32 +
STACK CFI fd3b1 $rbp: .cfa -16 + ^ $rbx: .cfa -24 + ^
STACK CFI INIT fd440 400 .cfa: $rsp 8 + .ra: .cfa -8 + ^
STACK CFI fd442 .cfa: $rsp 16 +
STACK CFI fd444 .cfa: $rsp 24 +
STACK CFI fd446 .cfa: $rsp 32 +
STACK CFI fd448 .cfa: $rsp 40 +
STACK CFI fd449 .cfa: $rsp 48 +
STACK CFI fd44c $r12: .cfa -40 + ^ $r13: .cfa -32 + ^ $r14: .cfa -24 + ^ $r15: .cfa -16 + ^ $rbp: .cfa -48 + ^
STACK CFI fd44d .cfa: $rsp 56 +
STACK CFI fd44f $rbx: .cfa -56 + ^
STACK CFI fd453 .cfa: $rsp 144 +
STACK CFI INIT fd840 2b0 .cfa: $rsp 8 + .ra: .cfa -8 + ^
STACK CFI fd841 .cfa: $rsp 16 +
STACK CFI fd844 $rbp: .cfa -16 + ^ .cfa: $rbp 16 +
STACK CFI fd84f $r12: .cfa -48 + ^ $r13: .cfa -40 + ^ $r14: .cfa -32 + ^ $r15: .cfa -24 + ^
STACK CFI fd887 $rbx: .cfa -56 + ^
STACK CFI INIT 1366e0 19 .cfa: $rsp 8 + .ra: .cfa -8 + ^
STACK CFI 1366e4 .cfa: $rsp 16 +
STACK CFI INIT fdaf0 66 .cfa: $rsp 8 + .ra: .cfa -8 + ^
STACK CFI INIT fdb60 fa .cfa: $rsp 8 + .ra: .cfa -8 + ^
STACK CFI fdb6d $rbp: .cfa -32 + ^ $rbx: .cfa -40 + ^
STACK CFI fdb7e $r12: .cfa -24 + ^ $r13: .cfa -16 + ^ .cfa: $rsp 1088 +
STACK CFI INIT fdc60 20 .cfa: $rsp 8 + .ra: .cfa -8 + ^
STACK CFI fdc64 .cfa: $rsp 16 +
STACK CFI INIT fdc80 20 .cfa: $rsp 8 + .ra: .cfa -8 + ^
STACK CFI fdc84 .cfa: $rsp 16 +
STACK CFI INIT fdca0 29d .cfa: $rsp 8 + .ra: .cfa -8 + ^
STACK CFI fdcad $rbp: .cfa -32 + ^ $rbx: .cfa -40 + ^
STACK CFI fdcbe .cfa: $rsp 1104 +
STACK CFI fdcca $r12: .cfa -24 + ^ $r13: .cfa -16 + ^
STACK CFI INIT fdf40 20 .cfa: $rsp 8 + .ra: .cfa -8 + ^
STACK CFI fdf44 .cfa: $rsp 16 +
STACK CFI INIT fdf60 2 .cfa: $rsp 8 + .ra: .cfa -8 + ^
STACK CFI INIT fdf70 2 .cfa: $rsp 8 + .ra: .cfa -8 + ^
STACK CFI INIT fdf80 3 .cfa: $rsp 8 + .ra: .cfa -8 + ^
STACK CFI INIT fdf90 2 .cfa: $rsp 8 + .ra: .cfa -8 + ^
STACK CFI INIT fdfa0 64 .cfa: $rsp 8 + .ra: .cfa -8 + ^
STACK CFI fdfae .cfa: $rsp 32 +
STACK CFI fdfb1 $rbp: .cfa -16 + ^ $rbx: .cfa -24 + ^
STACK CFI INIT fe010 14e .cfa: $rsp 8 + .ra: .cfa -8 + ^
STACK CFI fe027 $r13: .cfa -24 + ^ $r14: .cfa -16 + ^ $rbp: .cfa -40 + ^ $rbx: .cfa -48 + ^
STACK CFI fe033 .cfa: $rsp 144 +
STACK CFI fe036 $r12: .cfa -32 + ^
STACK CFI INIT fe160 22f .cfa: $rsp 8 + .ra: .cfa -8 + ^
STACK CFI fe162 .cfa: $rsp 16 +
STACK CFI fe164 .cfa: $rsp 24 +
STACK CFI fe166 .cfa: $rsp 32 +
STACK CFI fe168 .cfa: $rsp 40 +
STACK CFI fe169 .cfa: $rsp 48 +
STACK CFI fe16c $r12: .cfa -40 + ^ $r13: .cfa -32 + ^ $r14: .cfa -24 + ^ $r15: .cfa -16 + ^ $rbp: .cfa -48 + ^
STACK CFI fe16d .cfa: $rsp 56 +
STACK CFI fe170 $rbx: .cfa -56 + ^
STACK CFI fe177 .cfa: $rsp 256 +
STACK CFI INIT fe390 32 .cfa: $rsp 8 + .ra: .cfa -8 + ^
STACK CFI fe391 $rbx: .cfa -16 + ^ .cfa: $rsp 16 +
STACK CFI INIT fe3d0 313 .cfa: $rsp 8 + .ra: .cfa -8 + ^
STACK CFI fe3d1 .cfa: $rsp 16 +
STACK CFI fe3d4 $rbp: .cfa -16 + ^ .cfa: $rbp 16 +
STACK CFI fe3df $r12: .cfa -48 + ^ $r13: .cfa -40 + ^ $r14: .cfa -32 + ^ $r15: .cfa -24 + ^
STACK CFI fe40a $rbx: .cfa -56 + ^
STACK CFI INIT fe6f0 1c .cfa: $rsp 8 + .ra: .cfa -8 + ^
STACK CFI INIT fe710 19 .cfa: $rsp 8 + .ra: .cfa -8 + ^
STACK CFI INIT fe730 2 .cfa: $rsp 8 + .ra: .cfa -8 + ^
STACK CFI INIT fe740 131 .cfa: $rsp 8 + .ra: .cfa -8 + ^
STACK CFI INIT fe880 59 .cfa: $rsp 8 + .ra: .cfa -8 + ^
STACK CFI fe88e .cfa: $rsp 32 +
STACK CFI fe892 $rbp: .cfa -16 + ^ $rbx: .cfa -24 + ^
STACK CFI INIT fe8e0 2e0 .cfa: $rsp 8 + .ra: .cfa -8 + ^
STACK CFI fe8ed $rbp: .cfa -48 + ^ $rbx: .cfa -56 + ^
STACK CFI fe90d .cfa: $rsp 176 +
STACK CFI fe910 $r12: .cfa -40 + ^ $r13: .cfa -32 + ^ $r14: .cfa -24 + ^ $r15: .cfa -16 + ^
STACK CFI INIT febc0 2f2 .cfa: $rsp 8 + .ra: .cfa -8 + ^
STACK CFI febc2 .cfa: $rsp 16 +
STACK CFI febc4 .cfa: $rsp 24 +
STACK CFI febc6 .cfa: $rsp 32 +
STACK CFI febc8 .cfa: $rsp 40 +
STACK CFI febc9 .cfa: $rsp 48 +
STACK CFI febca .cfa: $rsp 56 +
STACK CFI febcd $r12: .cfa -40 + ^ $r13: .cfa -32 + ^ $r14: .cfa -24 + ^ $r15: .cfa -16 + ^ $rbp: .cfa -48 + ^ $rbx: .cfa -56 + ^
STACK CFI febd4 .cfa: $rsp 240 +
STACK CFI INIT feec0 69 .cfa: $rsp 8 + .ra: .cfa -8 + ^
STACK CFI feec2 .cfa: $rsp 16 +
STACK CFI feec5 $r13: .cfa -16 + ^
STACK CFI feec7 .cfa: $rsp 24 +
STACK CFI feeca $r12: .cfa -24 + ^
STACK CFI feecb .cfa: $rsp 32 +
STACK CFI feece $rbp: .cfa -32 + ^
STACK CFI feecf .cfa: $rsp 40 +
STACK CFI feed3 .cfa: $rsp 48 +
STACK CFI feed7 $rbx: .cfa -40 + ^
STACK CFI INIT fef30 11e .cfa: $rsp 8 + .ra: .cfa -8 + ^
STACK CFI fef3c $rbp: .cfa -40 + ^ $rbx: .cfa -48 + ^
STACK CFI fef59 .cfa: $rsp 64 +
STACK CFI fef67 $r12: .cfa -32 + ^ $r13: .cfa -24 + ^ $r14: .cfa -16 + ^
STACK CFI INIT ff050 2f .cfa: $rsp 8 + .ra: .cfa -8 + ^
STACK CFI ff054 .cfa: $rsp 64 +
STACK CFI INIT ff080 2f .cfa: $rsp 8 + .ra: .cfa -8 + ^
STACK CFI ff084 .cfa: $rsp 64 +
STACK CFI INIT ff0b0 1c .cfa: $rsp 8 + .ra: .cfa -8 + ^
STACK CFI INIT ff0d0 19 .cfa: $rsp 8 + .ra: .cfa -8 + ^
STACK CFI INIT ff0f0 2 .cfa: $rsp 8 + .ra: .cfa -8 + ^
STACK CFI INIT ff100 178 .cfa: $rsp 8 + .ra: .cfa -8 + ^
STACK CFI INIT ff280 3e9 .cfa: $rsp 8 + .ra: .cfa -8 + ^
STACK CFI ff28d $rbp: .cfa -48 + ^ $rbx: .cfa -56 + ^
STACK CFI ff2ad .cfa: $rsp 240 +
STACK CFI ff2b9 $r12: .cfa -40 + ^ $r13: .cfa -32 + ^ $r14: .cfa -24 + ^ $r15: .cfa -16 + ^
STACK CFI INIT ff670 59 .cfa: $rsp 8 + .ra: .cfa -8 + ^
STACK CFI ff67e .cfa: $rsp 32 +
STACK CFI ff682 $rbp: .cfa -16 + ^ $rbx: .cfa -24 + ^
STACK CFI INIT ff6d0 702 .cfa: $rsp 8 + .ra: .cfa -8 + ^
STACK CFI ff6d1 .cfa: $rsp 16 +
STACK CFI ff6d4 $rbp: .cfa -16 + ^ .cfa: $rbp 16 +
STACK CFI ff6d9 $r15: .cfa -24 + ^
STACK CFI ff6eb $r12: .cfa -48 + ^ $r13: .cfa -40 + ^ $r14: .cfa -32 + ^ $rbx: .cfa -56 + ^
STACK CFI INIT ffde0 1e .cfa: $rsp 8 + .ra: .cfa -8 + ^
STACK CFI ffde4 .cfa: $rsp 16 +
STACK CFI INIT ffe00 9f .cfa: $rsp 8 + .ra: .cfa -8 + ^
STACK CFI ffe01 .cfa: $rsp 16 +
STACK CFI ffe04 $rbx: .cfa -16 + ^
STACK CFI ffe08 .cfa: $rsp 32 +
STACK CFI INIT ffea0 f4 .cfa: $rsp 8 + .ra: .cfa -8 + ^
STACK CFI ffea1 .cfa: $rsp 16 +
STACK CFI ffea4 $rbp: .cfa -16 + ^ .cfa: $rbp 16 +
STACK CFI ffeaa $r15: .cfa -24 + ^
STACK CFI ffeb0 $r14: .cfa -32 + ^
STACK CFI ffeb6 $r13: .cfa -40 + ^
STACK CFI ffebb $r12: .cfa -48 + ^
STACK CFI ffec1 $rbx: .cfa -56 + ^
STACK CFI INIT fffa0 a7 .cfa: $rsp 8 + .ra: .cfa -8 + ^
STACK CFI fffa1 .cfa: $rsp 16 +
STACK CFI fffa2 .cfa: $rsp 24 +
STACK CFI fffa5 $rbp: .cfa -16 + ^ $rbx: .cfa -24 + ^
STACK CFI fffa9 .cfa: $rsp 48 +
STACK CFI INIT 100050 f8 .cfa: $rsp 8 + .ra: .cfa -8 + ^
STACK CFI 10005d $rbp: .cfa -24 + ^ $rbx: .cfa -32 + ^
STACK CFI 100066 .cfa: $rsp 112 +
STACK CFI 100069 $r12: .cfa -16 + ^
STACK CFI INIT 100150 145 .cfa: $rsp 8 + .ra: .cfa -8 + ^
STACK CFI 10015d $rbp: .cfa -40 + ^ $rbx: .cfa -48 + ^
STACK CFI 10016a $r12: .cfa -32 + ^ $r13: .cfa -24 + ^
STACK CFI 100173 .cfa: $rsp 128 +
STACK CFI 10017e $r14: .cfa -16 + ^
STACK CFI INIT 1002a0 10d .cfa: $rsp 8 + .ra: .cfa -8 + ^
STACK CFI 1002ad $rbp: .cfa -24 + ^ $rbx: .cfa -32 + ^
STACK CFI 1002b6 .cfa: $rsp 80 +
STACK CFI 1002c5 $r12: .cfa -16 + ^
STACK CFI INIT 1003b0 7e .cfa: $rsp 8 + .ra: .cfa -8 + ^
STACK CFI 1003b1 .cfa: $rsp 16 +
STACK CFI 1003b9 $rbp: .cfa -16 + ^
STACK CFI 1003c4 .cfa: $rsp 24 +
STACK CFI 1003c8 $rbx: .cfa -24 + ^ .cfa: $rsp 48 +
STACK CFI INIT 100430 1e3 .cfa: $rsp 8 + .ra: .cfa -8 + ^
STACK CFI 10043d $r12: .cfa -40 + ^ $rbp: .cfa -48 + ^
STACK CFI 10044a $r13: .cfa -32 + ^ $r15: .cfa -16 + ^
STACK CFI 10045b .cfa: $rsp 176 +
STACK CFI 100484 $r14: .cfa -24 + ^ $rbx: .cfa -56 + ^
STACK CFI INIT 100620 11 .cfa: $rsp 8 + .ra: .cfa -8 + ^
STACK CFI INIT 100640 6a .cfa: $rsp 8 + .ra: .cfa -8 + ^
STACK CFI 10064e .cfa: $rsp 32 +
STACK CFI 100651 $rbp: .cfa -16 + ^ $rbx: .cfa -24 + ^
STACK CFI INIT 1006b0 c2 .cfa: $rsp 8 + .ra: .cfa -8 + ^
STACK CFI 1006b2 .cfa: $rsp 16 +
STACK CFI 1006b4 .cfa: $rsp 24 +
STACK CFI 1006b6 .cfa: $rsp 32 +
STACK CFI 1006b9 $r12: .cfa -32 + ^ $r13: .cfa -24 + ^ $r14: .cfa -16 + ^
STACK CFI 1006ba .cfa: $rsp 40 +
STACK CFI 1006bd $rbp: .cfa -40 + ^
STACK CFI 1006be .cfa: $rsp 48 +
STACK CFI 1006c1 $rbx: .cfa -48 + ^
STACK CFI 1006c5 .cfa: $rsp 64 +
STACK CFI INIT 100780 654 .cfa: $rsp 8 + .ra: .cfa -8 + ^
STACK CFI 100782 .cfa: $rsp 16 +
STACK CFI 100785 $r15: .cfa -16 + ^
STACK CFI 100787 .cfa: $rsp 24 +
STACK CFI 10078a $r14: .cfa -24 + ^
STACK CFI 10078c .cfa: $rsp 32 +
STACK CFI 10078f $r13: .cfa -32 + ^
STACK CFI 100791 .cfa: $rsp 40 +
STACK CFI 100792 .cfa: $rsp 48 +
STACK CFI 100793 .cfa: $rsp 56 +
STACK CFI 10079a .cfa: $rsp 10752 +
STACK CFI 1007a9 $r12: .cfa -40 + ^ $rbp: .cfa -48 + ^ $rbx: .cfa -56 + ^
STACK CFI INIT 100de0 109 .cfa: $rsp 8 + .ra: .cfa -8 + ^
STACK CFI 100ded $rbp: .cfa -40 + ^ $rbx: .cfa -48 + ^
STACK CFI 100e03 $r12: .cfa -32 + ^ $r13: .cfa -24 + ^ $r14: .cfa -16 + ^ .cfa: $rsp 64 +
