MODULE Linux x86_64 7B7D1968FF0D47AE4366E9C3A7E1B6750 null_read_av
FUNC 1c10 1a 0 __gnu_cxx::__exchange_and_add_dispatch
FUNC 1c2a 1a 0 __gnu_cxx::__exchange_and_add_dispatch
FUNC 1c44 27 0 sys_close
FUNC 1c6c 20 0 google_breakpad::ProcCpuInfoReader::GetValueAndLen(unsigned long*)
FUNC 1c8c 20 0 google_breakpad::TypedMDRVA<MDRawDirectory>::CopyIndex(unsigned int, MDRawDirectory*)
FUNC 1cac 20 0 google_breakpad::TypedMDRVA<unsigned int>::AllocateObjectAndArray(unsigned long, unsigned long)
FUNC 1ccc 20 0 google_breakpad::TypedMDRVA<unsigned int>::CopyIndexAfterObject(unsigned int, void const*, unsigned long)
FUNC 1cec 1ac 0 MinidumpWriter::WriteFile
FUNC 1e98 3f 0 MinidumpWriter::WriteProcFile
FUNC 1ed8 20 0 google_breakpad::TypedMDRVA<MDString>::CopyIndexAfterObject(unsigned int, void const*, unsigned long)
FUNC 1ef8 20 0 google_breakpad::TypedMDRVA<MDString>::AllocateObjectAndArray(unsigned long, unsigned long)
FUNC 1f18 20 0 google_breakpad::LineReader::PopLine(unsigned int)
FUNC 1f40 f3 0 main
FUNC 2140 2c 0 MinidumpCallback(google_breakpad::MinidumpDescriptor const&, void*, bool)
FUNC 2170 8 0 crash()
FUNC 2180 90 0 google_breakpad::MinidumpDescriptor::~MinidumpDescriptor()
FUNC 2210 f5 0 google_breakpad::ExceptionHandler::InstallHandlersLocked()
FUNC 2310 8b 0 google_breakpad::ExceptionHandler::RestoreHandlersLocked()
FUNC 23a0 104 0 google_breakpad::ExceptionHandler::SendContinueSignalToChild()
FUNC 24b0 477 0 google_breakpad::ExceptionHandler::GenerateDump(google_breakpad::ExceptionHandler::CrashContext*)
FUNC 2930 19c 0 google_breakpad::ExceptionHandler::HandleSignal(int, siginfo*, void*)
FUNC 2ad0 68 0 google_breakpad::ExceptionHandler::HandleSignal(int, siginfo*, void*)
FUNC 2b40 56 0 google_breakpad::ExceptionHandler::SimulateSignalDelivery(int)
FUNC 2ba0 18b 0 google_breakpad::ExceptionHandler::SignalHandler(int, siginfo*, void*)
FUNC 2d30 e0 0 google_breakpad::ExceptionHandler::WaitForContinueSignal()
FUNC 2e10 58 0 google_breakpad::ExceptionHandler::DoDump(int, void const*, unsigned long)
FUNC 2e70 28 0 google_breakpad::ExceptionHandler::ThreadEntry(void*)
FUNC 2ea0 163 0 google_breakpad::ExceptionHandler::WriteMinidump()
FUNC 3010 cf 0 google_breakpad::ExceptionHandler::AddMappingInfo(std::string const&, unsigned char const*, unsigned long, unsigned long, unsigned long)
FUNC 30e0 5d 0 google_breakpad::ExceptionHandler::RegisterAppMemory(void*, unsigned long)
FUNC 3140 31 0 google_breakpad::ExceptionHandler::UnregisterAppMemory(void*)
FUNC 3180 179 0 google_breakpad::ExceptionHandler::WriteMinidumpForChild(int, int, std::string const&, bool (*)(google_breakpad::MinidumpDescriptor const&, void*, bool), void*)
FUNC 3300 336 0 google_breakpad::ExceptionHandler::~ExceptionHandler()
FUNC 3640 31c 0 google_breakpad::ExceptionHandler::ExceptionHandler(google_breakpad::MinidumpDescriptor const&, bool (*)(void*), bool (*)(google_breakpad::MinidumpDescriptor const&, void*, bool), void*, bool, int)
FUNC 3960 167 0 google_breakpad::ExceptionHandler::WriteMinidump(std::string const&, bool (*)(google_breakpad::MinidumpDescriptor const&, void*, bool), void*)
FUNC 3ad0 2f 0 std::_List_base<google_breakpad::MappingEntry, std::allocator<google_breakpad::MappingEntry> >::_M_clear()
FUNC 3b00 2f 0 std::_List_base<google_breakpad::AppMemory, std::allocator<google_breakpad::AppMemory> >::_M_clear()
FUNC 3b30 1ba 0 std::vector<google_breakpad::ExceptionHandler*, std::allocator<google_breakpad::ExceptionHandler*> >::_M_insert_aux(__gnu_cxx::__normal_iterator<google_breakpad::ExceptionHandler**, std::vector<google_breakpad::ExceptionHandler*, std::allocator<google_breakpad::ExceptionHandler*> > >, google_breakpad::ExceptionHandler* const&)
FUNC 3cf0 7d 0 google_breakpad::MinidumpDescriptor::MinidumpDescriptor(google_breakpad::MinidumpDescriptor const&)
FUNC 3d70 232 0 google_breakpad::MinidumpDescriptor::UpdatePath()
FUNC 3fb0 85 0 google_breakpad::MinidumpDescriptor::operator=(google_breakpad::MinidumpDescriptor const&)
FUNC 4040 38 0 logger::write(char const*, unsigned long)
FUNC 4080 5d 0 MinidumpWriter::~MinidumpWriter
FUNC 40e0 1e 0 google_breakpad::TypedMDRVA<MDRawDirectory>::CopyIndex(unsigned int, MDRawDirectory*)
FUNC 4100 15e5 0 MinidumpWriter::WriteThreadListStream
FUNC 56f0 1d12 0 MinidumpWriter::Dump
FUNC 7410 1ac 0 google_breakpad::WriteMinidump(char const*, std::list<google_breakpad::MappingEntry, std::allocator<google_breakpad::MappingEntry> > const&, std::list<google_breakpad::AppMemory, std::allocator<google_breakpad::AppMemory> > const&, google_breakpad::LinuxDumper*)
FUNC 75c0 2ce 0 WriteMinidumpImpl
FUNC 7890 2b 0 google_breakpad::WriteMinidump(int, long, int, void const*, unsigned long, std::list<google_breakpad::MappingEntry, std::allocator<google_breakpad::MappingEntry> > const&, std::list<google_breakpad::AppMemory, std::allocator<google_breakpad::AppMemory> > const&)
FUNC 78c0 2c 0 google_breakpad::WriteMinidump(char const*, long, int, void const*, unsigned long, std::list<google_breakpad::MappingEntry, std::allocator<google_breakpad::MappingEntry> > const&, std::list<google_breakpad::AppMemory, std::allocator<google_breakpad::AppMemory> > const&)
FUNC 78f0 2a 0 google_breakpad::WriteMinidump(int, int, void const*, unsigned long, std::list<google_breakpad::MappingEntry, std::allocator<google_breakpad::MappingEntry> > const&, std::list<google_breakpad::AppMemory, std::allocator<google_breakpad::AppMemory> > const&)
FUNC 7920 2b 0 google_breakpad::WriteMinidump(char const*, int, void const*, unsigned long, std::list<google_breakpad::MappingEntry, std::allocator<google_breakpad::MappingEntry> > const&, std::list<google_breakpad::AppMemory, std::allocator<google_breakpad::AppMemory> > const&)
FUNC 7950 9a 0 google_breakpad::WriteMinidump(int, int, void const*, unsigned long)
FUNC 79f0 9b 0 google_breakpad::WriteMinidump(char const*, int, void const*, unsigned long)
FUNC 7a90 26a 0 google_breakpad::WriteMinidump(char const*, int, int)
FUNC 7d00 153 0 google_breakpad::PageAllocator::Alloc(unsigned int)
FUNC 7e60 248 0 google_breakpad::ProcCpuInfoReader::GetNextField(char const**)
FUNC 80b0 22 0 google_breakpad::TypedMDRVA<unsigned int>::~TypedMDRVA()
FUNC 80e0 22 0 google_breakpad::TypedMDRVA<MDRawContextAMD64>::~TypedMDRVA()
FUNC 8110 22 0 google_breakpad::TypedMDRVA<MDRawLinkMap>::~TypedMDRVA()
FUNC 8140 22 0 google_breakpad::TypedMDRVA<MDRawDebug>::~TypedMDRVA()
FUNC 8170 229 0 std::vector<MDMemoryDescriptor, google_breakpad::PageStdAllocator<MDMemoryDescriptor> >::reserve(unsigned long)
FUNC 83a0 357 0 std::vector<MDMemoryDescriptor, google_breakpad::PageStdAllocator<MDMemoryDescriptor> >::_M_insert_aux(__gnu_cxx::__normal_iterator<MDMemoryDescriptor*, std::vector<MDMemoryDescriptor, google_breakpad::PageStdAllocator<MDMemoryDescriptor> > >, MDMemoryDescriptor const&)
FUNC 8700 17f 0 char* std::vector<char, google_breakpad::PageStdAllocator<char> >::_M_allocate_and_copy<char*>(unsigned long, char*, char*)
FUNC 8880 3cd 0 std::vector<char, google_breakpad::PageStdAllocator<char> >::_M_fill_insert(__gnu_cxx::__normal_iterator<char*, std::vector<char, google_breakpad::PageStdAllocator<char> > >, unsigned long, char const&)
FUNC 8c50 1a 0 google_breakpad::MinidumpFileWriter::MinidumpFileWriter()
FUNC 8c70 87 0 google_breakpad::MinidumpFileWriter::Open(char const*)
FUNC 8d00 2c 0 google_breakpad::MinidumpFileWriter::SetFile(int)
FUNC 8d30 78 0 google_breakpad::MinidumpFileWriter::Close()
FUNC 8db0 15 0 google_breakpad::MinidumpFileWriter::~MinidumpFileWriter()
FUNC 8dd0 d6 0 google_breakpad::MinidumpFileWriter::Allocate(unsigned long)
FUNC 8eb0 fa 0 google_breakpad::MinidumpFileWriter::Copy(unsigned int, void const*, long)
FUNC 8fb0 a8 0 google_breakpad::MinidumpFileWriter::CopyStringToMDString(wchar_t const*, unsigned int, google_breakpad::TypedMDRVA<MDString>*)
FUNC 9060 aa 0 google_breakpad::MinidumpFileWriter::CopyStringToMDString(char const*, unsigned int, google_breakpad::TypedMDRVA<MDString>*)
FUNC 9110 41 0 google_breakpad::UntypedMDRVA::Allocate(unsigned long)
FUNC 9160 88 0 google_breakpad::UntypedMDRVA::Copy(unsigned int, void const*, unsigned long)
FUNC 91f0 c4 0 google_breakpad::MinidumpFileWriter::WriteMemory(void const*, unsigned long, MDMemoryDescriptor*)
FUNC 92c0 5 0 google_breakpad::MinidumpFileWriter::WriteString(char const*, unsigned int, MDLocationDescriptor*)
FUNC 92d0 5 0 google_breakpad::MinidumpFileWriter::WriteString(wchar_t const*, unsigned int, MDLocationDescriptor*)
FUNC 92e0 22 0 google_breakpad::TypedMDRVA<MDString>::~TypedMDRVA()
FUNC 9310 1e8 0 bool google_breakpad::MinidumpFileWriter::WriteStringCore<char>(char const*, unsigned int, MDLocationDescriptor*)
FUNC 9500 1e8 0 bool google_breakpad::MinidumpFileWriter::WriteStringCore<wchar_t>(wchar_t const*, unsigned int, MDLocationDescriptor*)
FUNC 96f0 78 0 google_breakpad::UTF8ToUTF16Char(char const*, int, unsigned short*)
FUNC 9770 56 0 google_breakpad::UTF32ToUTF16Char(wchar_t, unsigned short*)
FUNC 97d0 147 0 google_breakpad::UTF16ToUTF8(std::vector<unsigned short, std::allocator<unsigned short> > const&, bool)
FUNC 9920 e3 0 google_breakpad::UTF8ToUTF16(char const*, std::vector<unsigned short, std::allocator<unsigned short> >*)
FUNC 9a10 e3 0 google_breakpad::UTF32ToUTF16(wchar_t const*, std::vector<unsigned short, std::allocator<unsigned short> >*)
FUNC 9b00 295 0 std::vector<unsigned short, std::allocator<unsigned short> >::_M_fill_insert(__gnu_cxx::__normal_iterator<unsigned short*, std::vector<unsigned short, std::allocator<unsigned short> > >, unsigned long, unsigned short const&)
FUNC 9da0 73 0 CreateGUID(MDGUID*)
FUNC 9e20 ad 0 GUIDToString(MDGUID const*, char*, int)
FUNC 9ed0 16 0 GUIDGenerator::InitOnceImpl()
FUNC 9ef0 1e 0 my_strlen
FUNC 9f10 33 0 my_strcmp
FUNC 9f50 56 0 my_strncmp
FUNC 9fb0 54 0 my_strtoui
FUNC a010 36 0 my_uint_len
FUNC a050 43 0 my_uitos
FUNC a0a0 42 0 my_strchr
FUNC a0f0 26 0 my_strrchr
FUNC a120 32 0 my_memchr
FUNC a160 64 0 my_read_hex_ptr
FUNC a1d0 3a 0 my_read_decimal_ptr
FUNC a210 1e 0 my_memset
FUNC a230 38 0 my_strlcpy
FUNC a270 3e 0 my_strlcat
FUNC a2b0 4e 0 my_isspace
FUNC a300 1aa 0 google_breakpad::CrashGenerationClient::RequestDump(void const*, unsigned long)
FUNC a4b0 1c 0 google_breakpad::CrashGenerationClient::TryCreate(int)
FUNC a4d0 67 0 google_breakpad::LinuxDumper::~LinuxDumper()
FUNC a540 12 0 google_breakpad::LinuxDumper::~LinuxDumper()
FUNC a560 105 0 google_breakpad::LinuxDumper::ReadAuxv()
FUNC a670 32 0 google_breakpad::LinuxDumper::Init()
FUNC a6b0 4c 0 google_breakpad::LinuxDumper::FindMapping(void const*) const
FUNC a700 94 0 google_breakpad::LinuxDumper::GetStackInfo(void const**, unsigned long*, unsigned long)
FUNC a7a0 1fd 0 google_breakpad::LinuxDumper::HandleDeletedFileInMapping(char*) const
FUNC a9a0 35d 0 google_breakpad::LinuxDumper::ElfFileIdentifierForMapping(google_breakpad::MappingInfo const&, bool, unsigned int, unsigned char*)
FUNC ad00 1a9 0 google_breakpad::LinuxDumper::LinuxDumper(int)
FUNC aeb0 7b2 0 google_breakpad::LinuxDumper::EnumerateMappings()
FUNC b670 221 0 std::vector<int, google_breakpad::PageStdAllocator<int> >::reserve(unsigned long)
FUNC b8a0 229 0 std::vector<google_breakpad::MappingInfo*, google_breakpad::PageStdAllocator<google_breakpad::MappingInfo*> >::reserve(unsigned long)
FUNC bad0 229 0 std::vector<unsigned long, google_breakpad::PageStdAllocator<unsigned long> >::reserve(unsigned long)
FUNC bd00 320 0 std::vector<google_breakpad::MappingInfo*, google_breakpad::PageStdAllocator<google_breakpad::MappingInfo*> >::_M_insert_aux(__gnu_cxx::__normal_iterator<google_breakpad::MappingInfo**, std::vector<google_breakpad::MappingInfo*, google_breakpad::PageStdAllocator<google_breakpad::MappingInfo*> > >, google_breakpad::MappingInfo* const&)
FUNC c020 460 0 std::vector<unsigned long, google_breakpad::PageStdAllocator<unsigned long> >::_M_fill_insert(__gnu_cxx::__normal_iterator<unsigned long*, std::vector<unsigned long, google_breakpad::PageStdAllocator<unsigned long> > >, unsigned long, unsigned long const&)
FUNC c480 43f 0 std::vector<google_breakpad::MappingInfo*, google_breakpad::PageStdAllocator<google_breakpad::MappingInfo*> >::_M_fill_insert(__gnu_cxx::__normal_iterator<google_breakpad::MappingInfo**, std::vector<google_breakpad::MappingInfo*, google_breakpad::PageStdAllocator<google_breakpad::MappingInfo*> > >, unsigned long, google_breakpad::MappingInfo* const&)
FUNC c8c0 3 0 google_breakpad::LinuxPtraceDumper::IsPostMortem() const
FUNC c8d0 d8 0 google_breakpad::LinuxPtraceDumper::BuildProcPath(char*, int, char const*) const
FUNC c9b0 ac 0 google_breakpad::LinuxPtraceDumper::CopyFromProcess(void*, int, void const*, unsigned long)
FUNC ca60 c2 0 google_breakpad::LinuxPtraceDumper::ThreadsResume()
FUNC cb30 49f 0 google_breakpad::LinuxPtraceDumper::GetThreadInfoByIndex(unsigned long, google_breakpad::ThreadInfo*)
FUNC cfd0 20 0 google_breakpad::LinuxPtraceDumper::LinuxPtraceDumper(int)
FUNC cff0 36d 0 google_breakpad::LinuxPtraceDumper::EnumerateThreads()
FUNC d360 235 0 google_breakpad::LinuxPtraceDumper::ThreadsSuspend()
FUNC d5a0 13 0 google_breakpad::LinuxPtraceDumper::~LinuxPtraceDumper()
FUNC d5c0 20 0 google_breakpad::LinuxPtraceDumper::~LinuxPtraceDumper()
FUNC d5e0 306 0 std::vector<int, google_breakpad::PageStdAllocator<int> >::_M_insert_aux(__gnu_cxx::__normal_iterator<int*, std::vector<int, google_breakpad::PageStdAllocator<int> > >, int const&)
FUNC d8f0 458 0 std::vector<int, google_breakpad::PageStdAllocator<int> >::_M_fill_insert(__gnu_cxx::__normal_iterator<int*, std::vector<int, google_breakpad::PageStdAllocator<int> > >, unsigned long, int const&)
FUNC dd50 e3 0 isLegalUTF8
FUNC de40 fe 0 ConvertUTF32toUTF16
FUNC df40 e6 0 ConvertUTF16toUTF32
FUNC e030 216 0 ConvertUTF16toUTF8
FUNC e250 2b 0 isLegalUTF8Sequence
FUNC e280 265 0 ConvertUTF8toUTF16
FUNC e4f0 1c0 0 ConvertUTF32toUTF8
FUNC e6b0 29f 0 ConvertUTF8toUTF32
FUNC e950 a 0 google_breakpad::FileID::FileID(char const*)
FUNC e960 1ee 0 google_breakpad::FileID::ElfFileIdentifierFromMappedFile(void const*, unsigned char*)
FUNC eb50 59 0 google_breakpad::FileID::ElfFileIdentifier(unsigned char*)
FUNC ebb0 e5 0 google_breakpad::FileID::ConvertIdentifierToString(unsigned char const*, char*, int)
FUNC eca0 10 0 google_breakpad::MemoryMappedFile::MemoryMappedFile()
FUNC ecb0 56 0 google_breakpad::MemoryMappedFile::Unmap()
FUNC ed10 193 0 google_breakpad::MemoryMappedFile::Map(char const*)
FUNC eeb0 14 0 google_breakpad::MemoryMappedFile::MemoryMappedFile(char const*)
FUNC eed0 5 0 google_breakpad::MemoryMappedFile::~MemoryMappedFile()
FUNC eee0 3a 0 google_breakpad::SafeReadLink(char const*, char*, unsigned long)
FUNC ef20 1f 0 google_breakpad::IsValidElf(void const*)
FUNC ef40 5 0 google_breakpad::ElfClass(void const*)
FUNC ef50 466 0 google_breakpad::FindElfSection(void const*, char const*, unsigned int, void const**, int*, int*)
FUNC f3c0 29c 0 google_breakpad::FindElfSegment(void const*, unsigned int, void const**, int*, int*)
STACK CFI INIT 18c0 350 .cfa: $rsp 16 + .ra: .cfa -8 + ^
STACK CFI 18c6 .cfa: $rsp 24 +
STACK CFI INIT 2140 2c .cfa: $rsp 8 + .ra: .cfa -8 + ^
STACK CFI 2141 $rbx: .cfa -16 + ^ .cfa: $rsp 16 +
STACK CFI 216b .cfa: $rsp 8 +
STACK CFI INIT 2170 8 .cfa: $rsp 8 + .ra: .cfa -8 + ^
STACK CFI INIT 2180 90 .cfa: $rsp 8 + .ra: .cfa -8 + ^
STACK CFI 2181 $rbx: .cfa -16 + ^ .cfa: $rsp 16 +
STACK CFI 2188 .cfa: $rsp 32 +
STACK CFI 21ae .cfa: $rsp 16 +
STACK CFI 21af .cfa: $rsp 8 +
STACK CFI 21b0 .cfa: $rsp 32 +
STACK CFI INIT 1f40 f3 .cfa: $rsp 8 + .ra: .cfa -8 + ^
STACK CFI 1f41 $rbx: .cfa -16 + ^ .cfa: $rsp 16 +
STACK CFI 1f4d .cfa: $rsp 240 +
STACK CFI 1fec .cfa: $rsp 16 +
STACK CFI 1fef .cfa: $rsp 8 +
STACK CFI 1ff0 .cfa: $rsp 240 +
STACK CFI INIT 1c10 1a .cfa: $rsp 8 + .ra: .cfa -8 + ^
STACK CFI INIT 2210 f5 .cfa: $rsp 8 + .ra: .cfa -8 + ^
STACK CFI 221f $r14: .cfa -16 + ^ .cfa: $rsp 16 +
STACK CFI 2221 $r13: .cfa -24 + ^ .cfa: $rsp 24 +
STACK CFI 2223 $r12: .cfa -32 + ^ .cfa: $rsp 32 +
STACK CFI 222b $rbp: .cfa -40 + ^ .cfa: $rsp 40 +
STACK CFI 2233 $rbx: .cfa -48 + ^ .cfa: $rsp 48 +
STACK CFI 223c .cfa: $rsp 208 +
STACK CFI 22e2 .cfa: $rsp 48 +
STACK CFI 22e8 $rbx: $rbx .cfa: $rsp 40 +
STACK CFI 22e9 $rbp: $rbp .cfa: $rsp 32 +
STACK CFI 22eb $r12: $r12 .cfa: $rsp 24 +
STACK CFI 22ed $r13: $r13 .cfa: $rsp 16 +
STACK CFI 22ef $r14: $r14 .cfa: $rsp 8 +
STACK CFI 22f0 $r12: .cfa -32 + ^ $r13: .cfa -24 + ^ $r14: .cfa -16 + ^ $rbp: .cfa -40 + ^ $rbx: .cfa -48 + ^ .cfa: $rsp 208 +
STACK CFI 22f7 .cfa: $rsp 48 +
STACK CFI 22fa $rbx: $rbx .cfa: $rsp 40 +
STACK CFI 22fb $rbp: $rbp .cfa: $rsp 32 +
STACK CFI 22fd $r12: $r12 .cfa: $rsp 24 +
STACK CFI 22ff $r13: $r13 .cfa: $rsp 16 +
STACK CFI 2301 $r14: $r14 .cfa: $rsp 8 +
STACK CFI INIT 2310 8b .cfa: $rsp 8 + .ra: .cfa -8 + ^
STACK CFI 2323 $r12: .cfa -24 + ^ $r13: .cfa -16 + ^
STACK CFI 233b $rbp: .cfa -32 + ^ $rbx: .cfa -40 + ^
STACK CFI 2341 .cfa: $rsp 48 +
STACK CFI 238c $r12: $r12 $r13: $r13 $rbp: $rbp $rbx: $rbx .cfa: $rsp 8 +
STACK CFI 2390 $r12: .cfa -24 + ^ $r13: .cfa -16 + ^ $rbp: .cfa -32 + ^ $rbx: .cfa -40 + ^ .cfa: $rsp 48 +
STACK CFI INIT 23a0 104 .cfa: $rsp 8 + .ra: .cfa -8 + ^
STACK CFI 23bb $r12: .cfa -24 + ^ $r13: .cfa -16 + ^ $rbp: .cfa -32 + ^ $rbx: .cfa -40 + ^
STACK CFI 23c2 .cfa: $rsp 64 +
STACK CFI 2401 .cfa: $rsp 8 +
STACK CFI 2408 .cfa: $rsp 64 +
STACK CFI 246d .cfa: $rsp 8 +
STACK CFI 2478 .cfa: $rsp 64 +
STACK CFI INIT 24b0 477 .cfa: $rsp 8 + .ra: .cfa -8 + ^
STACK CFI 24ba $r13: .cfa -32 + ^ $rbp: .cfa -48 + ^
STACK CFI 24db $r12: .cfa -40 + ^ $r14: .cfa -24 + ^ $r15: .cfa -16 + ^ $rbx: .cfa -56 + ^ .cfa: $rsp 160 +
STACK CFI 2522 .cfa: $rsp 8 +
STACK CFI 2528 .cfa: $rsp 160 +
STACK CFI INIT 2930 19c .cfa: $rsp 8 + .ra: .cfa -8 + ^
STACK CFI 2932 $r13: .cfa -16 + ^ .cfa: $rsp 16 +
STACK CFI 2934 $r12: .cfa -24 + ^ .cfa: $rsp 24 +
STACK CFI 2938 $rbp: .cfa -32 + ^ .cfa: $rsp 32 +
STACK CFI 293c $rbx: .cfa -40 + ^ .cfa: $rsp 40 +
STACK CFI 2946 .cfa: $rsp 1632 +
STACK CFI 2a7f .cfa: $rsp 40 +
STACK CFI 2a80 .cfa: $rsp 32 +
STACK CFI 2a81 .cfa: $rsp 24 +
STACK CFI 2a83 .cfa: $rsp 16 +
STACK CFI 2a85 .cfa: $rsp 8 +
STACK CFI 2a90 .cfa: $rsp 1632 +
STACK CFI 2a97 .cfa: $rsp 40 +
STACK CFI 2a9d .cfa: $rsp 32 +
STACK CFI 2a9e .cfa: $rsp 24 +
STACK CFI 2aa0 .cfa: $rsp 16 +
STACK CFI 2aa2 .cfa: $rsp 8 +
STACK CFI 2aa8 .cfa: $rsp 1632 +
STACK CFI INIT 2ad0 68 .cfa: $rsp 8 + .ra: .cfa -8 + ^
STACK CFI 2ada $rbp: .cfa -24 + ^ $rbx: .cfa -32 + ^
STACK CFI 2ae6 $r12: .cfa -16 + ^ .cfa: $rsp 32 +
STACK CFI 2b12 .cfa: $rsp 8 +
STACK CFI 2b18 .cfa: $rsp 32 +
STACK CFI 2b33 .cfa: $rsp 8 +
STACK CFI INIT 2b40 56 .cfa: $rsp 8 + .ra: .cfa -8 + ^
STACK CFI 2b47 .cfa: $rsp 1104 +
STACK CFI 2b95 .cfa: $rsp 8 +
STACK CFI INIT 2ba0 18b .cfa: $rsp 8 + .ra: .cfa -8 + ^
STACK CFI 2ba2 $r15: .cfa -16 + ^ .cfa: $rsp 16 +
STACK CFI 2ba4 $r14: .cfa -24 + ^ .cfa: $rsp 24 +
STACK CFI 2ba6 $r13: .cfa -32 + ^ .cfa: $rsp 32 +
STACK CFI 2ba8 $r12: .cfa -40 + ^ .cfa: $rsp 40 +
STACK CFI 2bac $rbp: .cfa -48 + ^ .cfa: $rsp 48 +
STACK CFI 2bb0 $rbx: .cfa -56 + ^ .cfa: $rsp 56 +
STACK CFI 2bb9 .cfa: $rsp 224 +
STACK CFI 2c73 .cfa: $rsp 56 +
STACK CFI 2c74 .cfa: $rsp 48 +
STACK CFI 2c75 .cfa: $rsp 40 +
STACK CFI 2c77 .cfa: $rsp 32 +
STACK CFI 2c79 .cfa: $rsp 24 +
STACK CFI 2c7b .cfa: $rsp 16 +
STACK CFI 2c7d .cfa: $rsp 8 +
STACK CFI 2c80 .cfa: $rsp 224 +
STACK CFI INIT 2d30 e0 .cfa: $rsp 8 + .ra: .cfa -8 + ^
STACK CFI 2d3a $r12: .cfa -24 + ^ $rbp: .cfa -32 + ^
STACK CFI 2d4a $r13: .cfa -16 + ^ $rbx: .cfa -40 + ^ .cfa: $rsp 80 +
STACK CFI 2d88 .cfa: $rsp 8 +
STACK CFI 2d90 .cfa: $rsp 80 +
STACK CFI INIT 2e10 58 .cfa: $rsp 8 + .ra: .cfa -8 + ^
STACK CFI 2e14 .cfa: $rsp 32 +
STACK CFI 2e44 .cfa: $rsp 8 +
STACK CFI 2e48 .cfa: $rsp 32 +
STACK CFI 2e67 .cfa: $rsp 8 +
STACK CFI INIT 2e70 28 .cfa: $rsp 8 + .ra: .cfa -8 + ^
STACK CFI 2e71 $rbx: .cfa -16 + ^ .cfa: $rsp 16 +
STACK CFI 2e97 .cfa: $rsp 8 +
STACK CFI INIT 2ea0 163 .cfa: $rsp 8 + .ra: .cfa -8 + ^
STACK CFI 2ea1 $rbx: .cfa -16 + ^ .cfa: $rsp 16 +
STACK CFI 2ea8 .cfa: $rsp 1616 +
STACK CFI 2f0a .cfa: $rsp 16 +
STACK CFI 2f0b .cfa: $rsp 8 +
STACK CFI 2f10 .cfa: $rsp 1616 +
STACK CFI 2fd5 .cfa: $rsp 16 +
STACK CFI 2fd6 .cfa: $rsp 8 +
STACK CFI 2fe0 .cfa: $rsp 1616 +
STACK CFI INIT 3010 cf .cfa: $rsp 8 + .ra: .cfa -8 + ^
STACK CFI 302b $r12: .cfa -24 + ^ $r13: .cfa -16 + ^ $rbp: .cfa -32 + ^ $rbx: .cfa -40 + ^ .cfa: $rsp 640 +
STACK CFI 30da .cfa: $rsp 8 +
STACK CFI INIT 30e0 5d .cfa: $rsp 8 + .ra: .cfa -8 + ^
STACK CFI 30e2 $r12: .cfa -16 + ^ .cfa: $rsp 16 +
STACK CFI 30e6 $rbp: .cfa -24 + ^ .cfa: $rsp 24 +
STACK CFI 30eb $rbx: .cfa -32 + ^ .cfa: $rsp 32 +
STACK CFI 3127 .cfa: $rsp 24 +
STACK CFI 312e .cfa: $rsp 16 +
STACK CFI 3130 .cfa: $rsp 8 +
STACK CFI 3138 .cfa: $rsp 32 +
STACK CFI 3139 .cfa: $rsp 24 +
STACK CFI 313a .cfa: $rsp 16 +
STACK CFI 313c .cfa: $rsp 8 +
STACK CFI INIT 3140 31 .cfa: $rsp 8 + .ra: .cfa -8 + ^
STACK CFI 3141 $rbx: .cfa -16 + ^ .cfa: $rsp 16 +
STACK CFI 315f .cfa: $rsp 8 +
STACK CFI 3160 .cfa: $rsp 16 +
STACK CFI 316c .cfa: $rsp 8 +
STACK CFI INIT 3180 179 .cfa: $rsp 8 + .ra: .cfa -8 + ^
STACK CFI 318a $rbp: .cfa -48 + ^ $rbx: .cfa -56 + ^
STACK CFI 3197 $r12: .cfa -40 + ^ $r13: .cfa -32 + ^
STACK CFI 31a8 $r14: .cfa -24 + ^ $r15: .cfa -16 + ^ .cfa: $rsp 128 +
STACK CFI 3270 .cfa: $rsp 8 +
STACK CFI 3278 .cfa: $rsp 128 +
STACK CFI INIT 3ad0 2f .cfa: $rsp 8 + .ra: .cfa -8 + ^
STACK CFI 3ad1 $rbp: .cfa -16 + ^ .cfa: $rsp 16 +
STACK CFI 3ad5 $rbx: .cfa -24 + ^ .cfa: $rsp 24 +
STACK CFI 3ad9 .cfa: $rsp 32 +
STACK CFI 3afc .cfa: $rsp 24 +
STACK CFI 3afd .cfa: $rsp 16 +
STACK CFI 3afe .cfa: $rsp 8 +
STACK CFI INIT 3b00 2f .cfa: $rsp 8 + .ra: .cfa -8 + ^
STACK CFI 3b01 $rbp: .cfa -16 + ^ .cfa: $rsp 16 +
STACK CFI 3b05 $rbx: .cfa -24 + ^ .cfa: $rsp 24 +
STACK CFI 3b09 .cfa: $rsp 32 +
STACK CFI 3b2c .cfa: $rsp 24 +
STACK CFI 3b2d .cfa: $rsp 16 +
STACK CFI 3b2e .cfa: $rsp 8 +
STACK CFI INIT 3300 336 .cfa: $rsp 8 + .ra: .cfa -8 + ^
STACK CFI 3302 $r13: .cfa -16 + ^ .cfa: $rsp 16 +
STACK CFI 3304 $r12: .cfa -24 + ^ .cfa: $rsp 24 +
STACK CFI 3305 $rbp: .cfa -32 + ^ .cfa: $rsp 32 +
STACK CFI 3306 $rbx: .cfa -40 + ^ .cfa: $rsp 40 +
STACK CFI 330d .cfa: $rsp 128 +
STACK CFI 3465 .cfa: $rsp 40 +
STACK CFI 3466 .cfa: $rsp 32 +
STACK CFI 3467 .cfa: $rsp 24 +
STACK CFI 3469 .cfa: $rsp 16 +
STACK CFI 346b .cfa: $rsp 8 +
STACK CFI 3470 .cfa: $rsp 128 +
STACK CFI INIT 3b30 1ba .cfa: $rsp 8 + .ra: .cfa -8 + ^
STACK CFI 3b3a $rbp: .cfa -48 + ^ $rbx: .cfa -56 + ^
STACK CFI 3b58 $r12: .cfa -40 + ^ $r13: .cfa -32 + ^ $r14: .cfa -24 + ^ $r15: .cfa -16 + ^ .cfa: $rsp 80 +
STACK CFI 3bc2 .cfa: $rsp 8 +
STACK CFI 3bc8 .cfa: $rsp 80 +
STACK CFI INIT 3640 31c .cfa: $rsp 8 + .ra: .cfa -8 + ^
STACK CFI 3645 $r14: .cfa -24 + ^
STACK CFI 3658 $r15: .cfa -16 + ^ $rbp: .cfa -48 + ^ $rbx: .cfa -56 + ^
STACK CFI 3669 $r12: .cfa -40 + ^ $r13: .cfa -32 + ^ .cfa: $rsp 80 +
STACK CFI 376f .cfa: $rsp 8 +
STACK CFI 3770 .cfa: $rsp 80 +
STACK CFI INIT 3960 167 .cfa: $rsp 8 + .ra: .cfa -8 + ^
STACK CFI 396a $rbp: .cfa -32 + ^ $rbx: .cfa -40 + ^
STACK CFI 397e $r12: .cfa -24 + ^ $r13: .cfa -16 + ^ .cfa: $rsp 256 +
STACK CFI 3a42 .cfa: $rsp 8 +
STACK CFI 3a43 .cfa: $rsp 256 +
STACK CFI INIT 1c2a 1a .cfa: $rsp 8 + .ra: .cfa -8 + ^
STACK CFI INIT 3cf0 7d .cfa: $rsp 8 + .ra: .cfa -8 + ^
STACK CFI 3cfe $rbp: .cfa -16 + ^ $rbx: .cfa -24 + ^ .cfa: $rsp 32 +
STACK CFI 3d4d .cfa: $rsp 8 +
STACK CFI 3d4e .cfa: $rsp 32 +
STACK CFI INIT 3d70 232 .cfa: $rsp 8 + .ra: .cfa -8 + ^
STACK CFI 3d72 $r12: .cfa -16 + ^ .cfa: $rsp 16 +
STACK CFI 3d73 $rbp: .cfa -24 + ^ .cfa: $rsp 24 +
STACK CFI 3d74 $rbx: .cfa -32 + ^ .cfa: $rsp 32 +
STACK CFI 3d7b .cfa: $rsp 160 +
STACK CFI 3ede .cfa: $rsp 32 +
STACK CFI 3edf .cfa: $rsp 24 +
STACK CFI 3ee0 .cfa: $rsp 16 +
STACK CFI 3ee2 .cfa: $rsp 8 +
STACK CFI 3ee3 .cfa: $rsp 160 +
STACK CFI INIT 3fb0 85 .cfa: $rsp 8 + .ra: .cfa -8 + ^
STACK CFI 3fb1 $rbp: .cfa -16 + ^ .cfa: $rsp 16 +
STACK CFI 3fb5 $rbx: .cfa -24 + ^ .cfa: $rsp 24 +
STACK CFI 3fb9 .cfa: $rsp 32 +
STACK CFI 4010 .cfa: $rsp 24 +
STACK CFI 4014 .cfa: $rsp 16 +
STACK CFI 4015 .cfa: $rsp 8 +
STACK CFI 4016 .cfa: $rsp 32 +
STACK CFI INIT 4040 38 .cfa: $rsp 8 + .ra: .cfa -8 + ^
STACK CFI 4047 $rbx: .cfa -16 + ^ .cfa: $rsp 16 +
STACK CFI 4062 .cfa: $rsp 8 +
STACK CFI 4068 .cfa: $rsp 16 +
STACK CFI 4077 .cfa: $rsp 8 +
STACK CFI INIT 1c44 27 .cfa: $rsp 8 + .ra: .cfa -8 + ^
STACK CFI 1c45 $rbx: .cfa -16 + ^ .cfa: $rsp 16 +
STACK CFI 1c6a .cfa: $rsp 8 +
STACK CFI INIT 4080 5d .cfa: $rsp 8 + .ra: .cfa -8 + ^
STACK CFI 408e $rbp: .cfa -16 + ^ $rbx: .cfa -24 + ^ .cfa: $rsp 32 +
STACK CFI 40b5 .cfa: $rsp 8 +
STACK CFI 40c0 .cfa: $rsp 32 +
STACK CFI INIT 1c6c 20 .cfa: $rsp 8 + .ra: .cfa -8 + ^
STACK CFI 1c74 .cfa: $rsp 16 +
STACK CFI INIT 1c8c 20 .cfa: $rsp 8 + .ra: .cfa -8 + ^
STACK CFI 1c94 .cfa: $rsp 16 +
STACK CFI INIT 40e0 1e .cfa: $rsp 8 + .ra: .cfa -8 + ^
STACK CFI 40f9 .cfa: $rsp 16 +
STACK CFI INIT 1cac 20 .cfa: $rsp 8 + .ra: .cfa -8 + ^
STACK CFI 1cb4 .cfa: $rsp 16 +
STACK CFI INIT 1ccc 20 .cfa: $rsp 8 + .ra: .cfa -8 + ^
STACK CFI 1cd4 .cfa: $rsp 16 +
STACK CFI INIT 7d00 153 .cfa: $rsp 8 + .ra: .cfa -8 + ^
STACK CFI 7d12 $rbp: .cfa -48 + ^ $rbx: .cfa -56 + ^
STACK CFI 7d2d $r12: .cfa -40 + ^ $r13: .cfa -32 + ^ $r14: .cfa -24 + ^ $r15: .cfa -16 + ^ .cfa: $rsp 64 +
STACK CFI 7d77 $r12: $r12 $r13: $r13 $r14: $r14 $r15: $r15 $rbp: $rbp $rbx: $rbx .cfa: $rsp 8 +
STACK CFI 7d80 $r12: .cfa -40 + ^ $r13: .cfa -32 + ^ $r14: .cfa -24 + ^ $r15: .cfa -16 + ^ $rbp: .cfa -48 + ^ $rbx: .cfa -56 + ^ .cfa: $rsp 64 +
STACK CFI 7e50 $r12: $r12 $r13: $r13 $r14: $r14 $r15: $r15 $rbp: $rbp $rbx: $rbx .cfa: $rsp 8 +
STACK CFI INIT 1cec 1ac .cfa: $rsp 8 + .ra: .cfa -8 + ^
STACK CFI 1cee $r15: .cfa -16 + ^ .cfa: $rsp 16 +
STACK CFI 1cf5 $r14: .cfa -24 + ^ .cfa: $rsp 24 +
STACK CFI 1cf7 $r13: .cfa -32 + ^ .cfa: $rsp 32 +
STACK CFI 1cf9 $r12: .cfa -40 + ^ .cfa: $rsp 40 +
STACK CFI 1d00 $rbp: .cfa -48 + ^ .cfa: $rsp 48 +
STACK CFI 1d01 $rbx: .cfa -56 + ^ .cfa: $rsp 56 +
STACK CFI 1d05 .cfa: $rsp 112 +
STACK CFI 1e8d .cfa: $rsp 56 +
STACK CFI 1e8e .cfa: $rsp 48 +
STACK CFI 1e8f .cfa: $rsp 40 +
STACK CFI 1e91 .cfa: $rsp 32 +
STACK CFI 1e93 .cfa: $rsp 24 +
STACK CFI 1e95 .cfa: $rsp 16 +
STACK CFI 1e97 .cfa: $rsp 8 +
STACK CFI INIT 1e98 3f .cfa: $rsp 8 + .ra: .cfa -8 + ^
STACK CFI 1e99 $rbp: .cfa -16 + ^ .cfa: $rsp 16 +
STACK CFI 1e9d $rbx: .cfa -24 + ^ .cfa: $rsp 24 +
STACK CFI 1ea7 .cfa: $rsp 288 +
STACK CFI 1ed2 .cfa: $rsp 24 +
STACK CFI 1ed5 .cfa: $rsp 16 +
STACK CFI 1ed6 .cfa: $rsp 8 +
STACK CFI INIT 7e60 248 .cfa: $rsp 8 + .ra: .cfa -8 + ^
STACK CFI 7e62 $r15: .cfa -16 + ^ .cfa: $rsp 16 +
STACK CFI 7e64 $r14: .cfa -24 + ^ .cfa: $rsp 24 +
STACK CFI 7e6a $r13: .cfa -32 + ^ .cfa: $rsp 32 +
STACK CFI 7e6c $r12: .cfa -40 + ^ .cfa: $rsp 40 +
STACK CFI 7e6d $rbp: .cfa -48 + ^ .cfa: $rsp 48 +
STACK CFI 7e71 $rbx: .cfa -56 + ^ .cfa: $rsp 56 +
STACK CFI 7e78 .cfa: $rsp 64 +
STACK CFI 7fd6 .cfa: $rsp 56 +
STACK CFI 7fd7 .cfa: $rsp 48 +
STACK CFI 7fd8 .cfa: $rsp 40 +
STACK CFI 7fda .cfa: $rsp 32 +
STACK CFI 7fdc .cfa: $rsp 24 +
STACK CFI 7fde .cfa: $rsp 16 +
STACK CFI 7fe5 .cfa: $rsp 8 +
STACK CFI 7ff0 .cfa: $rsp 64 +
STACK CFI 8052 .cfa: $rsp 56 +
STACK CFI 8055 .cfa: $rsp 48 +
STACK CFI 8056 .cfa: $rsp 40 +
STACK CFI 8058 .cfa: $rsp 32 +
STACK CFI 805a .cfa: $rsp 24 +
STACK CFI 805c .cfa: $rsp 16 +
STACK CFI 805e .cfa: $rsp 8 +
STACK CFI 805f .cfa: $rsp 64 +
STACK CFI INIT 80b0 22 .cfa: $rsp 8 + .ra: .cfa -8 + ^
STACK CFI INIT 80e0 22 .cfa: $rsp 8 + .ra: .cfa -8 + ^
STACK CFI INIT 8110 22 .cfa: $rsp 8 + .ra: .cfa -8 + ^
STACK CFI INIT 8140 22 .cfa: $rsp 8 + .ra: .cfa -8 + ^
STACK CFI INIT 8170 229 .cfa: $rsp 8 + .ra: .cfa -8 + ^
STACK CFI 818e $r12: .cfa -40 + ^ $r13: .cfa -32 + ^ $rbp: .cfa -48 + ^ $rbx: .cfa -56 + ^
STACK CFI 819f $r14: .cfa -24 + ^ $r15: .cfa -16 + ^ .cfa: $rsp 128 +
STACK CFI 81e1 .cfa: $rsp 8 +
STACK CFI 81e8 .cfa: $rsp 128 +
STACK CFI INIT 83a0 357 .cfa: $rsp 8 + .ra: .cfa -8 + ^
STACK CFI 83a5 $rbp: .cfa -48 + ^
STACK CFI 83b7 $r12: .cfa -40 + ^ $r14: .cfa -24 + ^ $rbx: .cfa -56 + ^
STACK CFI 83c8 $r13: .cfa -32 + ^ $r15: .cfa -16 + ^ .cfa: $rsp 128 +
STACK CFI 8447 .cfa: $rsp 8 +
STACK CFI 8450 .cfa: $rsp 128 +
STACK CFI INIT 4100 15e5 .cfa: $rsp 8 + .ra: .cfa -8 + ^
STACK CFI 4102 $r15: .cfa -16 + ^ .cfa: $rsp 16 +
STACK CFI 4104 $r14: .cfa -24 + ^ .cfa: $rsp 24 +
STACK CFI 4106 $r13: .cfa -32 + ^ .cfa: $rsp 32 +
STACK CFI 410c $r12: .cfa -40 + ^ .cfa: $rsp 40 +
STACK CFI 410d $rbp: .cfa -48 + ^ .cfa: $rsp 48 +
STACK CFI 410e $rbx: .cfa -56 + ^ .cfa: $rsp 56 +
STACK CFI 4118 .cfa: $rsp 3696 +
STACK CFI 4339 .cfa: $rsp 56 +
STACK CFI 433c .cfa: $rsp 48 +
STACK CFI 433d .cfa: $rsp 40 +
STACK CFI 433f .cfa: $rsp 32 +
STACK CFI 4341 .cfa: $rsp 24 +
STACK CFI 4343 .cfa: $rsp 16 +
STACK CFI 4345 .cfa: $rsp 8 +
STACK CFI 4350 .cfa: $rsp 3696 +
STACK CFI INIT 8700 17f .cfa: $rsp 8 + .ra: .cfa -8 + ^
STACK CFI 8702 $r15: .cfa -16 + ^ .cfa: $rsp 16 +
STACK CFI 8706 $r14: .cfa -24 + ^ .cfa: $rsp 24 +
STACK CFI 8708 $r13: .cfa -32 + ^ .cfa: $rsp 32 +
STACK CFI 870a $r12: .cfa -40 + ^ .cfa: $rsp 40 +
STACK CFI 870b $rbp: .cfa -48 + ^ .cfa: $rsp 48 +
STACK CFI 870f $rbx: .cfa -56 + ^ .cfa: $rsp 56 +
STACK CFI 8716 .cfa: $rsp 96 +
STACK CFI 877b .cfa: $rsp 56 +
STACK CFI 877c .cfa: $rsp 48 +
STACK CFI 877d .cfa: $rsp 40 +
STACK CFI 877f .cfa: $rsp 32 +
STACK CFI 8781 .cfa: $rsp 24 +
STACK CFI 8783 .cfa: $rsp 16 +
STACK CFI 8785 .cfa: $rsp 8 +
STACK CFI 8790 .cfa: $rsp 96 +
STACK CFI INIT 8880 3cd .cfa: $rsp 8 + .ra: .cfa -8 + ^
STACK CFI 8882 $r15: .cfa -16 + ^ .cfa: $rsp 16 +
STACK CFI 8884 $r14: .cfa -24 + ^ .cfa: $rsp 24 +
STACK CFI 8886 $r13: .cfa -32 + ^ .cfa: $rsp 32 +
STACK CFI 8888 $r12: .cfa -40 + ^ .cfa: $rsp 40 +
STACK CFI 8889 $rbp: .cfa -48 + ^ .cfa: $rsp 48 +
STACK CFI 888d $rbx: .cfa -56 + ^ .cfa: $rsp 56 +
STACK CFI 8891 .cfa: $rsp 128 +
STACK CFI 8a9d .cfa: $rsp 56 +
STACK CFI 8a9e .cfa: $rsp 48 +
STACK CFI 8a9f .cfa: $rsp 40 +
STACK CFI 8aa1 .cfa: $rsp 32 +
STACK CFI 8aa3 .cfa: $rsp 24 +
STACK CFI 8aa5 .cfa: $rsp 16 +
STACK CFI 8aa7 .cfa: $rsp 8 +
STACK CFI 8ab0 .cfa: $rsp 128 +
STACK CFI 8b19 .cfa: $rsp 56 +
STACK CFI 8b21 .cfa: $rsp 48 +
STACK CFI 8b22 .cfa: $rsp 40 +
STACK CFI 8b24 .cfa: $rsp 32 +
STACK CFI 8b26 .cfa: $rsp 24 +
STACK CFI 8b28 .cfa: $rsp 16 +
STACK CFI 8b2a .cfa: $rsp 8 +
STACK CFI 8b30 .cfa: $rsp 128 +
STACK CFI INIT 56f0 1d12 .cfa: $rsp 8 + .ra: .cfa -8 + ^
STACK CFI 56f2 $r15: .cfa -16 + ^ .cfa: $rsp 16 +
STACK CFI 56fd $r14: .cfa -24 + ^ .cfa: $rsp 24 +
STACK CFI 5702 $r13: .cfa -32 + ^ .cfa: $rsp 32 +
STACK CFI 5704 $r12: .cfa -40 + ^ .cfa: $rsp 40 +
STACK CFI 5705 $rbp: .cfa -48 + ^ .cfa: $rsp 48 +
STACK CFI 5706 $rbx: .cfa -56 + ^ .cfa: $rsp 56 +
STACK CFI 570d .cfa: $rsp 2832 +
STACK CFI 5842 .cfa: $rsp 56 +
STACK CFI 5845 .cfa: $rsp 48 +
STACK CFI 5846 .cfa: $rsp 40 +
STACK CFI 5848 .cfa: $rsp 32 +
STACK CFI 584a .cfa: $rsp 24 +
STACK CFI 584c .cfa: $rsp 16 +
STACK CFI 584e .cfa: $rsp 8 +
STACK CFI 5850 .cfa: $rsp 2832 +
STACK CFI INIT 7410 1ac .cfa: $rsp 8 + .ra: .cfa -8 + ^
STACK CFI 7412 $r12: .cfa -16 + ^ .cfa: $rsp 16 +
STACK CFI 7416 $rbp: .cfa -24 + ^ .cfa: $rsp 24 +
STACK CFI 741a $rbx: .cfa -32 + ^ .cfa: $rsp 32 +
STACK CFI 7421 .cfa: $rsp 160 +
STACK CFI 7505 .cfa: $rsp 32 +
STACK CFI 7508 .cfa: $rsp 24 +
STACK CFI 7509 .cfa: $rsp 16 +
STACK CFI 750b .cfa: $rsp 8 +
STACK CFI 7510 .cfa: $rsp 160 +
STACK CFI INIT 75c0 2ce .cfa: $rsp 8 + .ra: .cfa -8 + ^
STACK CFI 75ca $r12: .cfa -40 + ^ $rbx: .cfa -56 + ^
STACK CFI 75eb $r13: .cfa -32 + ^ $r14: .cfa -24 + ^ $r15: .cfa -16 + ^ $rbp: .cfa -48 + ^ .cfa: $rsp 368 +
STACK CFI 7670 .cfa: $rsp 8 +
STACK CFI 7678 .cfa: $rsp 368 +
STACK CFI INIT 7890 2b .cfa: $rsp 8 + .ra: .cfa -8 + ^
STACK CFI 7894 .cfa: $rsp 32 +
STACK CFI 78ba .cfa: $rsp 8 +
STACK CFI INIT 78c0 2c .cfa: $rsp 8 + .ra: .cfa -8 + ^
STACK CFI 78c4 .cfa: $rsp 32 +
STACK CFI 78eb .cfa: $rsp 8 +
STACK CFI INIT 78f0 2a .cfa: $rsp 8 + .ra: .cfa -8 + ^
STACK CFI 78f4 .cfa: $rsp 32 +
STACK CFI 7919 .cfa: $rsp 8 +
STACK CFI INIT 7920 2b .cfa: $rsp 8 + .ra: .cfa -8 + ^
STACK CFI 7924 .cfa: $rsp 32 +
STACK CFI 794a .cfa: $rsp 8 +
STACK CFI INIT 7950 9a .cfa: $rsp 8 + .ra: .cfa -8 + ^
STACK CFI 7966 $r12: .cfa -16 + ^ $rbp: .cfa -24 + ^ $rbx: .cfa -32 + ^ .cfa: $rsp 96 +
STACK CFI 79ce .cfa: $rsp 8 +
STACK CFI 79cf .cfa: $rsp 96 +
STACK CFI INIT 79f0 9b .cfa: $rsp 8 + .ra: .cfa -8 + ^
STACK CFI 7a06 $r12: .cfa -16 + ^ $rbp: .cfa -24 + ^ $rbx: .cfa -32 + ^ .cfa: $rsp 96 +
STACK CFI 7a6f .cfa: $rsp 8 +
STACK CFI 7a70 .cfa: $rsp 96 +
STACK CFI INIT 7a90 26a .cfa: $rsp 8 + .ra: .cfa -8 + ^
STACK CFI 7a92 $r12: .cfa -16 + ^ .cfa: $rsp 16 +
STACK CFI 7a96 $rbp: .cfa -24 + ^ .cfa: $rsp 24 +
STACK CFI 7a97 $rbx: .cfa -32 + ^ .cfa: $rsp 32 +
STACK CFI 7aa0 .cfa: $rsp 368 +
STACK CFI 7c0a .cfa: $rsp 32 +
STACK CFI 7c0d .cfa: $rsp 24 +
STACK CFI 7c0e .cfa: $rsp 16 +
STACK CFI 7c10 .cfa: $rsp 8 +
STACK CFI 7c18 .cfa: $rsp 368 +
STACK CFI INIT 1ed8 20 .cfa: $rsp 8 + .ra: .cfa -8 + ^
STACK CFI 1ee0 .cfa: $rsp 16 +
STACK CFI INIT 1ef8 20 .cfa: $rsp 8 + .ra: .cfa -8 + ^
STACK CFI 1f00 .cfa: $rsp 16 +
STACK CFI INIT 8c50 1a .cfa: $rsp 8 + .ra: .cfa -8 + ^
STACK CFI INIT 8c70 87 .cfa: $rsp 8 + .ra: .cfa -8 + ^
STACK CFI 8c7e $rbp: .cfa -16 + ^ $rbx: .cfa -24 + ^ .cfa: $rsp 32 +
STACK CFI 8cc5 .cfa: $rsp 8 +
STACK CFI 8cd0 .cfa: $rsp 32 +
STACK CFI INIT 8d00 2c .cfa: $rsp 8 + .ra: .cfa -8 + ^
STACK CFI 8d14 .cfa: $rsp 16 +
STACK CFI INIT 8d30 78 .cfa: $rsp 8 + .ra: .cfa -8 + ^
STACK CFI 8d3a $rbp: .cfa -24 + ^ $rbx: .cfa -32 + ^
STACK CFI 8d46 $r12: .cfa -16 + ^ .cfa: $rsp 32 +
STACK CFI 8d9b .cfa: $rsp 8 +
STACK CFI 8da0 .cfa: $rsp 32 +
STACK CFI INIT 8db0 15 .cfa: $rsp 8 + .ra: .cfa -8 + ^
STACK CFI INIT 8dd0 d6 .cfa: $rsp 8 + .ra: .cfa -8 + ^
STACK CFI 8de8 $r12: .cfa -24 + ^ $r13: .cfa -16 + ^ $rbp: .cfa -32 + ^ $rbx: .cfa -40 + ^ .cfa: $rsp 48 +
STACK CFI 8e33 .cfa: $rsp 8 +
STACK CFI 8e38 .cfa: $rsp 48 +
STACK CFI INIT 8eb0 fa .cfa: $rsp 8 + .ra: .cfa -8 + ^
STACK CFI 8eb1 $rbp: .cfa -16 + ^ .cfa: $rsp 16 +
STACK CFI 8eb5 $rbx: .cfa -24 + ^ .cfa: $rsp 24 +
STACK CFI 8eb9 .cfa: $rsp 32 +
STACK CFI 8eeb .cfa: $rsp 24 +
STACK CFI 8eec .cfa: $rsp 16 +
STACK CFI 8eed .cfa: $rsp 8 +
STACK CFI 8ef0 .cfa: $rsp 32 +
STACK CFI INIT 8fb0 a8 .cfa: $rsp 8 + .ra: .cfa -8 + ^
STACK CFI 8fb2 $r14: .cfa -16 + ^ .cfa: $rsp 16 +
STACK CFI 8fb4 $r13: .cfa -24 + ^ .cfa: $rsp 24 +
STACK CFI 8fb6 $r12: .cfa -32 + ^ .cfa: $rsp 32 +
STACK CFI 8fb7 $rbp: .cfa -40 + ^ .cfa: $rsp 40 +
STACK CFI 8fba $rbx: .cfa -48 + ^ .cfa: $rsp 48 +
STACK CFI 8fbe .cfa: $rsp 64 +
STACK CFI 9043 .cfa: $rsp 48 +
STACK CFI 9044 .cfa: $rsp 40 +
STACK CFI 9045 .cfa: $rsp 32 +
STACK CFI 9047 .cfa: $rsp 24 +
STACK CFI 9049 .cfa: $rsp 16 +
STACK CFI 904b .cfa: $rsp 8 +
STACK CFI 904c .cfa: $rsp 64 +
STACK CFI INIT 9060 aa .cfa: $rsp 8 + .ra: .cfa -8 + ^
STACK CFI 9062 $r14: .cfa -16 + ^ .cfa: $rsp 16 +
STACK CFI 9064 $r13: .cfa -24 + ^ .cfa: $rsp 24 +
STACK CFI 9066 $r12: .cfa -32 + ^ .cfa: $rsp 32 +
STACK CFI 9067 $rbp: .cfa -40 + ^ .cfa: $rsp 40 +
STACK CFI 9068 $rbx: .cfa -48 + ^ .cfa: $rsp 48 +
STACK CFI 906e .cfa: $rsp 64 +
STACK CFI 90f5 .cfa: $rsp 48 +
STACK CFI 90f6 .cfa: $rsp 40 +
STACK CFI 90f7 .cfa: $rsp 32 +
STACK CFI 90f9 .cfa: $rsp 24 +
STACK CFI 90fb .cfa: $rsp 16 +
STACK CFI 90fd .cfa: $rsp 8 +
STACK CFI 90fe .cfa: $rsp 64 +
STACK CFI INIT 9110 41 .cfa: $rsp 8 + .ra: .cfa -8 + ^
STACK CFI 9111 $rbx: .cfa -16 + ^ .cfa: $rsp 16 +
STACK CFI 9131 .cfa: $rsp 8 +
STACK CFI 9132 .cfa: $rsp 16 +
STACK CFI INIT 9160 88 .cfa: $rsp 8 + .ra: .cfa -8 + ^
STACK CFI 9164 .cfa: $rsp 16 +
STACK CFI 9187 .cfa: $rsp 8 +
STACK CFI 918c .cfa: $rsp 16 +
STACK CFI INIT 91f0 c4 .cfa: $rsp 8 + .ra: .cfa -8 + ^
STACK CFI 91f1 $rbp: .cfa -16 + ^ .cfa: $rsp 16 +
STACK CFI 91f5 $rbx: .cfa -24 + ^ .cfa: $rsp 24 +
STACK CFI 91f9 .cfa: $rsp 64 +
STACK CFI 9231 .cfa: $rsp 24 +
STACK CFI 9234 .cfa: $rsp 16 +
STACK CFI 9235 .cfa: $rsp 8 +
STACK CFI 9240 .cfa: $rsp 64 +
STACK CFI 926e .cfa: $rsp 24 +
STACK CFI 9274 .cfa: $rsp 16 +
STACK CFI 9275 .cfa: $rsp 8 +
STACK CFI 9276 .cfa: $rsp 64 +
STACK CFI INIT 92e0 22 .cfa: $rsp 8 + .ra: .cfa -8 + ^
STACK CFI INIT 9310 1e8 .cfa: $rsp 8 + .ra: .cfa -8 + ^
STACK CFI 9312 $r14: .cfa -16 + ^ .cfa: $rsp 16 +
STACK CFI 9314 $r13: .cfa -24 + ^ .cfa: $rsp 24 +
STACK CFI 9316 $r12: .cfa -32 + ^ .cfa: $rsp 32 +
STACK CFI 931a $rbp: .cfa -40 + ^ .cfa: $rsp 40 +
STACK CFI 931b $rbx: .cfa -48 + ^ .cfa: $rsp 48 +
STACK CFI 931f .cfa: $rsp 112 +
STACK CFI 93d3 .cfa: $rsp 48 +
STACK CFI 93d6 .cfa: $rsp 40 +
STACK CFI 93d7 .cfa: $rsp 32 +
STACK CFI 93d9 .cfa: $rsp 24 +
STACK CFI 93db .cfa: $rsp 16 +
STACK CFI 93dd .cfa: $rsp 8 +
STACK CFI 93e0 .cfa: $rsp 112 +
STACK CFI INIT 92c0 5 .cfa: $rsp 8 + .ra: .cfa -8 + ^
STACK CFI INIT 9500 1e8 .cfa: $rsp 8 + .ra: .cfa -8 + ^
STACK CFI 9502 $r14: .cfa -16 + ^ .cfa: $rsp 16 +
STACK CFI 9504 $r13: .cfa -24 + ^ .cfa: $rsp 24 +
STACK CFI 9506 $r12: .cfa -32 + ^ .cfa: $rsp 32 +
STACK CFI 950a $rbp: .cfa -40 + ^ .cfa: $rsp 40 +
STACK CFI 950b $rbx: .cfa -48 + ^ .cfa: $rsp 48 +
STACK CFI 950f .cfa: $rsp 112 +
STACK CFI 95c4 .cfa: $rsp 48 +
STACK CFI 95c7 .cfa: $rsp 40 +
STACK CFI 95c8 .cfa: $rsp 32 +
STACK CFI 95ca .cfa: $rsp 24 +
STACK CFI 95cc .cfa: $rsp 16 +
STACK CFI 95ce .cfa: $rsp 8 +
STACK CFI 95d0 .cfa: $rsp 112 +
STACK CFI INIT 92d0 5 .cfa: $rsp 8 + .ra: .cfa -8 + ^
STACK CFI INIT 96f0 78 .cfa: $rsp 8 + .ra: .cfa -8 + ^
STACK CFI 96f2 $r13: .cfa -16 + ^ .cfa: $rsp 16 +
STACK CFI 96fa $r12: .cfa -24 + ^ .cfa: $rsp 24 +
STACK CFI 96ff $rbp: .cfa -32 + ^ .cfa: $rsp 32 +
STACK CFI 9703 $rbx: .cfa -40 + ^ .cfa: $rsp 40 +
STACK CFI 970b .cfa: $rsp 64 +
STACK CFI 974b .cfa: $rsp 40 +
STACK CFI 974e .cfa: $rsp 32 +
STACK CFI 974f .cfa: $rsp 24 +
STACK CFI 9751 .cfa: $rsp 16 +
STACK CFI 9753 .cfa: $rsp 8 +
STACK CFI 9758 .cfa: $rsp 64 +
STACK CFI 975f .cfa: $rsp 40 +
STACK CFI 9760 .cfa: $rsp 32 +
STACK CFI 9763 .cfa: $rsp 24 +
STACK CFI 9765 .cfa: $rsp 16 +
STACK CFI 9767 .cfa: $rsp 8 +
STACK CFI INIT 9770 56 .cfa: $rsp 8 + .ra: .cfa -8 + ^
STACK CFI 9771 $rbx: .cfa -16 + ^ .cfa: $rsp 16 +
STACK CFI 977f .cfa: $rsp 48 +
STACK CFI 97c4 .cfa: $rsp 16 +
STACK CFI 97c5 .cfa: $rsp 8 +
STACK CFI INIT 97d0 147 .cfa: $rsp 8 + .ra: .cfa -8 + ^
STACK CFI 97d2 $r14: .cfa -16 + ^ .cfa: $rsp 16 +
STACK CFI 97d4 $r13: .cfa -24 + ^ .cfa: $rsp 24 +
STACK CFI 97d6 $r12: .cfa -32 + ^ .cfa: $rsp 32 +
STACK CFI 97da $rbp: .cfa -40 + ^ .cfa: $rsp 40 +
STACK CFI 97de $rbx: .cfa -48 + ^ .cfa: $rsp 48 +
STACK CFI 97e2 .cfa: $rsp 80 +
STACK CFI 9863 .cfa: $rsp 48 +
STACK CFI 9867 .cfa: $rsp 40 +
STACK CFI 9868 .cfa: $rsp 32 +
STACK CFI 986a .cfa: $rsp 24 +
STACK CFI 986c .cfa: $rsp 16 +
STACK CFI 986e .cfa: $rsp 8 +
STACK CFI 9870 .cfa: $rsp 80 +
STACK CFI INIT 9b00 295 .cfa: $rsp 8 + .ra: .cfa -8 + ^
STACK CFI 9b0a $r12: .cfa -40 + ^ $rbx: .cfa -56 + ^
STACK CFI 9b25 $r13: .cfa -32 + ^ $r14: .cfa -24 + ^ $r15: .cfa -16 + ^ $rbp: .cfa -48 + ^ .cfa: $rsp 80 +
STACK CFI 9bd6 .cfa: $rsp 8 +
STACK CFI 9be0 .cfa: $rsp 80 +
STACK CFI INIT 9920 e3 .cfa: $rsp 8 + .ra: .cfa -8 + ^
STACK CFI 9921 $rbp: .cfa -16 + ^ .cfa: $rsp 16 +
STACK CFI 9925 $rbx: .cfa -24 + ^ .cfa: $rsp 24 +
STACK CFI 992c .cfa: $rsp 64 +
STACK CFI 99c5 .cfa: $rsp 24 +
STACK CFI 99c6 .cfa: $rsp 16 +
STACK CFI 99c7 .cfa: $rsp 8 +
STACK CFI 99d0 .cfa: $rsp 64 +
STACK CFI 99e4 .cfa: $rsp 24 +
STACK CFI 99e5 .cfa: $rsp 16 +
STACK CFI 99e6 .cfa: $rsp 8 +
STACK CFI 99f0 .cfa: $rsp 64 +
STACK CFI INIT 9a10 e3 .cfa: $rsp 8 + .ra: .cfa -8 + ^
STACK CFI 9a11 $rbp: .cfa -16 + ^ .cfa: $rsp 16 +
STACK CFI 9a15 $rbx: .cfa -24 + ^ .cfa: $rsp 24 +
STACK CFI 9a1c .cfa: $rsp 64 +
STACK CFI 9ab7 .cfa: $rsp 24 +
STACK CFI 9ab8 .cfa: $rsp 16 +
STACK CFI 9ab9 .cfa: $rsp 8 +
STACK CFI 9ac0 .cfa: $rsp 64 +
STACK CFI 9ad4 .cfa: $rsp 24 +
STACK CFI 9ad5 .cfa: $rsp 16 +
STACK CFI 9ad6 .cfa: $rsp 8 +
STACK CFI 9ae0 .cfa: $rsp 64 +
STACK CFI INIT 9ed0 16 .cfa: $rsp 8 + .ra: .cfa -8 + ^
STACK CFI 9ed4 .cfa: $rsp 16 +
STACK CFI 9edf .cfa: $rsp 8 +
STACK CFI INIT 9da0 73 .cfa: $rsp 8 + .ra: .cfa -8 + ^
STACK CFI 9da1 $rbx: .cfa -16 + ^ .cfa: $rsp 16 +
STACK CFI 9e12 .cfa: $rsp 8 +
STACK CFI INIT 9e20 ad .cfa: $rsp 8 + .ra: .cfa -8 + ^
STACK CFI 9e21 $rbx: .cfa -16 + ^ .cfa: $rsp 16 +
STACK CFI 9e25 .cfa: $rsp 32 +
STACK CFI 9eaa .cfa: $rsp 16 +
STACK CFI 9ead .cfa: $rsp 8 +
STACK CFI 9eae .cfa: $rsp 32 +
STACK CFI INIT 9ef0 1e .cfa: $rsp 8 + .ra: .cfa -8 + ^
STACK CFI INIT 9f10 33 .cfa: $rsp 8 + .ra: .cfa -8 + ^
STACK CFI INIT 9f50 56 .cfa: $rsp 8 + .ra: .cfa -8 + ^
STACK CFI INIT 9fb0 54 .cfa: $rsp 8 + .ra: .cfa -8 + ^
STACK CFI INIT a010 36 .cfa: $rsp 8 + .ra: .cfa -8 + ^
STACK CFI INIT a050 43 .cfa: $rsp 8 + .ra: .cfa -8 + ^
STACK CFI INIT a0a0 42 .cfa: $rsp 8 + .ra: .cfa -8 + ^
STACK CFI INIT a0f0 26 .cfa: $rsp 8 + .ra: .cfa -8 + ^
STACK CFI INIT a120 32 .cfa: $rsp 8 + .ra: .cfa -8 + ^
STACK CFI INIT a160 64 .cfa: $rsp 8 + .ra: .cfa -8 + ^
STACK CFI INIT a1d0 3a .cfa: $rsp 8 + .ra: .cfa -8 + ^
STACK CFI INIT a210 1e .cfa: $rsp 8 + .ra: .cfa -8 + ^
STACK CFI INIT a230 38 .cfa: $rsp 8 + .ra: .cfa -8 + ^
STACK CFI INIT a270 3e .cfa: $rsp 8 + .ra: .cfa -8 + ^
STACK CFI a271 $rbx: .cfa -16 + ^ .cfa: $rsp 16 +
STACK CFI a28d .cfa: $rsp 8 +
STACK CFI a290 .cfa: $rsp 16 +
STACK CFI a2ad .cfa: $rsp 8 +
STACK CFI INIT a2b0 4e .cfa: $rsp 8 + .ra: .cfa -8 + ^
STACK CFI INIT a300 1aa .cfa: $rsp 8 + .ra: .cfa -8 + ^
STACK CFI a302 $r14: .cfa -16 + ^ .cfa: $rsp 16 +
STACK CFI a311 $r13: .cfa -24 + ^ .cfa: $rsp 24 +
STACK CFI a319 $r12: .cfa -32 + ^ .cfa: $rsp 32 +
STACK CFI a31f $rbp: .cfa -40 + ^ .cfa: $rsp 40 +
STACK CFI a320 $rbx: .cfa -48 + ^ .cfa: $rsp 48 +
STACK CFI a327 .cfa: $rsp 208 +
STACK CFI a443 .cfa: $rsp 48 +
STACK CFI a449 .cfa: $rsp 40 +
STACK CFI a44a .cfa: $rsp 32 +
STACK CFI a44c .cfa: $rsp 24 +
STACK CFI a44e .cfa: $rsp 16 +
STACK CFI a450 .cfa: $rsp 8 +
STACK CFI a458 .cfa: $rsp 208 +
STACK CFI a49f .cfa: $rsp 48 +
STACK CFI a4a2 .cfa: $rsp 40 +
STACK CFI a4a3 .cfa: $rsp 32 +
STACK CFI a4a5 .cfa: $rsp 24 +
STACK CFI a4a7 .cfa: $rsp 16 +
STACK CFI a4a9 .cfa: $rsp 8 +
STACK CFI INIT a4b0 1c .cfa: $rsp 8 + .ra: .cfa -8 + ^
STACK CFI a4b3 $rbx: .cfa -16 + ^ .cfa: $rsp 16 +
STACK CFI a4c4 .cfa: $rsp 8 +
STACK CFI a4c8 .cfa: $rsp 16 +
STACK CFI a4cb .cfa: $rsp 8 +
STACK CFI INIT 1f18 20 .cfa: $rsp 8 + .ra: .cfa -8 + ^
STACK CFI 1f20 .cfa: $rsp 16 +
STACK CFI INIT a4d0 67 .cfa: $rsp 8 + .ra: .cfa -8 + ^
STACK CFI a4d2 $r13: .cfa -16 + ^ .cfa: $rsp 16 +
STACK CFI a4d8 $r12: .cfa -24 + ^ .cfa: $rsp 24 +
STACK CFI a4df $rbp: .cfa -32 + ^ .cfa: $rsp 32 +
STACK CFI a4e0 $rbx: .cfa -40 + ^ .cfa: $rsp 40 +
STACK CFI a4e4 .cfa: $rsp 48 +
STACK CFI a530 .cfa: $rsp 40 +
STACK CFI a531 .cfa: $rsp 32 +
STACK CFI a532 .cfa: $rsp 24 +
STACK CFI a534 .cfa: $rsp 16 +
STACK CFI a536 .cfa: $rsp 8 +
STACK CFI INIT a540 12 .cfa: $rsp 8 + .ra: .cfa -8 + ^
STACK CFI a541 $rbx: .cfa -16 + ^ .cfa: $rsp 16 +
STACK CFI a54d .cfa: $rsp 8 +
STACK CFI INIT a560 105 .cfa: $rsp 8 + .ra: .cfa -8 + ^
STACK CFI a562 $r12: .cfa -16 + ^ .cfa: $rsp 16 +
STACK CFI a56d $rbp: .cfa -24 + ^ .cfa: $rsp 24 +
STACK CFI a56e $rbx: .cfa -32 + ^ .cfa: $rsp 32 +
STACK CFI a575 .cfa: $rsp 320 +
STACK CFI a593 .cfa: $rsp 32 +
STACK CFI a596 .cfa: $rsp 24 +
STACK CFI a597 .cfa: $rsp 16 +
STACK CFI a599 .cfa: $rsp 8 +
STACK CFI a5a0 .cfa: $rsp 320 +
STACK CFI a618 .cfa: $rsp 32 +
STACK CFI a61b .cfa: $rsp 24 +
STACK CFI a61c .cfa: $rsp 16 +
STACK CFI a61e .cfa: $rsp 8 +
STACK CFI a620 .cfa: $rsp 320 +
STACK CFI INIT a670 32 .cfa: $rsp 8 + .ra: .cfa -8 + ^
STACK CFI a671 $rbx: .cfa -16 + ^ .cfa: $rsp 16 +
STACK CFI a680 .cfa: $rsp 8 +
STACK CFI a688 .cfa: $rsp 16 +
STACK CFI a69c .cfa: $rsp 8 +
STACK CFI INIT a6b0 4c .cfa: $rsp 8 + .ra: .cfa -8 + ^
STACK CFI INIT a700 94 .cfa: $rsp 8 + .ra: .cfa -8 + ^
STACK CFI a70a $rbp: .cfa -40 + ^ $rbx: .cfa -48 + ^
STACK CFI a717 $r12: .cfa -32 + ^ $r13: .cfa -24 + ^
STACK CFI a723 $r14: .cfa -16 + ^ .cfa: $rsp 48 +
STACK CFI a78c .cfa: $rsp 8 +
STACK CFI a790 .cfa: $rsp 48 +
STACK CFI INIT a7a0 1fd .cfa: $rsp 8 + .ra: .cfa -8 + ^
STACK CFI a7aa $rbp: .cfa -32 + ^ $rbx: .cfa -40 + ^
STACK CFI a7c1 $r12: .cfa -24 + ^ $r13: .cfa -16 + ^ .cfa: $rsp 848 +
STACK CFI a7f8 .cfa: $rsp 8 +
STACK CFI a800 .cfa: $rsp 848 +
STACK CFI INIT a9a0 35d .cfa: $rsp 8 + .ra: .cfa -8 + ^
STACK CFI a9aa $rbp: .cfa -48 + ^ $rbx: .cfa -56 + ^
STACK CFI a9cb $r12: .cfa -40 + ^ $r13: .cfa -32 + ^ $r14: .cfa -24 + ^ $r15: .cfa -16 + ^ .cfa: $rsp 368 +
STACK CFI aa56 .cfa: $rsp 8 +
STACK CFI aa60 .cfa: $rsp 368 +
STACK CFI INIT b670 221 .cfa: $rsp 8 + .ra: .cfa -8 + ^
STACK CFI b68e $r12: .cfa -40 + ^ $r13: .cfa -32 + ^ $rbp: .cfa -48 + ^ $rbx: .cfa -56 + ^
STACK CFI b69f $r14: .cfa -24 + ^ $r15: .cfa -16 + ^ .cfa: $rsp 128 +
STACK CFI b6e1 .cfa: $rsp 8 +
STACK CFI b6e8 .cfa: $rsp 128 +
STACK CFI INIT b8a0 229 .cfa: $rsp 8 + .ra: .cfa -8 + ^
STACK CFI b8be $r12: .cfa -40 + ^ $r13: .cfa -32 + ^ $rbp: .cfa -48 + ^ $rbx: .cfa -56 + ^
STACK CFI b8cf $r14: .cfa -24 + ^ $r15: .cfa -16 + ^ .cfa: $rsp 128 +
STACK CFI b911 .cfa: $rsp 8 +
STACK CFI b918 .cfa: $rsp 128 +
STACK CFI INIT bad0 229 .cfa: $rsp 8 + .ra: .cfa -8 + ^
STACK CFI baee $r12: .cfa -40 + ^ $r13: .cfa -32 + ^ $rbp: .cfa -48 + ^ $rbx: .cfa -56 + ^
STACK CFI baff $r14: .cfa -24 + ^ $r15: .cfa -16 + ^ .cfa: $rsp 128 +
STACK CFI bb41 .cfa: $rsp 8 +
STACK CFI bb48 .cfa: $rsp 128 +
STACK CFI INIT bd00 320 .cfa: $rsp 8 + .ra: .cfa -8 + ^
STACK CFI bd0a $rbp: .cfa -48 + ^ $rbx: .cfa -56 + ^
STACK CFI bd28 $r12: .cfa -40 + ^ $r13: .cfa -32 + ^ $r14: .cfa -24 + ^ $r15: .cfa -16 + ^ .cfa: $rsp 128 +
STACK CFI bd95 .cfa: $rsp 8 +
STACK CFI bda0 .cfa: $rsp 128 +
STACK CFI INIT c020 460 .cfa: $rsp 8 + .ra: .cfa -8 + ^
STACK CFI c022 $r15: .cfa -16 + ^ .cfa: $rsp 16 +
STACK CFI c024 $r14: .cfa -24 + ^ .cfa: $rsp 24 +
STACK CFI c026 $r13: .cfa -32 + ^ .cfa: $rsp 32 +
STACK CFI c028 $r12: .cfa -40 + ^ .cfa: $rsp 40 +
STACK CFI c029 $rbp: .cfa -48 + ^ .cfa: $rsp 48 +
STACK CFI c02d $rbx: .cfa -56 + ^ .cfa: $rsp 56 +
STACK CFI c031 .cfa: $rsp 128 +
STACK CFI c0d8 .cfa: $rsp 56 +
STACK CFI c0d9 .cfa: $rsp 48 +
STACK CFI c0da .cfa: $rsp 40 +
STACK CFI c0dc .cfa: $rsp 32 +
STACK CFI c0de .cfa: $rsp 24 +
STACK CFI c0e0 .cfa: $rsp 16 +
STACK CFI c0e2 .cfa: $rsp 8 +
STACK CFI c0e8 .cfa: $rsp 128 +
STACK CFI c168 .cfa: $rsp 56 +
STACK CFI c169 .cfa: $rsp 48 +
STACK CFI c16a .cfa: $rsp 40 +
STACK CFI c16c .cfa: $rsp 32 +
STACK CFI c16e .cfa: $rsp 24 +
STACK CFI c170 .cfa: $rsp 16 +
STACK CFI c172 .cfa: $rsp 8 +
STACK CFI c178 .cfa: $rsp 128 +
STACK CFI c368 .cfa: $rsp 56 +
STACK CFI c369 .cfa: $rsp 48 +
STACK CFI c36a .cfa: $rsp 40 +
STACK CFI c36c .cfa: $rsp 32 +
STACK CFI c36e .cfa: $rsp 24 +
STACK CFI c370 .cfa: $rsp 16 +
STACK CFI c372 .cfa: $rsp 8 +
STACK CFI c378 .cfa: $rsp 128 +
STACK CFI INIT ad00 1a9 .cfa: $rsp 8 + .ra: .cfa -8 + ^
STACK CFI ad0a $rbp: .cfa -40 + ^ $rbx: .cfa -48 + ^
STACK CFI ad24 $r12: .cfa -32 + ^ $r13: .cfa -24 + ^ $r14: .cfa -16 + ^ .cfa: $rsp 64 +
STACK CFI ae4e .cfa: $rsp 8 +
STACK CFI ae50 .cfa: $rsp 64 +
STACK CFI INIT c480 43f .cfa: $rsp 8 + .ra: .cfa -8 + ^
STACK CFI c482 $r15: .cfa -16 + ^ .cfa: $rsp 16 +
STACK CFI c484 $r14: .cfa -24 + ^ .cfa: $rsp 24 +
STACK CFI c486 $r13: .cfa -32 + ^ .cfa: $rsp 32 +
STACK CFI c488 $r12: .cfa -40 + ^ .cfa: $rsp 40 +
STACK CFI c48c $rbp: .cfa -48 + ^ .cfa: $rsp 48 +
STACK CFI c48d $rbx: .cfa -56 + ^ .cfa: $rsp 56 +
STACK CFI c491 .cfa: $rsp 128 +
STACK CFI c550 .cfa: $rsp 56 +
STACK CFI c551 .cfa: $rsp 48 +
STACK CFI c552 .cfa: $rsp 40 +
STACK CFI c554 .cfa: $rsp 32 +
STACK CFI c556 .cfa: $rsp 24 +
STACK CFI c558 .cfa: $rsp 16 +
STACK CFI c55a .cfa: $rsp 8 +
STACK CFI c560 .cfa: $rsp 128 +
STACK CFI c5d0 .cfa: $rsp 56 +
STACK CFI c5d1 .cfa: $rsp 48 +
STACK CFI c5d2 .cfa: $rsp 40 +
STACK CFI c5d4 .cfa: $rsp 32 +
STACK CFI c5d6 .cfa: $rsp 24 +
STACK CFI c5d8 .cfa: $rsp 16 +
STACK CFI c5da .cfa: $rsp 8 +
STACK CFI c5e0 .cfa: $rsp 128 +
STACK CFI c79d .cfa: $rsp 56 +
STACK CFI c79e .cfa: $rsp 48 +
STACK CFI c79f .cfa: $rsp 40 +
STACK CFI c7a1 .cfa: $rsp 32 +
STACK CFI c7a3 .cfa: $rsp 24 +
STACK CFI c7a5 .cfa: $rsp 16 +
STACK CFI c7a7 .cfa: $rsp 8 +
STACK CFI c7b0 .cfa: $rsp 128 +
STACK CFI INIT aeb0 7b2 .cfa: $rsp 8 + .ra: .cfa -8 + ^
STACK CFI aeb2 $r15: .cfa -16 + ^ .cfa: $rsp 16 +
STACK CFI aebe $r14: .cfa -24 + ^ .cfa: $rsp 24 +
STACK CFI aec0 $r13: .cfa -32 + ^ .cfa: $rsp 32 +
STACK CFI aec2 $r12: .cfa -40 + ^ .cfa: $rsp 40 +
STACK CFI aec3 $rbp: .cfa -48 + ^ .cfa: $rsp 48 +
STACK CFI aec4 $rbx: .cfa -56 + ^ .cfa: $rsp 56 +
STACK CFI aecb .cfa: $rsp 464 +
STACK CFI aeec .cfa: $rsp 56 +
STACK CFI aeed .cfa: $rsp 48 +
STACK CFI aeee .cfa: $rsp 40 +
STACK CFI aef0 .cfa: $rsp 32 +
STACK CFI aef2 .cfa: $rsp 24 +
STACK CFI aef4 .cfa: $rsp 16 +
STACK CFI aef6 .cfa: $rsp 8 +
STACK CFI aef7 .cfa: $rsp 464 +
STACK CFI INIT c8c0 3 .cfa: $rsp 8 + .ra: .cfa -8 + ^
STACK CFI INIT d5a0 13 .cfa: $rsp 8 + .ra: .cfa -8 + ^
STACK CFI INIT c8d0 d8 .cfa: $rsp 8 + .ra: .cfa -8 + ^
STACK CFI c8e6 $r12: .cfa -40 + ^ $r13: .cfa -32 + ^ $rbp: .cfa -48 + ^ $rbx: .cfa -56 + ^
STACK CFI c8f7 $r14: .cfa -24 + ^ $r15: .cfa -16 + ^ .cfa: $rsp 64 +
STACK CFI c940 .cfa: $rsp 8 +
STACK CFI c948 .cfa: $rsp 64 +
STACK CFI INIT c9b0 ac .cfa: $rsp 8 + .ra: .cfa -8 + ^
STACK CFI c9b2 $r15: .cfa -16 + ^ .cfa: $rsp 16 +
STACK CFI c9b7 $r14: .cfa -24 + ^ .cfa: $rsp 24 +
STACK CFI c9b9 $r13: .cfa -32 + ^ .cfa: $rsp 32 +
STACK CFI c9bb $r12: .cfa -40 + ^ .cfa: $rsp 40 +
STACK CFI c9bc $rbp: .cfa -48 + ^ .cfa: $rsp 48 +
STACK CFI c9bd $rbx: .cfa -56 + ^ .cfa: $rsp 56 +
STACK CFI c9c1 .cfa: $rsp 96 +
STACK CFI ca34 .cfa: $rsp 56 +
STACK CFI ca35 .cfa: $rsp 48 +
STACK CFI ca36 .cfa: $rsp 40 +
STACK CFI ca38 .cfa: $rsp 32 +
STACK CFI ca3a .cfa: $rsp 24 +
STACK CFI ca3c .cfa: $rsp 16 +
STACK CFI ca3e .cfa: $rsp 8 +
STACK CFI ca40 .cfa: $rsp 96 +
STACK CFI INIT ca60 c2 .cfa: $rsp 8 + .ra: .cfa -8 + ^
STACK CFI ca62 $r13: .cfa -16 + ^ .cfa: $rsp 16 +
STACK CFI ca67 $r12: .cfa -24 + ^ .cfa: $rsp 24 +
STACK CFI ca68 $rbp: .cfa -32 + ^ .cfa: $rsp 32 +
STACK CFI ca6c $rbx: .cfa -40 + ^ .cfa: $rsp 40 +
STACK CFI ca70 .cfa: $rsp 64 +
STACK CFI caef .cfa: $rsp 40 +
STACK CFI caf3 .cfa: $rsp 32 +
STACK CFI caf4 .cfa: $rsp 24 +
STACK CFI caf6 .cfa: $rsp 16 +
STACK CFI caf8 .cfa: $rsp 8 +
STACK CFI cb00 .cfa: $rsp 64 +
STACK CFI INIT d5c0 20 .cfa: $rsp 8 + .ra: .cfa -8 + ^
STACK CFI d5c8 $rbx: .cfa -16 + ^ .cfa: $rsp 16 +
STACK CFI d5db .cfa: $rsp 8 +
STACK CFI INIT cb30 49f .cfa: $rsp 8 + .ra: .cfa -8 + ^
STACK CFI cb32 $r15: .cfa -16 + ^ .cfa: $rsp 16 +
STACK CFI cb34 $r14: .cfa -24 + ^ .cfa: $rsp 24 +
STACK CFI cb36 $r13: .cfa -32 + ^ .cfa: $rsp 32 +
STACK CFI cb38 $r12: .cfa -40 + ^ .cfa: $rsp 40 +
STACK CFI cb3c $rbp: .cfa -48 + ^ .cfa: $rsp 48 +
STACK CFI cb3d $rbx: .cfa -56 + ^ .cfa: $rsp 56 +
STACK CFI cb47 .cfa: $rsp 336 +
STACK CFI cb8f .cfa: $rsp 56 +
STACK CFI cb90 .cfa: $rsp 48 +
STACK CFI cb91 .cfa: $rsp 40 +
STACK CFI cb93 .cfa: $rsp 32 +
STACK CFI cb95 .cfa: $rsp 24 +
STACK CFI cb97 .cfa: $rsp 16 +
STACK CFI cb99 .cfa: $rsp 8 +
STACK CFI cb9a .cfa: $rsp 336 +
STACK CFI INIT cfd0 20 .cfa: $rsp 8 + .ra: .cfa -8 + ^
STACK CFI cfd1 $rbx: .cfa -16 + ^ .cfa: $rsp 16 +
STACK CFI cfef .cfa: $rsp 8 +
STACK CFI INIT d5e0 306 .cfa: $rsp 8 + .ra: .cfa -8 + ^
STACK CFI d5e5 $rbx: .cfa -56 + ^
STACK CFI d5f7 $r12: .cfa -40 + ^ $r14: .cfa -24 + ^ $rbp: .cfa -48 + ^
STACK CFI d608 $r13: .cfa -32 + ^ $r15: .cfa -16 + ^ .cfa: $rsp 128 +
STACK CFI d66e .cfa: $rsp 8 +
STACK CFI d670 .cfa: $rsp 128 +
STACK CFI INIT cff0 36d .cfa: $rsp 8 + .ra: .cfa -8 + ^
STACK CFI cffa $rbp: .cfa -48 + ^ $rbx: .cfa -56 + ^
STACK CFI d01f $r12: .cfa -40 + ^ $r13: .cfa -32 + ^ $r14: .cfa -24 + ^ $r15: .cfa -16 + ^ .cfa: $rsp 352 +
STACK CFI d06d .cfa: $rsp 8 +
STACK CFI d070 .cfa: $rsp 352 +
STACK CFI INIT d8f0 458 .cfa: $rsp 8 + .ra: .cfa -8 + ^
STACK CFI d8f2 $r15: .cfa -16 + ^ .cfa: $rsp 16 +
STACK CFI d8f4 $r14: .cfa -24 + ^ .cfa: $rsp 24 +
STACK CFI d8f6 $r13: .cfa -32 + ^ .cfa: $rsp 32 +
STACK CFI d8f8 $r12: .cfa -40 + ^ .cfa: $rsp 40 +
STACK CFI d8f9 $rbp: .cfa -48 + ^ .cfa: $rsp 48 +
STACK CFI d8fd $rbx: .cfa -56 + ^ .cfa: $rsp 56 +
STACK CFI d901 .cfa: $rsp 128 +
STACK CFI d9a8 .cfa: $rsp 56 +
STACK CFI d9a9 .cfa: $rsp 48 +
STACK CFI d9aa .cfa: $rsp 40 +
STACK CFI d9ac .cfa: $rsp 32 +
STACK CFI d9ae .cfa: $rsp 24 +
STACK CFI d9b0 .cfa: $rsp 16 +
STACK CFI d9b2 .cfa: $rsp 8 +
STACK CFI d9b8 .cfa: $rsp 128 +
STACK CFI da30 .cfa: $rsp 56 +
STACK CFI da31 .cfa: $rsp 48 +
STACK CFI da32 .cfa: $rsp 40 +
STACK CFI da34 .cfa: $rsp 32 +
STACK CFI da36 .cfa: $rsp 24 +
STACK CFI da38 .cfa: $rsp 16 +
STACK CFI da3a .cfa: $rsp 8 +
STACK CFI da40 .cfa: $rsp 128 +
STACK CFI dc2e .cfa: $rsp 56 +
STACK CFI dc2f .cfa: $rsp 48 +
STACK CFI dc30 .cfa: $rsp 40 +
STACK CFI dc32 .cfa: $rsp 32 +
STACK CFI dc34 .cfa: $rsp 24 +
STACK CFI dc36 .cfa: $rsp 16 +
STACK CFI dc38 .cfa: $rsp 8 +
STACK CFI dc40 .cfa: $rsp 128 +
STACK CFI INIT d360 235 .cfa: $rsp 8 + .ra: .cfa -8 + ^
STACK CFI d362 $r15: .cfa -16 + ^ .cfa: $rsp 16 +
STACK CFI d369 $r14: .cfa -24 + ^ .cfa: $rsp 24 +
STACK CFI d36b $r13: .cfa -32 + ^ .cfa: $rsp 32 +
STACK CFI d36d $r12: .cfa -40 + ^ .cfa: $rsp 40 +
STACK CFI d371 $rbp: .cfa -48 + ^ .cfa: $rsp 48 +
STACK CFI d372 $rbx: .cfa -56 + ^ .cfa: $rsp 56 +
STACK CFI d379 .cfa: $rsp 320 +
STACK CFI d4f4 .cfa: $rsp 56 +
STACK CFI d4f5 .cfa: $rsp 48 +
STACK CFI d4f6 .cfa: $rsp 40 +
STACK CFI d4f8 .cfa: $rsp 32 +
STACK CFI d4fa .cfa: $rsp 24 +
STACK CFI d4fc .cfa: $rsp 16 +
STACK CFI d4fe .cfa: $rsp 8 +
STACK CFI d500 .cfa: $rsp 320 +
STACK CFI INIT dd50 e3 .cfa: $rsp 8 + .ra: .cfa -8 + ^
STACK CFI INIT de40 fe .cfa: $rsp 8 + .ra: .cfa -8 + ^
STACK CFI de44 $rbp: .cfa -16 + ^ .cfa: $rsp 16 +
STACK CFI de48 $rbx: .cfa -24 + ^ .cfa: $rsp 24 +
STACK CFI dec7 .cfa: $rsp 16 +
STACK CFI dec8 .cfa: $rsp 8 +
STACK CFI ded0 .cfa: $rsp 24 +
STACK CFI df2b .cfa: $rsp 16 +
STACK CFI df2c .cfa: $rsp 8 +
STACK CFI df2d .cfa: $rsp 24 +
STACK CFI INIT df40 e6 .cfa: $rsp 8 + .ra: .cfa -8 + ^
STACK CFI df51 $r12: .cfa -16 + ^ .cfa: $rsp 16 +
STACK CFI df52 $rbp: .cfa -24 + ^ .cfa: $rsp 24 +
STACK CFI df53 $rbx: .cfa -32 + ^ .cfa: $rsp 32 +
STACK CFI dfc8 $rbx: $rbx .cfa: $rsp 24 +
STACK CFI dfc9 $rbp: $rbp .cfa: $rsp 16 +
STACK CFI dfd6 $r12: $r12 .cfa: $rsp 8 +
STACK CFI dfe0 $r12: .cfa -16 + ^ $rbp: .cfa -24 + ^ $rbx: .cfa -32 + ^ .cfa: $rsp 32 +
STACK CFI dfeb $rbx: $rbx .cfa: $rsp 24 +
STACK CFI dfec $rbp: $rbp .cfa: $rsp 16 +
STACK CFI dff9 $r12: $r12 .cfa: $rsp 8 +
STACK CFI e000 $r12: .cfa -16 + ^ $rbp: .cfa -24 + ^ $rbx: .cfa -32 + ^ .cfa: $rsp 32 +
STACK CFI e001 $rbx: $rbx .cfa: $rsp 24 +
STACK CFI e002 $rbp: $rbp .cfa: $rsp 16 +
STACK CFI e00c $r12: $r12 .cfa: $rsp 8 +
STACK CFI e00d $r12: .cfa -16 + ^ $rbp: .cfa -24 + ^ $rbx: .cfa -32 + ^ .cfa: $rsp 32 +
STACK CFI e00e $rbx: $rbx .cfa: $rsp 24 +
STACK CFI e00f $rbp: $rbp .cfa: $rsp 16 +
STACK CFI e01c $r12: $r12 .cfa: $rsp 8 +
STACK CFI INIT e030 216 .cfa: $rsp 8 + .ra: .cfa -8 + ^
STACK CFI e032 $r13: .cfa -16 + ^ .cfa: $rsp 16 +
STACK CFI e037 $r12: .cfa -24 + ^ .cfa: $rsp 24 +
STACK CFI e03b $rbp: .cfa -32 + ^ .cfa: $rsp 32 +
STACK CFI e03f $rbx: .cfa -40 + ^ .cfa: $rsp 40 +
STACK CFI e0d6 .cfa: $rsp 32 +
STACK CFI e0e2 .cfa: $rsp 24 +
STACK CFI e0e4 .cfa: $rsp 16 +
STACK CFI e0e6 .cfa: $rsp 8 +
STACK CFI e0f0 .cfa: $rsp 40 +
STACK CFI e1db .cfa: $rsp 32 +
STACK CFI e1e4 .cfa: $rsp 24 +
STACK CFI e1e6 .cfa: $rsp 16 +
STACK CFI e1e8 .cfa: $rsp 8 +
STACK CFI e1f0 .cfa: $rsp 40 +
STACK CFI e1fb .cfa: $rsp 32 +
STACK CFI e207 .cfa: $rsp 24 +
STACK CFI e209 .cfa: $rsp 16 +
STACK CFI e20b .cfa: $rsp 8 +
STACK CFI e20c .cfa: $rsp 40 +
STACK CFI e214 .cfa: $rsp 32 +
STACK CFI e223 .cfa: $rsp 24 +
STACK CFI e225 .cfa: $rsp 16 +
STACK CFI e227 .cfa: $rsp 8 +
STACK CFI e228 .cfa: $rsp 40 +
STACK CFI INIT e250 2b .cfa: $rsp 8 + .ra: .cfa -8 + ^
STACK CFI INIT e280 265 .cfa: $rsp 8 + .ra: .cfa -8 + ^
STACK CFI e282 $r15: .cfa -16 + ^ .cfa: $rsp 16 +
STACK CFI e284 $r14: .cfa -24 + ^ .cfa: $rsp 24 +
STACK CFI e286 $r13: .cfa -32 + ^ .cfa: $rsp 32 +
STACK CFI e288 $r12: .cfa -40 + ^ .cfa: $rsp 40 +
STACK CFI e289 $rbp: .cfa -48 + ^ .cfa: $rsp 48 +
STACK CFI e28a $rbx: .cfa -56 + ^ .cfa: $rsp 56 +
STACK CFI e28e .cfa: $rsp 96 +
STACK CFI e3e3 .cfa: $rsp 56 +
STACK CFI e3e4 .cfa: $rsp 48 +
STACK CFI e3e5 .cfa: $rsp 40 +
STACK CFI e3e7 .cfa: $rsp 32 +
STACK CFI e3e9 .cfa: $rsp 24 +
STACK CFI e3eb .cfa: $rsp 16 +
STACK CFI e3ed .cfa: $rsp 8 +
STACK CFI e3f0 .cfa: $rsp 96 +
STACK CFI INIT e4f0 1c0 .cfa: $rsp 8 + .ra: .cfa -8 + ^
STACK CFI e4f2 $r14: .cfa -16 + ^ .cfa: $rsp 16 +
STACK CFI e4f9 $r13: .cfa -24 + ^ .cfa: $rsp 24 +
STACK CFI e4fe $r12: .cfa -32 + ^ .cfa: $rsp 32 +
STACK CFI e4ff $rbp: .cfa -40 + ^ .cfa: $rsp 40 +
STACK CFI e503 $rbx: .cfa -48 + ^ .cfa: $rsp 48 +
STACK CFI e638 .cfa: $rsp 40 +
STACK CFI e63f .cfa: $rsp 32 +
STACK CFI e641 .cfa: $rsp 24 +
STACK CFI e643 .cfa: $rsp 16 +
STACK CFI e645 .cfa: $rsp 8 +
STACK CFI e650 .cfa: $rsp 48 +
STACK CFI e661 .cfa: $rsp 40 +
STACK CFI e66d .cfa: $rsp 32 +
STACK CFI e66f .cfa: $rsp 24 +
STACK CFI e671 .cfa: $rsp 16 +
STACK CFI e673 .cfa: $rsp 8 +
STACK CFI e674 .cfa: $rsp 48 +
STACK CFI e67c .cfa: $rsp 40 +
STACK CFI e68b .cfa: $rsp 32 +
STACK CFI e68d .cfa: $rsp 24 +
STACK CFI e68f .cfa: $rsp 16 +
STACK CFI e691 .cfa: $rsp 8 +
STACK CFI e692 .cfa: $rsp 48 +
STACK CFI INIT e6b0 29f .cfa: $rsp 8 + .ra: .cfa -8 + ^
STACK CFI e6b2 $r15: .cfa -16 + ^ .cfa: $rsp 16 +
STACK CFI e6b4 $r14: .cfa -24 + ^ .cfa: $rsp 24 +
STACK CFI e6b6 $r13: .cfa -32 + ^ .cfa: $rsp 32 +
STACK CFI e6b8 $r12: .cfa -40 + ^ .cfa: $rsp 40 +
STACK CFI e6b9 $rbp: .cfa -48 + ^ .cfa: $rsp 48 +
STACK CFI e6ba $rbx: .cfa -56 + ^ .cfa: $rsp 56 +
STACK CFI e6be .cfa: $rsp 104 +
STACK CFI e85e .cfa: $rsp 56 +
STACK CFI e85f .cfa: $rsp 48 +
STACK CFI e860 .cfa: $rsp 40 +
STACK CFI e862 .cfa: $rsp 32 +
STACK CFI e864 .cfa: $rsp 24 +
STACK CFI e866 .cfa: $rsp 16 +
STACK CFI e868 .cfa: $rsp 8 +
STACK CFI e870 .cfa: $rsp 104 +
STACK CFI INIT e950 a .cfa: $rsp 8 + .ra: .cfa -8 + ^
STACK CFI INIT e960 1ee .cfa: $rsp 8 + .ra: .cfa -8 + ^
STACK CFI e962 $r12: .cfa -16 + ^ .cfa: $rsp 16 +
STACK CFI e966 $rbp: .cfa -24 + ^ .cfa: $rsp 24 +
STACK CFI e967 $rbx: .cfa -32 + ^ .cfa: $rsp 32 +
STACK CFI e973 .cfa: $rsp 48 +
STACK CFI ea4b .cfa: $rsp 32 +
STACK CFI ea4c .cfa: $rsp 24 +
STACK CFI ea4d .cfa: $rsp 16 +
STACK CFI ea4f .cfa: $rsp 8 +
STACK CFI ea50 .cfa: $rsp 48 +
STACK CFI INIT eb50 59 .cfa: $rsp 8 + .ra: .cfa -8 + ^
STACK CFI eb51 $rbx: .cfa -16 + ^ .cfa: $rsp 16 +
STACK CFI eb5b .cfa: $rsp 48 +
STACK CFI eb8e .cfa: $rsp 16 +
STACK CFI eb8f .cfa: $rsp 8 +
STACK CFI eb90 .cfa: $rsp 48 +
STACK CFI INIT ebb0 e5 .cfa: $rsp 8 + .ra: .cfa -8 + ^
STACK CFI ebb1 $rbp: .cfa -16 + ^ .cfa: $rsp 16 +
STACK CFI ebb2 $rbx: .cfa -24 + ^ .cfa: $rsp 24 +
STACK CFI ec7c .cfa: $rsp 16 +
STACK CFI ec81 .cfa: $rsp 8 +
STACK CFI ec82 .cfa: $rsp 24 +
STACK CFI ec8f .cfa: $rsp 16 +
STACK CFI ec94 .cfa: $rsp 8 +
STACK CFI INIT eca0 10 .cfa: $rsp 8 + .ra: .cfa -8 + ^
STACK CFI INIT ecb0 56 .cfa: $rsp 8 + .ra: .cfa -8 + ^
STACK CFI ecba $rbp: .cfa -16 + ^ $rbx: .cfa -24 + ^
STACK CFI ecc1 .cfa: $rsp 32 +
STACK CFI ed05 .cfa: $rsp 8 +
STACK CFI INIT ed10 193 .cfa: $rsp 8 + .ra: .cfa -8 + ^
STACK CFI ed1a $rbp: .cfa -32 + ^ $rbx: .cfa -40 + ^
STACK CFI ed26 $r12: .cfa -24 + ^ $r13: .cfa -16 + ^
STACK CFI ed30 .cfa: $rsp 192 +
STACK CFI ed85 .cfa: $rsp 8 +
STACK CFI ed90 .cfa: $rsp 192 +
STACK CFI INIT eeb0 14 .cfa: $rsp 8 + .ra: .cfa -8 + ^
STACK CFI INIT eed0 5 .cfa: $rsp 8 + .ra: .cfa -8 + ^
STACK CFI INIT eee0 3a .cfa: $rsp 8 + .ra: .cfa -8 + ^
STACK CFI eee1 $rbx: .cfa -16 + ^ .cfa: $rsp 16 +
STACK CFI eeff .cfa: $rsp 8 +
STACK CFI ef00 .cfa: $rsp 16 +
STACK CFI ef15 .cfa: $rsp 8 +
STACK CFI ef16 .cfa: $rsp 16 +
STACK CFI ef19 .cfa: $rsp 8 +
STACK CFI INIT ef20 1f .cfa: $rsp 8 + .ra: .cfa -8 + ^
STACK CFI ef2b .cfa: $rsp 16 +
STACK CFI ef3e .cfa: $rsp 8 +
STACK CFI INIT ef40 5 .cfa: $rsp 8 + .ra: .cfa -8 + ^
STACK CFI INIT ef50 466 .cfa: $rsp 8 + .ra: .cfa -8 + ^
STACK CFI ef5a $rbp: .cfa -48 + ^ $rbx: .cfa -56 + ^
STACK CFI ef75 $r12: .cfa -40 + ^ $r13: .cfa -32 + ^ $r14: .cfa -24 + ^ $r15: .cfa -16 + ^ .cfa: $rsp 112 +
STACK CFI efdc .cfa: $rsp 8 +
STACK CFI efe0 .cfa: $rsp 112 +
STACK CFI INIT f3c0 29c .cfa: $rsp 8 + .ra: .cfa -8 + ^
STACK CFI f3ca $rbp: .cfa -40 + ^ $rbx: .cfa -48 + ^
STACK CFI f3e0 $r12: .cfa -32 + ^ $r13: .cfa -24 + ^ $r14: .cfa -16 + ^ .cfa: $rsp 48 +
STACK CFI f43b .cfa: $rsp 8 +
STACK CFI f440 .cfa: $rsp 48 +
STACK CFI INIT f660 2 .cfa: $rsp 8 + .ra: .cfa -8 + ^
STACK CFI INIT f670 89 .cfa: $rsp 8 + .ra: .cfa -8 + ^
STACK CFI f681 $r12: .cfa -40 + ^ $rbp: .cfa -48 + ^
STACK CFI f6a0 .cfa: $rsp 64 +
STACK CFI f6a6 $r13: .cfa -32 + ^ $r14: .cfa -24 + ^ $r15: .cfa -16 + ^ $rbx: .cfa -56 + ^
